

Microchip MPLAB XC8 Assembler V2.32 build 20210201212658 
                                                                                               Sun Jul 02 19:43:00 2023

Microchip MPLAB XC8 C Compiler v2.32 (Free license) build 20210201212658 Og1 
     1                           	processor	18F57Q43
     2                           	fnconf	rparam,??,?,0
     3                           	pagewidth 120
     4                           	opt	flic
     5                           	psect	idataBANK5,global,class=CODE,delta=1,noexec
     6                           	psect	smallconst,global,reloc=2,class=SMALLCONST,delta=1,noexec
     7                           	psect	cinit,global,reloc=2,class=CODE,delta=1
     8                           	psect	bssCOMRAM,global,class=COMRAM,space=1,delta=1,lowdata,noexec
     9                           	psect	bssBANK5,global,class=BANK5,space=1,delta=1,lowdata,noexec
    10                           	psect	dataBANK5,global,class=BANK5,space=1,delta=1,lowdata,noexec
    11                           	psect	bssBANK6,global,class=BANK6,space=1,delta=1,lowdata,noexec
    12                           	psect	cstackBANK6,global,class=BANK6,space=1,delta=1,lowdata,noexec
    13                           	psect	cstackBANK5,global,class=BANK5,space=1,delta=1,lowdata,noexec
    14                           	psect	cstackCOMRAM,global,class=COMRAM,space=1,delta=1,lowdata,noexec
    15                           	psect	text0,global,reloc=2,class=CODE,delta=1
    16                           	psect	text1,global,reloc=2,class=CODE,delta=1,group=3
    17                           	psect	text2,global,reloc=2,class=CODE,delta=1,group=1
    18                           	psect	text3,global,reloc=2,class=CODE,delta=1,group=1
    19                           	psect	text4,global,reloc=2,class=CODE,delta=1,group=1
    20                           	psect	text5,global,reloc=2,class=CODE,delta=1,group=2
    21                           	psect	text6,global,reloc=2,class=CODE,delta=1,group=2
    22                           	psect	text7,global,reloc=2,class=CODE,delta=1,group=3
    23                           	psect	text8,global,reloc=2,class=CODE,delta=1,group=1
    24                           	psect	text9,global,reloc=2,class=CODE,delta=1,group=3
    25                           	psect	text10,global,reloc=2,class=CODE,delta=1,group=3
    26                           	psect	text11,global,reloc=2,class=CODE,delta=1,group=3
    27                           	psect	text12,global,reloc=2,class=CODE,delta=1,group=1
    28                           	psect	text13,global,reloc=2,class=CODE,delta=1,group=3
    29                           	psect	text14,global,reloc=2,class=CODE,delta=1,group=3
    30                           	psect	text15,global,reloc=2,class=CODE,delta=1,group=3
    31                           	psect	text16,global,reloc=2,class=CODE,delta=1,group=3
    32                           	psect	text17,global,reloc=2,class=CODE,delta=1,group=3
    33                           	psect	text18,global,reloc=2,class=CODE,delta=1,group=3
    34                           	psect	text19,global,reloc=2,class=CODE,delta=1,group=2
    35                           	psect	text20,global,reloc=2,class=CODE,delta=1,group=2
    36                           	psect	text21,global,reloc=2,class=CODE,delta=1,group=2
    37                           	psect	text22,global,reloc=2,class=CODE,delta=1,group=2
    38                           	psect	text23,global,reloc=2,class=CODE,delta=1,group=2
    39                           	psect	text24,global,reloc=2,class=CODE,delta=1,group=2
    40                           	psect	text25,global,reloc=2,class=CODE,delta=1,group=2
    41                           	psect	text26,global,reloc=2,class=CODE,delta=1,group=2
    42                           	psect	text27,global,reloc=2,class=CODE,delta=1,group=2
    43                           	psect	text28,global,reloc=2,class=CODE,delta=1,group=2
    44                           	psect	text29,global,reloc=2,class=CODE,delta=1,group=3
    45                           	psect	text30,global,reloc=2,class=CODE,delta=1,group=3
    46                           	psect	text31,global,reloc=2,class=CODE,delta=1,group=3
    47                           	psect	text32,global,reloc=2,class=CODE,delta=1,group=2
    48                           	psect	text33,global,reloc=2,class=CODE,delta=1,group=2
    49                           	psect	text34,global,reloc=2,class=CODE,delta=1
    50                           	psect	text35,global,reloc=2,class=CODE,delta=1
    51                           	psect	text36,global,reloc=2,class=CODE,delta=1
    52                           	psect	text37,global,reloc=2,class=CODE,delta=1
    53                           	psect	text38,global,reloc=2,class=CODE,delta=1
    54                           	psect	text39,global,reloc=2,class=CODE,delta=1
    55                           	psect	text40,global,reloc=2,class=CODE,delta=1
    56                           	psect	text41,global,reloc=2,class=CODE,delta=1
    57                           	psect	text42,global,reloc=2,class=CODE,delta=1
    58                           	psect	text43,global,reloc=2,class=CODE,delta=1
    59                           	psect	text44,global,reloc=2,class=CODE,delta=1
    60                           	psect	text45,global,reloc=2,class=CODE,delta=1
    61                           	psect	text46,global,reloc=2,class=CODE,delta=1
    62                           	psect	text47,global,reloc=2,class=CODE,delta=1
    63                           	psect	text48,global,reloc=2,class=CODE,delta=1
    64                           	psect	text49,global,reloc=2,class=CODE,delta=1
    65                           	psect	ivt0x8,global,reloc=2,class=CODE,delta=1,noexec,keep,optim=
    66                           	psect	intsave_regs,global,class=BIGRAM,space=1,delta=1,noexec
    67                           	psect	rparam,global,class=COMRAM,space=1,delta=1,noexec
    68                           	psect	idloc,global,abs,ovrld,class=IDLOC,space=5,delta=1,noexec
    69                           	psect	config,global,abs,ovrld,class=CONFIG,space=4,delta=1,noexec
    70  0000                     
    71                           ; Generated 17/06/2022 GMT
    72                           ; 
    73                           ; Copyright © 2022, Microchip Technology Inc. and its subsidiaries ("Microchip")
    74                           ; All rights reserved.
    75                           ; 
    76                           ; This software is developed by Microchip Technology Inc. and its subsidiaries ("Microch
      +                          ip").
    77                           ; 
    78                           ; Redistribution and use in source and binary forms, with or without modification, are
    79                           ; permitted provided that the following conditions are met:
    80                           ; 
    81                           ;     1. Redistributions of source code must retain the above copyright notice, this lis
      +                          t of
    82                           ;        conditions and the following disclaimer.
    83                           ; 
    84                           ;     2. Redistributions in binary form must reproduce the above copyright notice, this 
      +                          list
    85                           ;        of conditions and the following disclaimer in the documentation and/or other
    86                           ;        materials provided with the distribution. Publication is not required when
    87                           ;        this file is used in an embedded application.
    88                           ; 
    89                           ;     3. Microchip's name may not be used to endorse or promote products derived from th
      +                          is
    90                           ;        software without specific prior written permission.
    91                           ; 
    92                           ; THIS SOFTWARE IS PROVIDED BY MICROCHIP "AS IS" AND ANY EXPRESS OR IMPLIED WARRANTIES,
    93                           ; INCLUDING, BUT NOT LIMITED TO, THE IMPLIED WARRANTIES OF MERCHANTABILITY AND FITNESS F
      +                          OR
    94                           ; PURPOSE ARE DISCLAIMED.  IN NO EVENT SHALL MICROCHIP BE LIABLE FOR ANY DIRECT, INDIREC
      +                          T,
    95                           ; INCIDENTAL, SPECIAL, EXEMPLARY, OR CONSEQUENTIAL DAMAGES (INCLUDING BUT NOT LIMITED TO
    96                           ; PROCUREMENT OF SUBSTITUTE GOODS OR SERVICES; LOSS OF USE, DATA OR PROFITS; OR BUSINESS
    97                           ; INTERRUPTION) HOWSOEVER CAUSED AND ON ANY THEORY OF LIABILITY, WHETHER IN CONTRACT, ST
      +                          RICT
    98                           ; LIABILITY, OR TORT (INCLUDING NEGLIGENCE OR OTHERWISE) ARISING IN ANY WAY OUT OF THE U
      +                          SE OF
    99                           ; THIS SOFTWARE, EVEN IF ADVISED OF THE POSSIBILITY OF SUCH DAMAGE.
   100                           ; 
   101                           ; 
   102                           ; Code-generator required, PIC18F57Q43 Definitions
   103                           ; 
   104                           ; SFR Addresses
   105  0000                     
   106                           	psect	idataBANK5
   107  0061BA                     __pidataBANK5:
   108                           	callstack 0
   109                           
   110                           ;initializer for Detect_Falling_Edge@past_value
   111  0061BA  01                 	db	1
   112  0000                     _OSCFRQbits	set	177
   113  0000                     _OSCCON1bits	set	173
   114  0000                     _ADACQ	set	1006
   115  0000                     _ADPRE	set	1009
   116  0000                     _ADPCH	set	1004
   117  0000                     _ADREF	set	1016
   118  0000                     _ADCLK	set	1018
   119  0000                     _ADCON2	set	1013
   120  0000                     _ADCON1	set	1012
   121  0000                     _T0CON1	set	795
   122  0000                     _T0CON0	set	794
   123  0000                     _ADRESL	set	1002
   124  0000                     _ADRESH	set	1003
   125  0000                     _ADCON0	set	1011
   126  0000                     _TMR0	set	792
   127  0000                     _ANSELB	set	1032
   128  0000                     _ANSELF	set	1064
   129  0000                     _ANSELA	set	1024
   130  0000                     _TRISB	set	1223
   131  0000                     _TRISF	set	1227
   132  0000                     _TRISA	set	1222
   133  0000                     _PIE3	set	1185
   134  0000                     _PORTB	set	1231
   135  0000                     _INTCON0	set	1238
   136  0000                     _LATF	set	1219
   137  0000                     _PIR3	set	1201
   138                           
   139                           	psect	smallconst
   140  002500                     __psmallconst:
   141                           	callstack 0
   142  002500  00                 	db	0
   143  002501                     STR_3:
   144                           
   145                           ; BSR set to: 5
   146  002501  4D                 	db	77	;'M'
   147  002502  4F                 	db	79	;'O'
   148  002503  54                 	db	84	;'T'
   149  002504  4F                 	db	79	;'O'
   150  002505  52                 	db	82	;'R'
   151  002506  20                 	db	32
   152  002507  53                 	db	83	;'S'
   153  002508  54                 	db	84	;'T'
   154  002509  4F                 	db	79	;'O'
   155  00250A  50                 	db	80	;'P'
   156  00250B  50                 	db	80	;'P'
   157  00250C  45                 	db	69	;'E'
   158  00250D  44                 	db	68	;'D'
   159  00250E  21                 	db	33
   160  00250F  20                 	db	32
   161  002510  20                 	db	32
   162  002511  20                 	db	32
   163  002512  20                 	db	32
   164  002513  20                 	db	32
   165  002514  20                 	db	32
   166  002515  00                 	db	0
   167  002516                     STR_2:
   168                           
   169                           ; BSR set to: 5
   170  002516  4D                 	db	77	;'M'
   171  002517  41                 	db	65	;'A'
   172  002518  58                 	db	88	;'X'
   173  002519  20                 	db	32
   174  00251A  53                 	db	83	;'S'
   175  00251B  50                 	db	80	;'P'
   176  00251C  45                 	db	69	;'E'
   177  00251D  45                 	db	69	;'E'
   178  00251E  44                 	db	68	;'D'
   179  00251F  21                 	db	33
   180  002520  20                 	db	32
   181  002521  20                 	db	32
   182  002522  20                 	db	32
   183  002523  20                 	db	32
   184  002524  20                 	db	32
   185  002525  20                 	db	32
   186  002526  00                 	db	0
   187  002527                     STR_4:
   188                           
   189                           ; BSR set to: 5
   190  002527  56                 	db	86	;'V'
   191  002528  3D                 	db	61	;'='
   192  002529  25                 	db	37
   193  00252A  2D                 	db	45
   194  00252B  33                 	db	51	;'3'
   195  00252C  75                 	db	117	;'u'
   196  00252D  25                 	db	37
   197  00252E  25                 	db	37
   198  00252F  20                 	db	32
   199  002530  52                 	db	82	;'R'
   200  002531  3D                 	db	61	;'='
   201  002532  25                 	db	37
   202  002533  2E                 	db	46
   203  002534  32                 	db	50	;'2'
   204  002535  66                 	db	102	;'f'
   205  002536  00                 	db	0
   206  002537                     STR_1:
   207                           
   208                           ; BSR set to: 5
   209  002537  50                 	db	80	;'P'
   210  002538  46                 	db	70	;'F'
   211  002539  20                 	db	32
   212  00253A  4D                 	db	77	;'M'
   213  00253B  4F                 	db	79	;'O'
   214  00253C  54                 	db	84	;'T'
   215  00253D  4F                 	db	79	;'O'
   216  00253E  52                 	db	82	;'R'
   217  00253F  20                 	db	32
   218  002540  52                 	db	82	;'R'
   219  002541  50                 	db	80	;'P'
   220  002542  4D                 	db	77	;'M'
   221  002543  00                 	db	0
   222  002544                     STR_5:
   223                           
   224                           ; BSR set to: 5
   225  002544  49                 	db	73	;'I'
   226  002545  4E                 	db	78	;'N'
   227  002546  46                 	db	70	;'F'
   228  002547  00                 	db	0
   229  002548                     STR_9:
   230                           
   231                           ; BSR set to: 5
   232  002548  4E                 	db	78	;'N'
   233  002549  41                 	db	65	;'A'
   234  00254A  4E                 	db	78	;'N'
   235  00254B  00                 	db	0
   236  00254C                     STR_6:
   237                           
   238                           ; BSR set to: 5
   239  00254C  69                 	db	105	;'i'
   240  00254D  6E                 	db	110	;'n'
   241  00254E  66                 	db	102	;'f'
   242  00254F  00                 	db	0
   243  002550                     STR_10:
   244                           
   245                           ; BSR set to: 5
   246  002550  6E                 	db	110	;'n'
   247  002551  61                 	db	97	;'a'
   248  002552  6E                 	db	110	;'n'
   249  002553  00                 	db	0
   250  002554                     STR_13:
   251                           
   252                           ; BSR set to: 5
   253  002554  6C                 	db	108	;'l'
   254  002555  66                 	db	102	;'f'
   255  002556  00                 	db	0
   256  002557  00                 	db	0	; dummy byte at the end
   257  0000                     
   258                           ; #config settings
   259                           
   260                           	psect	cinit
   261  005E3E                     __pcinit:
   262                           	callstack 0
   263  005E3E                     start_initialization:
   264                           	callstack 0
   265  005E3E                     __initialization:
   266                           	callstack 0
   267                           
   268                           ; Initialize objects allocated to BANK5 (1 bytes)
   269                           ; load TBLPTR registers with __pidataBANK5
   270  005E3E  0EBA               	movlw	low __pidataBANK5
   271  005E40  6EF6               	movwf	tblptrl,c
   272  005E42  0E61               	movlw	high __pidataBANK5
   273  005E44  6EF7               	movwf	tblptrh,c
   274  005E46  0E00               	movlw	low (__pidataBANK5 shr (0+16))
   275  005E48  6EF8               	movwf	tblptru,c
   276  005E4A  0009               	tblrd		*+	;fetch initializer
   277  005E4C  0061 F3D4  F5F5    	movff	tablat,__pdataBANK5
   278                           
   279                           ; Clear objects allocated to BANK6 (108 bytes)
   280  005E52  EE01  F200         	lfsr	0,__pbssBANK6
   281  005E56  0E6C               	movlw	108
   282  005E58                     clear_0:
   283  005E58  6AEE               	clrf	postinc0,c
   284  005E5A  06E8               	decf	wreg,f,c
   285  005E5C  E1FD               	bnz	clear_0
   286                           
   287                           ; Clear objects allocated to BANK5 (28 bytes)
   288  005E5E  EE01  F1D9         	lfsr	0,__pbssBANK5
   289  005E62  0E1C               	movlw	28
   290  005E64                     clear_1:
   291  005E64  6AEE               	clrf	postinc0,c
   292  005E66  06E8               	decf	wreg,f,c
   293  005E68  E1FD               	bnz	clear_1
   294                           
   295                           ; Clear objects allocated to COMRAM (4 bytes)
   296  005E6A  6A5C               	clrf	(__pbssCOMRAM+3)& (0+255),c
   297  005E6C  6A5B               	clrf	(__pbssCOMRAM+2)& (0+255),c
   298  005E6E  6A5A               	clrf	(__pbssCOMRAM+1)& (0+255),c
   299  005E70  6A59               	clrf	__pbssCOMRAM& (0+255),c
   300                           
   301                           ;
   302                           ; Setup IVTBASE
   303                           ;
   304  005E72  0104               	movlb	4
   305  005E74  0E08               	movlw	(ivt0x8_base shr 0)& (0+255)
   306  005E76  6F5D               	movwf	93,b
   307  005E78  0E00               	movlw	(ivt0x8_base shr (0+8))& (0+255)
   308  005E7A  6F5E               	movwf	94,b
   309  005E7C  0E00               	movlw	(ivt0x8_base shr (0+16))& (0+255)
   310  005E7E  6F5F               	movwf	95,b
   311  005E80                     end_of_initialization:
   312                           	callstack 0
   313  005E80                     __end_of__initialization:
   314                           	callstack 0
   315  005E80  0100               	movlb	0
   316  005E82  EF3C  F023         	goto	_main	;jump to C main() function
   317                           
   318                           	psect	bssCOMRAM
   319  000559                     __pbssCOMRAM:
   320                           	callstack 0
   321  000559                     _prec:
   322                           	callstack 0
   323  000559                     	ds	2
   324  00055B                     _flags:
   325                           	callstack 0
   326  00055B                     	ds	2
   327                           
   328                           	psect	bssBANK5
   329  0005D9                     __pbssBANK5:
   330                           	callstack 0
   331  0005D9                     _rpm_counter:
   332                           	callstack 0
   333  0005D9                     	ds	8
   334  0005E1                     ___fpclassifyf@F465:
   335                           	callstack 0
   336  0005E1                     	ds	4
   337  0005E5                     _nout:
   338                           	callstack 0
   339  0005E5                     	ds	2
   340  0005E7                     _width:
   341                           	callstack 0
   342  0005E7                     	ds	2
   343  0005E9                     _average_ms:
   344                           	callstack 0
   345  0005E9                     	ds	2
   346  0005EB                     _sample_counter:
   347                           	callstack 0
   348  0005EB                     	ds	2
   349  0005ED                     _contador_ms:
   350                           	callstack 0
   351  0005ED                     	ds	2
   352  0005EF                     _print_counter:
   353                           	callstack 0
   354  0005EF                     	ds	2
   355  0005F1                     _refresh_flag:
   356                           	callstack 0
   357  0005F1                     	ds	1
   358  0005F2                     _print_flag:
   359                           	callstack 0
   360  0005F2                     	ds	1
   361  0005F3                     _indicador_ms:
   362                           	callstack 0
   363  0005F3                     	ds	2
   364                           
   365                           	psect	dataBANK5
   366  0005F5                     __pdataBANK5:
   367                           	callstack 0
   368  0005F5                     Detect_Falling_Edge@past_value:
   369                           	callstack 0
   370  0005F5                     	ds	1
   371                           
   372                           	psect	bssBANK6
   373  000600                     __pbssBANK6:
   374                           	callstack 0
   375  000600                     _led_counter:
   376                           	callstack 0
   377  000600                     	ds	8
   378  000608                     floorf@F527:
   379                           	callstack 0
   380  000608                     	ds	4
   381  00060C                     _dbuf:
   382                           	callstack 0
   383  00060C                     	ds	80
   384  00065C                     _msj:
   385                           	callstack 0
   386  00065C                     	ds	16
   387                           
   388                           	psect	cstackBANK6
   389  00066C                     __pcstackBANK6:
   390                           	callstack 0
   391  00066C                     main@rpm:
   392                           	callstack 0
   393                           
   394                           ; 4 bytes @ 0x0
   395  00066C                     	ds	4
   396  000670                     _main$1251:
   397                           	callstack 0
   398                           
   399                           ; 4 bytes @ 0x4
   400  000670                     	ds	4
   401  000674                     main@adc_val:
   402                           	callstack 0
   403                           
   404                           ; 2 bytes @ 0x8
   405  000674                     	ds	2
   406  000676                     main@val_percent:
   407                           	callstack 0
   408                           
   409                           ; 1 bytes @ 0xA
   410  000676                     	ds	1
   411                           
   412                           	psect	cstackBANK5
   413  000560                     __pcstackBANK5:
   414                           	callstack 0
   415  000560                     ??_efgtoa:
   416                           
   417                           ; 1 bytes @ 0x0
   418  000560                     	ds	5
   419  000565                     _efgtoa$881:
   420                           	callstack 0
   421                           
   422                           ; 2 bytes @ 0x5
   423  000565                     	ds	2
   424  000567                     _efgtoa$882:
   425                           	callstack 0
   426                           
   427                           ; 2 bytes @ 0x7
   428  000567                     	ds	2
   429  000569                     _efgtoa$887:
   430                           	callstack 0
   431                           
   432                           ; 2 bytes @ 0x9
   433  000569                     	ds	2
   434  00056B                     _efgtoa$891:
   435                           	callstack 0
   436                           
   437                           ; 2 bytes @ 0xB
   438  00056B                     	ds	2
   439  00056D                     _efgtoa$892:
   440                           	callstack 0
   441                           
   442                           ; 2 bytes @ 0xD
   443  00056D                     	ds	2
   444  00056F                     _efgtoa$893:
   445                           	callstack 0
   446                           
   447                           ; 2 bytes @ 0xF
   448  00056F                     	ds	2
   449  000571                     efgtoa@t:
   450                           	callstack 0
   451                           
   452                           ; 2 bytes @ 0x11
   453  000571                     	ds	2
   454  000573                     efgtoa@pp:
   455                           	callstack 0
   456                           
   457                           ; 2 bytes @ 0x13
   458  000573                     	ds	2
   459  000575                     efgtoa@ne:
   460                           	callstack 0
   461                           
   462                           ; 2 bytes @ 0x15
   463  000575                     	ds	2
   464  000577                     efgtoa@m:
   465                           	callstack 0
   466                           
   467                           ; 2 bytes @ 0x17
   468  000577                     	ds	2
   469  000579                     efgtoa@ou:
   470                           	callstack 0
   471                           
   472                           ; 4 bytes @ 0x19
   473  000579                     	ds	4
   474  00057D                     efgtoa@d:
   475                           	callstack 0
   476                           
   477                           ; 2 bytes @ 0x1D
   478  00057D                     	ds	2
   479  00057F                     efgtoa@sign:
   480                           	callstack 0
   481                           
   482                           ; 2 bytes @ 0x1F
   483  00057F                     	ds	2
   484  000581                     efgtoa@p:
   485                           	callstack 0
   486                           
   487                           ; 2 bytes @ 0x21
   488  000581                     	ds	2
   489  000583                     efgtoa@w:
   490                           	callstack 0
   491                           
   492                           ; 2 bytes @ 0x23
   493  000583                     	ds	2
   494  000585                     efgtoa@nmode:
   495                           	callstack 0
   496                           
   497                           ; 1 bytes @ 0x25
   498  000585                     	ds	1
   499  000586                     efgtoa@mode:
   500                           	callstack 0
   501                           
   502                           ; 1 bytes @ 0x26
   503  000586                     	ds	1
   504  000587                     efgtoa@h:
   505                           	callstack 0
   506                           
   507                           ; 4 bytes @ 0x27
   508  000587                     	ds	4
   509  00058B                     efgtoa@l:
   510                           	callstack 0
   511                           
   512                           ; 4 bytes @ 0x2B
   513  00058B                     	ds	4
   514  00058F                     efgtoa@i:
   515                           	callstack 0
   516                           
   517                           ; 2 bytes @ 0x2F
   518  00058F                     	ds	2
   519  000591                     efgtoa@g:
   520                           	callstack 0
   521                           
   522                           ; 4 bytes @ 0x31
   523  000591                     	ds	4
   524  000595                     efgtoa@e:
   525                           	callstack 0
   526                           
   527                           ; 2 bytes @ 0x35
   528  000595                     	ds	2
   529  000597                     efgtoa@n:
   530                           	callstack 0
   531                           
   532                           ; 2 bytes @ 0x37
   533  000597                     	ds	2
   534  000599                     efgtoa@u:
   535                           	callstack 0
   536                           
   537                           ; 4 bytes @ 0x39
   538  000599                     	ds	4
   539  00059D                     ?_vfpfcnvrt:
   540                           	callstack 0
   541  00059D                     vfpfcnvrt@fp:
   542                           	callstack 0
   543                           
   544                           ; 2 bytes @ 0x3D
   545  00059D                     	ds	2
   546  00059F                     vfpfcnvrt@fmt:
   547                           	callstack 0
   548                           
   549                           ; 2 bytes @ 0x3F
   550  00059F                     	ds	2
   551  0005A1                     vfpfcnvrt@ap:
   552                           	callstack 0
   553                           
   554                           ; 2 bytes @ 0x41
   555  0005A1                     	ds	2
   556  0005A3                     ??_vfpfcnvrt:
   557                           
   558                           ; 1 bytes @ 0x43
   559  0005A3                     	ds	4
   560  0005A7                     vfpfcnvrt@llu:
   561                           	callstack 0
   562                           
   563                           ; 8 bytes @ 0x47
   564  0005A7                     	ds	8
   565  0005AF                     vfpfcnvrt@done:
   566                           	callstack 0
   567                           
   568                           ; 2 bytes @ 0x4F
   569  0005AF                     	ds	2
   570  0005B1                     _vfpfcnvrt$914:
   571                           	callstack 0
   572                           
   573                           ; 2 bytes @ 0x51
   574  0005B1                     	ds	2
   575  0005B3                     _vfpfcnvrt$915:
   576                           	callstack 0
   577                           
   578                           ; 2 bytes @ 0x53
   579  0005B3                     	ds	2
   580  0005B5                     _vfpfcnvrt$919:
   581                           	callstack 0
   582                           
   583                           ; 2 bytes @ 0x55
   584  0005B5                     	ds	2
   585  0005B7                     vfpfcnvrt@f:
   586                           	callstack 0
   587                           
   588                           ; 4 bytes @ 0x57
   589  0005B7                     	ds	4
   590  0005BB                     vfpfcnvrt@ct:
   591                           	callstack 0
   592                           
   593                           ; 3 bytes @ 0x5B
   594  0005BB                     	ds	3
   595  0005BE                     vfpfcnvrt@c:
   596                           	callstack 0
   597                           
   598                           ; 1 bytes @ 0x5E
   599  0005BE                     	ds	1
   600  0005BF                     ?_vfprintf:
   601                           	callstack 0
   602  0005BF                     vfprintf@fp:
   603                           	callstack 0
   604                           
   605                           ; 2 bytes @ 0x5F
   606  0005BF                     	ds	2
   607  0005C1                     vfprintf@fmt:
   608                           	callstack 0
   609                           
   610                           ; 2 bytes @ 0x61
   611  0005C1                     	ds	2
   612  0005C3                     vfprintf@ap:
   613                           	callstack 0
   614                           
   615                           ; 2 bytes @ 0x63
   616  0005C3                     	ds	2
   617  0005C5                     ?_sprintf:
   618                           	callstack 0
   619  0005C5                     sprintf@s:
   620                           	callstack 0
   621                           
   622                           ; 2 bytes @ 0x65
   623  0005C5                     	ds	2
   624  0005C7                     sprintf@fmt:
   625                           	callstack 0
   626                           
   627                           ; 2 bytes @ 0x67
   628  0005C7                     	ds	8
   629  0005CF                     sprintf@ap:
   630                           	callstack 0
   631                           
   632                           ; 2 bytes @ 0x6F
   633  0005CF                     	ds	2
   634  0005D1                     sprintf@f:
   635                           	callstack 0
   636                           
   637                           ; 6 bytes @ 0x71
   638  0005D1                     	ds	6
   639  0005D7                     ??_main:
   640                           
   641                           ; 1 bytes @ 0x77
   642  0005D7                     	ds	2
   643                           
   644                           	psect	cstackCOMRAM
   645  000501                     __pcstackCOMRAM:
   646                           	callstack 0
   647  000501                     Detect_Falling_Edge@falling_edge_detected:
   648                           	callstack 0
   649  000501                     
   650                           ; 1 bytes @ 0x0
   651  000501                     	ds	1
   652  000502                     _Detect_Falling_Edge$181:
   653                           	callstack 0
   654                           
   655                           ; 1 bytes @ 0x1
   656  000502                     	ds	1
   657  000503                     Detect_Falling_Edge@current_value:
   658                           	callstack 0
   659                           
   660                           ; 1 bytes @ 0x2
   661  000503                     	ds	1
   662  000504                     ??_FM_Lcd_Send_Nibble:
   663  000504                     ?_strlen:
   664                           	callstack 0
   665  000504                     ?___fpclassifyf:
   666                           	callstack 0
   667  000504                     ?_isupper:
   668                           	callstack 0
   669  000504                     ?_isdigit:
   670                           	callstack 0
   671  000504                     ?_strncmp:
   672                           	callstack 0
   673  000504                     ?_isspace:
   674                           	callstack 0
   675  000504                     ?___wmul:
   676                           	callstack 0
   677  000504                     ?___awdiv:
   678                           	callstack 0
   679  000504                     ?___awmod:
   680                           	callstack 0
   681  000504                     ?___fladd:
   682                           	callstack 0
   683  000504                     ?___flneg:
   684                           	callstack 0
   685  000504                     ?___xxtofl:
   686                           	callstack 0
   687  000504                     ?___lodiv:
   688                           	callstack 0
   689  000504                     ?___lomod:
   690                           	callstack 0
   691  000504                     FM_Hfintosc_Init@clock_params:
   692                           	callstack 0
   693  000504                     ___wmul@multiplier:
   694                           	callstack 0
   695  000504                     ___awdiv@dividend:
   696                           	callstack 0
   697  000504                     ___awmod@dividend:
   698                           	callstack 0
   699  000504                     isdigit@c:
   700                           	callstack 0
   701  000504                     isspace@c:
   702                           	callstack 0
   703  000504                     isupper@c:
   704                           	callstack 0
   705  000504                     fputc@c:
   706                           	callstack 0
   707  000504                     strcpy@dest:
   708                           	callstack 0
   709  000504                     strlen@s:
   710                           	callstack 0
   711  000504                     strncmp@_l:
   712                           	callstack 0
   713  000504                     ___fleq@ff1:
   714                           	callstack 0
   715  000504                     ___flneg@f1:
   716                           	callstack 0
   717  000504                     ___fladd@b:
   718                           	callstack 0
   719  000504                     ___xxtofl@val:
   720                           	callstack 0
   721  000504                     ___fpclassifyf@x:
   722                           	callstack 0
   723  000504                     ___lodiv@dividend:
   724                           	callstack 0
   725  000504                     ___lomod@dividend:
   726                           	callstack 0
   727                           
   728                           ; 8 bytes @ 0x3
   729  000504                     	ds	1
   730  000505                     FM_Lcd_Send_Nibble@byte_to_send:
   731                           	callstack 0
   732                           
   733                           ; 1 bytes @ 0x4
   734  000505                     	ds	1
   735  000506                     ??_FM_Hfintosc_Init:
   736  000506                     ??_isupper:
   737  000506                     ??_isdigit:
   738  000506                     ??_isspace:
   739  000506                     FM_Lcd_Send_Nibble@upper_bits:
   740                           	callstack 0
   741  000506                     ___wmul@multiplicand:
   742                           	callstack 0
   743  000506                     ___awdiv@divisor:
   744                           	callstack 0
   745  000506                     ___awmod@divisor:
   746                           	callstack 0
   747  000506                     fputc@fp:
   748                           	callstack 0
   749  000506                     strcpy@src:
   750                           	callstack 0
   751  000506                     strlen@a:
   752                           	callstack 0
   753  000506                     strncmp@_r:
   754                           	callstack 0
   755                           
   756                           ; 2 bytes @ 0x5
   757  000506                     	ds	1
   758  000507                     FM_Lcd_Send_Nibble@lower_bits:
   759                           	callstack 0
   760  000507                     Init_Internal_Oscillator@my_clock:
   761                           	callstack 0
   762                           
   763                           ; 2 bytes @ 0x6
   764  000507                     	ds	1
   765  000508                     ??_fputc:
   766  000508                     ??___fpclassifyf:
   767  000508                     ??_strcpy:
   768  000508                     ??___xxtofl:
   769  000508                     FM_Lcd_Send_Command@command_to_send:
   770                           	callstack 0
   771  000508                     FM_Lcd_Send_Character@character_to_send:
   772                           	callstack 0
   773  000508                     ___awdiv@counter:
   774                           	callstack 0
   775  000508                     ___awmod@counter:
   776                           	callstack 0
   777  000508                     ___wmul@product:
   778                           	callstack 0
   779  000508                     strncmp@n:
   780                           	callstack 0
   781  000508                     ___fleq@ff2:
   782                           	callstack 0
   783  000508                     ___fladd@a:
   784                           	callstack 0
   785                           
   786                           ; 4 bytes @ 0x7
   787  000508                     	ds	1
   788  000509                     ??_FM_Lcd_Easy_Init:
   789  000509                     FM_Lcd_Set_Cursor@columna:
   790                           	callstack 0
   791  000509                     ___awdiv@sign:
   792                           	callstack 0
   793  000509                     ___awmod@sign:
   794                           	callstack 0
   795  000509                     FM_Lcd_Send_String@cadena:
   796                           	callstack 0
   797                           
   798                           ; 2 bytes @ 0x8
   799  000509                     	ds	1
   800  00050A                     ??_strncmp:
   801  00050A                     ?_tolower:
   802                           	callstack 0
   803  00050A                     FM_Lcd_Set_Cursor@filas:
   804                           	callstack 0
   805  00050A                     _isspace$985:
   806                           	callstack 0
   807  00050A                     ___awdiv@quotient:
   808                           	callstack 0
   809  00050A                     strcpy@s:
   810                           	callstack 0
   811  00050A                     tolower@c:
   812                           	callstack 0
   813                           
   814                           ; 2 bytes @ 0x9
   815  00050A                     	ds	1
   816  00050B                     ??_FM_Lcd_Send_String:
   817  00050B                     ?_atoi:
   818                           	callstack 0
   819  00050B                     FM_Lcd_Set_Cursor@base_pos:
   820                           	callstack 0
   821  00050B                     atoi@s:
   822                           	callstack 0
   823  00050B                     strncmp@l:
   824                           	callstack 0
   825                           
   826                           ; 2 bytes @ 0xA
   827  00050B                     	ds	1
   828  00050C                     ??___fladd:
   829  00050C                     ??_tolower:
   830  00050C                     ??___fleq:
   831  00050C                     ___xxtofl@sign:
   832                           	callstack 0
   833  00050C                     ___fpclassifyf@e:
   834                           	callstack 0
   835  00050C                     strcpy@d:
   836                           	callstack 0
   837  00050C                     ___lodiv@divisor:
   838                           	callstack 0
   839  00050C                     ___lomod@divisor:
   840                           	callstack 0
   841                           
   842                           ; 8 bytes @ 0xB
   843  00050C                     	ds	1
   844  00050D                     ??_atoi:
   845  00050D                     FM_Lcd_Send_String@index:
   846                           	callstack 0
   847  00050D                     ___xxtofl@exp:
   848                           	callstack 0
   849  00050D                     fputs@s:
   850                           	callstack 0
   851  00050D                     strncmp@r:
   852                           	callstack 0
   853                           
   854                           ; 2 bytes @ 0xC
   855  00050D                     	ds	1
   856  00050E                     ___xxtofl@arg:
   857                           	callstack 0
   858  00050E                     ___fpclassifyf@u:
   859                           	callstack 0
   860                           
   861                           ; 4 bytes @ 0xD
   862  00050E                     	ds	1
   863  00050F                     fputs@fp:
   864                           	callstack 0
   865                           
   866                           ; 2 bytes @ 0xE
   867  00050F                     	ds	1
   868  000510                     ___fladd@signs:
   869                           	callstack 0
   870  000510                     _tolower$1049:
   871                           	callstack 0
   872                           
   873                           ; 2 bytes @ 0xF
   874  000510                     	ds	1
   875  000511                     ___fladd@aexp:
   876                           	callstack 0
   877  000511                     fputs@c:
   878                           	callstack 0
   879  000511                     atoi@neg:
   880                           	callstack 0
   881                           
   882                           ; 2 bytes @ 0x10
   883  000511                     	ds	1
   884  000512                     ?___fldiv:
   885                           	callstack 0
   886  000512                     ___fladd@bexp:
   887                           	callstack 0
   888  000512                     fputs@i:
   889                           	callstack 0
   890  000512                     ___fldiv@b:
   891                           	callstack 0
   892                           
   893                           ; 4 bytes @ 0x11
   894  000512                     	ds	1
   895  000513                     ___fladd@grs:
   896                           	callstack 0
   897  000513                     _atoi$954:
   898                           	callstack 0
   899                           
   900                           ; 2 bytes @ 0x12
   901  000513                     	ds	1
   902  000514                     ?_pad:
   903                           	callstack 0
   904  000514                     ___lomod@counter:
   905                           	callstack 0
   906  000514                     pad@fp:
   907                           	callstack 0
   908  000514                     ___lodiv@quotient:
   909                           	callstack 0
   910                           
   911                           ; 8 bytes @ 0x13
   912  000514                     	ds	1
   913  000515                     _atoi$956:
   914                           	callstack 0
   915                           
   916                           ; 2 bytes @ 0x14
   917  000515                     	ds	1
   918  000516                     pad@buf:
   919                           	callstack 0
   920  000516                     ___fldiv@a:
   921                           	callstack 0
   922                           
   923                           ; 4 bytes @ 0x15
   924  000516                     	ds	1
   925  000517                     _atoi$955:
   926                           	callstack 0
   927                           
   928                           ; 1 bytes @ 0x16
   929  000517                     	ds	1
   930  000518                     pad@p:
   931                           	callstack 0
   932  000518                     atoi@n:
   933                           	callstack 0
   934                           
   935                           ; 2 bytes @ 0x17
   936  000518                     	ds	2
   937  00051A                     ??___fldiv:
   938  00051A                     ??_pad:
   939                           
   940                           ; 1 bytes @ 0x19
   941  00051A                     	ds	1
   942  00051B                     pad@i:
   943                           	callstack 0
   944                           
   945                           ; 2 bytes @ 0x1A
   946  00051B                     	ds	1
   947  00051C                     ___lodiv@counter:
   948                           	callstack 0
   949                           
   950                           ; 1 bytes @ 0x1B
   951  00051C                     	ds	1
   952  00051D                     pad@w:
   953                           	callstack 0
   954                           
   955                           ; 2 bytes @ 0x1C
   956  00051D                     	ds	1
   957  00051E                     ___fldiv@rem:
   958                           	callstack 0
   959                           
   960                           ; 4 bytes @ 0x1D
   961  00051E                     	ds	1
   962  00051F                     ?_utoa:
   963                           	callstack 0
   964  00051F                     utoa@fp:
   965                           	callstack 0
   966                           
   967                           ; 2 bytes @ 0x1E
   968  00051F                     	ds	2
   969  000521                     utoa@d:
   970                           	callstack 0
   971                           
   972                           ; 8 bytes @ 0x20
   973  000521                     	ds	1
   974  000522                     ___fldiv@sign:
   975                           	callstack 0
   976                           
   977                           ; 1 bytes @ 0x21
   978  000522                     	ds	1
   979  000523                     ___fldiv@new_exp:
   980                           	callstack 0
   981                           
   982                           ; 2 bytes @ 0x22
   983  000523                     	ds	2
   984  000525                     ___fldiv@grs:
   985                           	callstack 0
   986                           
   987                           ; 4 bytes @ 0x24
   988  000525                     	ds	4
   989  000529                     ??_utoa:
   990  000529                     ___fldiv@bexp:
   991                           	callstack 0
   992                           
   993                           ; 1 bytes @ 0x28
   994  000529                     	ds	1
   995  00052A                     ___fldiv@aexp:
   996                           	callstack 0
   997                           
   998                           ; 1 bytes @ 0x29
   999  00052A                     	ds	1
  1000  00052B                     ?___flmul:
  1001                           	callstack 0
  1002  00052B                     ?_floorf:
  1003                           	callstack 0
  1004  00052B                     ___flmul@b:
  1005                           	callstack 0
  1006  00052B                     floorf@x:
  1007                           	callstack 0
  1008                           
  1009                           ; 4 bytes @ 0x2A
  1010  00052B                     	ds	4
  1011  00052F                     ??_floorf:
  1012  00052F                     ___flmul@a:
  1013                           	callstack 0
  1014                           
  1015                           ; 4 bytes @ 0x2E
  1016  00052F                     	ds	2
  1017  000531                     utoa@p:
  1018                           	callstack 0
  1019                           
  1020                           ; 2 bytes @ 0x30
  1021  000531                     	ds	2
  1022  000533                     ??___flmul:
  1023  000533                     utoa@w:
  1024                           	callstack 0
  1025                           
  1026                           ; 2 bytes @ 0x32
  1027  000533                     	ds	2
  1028  000535                     floorf@m:
  1029                           	callstack 0
  1030  000535                     utoa@n:
  1031                           	callstack 0
  1032                           
  1033                           ; 8 bytes @ 0x34
  1034  000535                     	ds	2
  1035  000537                     ___flmul@sign:
  1036                           	callstack 0
  1037                           
  1038                           ; 1 bytes @ 0x36
  1039  000537                     	ds	1
  1040  000538                     ___flmul@aexp:
  1041                           	callstack 0
  1042                           
  1043                           ; 1 bytes @ 0x37
  1044  000538                     	ds	1
  1045  000539                     floorf@e:
  1046                           	callstack 0
  1047  000539                     ___flmul@grs:
  1048                           	callstack 0
  1049                           
  1050                           ; 4 bytes @ 0x38
  1051  000539                     	ds	2
  1052  00053B                     floorf@u:
  1053                           	callstack 0
  1054                           
  1055                           ; 4 bytes @ 0x3A
  1056  00053B                     	ds	2
  1057  00053D                     ___flmul@bexp:
  1058                           	callstack 0
  1059  00053D                     utoa@i:
  1060                           	callstack 0
  1061                           
  1062                           ; 2 bytes @ 0x3C
  1063  00053D                     	ds	1
  1064  00053E                     ___flmul@prod:
  1065                           	callstack 0
  1066                           
  1067                           ; 4 bytes @ 0x3D
  1068  00053E                     	ds	4
  1069  000542                     ___flmul@temp:
  1070                           	callstack 0
  1071                           
  1072                           ; 2 bytes @ 0x41
  1073  000542                     	ds	2
  1074  000544                     ?___flsub:
  1075                           	callstack 0
  1076  000544                     ?___fltol:
  1077                           	callstack 0
  1078  000544                     ___flge@ff1:
  1079                           	callstack 0
  1080  000544                     ___fltol@f1:
  1081                           	callstack 0
  1082  000544                     ___flsub@b:
  1083                           	callstack 0
  1084                           
  1085                           ; 4 bytes @ 0x43
  1086  000544                     	ds	4
  1087  000548                     ??___fltol:
  1088  000548                     ___flge@ff2:
  1089                           	callstack 0
  1090  000548                     ___flsub@a:
  1091                           	callstack 0
  1092                           
  1093                           ; 4 bytes @ 0x47
  1094  000548                     	ds	4
  1095  00054C                     ??___flge:
  1096  00054C                     ___fltol@sign1:
  1097                           	callstack 0
  1098                           
  1099                           ; 1 bytes @ 0x4B
  1100  00054C                     	ds	1
  1101  00054D                     ___fltol@exp1:
  1102                           	callstack 0
  1103                           
  1104                           ; 1 bytes @ 0x4C
  1105  00054D                     	ds	3
  1106  000550                     ?_efgtoa:
  1107                           	callstack 0
  1108  000550                     efgtoa@fp:
  1109                           	callstack 0
  1110                           
  1111                           ; 2 bytes @ 0x4F
  1112  000550                     	ds	2
  1113  000552                     efgtoa@f:
  1114                           	callstack 0
  1115                           
  1116                           ; 4 bytes @ 0x51
  1117  000552                     	ds	4
  1118  000556                     efgtoa@c:
  1119                           	callstack 0
  1120                           
  1121                           ; 1 bytes @ 0x55
  1122  000556                     	ds	1
  1123  000557                     vfprintf@cfmt:
  1124                           	callstack 0
  1125                           
  1126                           ; 2 bytes @ 0x56
  1127  000557                     	ds	2
  1128  000559                     
  1129                           ; 1 bytes @ 0x58
  1130 ;;
  1131 ;;Main: autosize = 0, tempsize = 2, incstack = 0, save=0
  1132 ;;
  1133 ;; *************** function _main *****************
  1134 ;; Defined at:
  1135 ;;		line 104 in file "main.c"
  1136 ;; Parameters:    Size  Location     Type
  1137 ;;		None
  1138 ;; Auto vars:     Size  Location     Type
  1139 ;;  rpm             4    0[BANK6 ] float 
  1140 ;;  adc_val         2    8[BANK6 ] unsigned short 
  1141 ;;  val_percent     1   10[BANK6 ] unsigned char 
  1142 ;; Return value:  Size  Location     Type
  1143 ;;                  2  109[None  ] int 
  1144 ;; Registers used:
  1145 ;;		wreg, fsr1l, fsr1h, fsr2l, fsr2h, status,2, status,0, tblptrl, tblptrh, tblptru, prodl, prodh, cstack
  1146 ;; Tracked objects:
  1147 ;;		On entry : 0/0
  1148 ;;		On exit  : 0/0
  1149 ;;		Unchanged: 0/0
  1150 ;; Data sizes:     COMRAM   BANK5   BANK6   BANK7   BANK8   BANK9  BANK10  BANK11  BANK12  BANK13  BANK14  BANK15  BANK1
      +6  BANK17  BANK18  BANK19  BANK20  BANK21  BANK22  BANK23  BANK24  BANK25  BANK26  BANK27  BANK28  BANK29  BANK30  BANK3
      +1  BANK32  BANK33  BANK34  BANK35  BANK36
  1151 ;;      Params:         0       0       0       0       0       0       0       0       0       0       0       0       
      +0       0       0       0       0       0       0       0       0       0       0       0       0       0       0       
      +0       0       0       0       0       0
  1152 ;;      Locals:         0       0      11       0       0       0       0       0       0       0       0       0       
      +0       0       0       0       0       0       0       0       0       0       0       0       0       0       0       
      +0       0       0       0       0       0
  1153 ;;      Temps:          0       2       0       0       0       0       0       0       0       0       0       0       
      +0       0       0       0       0       0       0       0       0       0       0       0       0       0       0       
      +0       0       0       0       0       0
  1154 ;;      Totals:         0       2      11       0       0       0       0       0       0       0       0       0       
      +0       0       0       0       0       0       0       0       0       0       0       0       0       0       0       
      +0       0       0       0       0       0
  1155 ;;Total ram usage:       13 bytes
  1156 ;; Hardware stack levels required when called: 10
  1157 ;; This function calls:
  1158 ;;		_FM_Lcd_Send_Command
  1159 ;;		_FM_Lcd_Send_String
  1160 ;;		_FM_Lcd_Set_Cursor
  1161 ;;		_System_Init
  1162 ;;		___fldiv
  1163 ;;		___flmul
  1164 ;;		___fltol
  1165 ;;		___xxtofl
  1166 ;;		_sprintf
  1167 ;; This function is called by:
  1168 ;;		Startup code after reset
  1169 ;; This function uses a non-reentrant model
  1170 ;;
  1171                           
  1172                           	psect	text0
  1173  004678                     __ptext0:
  1174                           	callstack 0
  1175  004678                     _main:
  1176                           	callstack 117
  1177  004678                     
  1178                           ;main.c: 106:     System_Init();
  1179  004678  ECA1  F030         	call	_System_Init	;wreg free
  1180  00467C                     
  1181                           ;main.c: 108:     FM_Lcd_Send_Command(0x01);
  1182  00467C  0E01               	movlw	1
  1183  00467E  ECD0  F030         	call	_FM_Lcd_Send_Command
  1184  004682                     
  1185                           ;main.c: 109:     FM_Lcd_Set_Cursor(ROW_1, COL_3);
  1186  004682  0E02               	movlw	2
  1187  004684  6E09               	movwf	FM_Lcd_Set_Cursor@columna^(0+1280),c
  1188  004686  0E00               	movlw	0
  1189  004688  EC88  F02F         	call	_FM_Lcd_Set_Cursor
  1190  00468C                     
  1191                           ;main.c: 110:     FM_Lcd_Send_String("PF MOTOR RPM");
  1192  00468C  0E37               	movlw	low STR_1
  1193  00468E  6E09               	movwf	FM_Lcd_Send_String@cadena^(0+1280),c
  1194  004690  0E25               	movlw	high STR_1
  1195  004692  6E0A               	movwf	(FM_Lcd_Send_String@cadena+1)^(0+1280),c
  1196  004694  EC89  F02D         	call	_FM_Lcd_Send_String	;wreg free
  1197  004698                     l6357:
  1198                           
  1199                           ;main.c: 114:         ADCON0 |= (1 << 0x0);
  1200  004698  0103               	movlb	3	; () banked
  1201  00469A  81F3               	bsf	243,0,b	;volatile
  1202  00469C                     l111:
  1203                           
  1204                           ; BSR set to: 3
  1205  00469C  B1F3               	btfsc	243,0,b	;volatile
  1206  00469E  EF53  F023         	goto	u8361
  1207  0046A2  EF55  F023         	goto	u8360
  1208  0046A6                     u8361:
  1209  0046A6  EF4E  F023         	goto	l111
  1210  0046AA                     u8360:
  1211  0046AA                     
  1212                           ; BSR set to: 3
  1213                           ;main.c: 117:         uint16_t adc_val = (ADRESH << 8) | ADRESL;
  1214  0046AA  51EA               	movf	234,w,b	;volatile
  1215  0046AC  0060 FFAC  F5D7    	movff	1003,??_main	;volatile
  1216  0046B2  0105               	movlb	5	; () banked
  1217  0046B4  6BD8               	clrf	(??_main+1)& (0+255),b
  1218  0046B6  C5D7  F5D8         	movff	??_main,??_main+1
  1219  0046BA  6BD7               	clrf	??_main& (0+255),b
  1220  0046BC  11D7               	iorwf	??_main& (0+255),w,b
  1221  0046BE  0106               	movlb	6	; () banked
  1222  0046C0  6F74               	movwf	main@adc_val& (0+255),b
  1223  0046C2  0105               	movlb	5	; () banked
  1224  0046C4  51D8               	movf	(??_main+1)& (0+255),w,b
  1225  0046C6  0106               	movlb	6	; () banked
  1226  0046C8  6F75               	movwf	(main@adc_val+1)& (0+255),b
  1227  0046CA                     
  1228                           ; BSR set to: 6
  1229                           ;main.c: 118:         uint8_t val_percent = ((float) adc_val / 4095.0) * 100.0;
  1230  0046CA  0E00               	movlw	0
  1231  0046CC  6E2F               	movwf	___flmul@a^(0+1280),c
  1232  0046CE  0E00               	movlw	0
  1233  0046D0  6E30               	movwf	(___flmul@a+1)^(0+1280),c
  1234  0046D2  0EC8               	movlw	200
  1235  0046D4  6E31               	movwf	(___flmul@a+2)^(0+1280),c
  1236  0046D6  0E42               	movlw	66
  1237  0046D8  6E32               	movwf	(___flmul@a+3)^(0+1280),c
  1238  0046DA  0E00               	movlw	0
  1239  0046DC  6E16               	movwf	___fldiv@a^(0+1280),c
  1240  0046DE  0EF0               	movlw	240
  1241  0046E0  6E17               	movwf	(___fldiv@a+1)^(0+1280),c
  1242  0046E2  0E7F               	movlw	127
  1243  0046E4  6E18               	movwf	(___fldiv@a+2)^(0+1280),c
  1244  0046E6  0E45               	movlw	69
  1245  0046E8  6E19               	movwf	(___fldiv@a+3)^(0+1280),c
  1246  0046EA  C674  F504         	movff	main@adc_val,___xxtofl@val
  1247  0046EE  C675  F505         	movff	main@adc_val+1,___xxtofl@val+1
  1248  0046F2  6A06               	clrf	(___xxtofl@val+2)^(0+1280),c
  1249  0046F4  6A07               	clrf	(___xxtofl@val+3)^(0+1280),c
  1250  0046F6  0E00               	movlw	0
  1251  0046F8  EC5C  F027         	call	___xxtofl
  1252  0046FC  C504  F512         	movff	?___xxtofl,___fldiv@b
  1253  004700  C505  F513         	movff	?___xxtofl+1,___fldiv@b+1
  1254  004704  C506  F514         	movff	?___xxtofl+2,___fldiv@b+2
  1255  004708  C507  F515         	movff	?___xxtofl+3,___fldiv@b+3
  1256  00470C  EC6F  F021         	call	___fldiv	;wreg free
  1257  004710  C512  F52B         	movff	?___fldiv,___flmul@b
  1258  004714  C513  F52C         	movff	?___fldiv+1,___flmul@b+1
  1259  004718  C514  F52D         	movff	?___fldiv+2,___flmul@b+2
  1260  00471C  C515  F52E         	movff	?___fldiv+3,___flmul@b+3
  1261  004720  EC48  F01F         	call	___flmul	;wreg free
  1262  004724  C52B  F544         	movff	?___flmul,___fltol@f1
  1263  004728  C52C  F545         	movff	?___flmul+1,___fltol@f1+1
  1264  00472C  C52D  F546         	movff	?___flmul+2,___fltol@f1+2
  1265  004730  C52E  F547         	movff	?___flmul+3,___fltol@f1+3
  1266  004734  ECCC  F028         	call	___fltol	;wreg free
  1267  004738  5044               	movf	?___fltol^(0+1280),w,c
  1268  00473A  0106               	movlb	6	; () banked
  1269  00473C  6F76               	movwf	main@val_percent& (0+255),b
  1270  00473E                     
  1271                           ; BSR set to: 6
  1272                           ;main.c: 120:         INTCON0 &= ~(1 << 0x7);
  1273  00473E  9ED6               	bcf	214,7,c	;volatile
  1274  004740                     
  1275                           ; BSR set to: 6
  1276                           ;main.c: 121:         average_ms += contador_ms;
  1277  004740  0105               	movlb	5	; () banked
  1278  004742  51ED               	movf	_contador_ms& (0+255),w,b	;volatile
  1279  004744  27E9               	addwf	_average_ms& (0+255),f,b	;volatile
  1280  004746  51EE               	movf	(_contador_ms+1)& (0+255),w,b	;volatile
  1281  004748  23EA               	addwfc	(_average_ms+1)& (0+255),f,b	;volatile
  1282  00474A                     
  1283                           ; BSR set to: 5
  1284                           ;main.c: 122:         sample_counter++;
  1285  00474A  4BEB               	infsnz	_sample_counter& (0+255),f,b	;volatile
  1286  00474C  2BEC               	incf	(_sample_counter+1)& (0+255),f,b	;volatile
  1287  00474E                     
  1288                           ; BSR set to: 5
  1289                           ;main.c: 124:         INTCON0 |= (1 << 0x7);
  1290  00474E  8ED6               	bsf	214,7,c	;volatile
  1291  004750                     
  1292                           ; BSR set to: 5
  1293                           ;main.c: 125:         if(sample_counter >= 4)
  1294  004750  51EC               	movf	(_sample_counter+1)& (0+255),w,b	;volatile
  1295  004752  E109               	bnz	u8370
  1296  004754  0E04               	movlw	4
  1297  004756  5DEB               	subwf	_sample_counter& (0+255),w,b	;volatile
  1298  004758  A0D8               	btfss	status,0,c
  1299  00475A  EFB1  F023         	goto	u8371
  1300  00475E  EFB3  F023         	goto	u8370
  1301  004762                     u8371:
  1302  004762  EFCB  F023         	goto	l6379
  1303  004766                     u8370:
  1304  004766                     
  1305                           ; BSR set to: 5
  1306                           ;main.c: 126:         {;main.c: 127:             indicador_ms = (average_ms / 4) + 6;
  1307  004766  C5E9  F5D7         	movff	_average_ms,??_main	;volatile
  1308  00476A  C5EA  F5D8         	movff	_average_ms+1,??_main+1	;volatile
  1309  00476E  90D8               	bcf	status,0,c
  1310  004770  33D8               	rrcf	(??_main+1)& (0+255),f,b
  1311  004772  33D7               	rrcf	??_main& (0+255),f,b
  1312  004774  90D8               	bcf	status,0,c
  1313  004776  33D8               	rrcf	(??_main+1)& (0+255),f,b
  1314  004778  33D7               	rrcf	??_main& (0+255),f,b
  1315  00477A  0E06               	movlw	6
  1316  00477C  25D7               	addwf	??_main& (0+255),w,b
  1317  00477E  6FF3               	movwf	_indicador_ms& (0+255),b	;volatile
  1318  004780  0E00               	movlw	0
  1319  004782  21D8               	addwfc	(??_main+1)& (0+255),w,b
  1320  004784  6FF4               	movwf	(_indicador_ms+1)& (0+255),b	;volatile
  1321  004786                     
  1322                           ; BSR set to: 5
  1323                           ;main.c: 128:             sample_counter = 0;
  1324  004786  0E00               	movlw	0
  1325  004788  6FEC               	movwf	(_sample_counter+1)& (0+255),b	;volatile
  1326  00478A  0E00               	movlw	0
  1327  00478C  6FEB               	movwf	_sample_counter& (0+255),b	;volatile
  1328  00478E                     
  1329                           ; BSR set to: 5
  1330                           ;main.c: 129:             average_ms = 0;
  1331  00478E  0E00               	movlw	0
  1332  004790  6FEA               	movwf	(_average_ms+1)& (0+255),b	;volatile
  1333  004792  0E00               	movlw	0
  1334  004794  6FE9               	movwf	_average_ms& (0+255),b	;volatile
  1335  004796                     l6379:
  1336                           
  1337                           ; BSR set to: 5
  1338                           ;main.c: 132:         if(print_flag)
  1339  004796  51F2               	movf	_print_flag& (0+255),w,b
  1340  004798  B4D8               	btfsc	status,2,c
  1341  00479A  EFD1  F023         	goto	u8381
  1342  00479E  EFD3  F023         	goto	u8380
  1343  0047A2                     u8381:
  1344  0047A2  EF4C  F023         	goto	l6357
  1345  0047A6                     u8380:
  1346  0047A6                     
  1347                           ; BSR set to: 5
  1348                           ;main.c: 133:         {;main.c: 134:             if(indicador_ms <= 100)
  1349  0047A6  51F4               	movf	(_indicador_ms+1)& (0+255),w,b	;volatile
  1350  0047A8  E107               	bnz	u8391
  1351  0047AA  0E65               	movlw	101
  1352  0047AC  5DF3               	subwf	_indicador_ms& (0+255),w,b	;volatile
  1353  0047AE  B0D8               	btfsc	status,0,c
  1354  0047B0  EFDC  F023         	goto	u8391
  1355  0047B4  EFDE  F023         	goto	u8390
  1356  0047B8                     u8391:
  1357  0047B8  EFEB  F023         	goto	l6387
  1358  0047BC                     u8390:
  1359  0047BC                     
  1360                           ; BSR set to: 5
  1361                           ;main.c: 135:             {;main.c: 136:                FM_Lcd_Set_Cursor(ROW_2, COL_1);
  1362  0047BC  0E00               	movlw	0
  1363  0047BE  6E09               	movwf	FM_Lcd_Set_Cursor@columna^(0+1280),c
  1364  0047C0  0E01               	movlw	1
  1365  0047C2  EC88  F02F         	call	_FM_Lcd_Set_Cursor
  1366  0047C6                     
  1367                           ;main.c: 137:                FM_Lcd_Send_String("MAX SPEED!      ");
  1368  0047C6  0E16               	movlw	low STR_2
  1369  0047C8  6E09               	movwf	FM_Lcd_Send_String@cadena^(0+1280),c
  1370  0047CA  0E25               	movlw	high STR_2
  1371  0047CC  6E0A               	movwf	(FM_Lcd_Send_String@cadena+1)^(0+1280),c
  1372  0047CE  EC89  F02D         	call	_FM_Lcd_Send_String	;wreg free
  1373                           
  1374                           ;main.c: 138:             }
  1375  0047D2  EF4C  F023         	goto	l6357
  1376  0047D6                     l6387:
  1377                           
  1378                           ; BSR set to: 5
  1379  0047D6  0E88               	movlw	136
  1380  0047D8  5DF3               	subwf	_indicador_ms& (0+255),w,b	;volatile
  1381  0047DA  0E13               	movlw	19
  1382  0047DC  59F4               	subwfb	(_indicador_ms+1)& (0+255),w,b	;volatile
  1383  0047DE  A0D8               	btfss	status,0,c
  1384  0047E0  EFF4  F023         	goto	u8401
  1385  0047E4  EFF6  F023         	goto	u8400
  1386  0047E8                     u8401:
  1387  0047E8  EF03  F024         	goto	l6393
  1388  0047EC                     u8400:
  1389  0047EC                     
  1390                           ; BSR set to: 5
  1391                           ;main.c: 140:             {;main.c: 141:                FM_Lcd_Set_Cursor(ROW_2, COL_1);
  1392  0047EC  0E00               	movlw	0
  1393  0047EE  6E09               	movwf	FM_Lcd_Set_Cursor@columna^(0+1280),c
  1394  0047F0  0E01               	movlw	1
  1395  0047F2  EC88  F02F         	call	_FM_Lcd_Set_Cursor
  1396  0047F6                     
  1397                           ;main.c: 142:                FM_Lcd_Send_String("MOTOR STOPPED!      ");
  1398  0047F6  0E01               	movlw	low STR_3
  1399  0047F8  6E09               	movwf	FM_Lcd_Send_String@cadena^(0+1280),c
  1400  0047FA  0E25               	movlw	high STR_3
  1401  0047FC  6E0A               	movwf	(FM_Lcd_Send_String@cadena+1)^(0+1280),c
  1402  0047FE  EC89  F02D         	call	_FM_Lcd_Send_String	;wreg free
  1403                           
  1404                           ;main.c: 143:             }
  1405  004802  EF4C  F023         	goto	l6357
  1406  004806                     l6393:
  1407                           
  1408                           ; BSR set to: 5
  1409                           ;main.c: 145:             {;main.c: 146:                 float rpm = ((1/(indicador_ms *
      +                           (0.001)))) * 60;
  1410  004806  0E6F               	movlw	111
  1411  004808  6E2F               	movwf	___flmul@a^(0+1280),c
  1412  00480A  0E12               	movlw	18
  1413  00480C  6E30               	movwf	(___flmul@a+1)^(0+1280),c
  1414  00480E  0E83               	movlw	131
  1415  004810  6E31               	movwf	(___flmul@a+2)^(0+1280),c
  1416  004812  0E3A               	movlw	58
  1417  004814  6E32               	movwf	(___flmul@a+3)^(0+1280),c
  1418  004816  C5F3  F504         	movff	_indicador_ms,___xxtofl@val	;volatile
  1419  00481A  C5F4  F505         	movff	_indicador_ms+1,___xxtofl@val+1	;volatile
  1420  00481E  6A06               	clrf	(___xxtofl@val+2)^(0+1280),c
  1421  004820  6A07               	clrf	(___xxtofl@val+3)^(0+1280),c
  1422  004822  0E00               	movlw	0
  1423  004824  EC5C  F027         	call	___xxtofl
  1424  004828  C504  F52B         	movff	?___xxtofl,___flmul@b
  1425  00482C  C505  F52C         	movff	?___xxtofl+1,___flmul@b+1
  1426  004830  C506  F52D         	movff	?___xxtofl+2,___flmul@b+2
  1427  004834  C507  F52E         	movff	?___xxtofl+3,___flmul@b+3
  1428  004838  EC48  F01F         	call	___flmul	;wreg free
  1429  00483C  C52B  F516         	movff	?___flmul,___fldiv@a
  1430  004840  C52C  F517         	movff	?___flmul+1,___fldiv@a+1
  1431  004844  C52D  F518         	movff	?___flmul+2,___fldiv@a+2
  1432  004848  C52E  F519         	movff	?___flmul+3,___fldiv@a+3
  1433  00484C  0E00               	movlw	0
  1434  00484E  6E12               	movwf	___fldiv@b^(0+1280),c
  1435  004850  0E00               	movlw	0
  1436  004852  6E13               	movwf	(___fldiv@b+1)^(0+1280),c
  1437  004854  0E80               	movlw	128
  1438  004856  6E14               	movwf	(___fldiv@b+2)^(0+1280),c
  1439  004858  0E3F               	movlw	63
  1440  00485A  6E15               	movwf	(___fldiv@b+3)^(0+1280),c
  1441  00485C  EC6F  F021         	call	___fldiv	;wreg free
  1442  004860  C512  F670         	movff	?___fldiv,_main$1251
  1443  004864  C513  F671         	movff	?___fldiv+1,_main$1251+1
  1444  004868  C514  F672         	movff	?___fldiv+2,_main$1251+2
  1445  00486C  C515  F673         	movff	?___fldiv+3,_main$1251+3
  1446                           
  1447                           ;main.c: 145:             {;main.c: 146:                 float rpm = ((1/(indicador_ms *
      +                           (0.001)))) * 60;
  1448  004870  C670  F52B         	movff	_main$1251,___flmul@b
  1449  004874  C671  F52C         	movff	_main$1251+1,___flmul@b+1
  1450  004878  C672  F52D         	movff	_main$1251+2,___flmul@b+2
  1451  00487C  C673  F52E         	movff	_main$1251+3,___flmul@b+3
  1452  004880  0E00               	movlw	0
  1453  004882  6E2F               	movwf	___flmul@a^(0+1280),c
  1454  004884  0E00               	movlw	0
  1455  004886  6E30               	movwf	(___flmul@a+1)^(0+1280),c
  1456  004888  0E70               	movlw	112
  1457  00488A  6E31               	movwf	(___flmul@a+2)^(0+1280),c
  1458  00488C  0E42               	movlw	66
  1459  00488E  6E32               	movwf	(___flmul@a+3)^(0+1280),c
  1460  004890  EC48  F01F         	call	___flmul	;wreg free
  1461  004894  C52B  F66C         	movff	?___flmul,main@rpm
  1462  004898  C52C  F66D         	movff	?___flmul+1,main@rpm+1
  1463  00489C  C52D  F66E         	movff	?___flmul+2,main@rpm+2
  1464  0048A0  C52E  F66F         	movff	?___flmul+3,main@rpm+3
  1465  0048A4                     
  1466                           ;main.c: 147:                 sprintf(msj, "V=%-3u%% R=%.2f", val_percent, rpm);
  1467  0048A4  0E5C               	movlw	low _msj
  1468  0048A6  0105               	movlb	5	; () banked
  1469  0048A8  6FC5               	movwf	sprintf@s& (0+255),b
  1470  0048AA  0E06               	movlw	high _msj
  1471  0048AC  6FC6               	movwf	(sprintf@s+1)& (0+255),b
  1472  0048AE  0E27               	movlw	low STR_4
  1473  0048B0  6FC7               	movwf	sprintf@fmt& (0+255),b
  1474  0048B2  0E25               	movlw	high STR_4
  1475  0048B4  6FC8               	movwf	(sprintf@fmt+1)& (0+255),b
  1476  0048B6  C676  F5C9         	movff	main@val_percent,?_sprintf+4
  1477  0048BA  6BCA               	clrf	(?_sprintf+5)& (0+255),b
  1478  0048BC  C66C  F5CB         	movff	main@rpm,?_sprintf+6
  1479  0048C0  C66D  F5CC         	movff	main@rpm+1,?_sprintf+7
  1480  0048C4  C66E  F5CD         	movff	main@rpm+2,?_sprintf+8
  1481  0048C8  C66F  F5CE         	movff	main@rpm+3,?_sprintf+9
  1482  0048CC  ECCD  F02E         	call	_sprintf	;wreg free
  1483  0048D0                     
  1484                           ;main.c: 148:                 FM_Lcd_Set_Cursor(ROW_2, COL_1);
  1485  0048D0  0E00               	movlw	0
  1486  0048D2  6E09               	movwf	FM_Lcd_Set_Cursor@columna^(0+1280),c
  1487  0048D4  0E01               	movlw	1
  1488  0048D6  EC88  F02F         	call	_FM_Lcd_Set_Cursor
  1489  0048DA                     
  1490                           ;main.c: 149:                 FM_Lcd_Send_String(msj);
  1491  0048DA  0E5C               	movlw	low _msj
  1492  0048DC  6E09               	movwf	FM_Lcd_Send_String@cadena^(0+1280),c
  1493  0048DE  0E06               	movlw	high _msj
  1494  0048E0  6E0A               	movwf	(FM_Lcd_Send_String@cadena+1)^(0+1280),c
  1495  0048E2  EC89  F02D         	call	_FM_Lcd_Send_String	;wreg free
  1496  0048E6  EF4C  F023         	goto	l6357
  1497  0048EA  EF0D  F000         	goto	start
  1498  0048EE                     __end_of_main:
  1499                           	callstack 0
  1500                           
  1501 ;; *************** function _sprintf *****************
  1502 ;; Defined at:
  1503 ;;		line 9 in file "C:\Program Files\Microchip\xc8\v2.32\pic\sources\c99\common\nf_sprintf.c"
  1504 ;; Parameters:    Size  Location     Type
  1505 ;;  s               2  101[BANK5 ] PTR unsigned char 
  1506 ;;		 -> msj(16), 
  1507 ;;  fmt             2  103[BANK5 ] PTR const unsigned char 
  1508 ;;		 -> STR_4(16), 
  1509 ;; Auto vars:     Size  Location     Type
  1510 ;;  f               6  113[BANK5 ] struct _IO_FILE
  1511 ;;  ap              2  111[BANK5 ] PTR void [1]
  1512 ;;		 -> ?_sprintf(2), 
  1513 ;;  ret             2    0        int 
  1514 ;; Return value:  Size  Location     Type
  1515 ;;                  2  101[BANK5 ] int 
  1516 ;; Registers used:
  1517 ;;		wreg, fsr1l, fsr1h, fsr2l, fsr2h, status,2, status,0, tblptrl, tblptrh, tblptru, prodl, prodh, cstack
  1518 ;; Tracked objects:
  1519 ;;		On entry : 0/0
  1520 ;;		On exit  : 0/0
  1521 ;;		Unchanged: 0/0
  1522 ;; Data sizes:     COMRAM   BANK5   BANK6   BANK7   BANK8   BANK9  BANK10  BANK11  BANK12  BANK13  BANK14  BANK15  BANK1
      +6  BANK17  BANK18  BANK19  BANK20  BANK21  BANK22  BANK23  BANK24  BANK25  BANK26  BANK27  BANK28  BANK29  BANK30  BANK3
      +1  BANK32  BANK33  BANK34  BANK35  BANK36
  1523 ;;      Params:         0      10       0       0       0       0       0       0       0       0       0       0       
      +0       0       0       0       0       0       0       0       0       0       0       0       0       0       0       
      +0       0       0       0       0       0
  1524 ;;      Locals:         0       8       0       0       0       0       0       0       0       0       0       0       
      +0       0       0       0       0       0       0       0       0       0       0       0       0       0       0       
      +0       0       0       0       0       0
  1525 ;;      Temps:          0       0       0       0       0       0       0       0       0       0       0       0       
      +0       0       0       0       0       0       0       0       0       0       0       0       0       0       0       
      +0       0       0       0       0       0
  1526 ;;      Totals:         0      18       0       0       0       0       0       0       0       0       0       0       
      +0       0       0       0       0       0       0       0       0       0       0       0       0       0       0       
      +0       0       0       0       0       0
  1527 ;;Total ram usage:       18 bytes
  1528 ;; Hardware stack levels used: 1
  1529 ;; Hardware stack levels required when called: 9
  1530 ;; This function calls:
  1531 ;;		_vfprintf
  1532 ;; This function is called by:
  1533 ;;		_main
  1534 ;; This function uses a non-reentrant model
  1535 ;;
  1536                           
  1537                           	psect	text1
  1538  005D9A                     __ptext1:
  1539                           	callstack 0
  1540  005D9A                     _sprintf:
  1541                           	callstack 117
  1542  005D9A  0EC9               	movlw	low (?_sprintf+4)
  1543  005D9C  0105               	movlb	5	; () banked
  1544  005D9E  6FCF               	movwf	sprintf@ap& (0+255),b
  1545  005DA0  0E05               	movlw	high (?_sprintf+4)
  1546  005DA2  6FD0               	movwf	(sprintf@ap+1)& (0+255),b
  1547  005DA4  C5C5  F5D1         	movff	sprintf@s,sprintf@f
  1548  005DA8  C5C6  F5D2         	movff	sprintf@s+1,sprintf@f+1
  1549  005DAC                     
  1550                           ; BSR set to: 5
  1551  005DAC  0E00               	movlw	0
  1552  005DAE  6FD4               	movwf	(sprintf@f+3)& (0+255),b
  1553  005DB0  0E00               	movlw	0
  1554  005DB2  6FD3               	movwf	(sprintf@f+2)& (0+255),b
  1555  005DB4                     
  1556                           ; BSR set to: 5
  1557  005DB4  0E00               	movlw	0
  1558  005DB6  6FD6               	movwf	(sprintf@f+5)& (0+255),b
  1559  005DB8  0E00               	movlw	0
  1560  005DBA  6FD5               	movwf	(sprintf@f+4)& (0+255),b
  1561  005DBC                     
  1562                           ; BSR set to: 5
  1563  005DBC  0ED1               	movlw	low sprintf@f
  1564  005DBE  6FBF               	movwf	vfprintf@fp& (0+255),b
  1565  005DC0  0E05               	movlw	high sprintf@f
  1566  005DC2  6FC0               	movwf	(vfprintf@fp+1)& (0+255),b
  1567  005DC4  C5C7  F5C1         	movff	sprintf@fmt,vfprintf@fmt
  1568  005DC8  C5C8  F5C2         	movff	sprintf@fmt+1,vfprintf@fmt+1
  1569  005DCC  0ECF               	movlw	low sprintf@ap
  1570  005DCE  6FC3               	movwf	vfprintf@ap& (0+255),b
  1571  005DD0  0E05               	movlw	high sprintf@ap
  1572  005DD2  6FC4               	movwf	(vfprintf@ap+1)& (0+255),b
  1573  005DD4  EC05  F02E         	call	_vfprintf	;wreg free
  1574  005DD8  0105               	movlb	5	; () banked
  1575  005DDA  51D3               	movf	(sprintf@f+2)& (0+255),w,b
  1576  005DDC  25C5               	addwf	sprintf@s& (0+255),w,b
  1577  005DDE  6ED9               	movwf	fsr2l,c
  1578  005DE0  51D4               	movf	(sprintf@f+3)& (0+255),w,b
  1579  005DE2  21C6               	addwfc	(sprintf@s+1)& (0+255),w,b
  1580  005DE4  6EDA               	movwf	fsr2h,c
  1581  005DE6  0E00               	movlw	0
  1582  005DE8  6EDF               	movwf	indf2,c
  1583  005DEA                     
  1584                           ; BSR set to: 5
  1585  005DEA  0012               	return		;funcret
  1586  005DEC                     __end_of_sprintf:
  1587                           	callstack 0
  1588                           
  1589 ;; *************** function _vfprintf *****************
  1590 ;; Defined at:
  1591 ;;		line 1390 in file "C:\Program Files\Microchip\xc8\v2.32\pic\sources\c99\common\doprnt.c"
  1592 ;; Parameters:    Size  Location     Type
  1593 ;;  fp              2   95[BANK5 ] PTR struct _IO_FILE
  1594 ;;		 -> sprintf@f(6), 
  1595 ;;  fmt             2   97[BANK5 ] PTR const unsigned char 
  1596 ;;		 -> STR_4(16), 
  1597 ;;  ap              2   99[BANK5 ] PTR PTR void 
  1598 ;;		 -> sprintf@ap(2), 
  1599 ;; Auto vars:     Size  Location     Type
  1600 ;;  cfmt            2   86[COMRAM] PTR unsigned char 
  1601 ;;		 -> STR_4(16), 
  1602 ;; Return value:  Size  Location     Type
  1603 ;;                  2   95[BANK5 ] int 
  1604 ;; Registers used:
  1605 ;;		wreg, fsr1l, fsr1h, fsr2l, fsr2h, status,2, status,0, tblptrl, tblptrh, tblptru, prodl, prodh, cstack
  1606 ;; Tracked objects:
  1607 ;;		On entry : 0/0
  1608 ;;		On exit  : 0/0
  1609 ;;		Unchanged: 0/0
  1610 ;; Data sizes:     COMRAM   BANK5   BANK6   BANK7   BANK8   BANK9  BANK10  BANK11  BANK12  BANK13  BANK14  BANK15  BANK1
      +6  BANK17  BANK18  BANK19  BANK20  BANK21  BANK22  BANK23  BANK24  BANK25  BANK26  BANK27  BANK28  BANK29  BANK30  BANK3
      +1  BANK32  BANK33  BANK34  BANK35  BANK36
  1611 ;;      Params:         0       6       0       0       0       0       0       0       0       0       0       0       
      +0       0       0       0       0       0       0       0       0       0       0       0       0       0       0       
      +0       0       0       0       0       0
  1612 ;;      Locals:         2       0       0       0       0       0       0       0       0       0       0       0       
      +0       0       0       0       0       0       0       0       0       0       0       0       0       0       0       
      +0       0       0       0       0       0
  1613 ;;      Temps:          0       0       0       0       0       0       0       0       0       0       0       0       
      +0       0       0       0       0       0       0       0       0       0       0       0       0       0       0       
      +0       0       0       0       0       0
  1614 ;;      Totals:         2       6       0       0       0       0       0       0       0       0       0       0       
      +0       0       0       0       0       0       0       0       0       0       0       0       0       0       0       
      +0       0       0       0       0       0
  1615 ;;Total ram usage:        8 bytes
  1616 ;; Hardware stack levels used: 1
  1617 ;; Hardware stack levels required when called: 8
  1618 ;; This function calls:
  1619 ;;		_vfpfcnvrt
  1620 ;; This function is called by:
  1621 ;;		_sprintf
  1622 ;; This function uses a non-reentrant model
  1623 ;;
  1624                           
  1625                           	psect	text2
  1626  005C0A                     __ptext2:
  1627                           	callstack 0
  1628  005C0A                     _vfprintf:
  1629                           	callstack 117
  1630  005C0A                     
  1631                           ;C:\Program Files\Microchip\xc8\v2.32\pic\sources\c99\common\doprnt.c: 1390: int vfprint
      +                          f(FILE *fp, const char *fmt, va_list ap);C:\Program Files\Microchip\xc8\v2.32\pic\source
      +                          s\c99\common\doprnt.c: 1391: {;C:\Program Files\Microchip\xc8\v2.32\pic\sources\c99\comm
      +                          on\doprnt.c: 1393:     char *cfmt;;C:\Program Files\Microchip\xc8\v2.32\pic\sources\c99\
      +                          common\doprnt.c: 1395:     cfmt = (char *)fmt;
  1632  005C0A  C5C1  F557         	movff	vfprintf@fmt,vfprintf@cfmt
  1633  005C0E  C5C2  F558         	movff	vfprintf@fmt+1,vfprintf@cfmt+1
  1634  005C12                     
  1635                           ;C:\Program Files\Microchip\xc8\v2.32\pic\sources\c99\common\doprnt.c: 1396:     nout = 
      +                          0;
  1636  005C12  0E00               	movlw	0
  1637  005C14  0105               	movlb	5	; () banked
  1638  005C16  6FE6               	movwf	(_nout+1)& (0+255),b
  1639  005C18  0E00               	movlw	0
  1640  005C1A  6FE5               	movwf	_nout& (0+255),b
  1641                           
  1642                           ;C:\Program Files\Microchip\xc8\v2.32\pic\sources\c99\common\doprnt.c: 1397:     while (
      +                          *cfmt) {
  1643  005C1C  EF23  F02E         	goto	l6253
  1644  005C20                     l6251:
  1645                           
  1646                           ; BSR set to: 5
  1647                           ;C:\Program Files\Microchip\xc8\v2.32\pic\sources\c99\common\doprnt.c: 1398:         nou
      +                          t += vfpfcnvrt(fp, &cfmt, ap);
  1648  005C20  C5BF  F59D         	movff	vfprintf@fp,vfpfcnvrt@fp
  1649  005C24  C5C0  F59E         	movff	vfprintf@fp+1,vfpfcnvrt@fp+1
  1650  005C28  0E57               	movlw	low vfprintf@cfmt
  1651  005C2A  6F9F               	movwf	vfpfcnvrt@fmt& (0+255),b
  1652  005C2C  0E05               	movlw	high vfprintf@cfmt
  1653  005C2E  6FA0               	movwf	(vfpfcnvrt@fmt+1)& (0+255),b
  1654  005C30  C5C3  F5A1         	movff	vfprintf@ap,vfpfcnvrt@ap
  1655  005C34  C5C4  F5A2         	movff	vfprintf@ap+1,vfpfcnvrt@ap+1
  1656  005C38  ECDB  F018         	call	_vfpfcnvrt	;wreg free
  1657  005C3C  0105               	movlb	5	; () banked
  1658  005C3E  519D               	movf	?_vfpfcnvrt& (0+255),w,b
  1659  005C40  27E5               	addwf	_nout& (0+255),f,b
  1660  005C42  519E               	movf	(?_vfpfcnvrt+1)& (0+255),w,b
  1661  005C44  23E6               	addwfc	(_nout+1)& (0+255),f,b
  1662  005C46                     l6253:
  1663                           
  1664                           ; BSR set to: 5
  1665                           ;C:\Program Files\Microchip\xc8\v2.32\pic\sources\c99\common\doprnt.c: 1397:     while (
      +                          *cfmt) {
  1666  005C46  0061  F55C  F4F6   	movff	vfprintf@cfmt,tblptrl
  1667  005C4C  0061  F560  F4F7   	movff	vfprintf@cfmt+1,tblptrh
  1668  005C52                     	if	0	;tblptru may be non-zero
  1669  005C52                     	endif
  1670  005C52                     	if	1	;Program memory is > 0xFFFF, there are 3 active tblptr bytes
  1671  005C52  0E00               	movlw	low (__mediumconst shr (0+16))
  1672  005C54  6EF8               	movwf	tblptru,c
  1673  005C56                     	endif
  1674  005C56  0008               	tblrd		*
  1675  005C58  50F5               	movf	tablat,w,c
  1676  005C5A  0900               	iorlw	0
  1677  005C5C  A4D8               	btfss	status,2,c
  1678  005C5E  EF33  F02E         	goto	u8201
  1679  005C62  EF35  F02E         	goto	u8200
  1680  005C66                     u8201:
  1681  005C66  EF10  F02E         	goto	l6251
  1682  005C6A                     u8200:
  1683  005C6A                     
  1684                           ; BSR set to: 5
  1685                           ;C:\Program Files\Microchip\xc8\v2.32\pic\sources\c99\common\doprnt.c: 1400:     return 
      +                          nout;
  1686  005C6A  C5E5  F5BF         	movff	_nout,?_vfprintf
  1687  005C6E  C5E6  F5C0         	movff	_nout+1,?_vfprintf+1
  1688  005C72                     
  1689                           ; BSR set to: 5
  1690  005C72  0012               	return		;funcret
  1691  005C74                     __end_of_vfprintf:
  1692                           	callstack 0
  1693                           
  1694 ;; *************** function _vfpfcnvrt *****************
  1695 ;; Defined at:
  1696 ;;		line 692 in file "C:\Program Files\Microchip\xc8\v2.32\pic\sources\c99\common\doprnt.c"
  1697 ;; Parameters:    Size  Location     Type
  1698 ;;  fp              2   61[BANK5 ] PTR struct _IO_FILE
  1699 ;;		 -> sprintf@f(6), 
  1700 ;;  fmt             2   63[BANK5 ] PTR PTR unsigned char 
  1701 ;;		 -> vfprintf@cfmt(2), 
  1702 ;;  ap              2   65[BANK5 ] PTR PTR void 
  1703 ;;		 -> sprintf@ap(2), 
  1704 ;; Auto vars:     Size  Location     Type
  1705 ;;  llu             8   71[BANK5 ] unsigned long long 
  1706 ;;  ll              8    0        long long 
  1707 ;;  f               4   87[BANK5 ] long long 
  1708 ;;  ct              3   91[BANK5 ] unsigned char [3]
  1709 ;;  vp              3    0        PTR void 
  1710 ;;  cp              3    0        PTR unsigned char 
  1711 ;;  done            2   79[BANK5 ] int 
  1712 ;;  i               2    0        int 
  1713 ;;  c               1   94[BANK5 ] unsigned char 
  1714 ;; Return value:  Size  Location     Type
  1715 ;;                  2   61[BANK5 ] int 
  1716 ;; Registers used:
  1717 ;;		wreg, fsr1l, fsr1h, fsr2l, fsr2h, status,2, status,0, tblptrl, tblptrh, tblptru, prodl, prodh, cstack
  1718 ;; Tracked objects:
  1719 ;;		On entry : 0/0
  1720 ;;		On exit  : 0/0
  1721 ;;		Unchanged: 0/0
  1722 ;; Data sizes:     COMRAM   BANK5   BANK6   BANK7   BANK8   BANK9  BANK10  BANK11  BANK12  BANK13  BANK14  BANK15  BANK1
      +6  BANK17  BANK18  BANK19  BANK20  BANK21  BANK22  BANK23  BANK24  BANK25  BANK26  BANK27  BANK28  BANK29  BANK30  BANK3
      +1  BANK32  BANK33  BANK34  BANK35  BANK36
  1723 ;;      Params:         0       6       0       0       0       0       0       0       0       0       0       0       
      +0       0       0       0       0       0       0       0       0       0       0       0       0       0       0       
      +0       0       0       0       0       0
  1724 ;;      Locals:         0      24       0       0       0       0       0       0       0       0       0       0       
      +0       0       0       0       0       0       0       0       0       0       0       0       0       0       0       
      +0       0       0       0       0       0
  1725 ;;      Temps:          0       4       0       0       0       0       0       0       0       0       0       0       
      +0       0       0       0       0       0       0       0       0       0       0       0       0       0       0       
      +0       0       0       0       0       0
  1726 ;;      Totals:         0      34       0       0       0       0       0       0       0       0       0       0       
      +0       0       0       0       0       0       0       0       0       0       0       0       0       0       0       
      +0       0       0       0       0       0
  1727 ;;Total ram usage:       34 bytes
  1728 ;; Hardware stack levels used: 1
  1729 ;; Hardware stack levels required when called: 7
  1730 ;; This function calls:
  1731 ;;		_atoi
  1732 ;;		_efgtoa
  1733 ;;		_fputc
  1734 ;;		_isdigit
  1735 ;;		_isupper
  1736 ;;		_strncmp
  1737 ;;		_tolower
  1738 ;;		_utoa
  1739 ;; This function is called by:
  1740 ;;		_vfprintf
  1741 ;; This function uses a non-reentrant model
  1742 ;;
  1743                           
  1744                           	psect	text3
  1745  0031B6                     __ptext3:
  1746                           	callstack 0
  1747  0031B6                     _vfpfcnvrt:
  1748                           	callstack 117
  1749  0031B6                     
  1750                           ;C:\Program Files\Microchip\xc8\v2.32\pic\sources\c99\common\doprnt.c: 692: static int v
      +                          fpfcnvrt(FILE *fp, char *fmt[], va_list ap);C:\Program Files\Microchip\xc8\v2.32\pic\sou
      +                          rces\c99\common\doprnt.c: 693: {;C:\Program Files\Microchip\xc8\v2.32\pic\sources\c99\co
      +                          mmon\doprnt.c: 694:     char c, *cp, ct[3];;C:\Program Files\Microchip\xc8\v2.32\pic\sou
      +                          rces\c99\common\doprnt.c: 695:     int done, i;;C:\Program Files\Microchip\xc8\v2.32\pic
      +                          \sources\c99\common\doprnt.c: 696:     long long ll;;C:\Program Files\Microchip\xc8\v2.3
      +                          2\pic\sources\c99\common\doprnt.c: 697:     unsigned long long llu;
  1751  0031B6  0061  F67C  F4D9   	movff	vfpfcnvrt@fmt,fsr2l
  1752  0031BC  0061  F680  F4DA   	movff	vfpfcnvrt@fmt+1,fsr2h
  1753  0031C2  C4DE F4F6          	movff	postinc2,tblptrl
  1754  0031C6  C4DD F4F7          	movff	postdec2,tblptrh
  1755  0031CA                     	if	0	;tblptru may be non-zero
  1756  0031CA                     	endif
  1757  0031CA                     	if	1	;Program memory is > 0xFFFF, there are 3 active tblptr bytes
  1758  0031CA  0E00               	movlw	low (__mediumconst shr (0+16))
  1759  0031CC  6EF8               	movwf	tblptru,c
  1760  0031CE                     	endif
  1761  0031CE  0008               	tblrd		*
  1762  0031D0  50F5               	movf	tablat,w,c
  1763  0031D2  0A25               	xorlw	37
  1764  0031D4  A4D8               	btfss	status,2,c
  1765  0031D6  EFEF  F018         	goto	u7981
  1766  0031DA  EFF1  F018         	goto	u7980
  1767  0031DE                     u7981:
  1768  0031DE  EFC6  F01C         	goto	l6149
  1769  0031E2                     u7980:
  1770  0031E2                     
  1771                           ;C:\Program Files\Microchip\xc8\v2.32\pic\sources\c99\common\doprnt.c: 703:         ++*f
      +                          mt;
  1772  0031E2  0061  F67C  F4D9   	movff	vfpfcnvrt@fmt,fsr2l
  1773  0031E8  0061  F680  F4DA   	movff	vfpfcnvrt@fmt+1,fsr2h
  1774  0031EE  2ADE               	incf	postinc2,f,c
  1775  0031F0  0E00               	movlw	0
  1776  0031F2  22DD               	addwfc	postdec2,f,c
  1777  0031F4                     
  1778                           ;C:\Program Files\Microchip\xc8\v2.32\pic\sources\c99\common\doprnt.c: 705:         flag
      +                          s = width = 0;
  1779  0031F4  0E00               	movlw	0
  1780  0031F6  0105               	movlb	5	; () banked
  1781  0031F8  6FE8               	movwf	(_width+1)& (0+255),b
  1782  0031FA  0E00               	movlw	0
  1783  0031FC  6FE7               	movwf	_width& (0+255),b
  1784  0031FE  C5E7  F55B         	movff	_width,_flags
  1785  003202  C5E8  F55C         	movff	_width+1,_flags+1
  1786  003206                     
  1787                           ; BSR set to: 5
  1788                           ;C:\Program Files\Microchip\xc8\v2.32\pic\sources\c99\common\doprnt.c: 706:         prec
      +                           = -1;
  1789  003206  6859               	setf	_prec^(0+1280),c
  1790  003208  685A               	setf	(_prec+1)^(0+1280),c
  1791  00320A                     
  1792                           ; BSR set to: 5
  1793                           ;C:\Program Files\Microchip\xc8\v2.32\pic\sources\c99\common\doprnt.c: 710:         done
      +                           = 0;
  1794  00320A  0E00               	movlw	0
  1795  00320C  6FB0               	movwf	(vfpfcnvrt@done+1)& (0+255),b
  1796  00320E  0E00               	movlw	0
  1797  003210  6FAF               	movwf	vfpfcnvrt@done& (0+255),b
  1798                           
  1799                           ;C:\Program Files\Microchip\xc8\v2.32\pic\sources\c99\common\doprnt.c: 711:         whil
      +                          e (!done) {
  1800  003212  EF57  F019         	goto	l6045
  1801  003216                     l6019:
  1802                           
  1803                           ; BSR set to: 5
  1804                           ;C:\Program Files\Microchip\xc8\v2.32\pic\sources\c99\common\doprnt.c: 714:             
      +                                  flags |= (1 << 0);
  1805  003216  805B               	bsf	_flags^(0+1280),0,c
  1806  003218                     l6021:
  1807                           
  1808                           ; BSR set to: 5
  1809                           ;C:\Program Files\Microchip\xc8\v2.32\pic\sources\c99\common\doprnt.c: 715:             
      +                                  ++*fmt;
  1810  003218  0061  F67C  F4D9   	movff	vfpfcnvrt@fmt,fsr2l
  1811  00321E  0061  F680  F4DA   	movff	vfpfcnvrt@fmt+1,fsr2h
  1812  003224  2ADE               	incf	postinc2,f,c
  1813  003226  0E00               	movlw	0
  1814  003228  22DD               	addwfc	postdec2,f,c
  1815                           
  1816                           ;C:\Program Files\Microchip\xc8\v2.32\pic\sources\c99\common\doprnt.c: 716:             
      +                                  break;
  1817  00322A  EF57  F019         	goto	l6045
  1818  00322E                     l6023:
  1819                           
  1820                           ; BSR set to: 5
  1821                           ;C:\Program Files\Microchip\xc8\v2.32\pic\sources\c99\common\doprnt.c: 718:             
      +                                  flags |= (1 << 1);
  1822  00322E  825B               	bsf	_flags^(0+1280),1,c
  1823  003230  EF0C  F019         	goto	l6021
  1824  003234                     l6027:
  1825                           
  1826                           ; BSR set to: 5
  1827                           ;C:\Program Files\Microchip\xc8\v2.32\pic\sources\c99\common\doprnt.c: 722:             
      +                                  flags |= (1 << 2);
  1828  003234  845B               	bsf	_flags^(0+1280),2,c
  1829  003236  EF0C  F019         	goto	l6021
  1830  00323A                     l6031:
  1831                           
  1832                           ; BSR set to: 5
  1833                           ;C:\Program Files\Microchip\xc8\v2.32\pic\sources\c99\common\doprnt.c: 726:             
      +                                  flags |= (1 << 3);
  1834  00323A  865B               	bsf	_flags^(0+1280),3,c
  1835  00323C  EF0C  F019         	goto	l6021
  1836  003240                     l6035:
  1837                           
  1838                           ; BSR set to: 5
  1839                           ;C:\Program Files\Microchip\xc8\v2.32\pic\sources\c99\common\doprnt.c: 730:             
      +                                  flags |= (1 << 4);
  1840  003240  885B               	bsf	_flags^(0+1280),4,c
  1841  003242  EF0C  F019         	goto	l6021
  1842  003246                     l6039:
  1843                           
  1844                           ; BSR set to: 5
  1845                           ;C:\Program Files\Microchip\xc8\v2.32\pic\sources\c99\common\doprnt.c: 734:             
      +                                  done = 1;
  1846  003246  0E00               	movlw	0
  1847  003248  6FB0               	movwf	(vfpfcnvrt@done+1)& (0+255),b
  1848  00324A  0E01               	movlw	1
  1849  00324C  6FAF               	movwf	vfpfcnvrt@done& (0+255),b
  1850                           
  1851                           ;C:\Program Files\Microchip\xc8\v2.32\pic\sources\c99\common\doprnt.c: 735:             
      +                                  break;
  1852  00324E  EF57  F019         	goto	l6045
  1853  003252                     l6043:
  1854                           
  1855                           ; BSR set to: 5
  1856  003252  0061  F67C  F4D9   	movff	vfpfcnvrt@fmt,fsr2l
  1857  003258  0061  F680  F4DA   	movff	vfpfcnvrt@fmt+1,fsr2h
  1858  00325E  C4DE F4F6          	movff	postinc2,tblptrl
  1859  003262  C4DD F4F7          	movff	postdec2,tblptrh
  1860  003266                     	if	0	;tblptru may be non-zero
  1861  003266                     	endif
  1862  003266                     	if	1	;Program memory is > 0xFFFF, there are 3 active tblptr bytes
  1863  003266  0E00               	movlw	low (__mediumconst shr (0+16))
  1864  003268  6EF8               	movwf	tblptru,c
  1865  00326A                     	endif
  1866  00326A  0008               	tblrd		*
  1867  00326C  50F5               	movf	tablat,w,c
  1868  00326E  6FA3               	movwf	??_vfpfcnvrt& (0+255),b
  1869  003270  6BA4               	clrf	(??_vfpfcnvrt+1)& (0+255),b
  1870                           
  1871                           ; Switch on 2 bytes has been partitioned into a top level switch of size 1, and 1 sub-sw
      +                          itches
  1872                           ; Switch size 1, requested type "simple"
  1873                           ; Number of cases is 1, Range of values is 0 to 0
  1874                           ; switch strategies available:
  1875                           ; Name         Instructions Cycles
  1876                           ; simple_byte            4     3 (average)
  1877                           ;	Chosen strategy is simple_byte
  1878  003272  51A4               	movf	(??_vfpfcnvrt+1)& (0+255),w,b
  1879  003274  0A00               	xorlw	0	; case 0
  1880  003276  B4D8               	btfsc	status,2,c
  1881  003278  EF40  F019         	goto	l6461
  1882  00327C  EF23  F019         	goto	l6039
  1883  003280                     l6461:
  1884                           
  1885                           ; BSR set to: 5
  1886                           ; Switch size 1, requested type "simple"
  1887                           ; Number of cases is 5, Range of values is 32 to 48
  1888                           ; switch strategies available:
  1889                           ; Name         Instructions Cycles
  1890                           ; simple_byte           16     9 (average)
  1891                           ;	Chosen strategy is simple_byte
  1892  003280  51A3               	movf	??_vfpfcnvrt& (0+255),w,b
  1893  003282  0A20               	xorlw	32	; case 32
  1894  003284  B4D8               	btfsc	status,2,c
  1895  003286  EF1D  F019         	goto	l6031
  1896  00328A  0A03               	xorlw	3	; case 35
  1897  00328C  B4D8               	btfsc	status,2,c
  1898  00328E  EF20  F019         	goto	l6035
  1899  003292  0A08               	xorlw	8	; case 43
  1900  003294  B4D8               	btfsc	status,2,c
  1901  003296  EF1A  F019         	goto	l6027
  1902  00329A  0A06               	xorlw	6	; case 45
  1903  00329C  B4D8               	btfsc	status,2,c
  1904  00329E  EF0B  F019         	goto	l6019
  1905  0032A2  0A1D               	xorlw	29	; case 48
  1906  0032A4  B4D8               	btfsc	status,2,c
  1907  0032A6  EF17  F019         	goto	l6023
  1908  0032AA  EF23  F019         	goto	l6039
  1909  0032AE                     l6045:
  1910                           
  1911                           ; BSR set to: 5
  1912                           ;C:\Program Files\Microchip\xc8\v2.32\pic\sources\c99\common\doprnt.c: 711:         whil
      +                          e (!done) {
  1913  0032AE  51AF               	movf	vfpfcnvrt@done& (0+255),w,b
  1914  0032B0  11B0               	iorwf	(vfpfcnvrt@done+1)& (0+255),w,b
  1915  0032B2  B4D8               	btfsc	status,2,c
  1916  0032B4  EF5E  F019         	goto	u7991
  1917  0032B8  EF60  F019         	goto	u7990
  1918  0032BC                     u7991:
  1919  0032BC  EF29  F019         	goto	l6043
  1920  0032C0                     u7990:
  1921  0032C0                     
  1922                           ; BSR set to: 5
  1923                           ;C:\Program Files\Microchip\xc8\v2.32\pic\sources\c99\common\doprnt.c: 738:         if (
      +                          flags & (1 << 0)) {
  1924  0032C0  A05B               	btfss	_flags^(0+1280),0,c
  1925  0032C2  EF65  F019         	goto	u8001
  1926  0032C6  EF67  F019         	goto	u8000
  1927  0032CA                     u8001:
  1928  0032CA  EF68  F019         	goto	l6049
  1929  0032CE                     u8000:
  1930  0032CE                     
  1931                           ; BSR set to: 5
  1932                           ;C:\Program Files\Microchip\xc8\v2.32\pic\sources\c99\common\doprnt.c: 739:             
      +                          flags &= ~(1 << 1);
  1933  0032CE  925B               	bcf	_flags^(0+1280),1,c
  1934  0032D0                     l6049:
  1935                           
  1936                           ; BSR set to: 5
  1937                           ;C:\Program Files\Microchip\xc8\v2.32\pic\sources\c99\common\doprnt.c: 745:         if (
      +                          (*fmt)[0] == '*') {
  1938  0032D0  0061  F67C  F4D9   	movff	vfpfcnvrt@fmt,fsr2l
  1939  0032D6  0061  F680  F4DA   	movff	vfpfcnvrt@fmt+1,fsr2h
  1940  0032DC  C4DE F4F6          	movff	postinc2,tblptrl
  1941  0032E0  C4DD F4F7          	movff	postdec2,tblptrh
  1942  0032E4                     	if	0	;tblptru may be non-zero
  1943  0032E4                     	endif
  1944  0032E4                     	if	1	;Program memory is > 0xFFFF, there are 3 active tblptr bytes
  1945  0032E4  0E00               	movlw	low (__mediumconst shr (0+16))
  1946  0032E6  6EF8               	movwf	tblptru,c
  1947  0032E8                     	endif
  1948  0032E8  0008               	tblrd		*
  1949  0032EA  50F5               	movf	tablat,w,c
  1950  0032EC  0A2A               	xorlw	42
  1951  0032EE  A4D8               	btfss	status,2,c
  1952  0032F0  EF7C  F019         	goto	u8011
  1953  0032F4  EF7E  F019         	goto	u8010
  1954  0032F8                     u8011:
  1955  0032F8  EFB1  F019         	goto	l6057
  1956  0032FC                     u8010:
  1957  0032FC                     
  1958                           ; BSR set to: 5
  1959                           ;C:\Program Files\Microchip\xc8\v2.32\pic\sources\c99\common\doprnt.c: 746:             
      +                          ++*fmt;
  1960  0032FC  0061  F67C  F4D9   	movff	vfpfcnvrt@fmt,fsr2l
  1961  003302  0061  F680  F4DA   	movff	vfpfcnvrt@fmt+1,fsr2h
  1962  003308  2ADE               	incf	postinc2,f,c
  1963  00330A  0E00               	movlw	0
  1964  00330C  22DD               	addwfc	postdec2,f,c
  1965                           
  1966                           ;C:\Program Files\Microchip\xc8\v2.32\pic\sources\c99\common\doprnt.c: 747:             
      +                          width = (*(int *)__va_arg(*(int **)ap, (int)0));
  1967  00330E  0061  F684  F4D9   	movff	vfpfcnvrt@ap,fsr2l
  1968  003314  0061  F688  F4DA   	movff	vfpfcnvrt@ap+1,fsr2h
  1969  00331A  0061 F37C  F5A3    	movff	indf2,??_vfpfcnvrt
  1970  003320  0E02               	movlw	2
  1971  003322  26DE               	addwf	postinc2,f,c
  1972  003324  0061 F37C  F5A4    	movff	indf2,??_vfpfcnvrt+1
  1973  00332A  0E00               	movlw	0
  1974  00332C  22DD               	addwfc	postdec2,f,c
  1975  00332E  0061  F68C  F4D9   	movff	??_vfpfcnvrt,fsr2l
  1976  003334  0061  F690  F4DA   	movff	??_vfpfcnvrt+1,fsr2h
  1977  00333A  0061 F378  F5E7    	movff	postinc2,_width
  1978  003340  0061 F374  F5E8    	movff	postdec2,_width+1
  1979  003346                     
  1980                           ; BSR set to: 5
  1981                           ;C:\Program Files\Microchip\xc8\v2.32\pic\sources\c99\common\doprnt.c: 748:             
      +                          if (width < 0) {
  1982  003346  BFE8               	btfsc	(_width+1)& (0+255),7,b
  1983  003348  EFAA  F019         	goto	u8020
  1984  00334C  EFA8  F019         	goto	u8021
  1985  003350                     u8021:
  1986  003350  EFFF  F019         	goto	l6067
  1987  003354                     u8020:
  1988  003354                     
  1989                           ; BSR set to: 5
  1990                           ;C:\Program Files\Microchip\xc8\v2.32\pic\sources\c99\common\doprnt.c: 749:             
      +                              flags |= (1 << 0);
  1991  003354  805B               	bsf	_flags^(0+1280),0,c
  1992                           
  1993                           ;C:\Program Files\Microchip\xc8\v2.32\pic\sources\c99\common\doprnt.c: 750:             
      +                              width = -width;
  1994  003356  6DE7               	negf	_width& (0+255),b
  1995  003358  1FE8               	comf	(_width+1)& (0+255),f,b
  1996  00335A  B0D8               	btfsc	status,0,c
  1997  00335C  2BE8               	incf	(_width+1)& (0+255),f,b
  1998  00335E  EFFF  F019         	goto	l6067
  1999  003362                     l6057:
  2000                           
  2001                           ; BSR set to: 5
  2002                           ;C:\Program Files\Microchip\xc8\v2.32\pic\sources\c99\common\doprnt.c: 753:             
      +                          width = atoi(*fmt);
  2003  003362  0061  F67C  F4D9   	movff	vfpfcnvrt@fmt,fsr2l
  2004  003368  0061  F680  F4DA   	movff	vfpfcnvrt@fmt+1,fsr2h
  2005  00336E  0061 F378  F50B    	movff	postinc2,atoi@s
  2006  003374  0061 F374  F50C    	movff	postdec2,atoi@s+1
  2007  00337A  EC80  F026         	call	_atoi	;wreg free
  2008  00337E  C50B  F5E7         	movff	?_atoi,_width
  2009  003382  C50C  F5E8         	movff	?_atoi+1,_width+1
  2010                           
  2011                           ;C:\Program Files\Microchip\xc8\v2.32\pic\sources\c99\common\doprnt.c: 754:             
      +                          while ((0 ? isdigit((*fmt)[0]) : ((unsigned)((*fmt)[0])-'0') < 10)) {
  2012  003386  EFCE  F019         	goto	l6061
  2013  00338A                     l6059:
  2014                           
  2015                           ; BSR set to: 5
  2016                           ;C:\Program Files\Microchip\xc8\v2.32\pic\sources\c99\common\doprnt.c: 755:             
      +                              ++*fmt;
  2017  00338A  0061  F67C  F4D9   	movff	vfpfcnvrt@fmt,fsr2l
  2018  003390  0061  F680  F4DA   	movff	vfpfcnvrt@fmt+1,fsr2h
  2019  003396  2ADE               	incf	postinc2,f,c
  2020  003398  0E00               	movlw	0
  2021  00339A  22DD               	addwfc	postdec2,f,c
  2022  00339C                     l6061:
  2023  00339C  0ED0               	movlw	208
  2024  00339E  0105               	movlb	5	; () banked
  2025  0033A0  6FA3               	movwf	??_vfpfcnvrt& (0+255),b
  2026  0033A2  0EFF               	movlw	255
  2027  0033A4  6FA4               	movwf	(??_vfpfcnvrt+1)& (0+255),b
  2028  0033A6  0061  F67C  F4D9   	movff	vfpfcnvrt@fmt,fsr2l
  2029  0033AC  0061  F680  F4DA   	movff	vfpfcnvrt@fmt+1,fsr2h
  2030  0033B2  C4DE F4F6          	movff	postinc2,tblptrl
  2031  0033B6  C4DD F4F7          	movff	postdec2,tblptrh
  2032  0033BA                     	if	0	;tblptru may be non-zero
  2033  0033BA                     	endif
  2034  0033BA                     	if	1	;Program memory is > 0xFFFF, there are 3 active tblptr bytes
  2035  0033BA  0E00               	movlw	low (__mediumconst shr (0+16))
  2036  0033BC  6EF8               	movwf	tblptru,c
  2037  0033BE                     	endif
  2038  0033BE  0008               	tblrd		*
  2039  0033C0  50F5               	movf	tablat,w,c
  2040  0033C2  6FA5               	movwf	(??_vfpfcnvrt+2)& (0+255),b
  2041  0033C4  6BA6               	clrf	(??_vfpfcnvrt+3)& (0+255),b
  2042  0033C6  51A3               	movf	??_vfpfcnvrt& (0+255),w,b
  2043  0033C8  27A5               	addwf	(??_vfpfcnvrt+2)& (0+255),f,b
  2044  0033CA  51A4               	movf	(??_vfpfcnvrt+1)& (0+255),w,b
  2045  0033CC  23A6               	addwfc	(??_vfpfcnvrt+3)& (0+255),f,b
  2046  0033CE  51A6               	movf	(??_vfpfcnvrt+3)& (0+255),w,b
  2047  0033D0  E10A               	bnz	u8030
  2048  0033D2  0E0A               	movlw	10
  2049  0033D4  5DA5               	subwf	(??_vfpfcnvrt+2)& (0+255),w,b
  2050  0033D6  A0D8               	btfss	status,0,c
  2051  0033D8  EFF0  F019         	goto	u8031
  2052  0033DC  EFF3  F019         	goto	u8030
  2053  0033E0                     u8031:
  2054  0033E0  0E01               	movlw	1
  2055  0033E2  EFF4  F019         	goto	u8040
  2056  0033E6                     u8030:
  2057  0033E6  0E00               	movlw	0
  2058  0033E8                     u8040:
  2059  0033E8  6FB1               	movwf	_vfpfcnvrt$914& (0+255),b
  2060  0033EA  6BB2               	clrf	(_vfpfcnvrt$914+1)& (0+255),b
  2061  0033EC                     
  2062                           ; BSR set to: 5
  2063  0033EC  51B1               	movf	_vfpfcnvrt$914& (0+255),w,b
  2064  0033EE  11B2               	iorwf	(_vfpfcnvrt$914+1)& (0+255),w,b
  2065  0033F0  A4D8               	btfss	status,2,c
  2066  0033F2  EFFD  F019         	goto	u8051
  2067  0033F6  EFFF  F019         	goto	u8050
  2068  0033FA                     u8051:
  2069  0033FA  EFC5  F019         	goto	l6059
  2070  0033FE                     u8050:
  2071  0033FE                     l6067:
  2072                           
  2073                           ; BSR set to: 5
  2074                           ;C:\Program Files\Microchip\xc8\v2.32\pic\sources\c99\common\doprnt.c: 762:         if (
      +                          (*fmt)[0] == '.') {
  2075  0033FE  0061  F67C  F4D9   	movff	vfpfcnvrt@fmt,fsr2l
  2076  003404  0061  F680  F4DA   	movff	vfpfcnvrt@fmt+1,fsr2h
  2077  00340A  C4DE F4F6          	movff	postinc2,tblptrl
  2078  00340E  C4DD F4F7          	movff	postdec2,tblptrh
  2079  003412                     	if	0	;tblptru may be non-zero
  2080  003412                     	endif
  2081  003412                     	if	1	;Program memory is > 0xFFFF, there are 3 active tblptr bytes
  2082  003412  0E00               	movlw	low (__mediumconst shr (0+16))
  2083  003414  6EF8               	movwf	tblptru,c
  2084  003416                     	endif
  2085  003416  0008               	tblrd		*
  2086  003418  50F5               	movf	tablat,w,c
  2087  00341A  0A2E               	xorlw	46
  2088  00341C  A4D8               	btfss	status,2,c
  2089  00341E  EF13  F01A         	goto	u8061
  2090  003422  EF15  F01A         	goto	u8060
  2091  003426                     u8061:
  2092  003426  EFAD  F01A         	goto	l6087
  2093  00342A                     u8060:
  2094  00342A                     
  2095                           ; BSR set to: 5
  2096                           ;C:\Program Files\Microchip\xc8\v2.32\pic\sources\c99\common\doprnt.c: 763:             
      +                          prec = 0;
  2097  00342A  0E00               	movlw	0
  2098  00342C  6E5A               	movwf	(_prec+1)^(0+1280),c
  2099  00342E  0E00               	movlw	0
  2100  003430  6E59               	movwf	_prec^(0+1280),c
  2101  003432                     
  2102                           ; BSR set to: 5
  2103                           ;C:\Program Files\Microchip\xc8\v2.32\pic\sources\c99\common\doprnt.c: 764:             
      +                          ++*fmt;
  2104  003432  0061  F67C  F4D9   	movff	vfpfcnvrt@fmt,fsr2l
  2105  003438  0061  F680  F4DA   	movff	vfpfcnvrt@fmt+1,fsr2h
  2106  00343E  2ADE               	incf	postinc2,f,c
  2107  003440  0E00               	movlw	0
  2108  003442  22DD               	addwfc	postdec2,f,c
  2109  003444                     
  2110                           ; BSR set to: 5
  2111                           ;C:\Program Files\Microchip\xc8\v2.32\pic\sources\c99\common\doprnt.c: 765:             
      +                          if ((*fmt)[0] == '*') {
  2112  003444  0061  F67C  F4D9   	movff	vfpfcnvrt@fmt,fsr2l
  2113  00344A  0061  F680  F4DA   	movff	vfpfcnvrt@fmt+1,fsr2h
  2114  003450  C4DE F4F6          	movff	postinc2,tblptrl
  2115  003454  C4DD F4F7          	movff	postdec2,tblptrh
  2116  003458                     	if	0	;tblptru may be non-zero
  2117  003458                     	endif
  2118  003458                     	if	1	;Program memory is > 0xFFFF, there are 3 active tblptr bytes
  2119  003458  0E00               	movlw	low (__mediumconst shr (0+16))
  2120  00345A  6EF8               	movwf	tblptru,c
  2121  00345C                     	endif
  2122  00345C  0008               	tblrd		*
  2123  00345E  50F5               	movf	tablat,w,c
  2124  003460  0A2A               	xorlw	42
  2125  003462  A4D8               	btfss	status,2,c
  2126  003464  EF36  F01A         	goto	u8071
  2127  003468  EF38  F01A         	goto	u8070
  2128  00346C                     u8071:
  2129  00346C  EF5F  F01A         	goto	l6077
  2130  003470                     u8070:
  2131  003470                     
  2132                           ; BSR set to: 5
  2133                           ;C:\Program Files\Microchip\xc8\v2.32\pic\sources\c99\common\doprnt.c: 766:             
      +                              ++*fmt;
  2134  003470  0061  F67C  F4D9   	movff	vfpfcnvrt@fmt,fsr2l
  2135  003476  0061  F680  F4DA   	movff	vfpfcnvrt@fmt+1,fsr2h
  2136  00347C  2ADE               	incf	postinc2,f,c
  2137  00347E  0E00               	movlw	0
  2138  003480  22DD               	addwfc	postdec2,f,c
  2139                           
  2140                           ;C:\Program Files\Microchip\xc8\v2.32\pic\sources\c99\common\doprnt.c: 767:             
      +                              prec = (*(int *)__va_arg(*(int **)ap, (int)0));
  2141  003482  0061  F684  F4D9   	movff	vfpfcnvrt@ap,fsr2l
  2142  003488  0061  F688  F4DA   	movff	vfpfcnvrt@ap+1,fsr2h
  2143  00348E  0061 F37C  F5A3    	movff	indf2,??_vfpfcnvrt
  2144  003494  0E02               	movlw	2
  2145  003496  26DE               	addwf	postinc2,f,c
  2146  003498  0061 F37C  F5A4    	movff	indf2,??_vfpfcnvrt+1
  2147  00349E  0E00               	movlw	0
  2148  0034A0  22DD               	addwfc	postdec2,f,c
  2149  0034A2  0061  F68C  F4D9   	movff	??_vfpfcnvrt,fsr2l
  2150  0034A8  0061  F690  F4DA   	movff	??_vfpfcnvrt+1,fsr2h
  2151  0034AE  0061 F378  F559    	movff	postinc2,_prec
  2152  0034B4  0061 F374  F55A    	movff	postdec2,_prec+1
  2153                           
  2154                           ;C:\Program Files\Microchip\xc8\v2.32\pic\sources\c99\common\doprnt.c: 768:             
      +                          } else {
  2155  0034BA  EFAD  F01A         	goto	l6087
  2156  0034BE                     l6077:
  2157                           
  2158                           ; BSR set to: 5
  2159                           ;C:\Program Files\Microchip\xc8\v2.32\pic\sources\c99\common\doprnt.c: 769:             
      +                              prec = atoi(*fmt);
  2160  0034BE  0061  F67C  F4D9   	movff	vfpfcnvrt@fmt,fsr2l
  2161  0034C4  0061  F680  F4DA   	movff	vfpfcnvrt@fmt+1,fsr2h
  2162  0034CA  0061 F378  F50B    	movff	postinc2,atoi@s
  2163  0034D0  0061 F374  F50C    	movff	postdec2,atoi@s+1
  2164  0034D6  EC80  F026         	call	_atoi	;wreg free
  2165  0034DA  C50B  F559         	movff	?_atoi,_prec
  2166  0034DE  C50C  F55A         	movff	?_atoi+1,_prec+1
  2167                           
  2168                           ;C:\Program Files\Microchip\xc8\v2.32\pic\sources\c99\common\doprnt.c: 770:             
      +                              while ((0 ? isdigit((*fmt)[0]) : ((unsigned)((*fmt)[0])-'0') < 10)) {
  2169  0034E2  EF7C  F01A         	goto	l6081
  2170  0034E6                     l6079:
  2171                           
  2172                           ; BSR set to: 5
  2173                           ;C:\Program Files\Microchip\xc8\v2.32\pic\sources\c99\common\doprnt.c: 771:             
      +                                  ++*fmt;
  2174  0034E6  0061  F67C  F4D9   	movff	vfpfcnvrt@fmt,fsr2l
  2175  0034EC  0061  F680  F4DA   	movff	vfpfcnvrt@fmt+1,fsr2h
  2176  0034F2  2ADE               	incf	postinc2,f,c
  2177  0034F4  0E00               	movlw	0
  2178  0034F6  22DD               	addwfc	postdec2,f,c
  2179  0034F8                     l6081:
  2180  0034F8  0ED0               	movlw	208
  2181  0034FA  0105               	movlb	5	; () banked
  2182  0034FC  6FA3               	movwf	??_vfpfcnvrt& (0+255),b
  2183  0034FE  0EFF               	movlw	255
  2184  003500  6FA4               	movwf	(??_vfpfcnvrt+1)& (0+255),b
  2185  003502  0061  F67C  F4D9   	movff	vfpfcnvrt@fmt,fsr2l
  2186  003508  0061  F680  F4DA   	movff	vfpfcnvrt@fmt+1,fsr2h
  2187  00350E  C4DE F4F6          	movff	postinc2,tblptrl
  2188  003512  C4DD F4F7          	movff	postdec2,tblptrh
  2189  003516                     	if	0	;tblptru may be non-zero
  2190  003516                     	endif
  2191  003516                     	if	1	;Program memory is > 0xFFFF, there are 3 active tblptr bytes
  2192  003516  0E00               	movlw	low (__mediumconst shr (0+16))
  2193  003518  6EF8               	movwf	tblptru,c
  2194  00351A                     	endif
  2195  00351A  0008               	tblrd		*
  2196  00351C  50F5               	movf	tablat,w,c
  2197  00351E  6FA5               	movwf	(??_vfpfcnvrt+2)& (0+255),b
  2198  003520  6BA6               	clrf	(??_vfpfcnvrt+3)& (0+255),b
  2199  003522  51A3               	movf	??_vfpfcnvrt& (0+255),w,b
  2200  003524  27A5               	addwf	(??_vfpfcnvrt+2)& (0+255),f,b
  2201  003526  51A4               	movf	(??_vfpfcnvrt+1)& (0+255),w,b
  2202  003528  23A6               	addwfc	(??_vfpfcnvrt+3)& (0+255),f,b
  2203  00352A  51A6               	movf	(??_vfpfcnvrt+3)& (0+255),w,b
  2204  00352C  E10A               	bnz	u8080
  2205  00352E  0E0A               	movlw	10
  2206  003530  5DA5               	subwf	(??_vfpfcnvrt+2)& (0+255),w,b
  2207  003532  A0D8               	btfss	status,0,c
  2208  003534  EF9E  F01A         	goto	u8081
  2209  003538  EFA1  F01A         	goto	u8080
  2210  00353C                     u8081:
  2211  00353C  0E01               	movlw	1
  2212  00353E  EFA2  F01A         	goto	u8090
  2213  003542                     u8080:
  2214  003542  0E00               	movlw	0
  2215  003544                     u8090:
  2216  003544  6FB3               	movwf	_vfpfcnvrt$915& (0+255),b
  2217  003546  6BB4               	clrf	(_vfpfcnvrt$915+1)& (0+255),b
  2218  003548                     
  2219                           ; BSR set to: 5
  2220  003548  51B3               	movf	_vfpfcnvrt$915& (0+255),w,b
  2221  00354A  11B4               	iorwf	(_vfpfcnvrt$915+1)& (0+255),w,b
  2222  00354C  A4D8               	btfss	status,2,c
  2223  00354E  EFAB  F01A         	goto	u8101
  2224  003552  EFAD  F01A         	goto	u8100
  2225  003556                     u8101:
  2226  003556  EF73  F01A         	goto	l6079
  2227  00355A                     u8100:
  2228  00355A                     l6087:
  2229                           
  2230                           ; BSR set to: 5
  2231                           ;C:\Program Files\Microchip\xc8\v2.32\pic\sources\c99\common\doprnt.c: 779:         ct[0
      +                          ] = (char)tolower((int)(*fmt)[0]);
  2232  00355A  0061  F67C  F4D9   	movff	vfpfcnvrt@fmt,fsr2l
  2233  003560  0061  F680  F4DA   	movff	vfpfcnvrt@fmt+1,fsr2h
  2234  003566  C4DE F4F6          	movff	postinc2,tblptrl
  2235  00356A  C4DD F4F7          	movff	postdec2,tblptrh
  2236  00356E                     	if	0	;tblptru may be non-zero
  2237  00356E                     	endif
  2238  00356E                     	if	1	;Program memory is > 0xFFFF, there are 3 active tblptr bytes
  2239  00356E  0E00               	movlw	low (__mediumconst shr (0+16))
  2240  003570  6EF8               	movwf	tblptru,c
  2241  003572                     	endif
  2242  003572  0008               	tblrd		*
  2243  003574  50F5               	movf	tablat,w,c
  2244  003576  6E0A               	movwf	tolower@c^(0+1280),c
  2245  003578  6A0B               	clrf	(tolower@c+1)^(0+1280),c
  2246  00357A  EC6D  F02E         	call	_tolower	;wreg free
  2247  00357E  500A               	movf	?_tolower^(0+1280),w,c
  2248  003580  0105               	movlb	5	; () banked
  2249  003582  6FBB               	movwf	vfpfcnvrt@ct& (0+255),b
  2250  003584                     
  2251                           ; BSR set to: 5
  2252                           ;C:\Program Files\Microchip\xc8\v2.32\pic\sources\c99\common\doprnt.c: 780:         if (
      +                          ct[0]) {
  2253  003584  51BB               	movf	vfpfcnvrt@ct& (0+255),w,b
  2254  003586  B4D8               	btfsc	status,2,c
  2255  003588  EFC8  F01A         	goto	u8111
  2256  00358C  EFCA  F01A         	goto	u8110
  2257  003590                     u8111:
  2258  003590  EF14  F01B         	goto	l6097
  2259  003594                     u8110:
  2260  003594                     
  2261                           ; BSR set to: 5
  2262                           ;C:\Program Files\Microchip\xc8\v2.32\pic\sources\c99\common\doprnt.c: 781:             
      +                          ct[1] = (char)tolower((int)(*fmt)[1]);
  2263  003594  0061  F67C  F4D9   	movff	vfpfcnvrt@fmt,fsr2l
  2264  00359A  0061  F680  F4DA   	movff	vfpfcnvrt@fmt+1,fsr2h
  2265  0035A0  0061 F378  F5A3    	movff	postinc2,??_vfpfcnvrt
  2266  0035A6  0061 F374  F5A4    	movff	postdec2,??_vfpfcnvrt+1
  2267  0035AC  0E01               	movlw	1
  2268  0035AE  27A3               	addwf	??_vfpfcnvrt& (0+255),f,b
  2269  0035B0  0E00               	movlw	0
  2270  0035B2  23A4               	addwfc	(??_vfpfcnvrt+1)& (0+255),f,b
  2271  0035B4  0061  F68C  F4F6   	movff	??_vfpfcnvrt,tblptrl
  2272  0035BA  0061  F690  F4F7   	movff	??_vfpfcnvrt+1,tblptrh
  2273  0035C0                     	if	0	;tblptru may be non-zero
  2274  0035C0                     	endif
  2275  0035C0                     	if	1	;Program memory is > 0xFFFF, there are 3 active tblptr bytes
  2276  0035C0  0E00               	movlw	low (__mediumconst shr (0+16))
  2277  0035C2  6EF8               	movwf	tblptru,c
  2278  0035C4                     	endif
  2279  0035C4  0008               	tblrd		*
  2280  0035C6  50F5               	movf	tablat,w,c
  2281  0035C8  6E0A               	movwf	tolower@c^(0+1280),c
  2282  0035CA  6A0B               	clrf	(tolower@c+1)^(0+1280),c
  2283  0035CC  EC6D  F02E         	call	_tolower	;wreg free
  2284  0035D0  500A               	movf	?_tolower^(0+1280),w,c
  2285  0035D2  0105               	movlb	5	; () banked
  2286  0035D4  6FBC               	movwf	(vfpfcnvrt@ct+1)& (0+255),b
  2287  0035D6                     
  2288                           ; BSR set to: 5
  2289                           ;C:\Program Files\Microchip\xc8\v2.32\pic\sources\c99\common\doprnt.c: 782:             
      +                          if (ct[1]) {
  2290  0035D6  51BC               	movf	(vfpfcnvrt@ct+1)& (0+255),w,b
  2291  0035D8  B4D8               	btfsc	status,2,c
  2292  0035DA  EFF1  F01A         	goto	u8121
  2293  0035DE  EFF3  F01A         	goto	u8120
  2294  0035E2                     u8121:
  2295  0035E2  EF14  F01B         	goto	l6097
  2296  0035E6                     u8120:
  2297  0035E6                     
  2298                           ; BSR set to: 5
  2299                           ;C:\Program Files\Microchip\xc8\v2.32\pic\sources\c99\common\doprnt.c: 783:             
      +                              ct[2] = (char)tolower((int)(*fmt)[2]);
  2300  0035E6  0061  F67C  F4D9   	movff	vfpfcnvrt@fmt,fsr2l
  2301  0035EC  0061  F680  F4DA   	movff	vfpfcnvrt@fmt+1,fsr2h
  2302  0035F2  0061 F378  F5A3    	movff	postinc2,??_vfpfcnvrt
  2303  0035F8  0061 F374  F5A4    	movff	postdec2,??_vfpfcnvrt+1
  2304  0035FE  0E02               	movlw	2
  2305  003600  27A3               	addwf	??_vfpfcnvrt& (0+255),f,b
  2306  003602  0E00               	movlw	0
  2307  003604  23A4               	addwfc	(??_vfpfcnvrt+1)& (0+255),f,b
  2308  003606  0061  F68C  F4F6   	movff	??_vfpfcnvrt,tblptrl
  2309  00360C  0061  F690  F4F7   	movff	??_vfpfcnvrt+1,tblptrh
  2310  003612                     	if	0	;tblptru may be non-zero
  2311  003612                     	endif
  2312  003612                     	if	1	;Program memory is > 0xFFFF, there are 3 active tblptr bytes
  2313  003612  0E00               	movlw	low (__mediumconst shr (0+16))
  2314  003614  6EF8               	movwf	tblptru,c
  2315  003616                     	endif
  2316  003616  0008               	tblrd		*
  2317  003618  50F5               	movf	tablat,w,c
  2318  00361A  6E0A               	movwf	tolower@c^(0+1280),c
  2319  00361C  6A0B               	clrf	(tolower@c+1)^(0+1280),c
  2320  00361E  EC6D  F02E         	call	_tolower	;wreg free
  2321  003622  500A               	movf	?_tolower^(0+1280),w,c
  2322  003624  0105               	movlb	5	; () banked
  2323  003626  6FBD               	movwf	(vfpfcnvrt@ct+2)& (0+255),b
  2324  003628                     l6097:
  2325                           
  2326                           ; BSR set to: 5
  2327                           ;C:\Program Files\Microchip\xc8\v2.32\pic\sources\c99\common\doprnt.c: 942:         if (
      +                          ct[0] == 'f') {
  2328  003628  0E66               	movlw	102
  2329  00362A  19BB               	xorwf	vfpfcnvrt@ct& (0+255),w,b
  2330  00362C  A4D8               	btfss	status,2,c
  2331  00362E  EF1B  F01B         	goto	u8131
  2332  003632  EF1D  F01B         	goto	u8130
  2333  003636                     u8131:
  2334  003636  EF6E  F01B         	goto	l6109
  2335  00363A                     u8130:
  2336  00363A                     
  2337                           ; BSR set to: 5
  2338                           ;C:\Program Files\Microchip\xc8\v2.32\pic\sources\c99\common\doprnt.c: 944:             
      +                          c = (*fmt)[0];
  2339  00363A  0061  F67C  F4D9   	movff	vfpfcnvrt@fmt,fsr2l
  2340  003640  0061  F680  F4DA   	movff	vfpfcnvrt@fmt+1,fsr2h
  2341  003646  C4DE F4F6          	movff	postinc2,tblptrl
  2342  00364A  C4DD F4F7          	movff	postdec2,tblptrh
  2343  00364E                     	if	0	;tblptru may be non-zero
  2344  00364E                     	endif
  2345  00364E                     	if	1	;Program memory is > 0xFFFF, there are 3 active tblptr bytes
  2346  00364E  0E00               	movlw	low (__mediumconst shr (0+16))
  2347  003650  6EF8               	movwf	tblptru,c
  2348  003652                     	endif
  2349  003652  0008               	tblrd		*
  2350  003654  0061 F3D4  F5BE    	movff	tablat,vfpfcnvrt@c
  2351  00365A                     
  2352                           ; BSR set to: 5
  2353                           ;C:\Program Files\Microchip\xc8\v2.32\pic\sources\c99\common\doprnt.c: 945:             
      +                          ++*fmt;
  2354  00365A  0061  F67C  F4D9   	movff	vfpfcnvrt@fmt,fsr2l
  2355  003660  0061  F680  F4DA   	movff	vfpfcnvrt@fmt+1,fsr2h
  2356  003666  2ADE               	incf	postinc2,f,c
  2357  003668  0E00               	movlw	0
  2358  00366A  22DD               	addwfc	postdec2,f,c
  2359  00366C                     
  2360                           ; BSR set to: 5
  2361                           ;C:\Program Files\Microchip\xc8\v2.32\pic\sources\c99\common\doprnt.c: 946:             
      +                          f = (long double)(*(double *)__va_arg(*(double **)ap, (double)0));
  2362  00366C  0061  F684  F4D9   	movff	vfpfcnvrt@ap,fsr2l
  2363  003672  0061  F688  F4DA   	movff	vfpfcnvrt@ap+1,fsr2h
  2364  003678  0061 F37C  F5A3    	movff	indf2,??_vfpfcnvrt
  2365  00367E  0E04               	movlw	4
  2366  003680  26DE               	addwf	postinc2,f,c
  2367  003682  0061 F37C  F5A4    	movff	indf2,??_vfpfcnvrt+1
  2368  003688  0E00               	movlw	0
  2369  00368A  22DD               	addwfc	postdec2,f,c
  2370  00368C  0061  F68C  F4D9   	movff	??_vfpfcnvrt,fsr2l
  2371  003692  0061  F690  F4DA   	movff	??_vfpfcnvrt+1,fsr2h
  2372  003698  0061 F378  F5B7    	movff	postinc2,vfpfcnvrt@f
  2373  00369E  0061 F378  F5B8    	movff	postinc2,vfpfcnvrt@f+1
  2374  0036A4  0061 F378  F5B9    	movff	postinc2,vfpfcnvrt@f+2
  2375  0036AA  0061 F378  F5BA    	movff	postinc2,vfpfcnvrt@f+3
  2376  0036B0                     l6105:
  2377                           
  2378                           ; BSR set to: 5
  2379                           ;C:\Program Files\Microchip\xc8\v2.32\pic\sources\c99\common\doprnt.c: 948:             
      +                          return efgtoa(fp, f, c);
  2380  0036B0  C59D  F550         	movff	vfpfcnvrt@fp,efgtoa@fp
  2381  0036B4  C59E  F551         	movff	vfpfcnvrt@fp+1,efgtoa@fp+1
  2382  0036B8  C5B7  F552         	movff	vfpfcnvrt@f,efgtoa@f
  2383  0036BC  C5B8  F553         	movff	vfpfcnvrt@f+1,efgtoa@f+1
  2384  0036C0  C5B9  F554         	movff	vfpfcnvrt@f+2,efgtoa@f+2
  2385  0036C4  C5BA  F555         	movff	vfpfcnvrt@f+3,efgtoa@f+3
  2386  0036C8  C5BE  F556         	movff	vfpfcnvrt@c,efgtoa@c
  2387  0036CC  ECAC  F012         	call	_efgtoa	;wreg free
  2388  0036D0  C550  F59D         	movff	?_efgtoa,?_vfpfcnvrt
  2389  0036D4  C551  F59E         	movff	?_efgtoa+1,?_vfpfcnvrt+1
  2390  0036D8  EFE7  F01C         	goto	l1066
  2391  0036DC                     l6109:
  2392                           
  2393                           ; BSR set to: 5
  2394                           ;C:\Program Files\Microchip\xc8\v2.32\pic\sources\c99\common\doprnt.c: 950:         if (
      +                          !strncmp(ct, "lf", ((sizeof("lf")/sizeof("lf"[0]))-1))) {
  2395  0036DC  0EBB               	movlw	low vfpfcnvrt@ct
  2396  0036DE  6E04               	movwf	strncmp@_l^(0+1280),c
  2397  0036E0  0E05               	movlw	high vfpfcnvrt@ct
  2398  0036E2  6E05               	movwf	(strncmp@_l+1)^(0+1280),c
  2399  0036E4  0E54               	movlw	low STR_13
  2400  0036E6  6E06               	movwf	strncmp@_r^(0+1280),c
  2401  0036E8  0E25               	movlw	high STR_13
  2402  0036EA  6E07               	movwf	(strncmp@_r+1)^(0+1280),c
  2403  0036EC  0E00               	movlw	0
  2404  0036EE  6E09               	movwf	(strncmp@n+1)^(0+1280),c
  2405  0036F0  0E02               	movlw	2
  2406  0036F2  6E08               	movwf	strncmp@n^(0+1280),c
  2407  0036F4  EC50  F02A         	call	_strncmp	;wreg free
  2408  0036F8  5004               	movf	?_strncmp^(0+1280),w,c
  2409  0036FA  1005               	iorwf	(?_strncmp+1)^(0+1280),w,c
  2410  0036FC  A4D8               	btfss	status,2,c
  2411  0036FE  EF83  F01B         	goto	u8141
  2412  003702  EF85  F01B         	goto	u8140
  2413  003706                     u8141:
  2414  003706  EF24  F01C         	goto	l6125
  2415  00370A                     u8140:
  2416  00370A                     
  2417                           ;C:\Program Files\Microchip\xc8\v2.32\pic\sources\c99\common\doprnt.c: 953:             
      +                          if ((0 ? isupper((int)(*fmt)[0]) : ((unsigned)((int)(*fmt)[0])-'A') < 26)) {
  2418  00370A  0061  F67C  F4D9   	movff	vfpfcnvrt@fmt,fsr2l
  2419  003710  0061  F680  F4DA   	movff	vfpfcnvrt@fmt+1,fsr2h
  2420  003716  0061 F378  F5A3    	movff	postinc2,??_vfpfcnvrt
  2421  00371C  0061 F374  F5A4    	movff	postdec2,??_vfpfcnvrt+1
  2422  003722  0E01               	movlw	1
  2423  003724  0105               	movlb	5	; () banked
  2424  003726  27A3               	addwf	??_vfpfcnvrt& (0+255),f,b
  2425  003728  0E00               	movlw	0
  2426  00372A  23A4               	addwfc	(??_vfpfcnvrt+1)& (0+255),f,b
  2427  00372C  0061  F68C  F4F6   	movff	??_vfpfcnvrt,tblptrl
  2428  003732  0061  F690  F4F7   	movff	??_vfpfcnvrt+1,tblptrh
  2429  003738                     	if	0	;tblptru may be non-zero
  2430  003738                     	endif
  2431  003738                     	if	1	;Program memory is > 0xFFFF, there are 3 active tblptr bytes
  2432  003738  0E00               	movlw	low (__mediumconst shr (0+16))
  2433  00373A  6EF8               	movwf	tblptru,c
  2434  00373C                     	endif
  2435  00373C  0008               	tblrd		*
  2436  00373E  0061 F3D4  F5BE    	movff	tablat,vfpfcnvrt@c
  2437  003744  0EBF               	movlw	191
  2438  003746  6FA3               	movwf	??_vfpfcnvrt& (0+255),b
  2439  003748  0EFF               	movlw	255
  2440  00374A  6FA4               	movwf	(??_vfpfcnvrt+1)& (0+255),b
  2441  00374C  0061  F67C  F4D9   	movff	vfpfcnvrt@fmt,fsr2l
  2442  003752  0061  F680  F4DA   	movff	vfpfcnvrt@fmt+1,fsr2h
  2443  003758  C4DE F4F6          	movff	postinc2,tblptrl
  2444  00375C  C4DD F4F7          	movff	postdec2,tblptrh
  2445  003760                     	if	0	;tblptru may be non-zero
  2446  003760                     	endif
  2447  003760                     	if	1	;Program memory is > 0xFFFF, there are 3 active tblptr bytes
  2448  003760  0E00               	movlw	low (__mediumconst shr (0+16))
  2449  003762  6EF8               	movwf	tblptru,c
  2450  003764                     	endif
  2451  003764  0008               	tblrd		*
  2452  003766  50F5               	movf	tablat,w,c
  2453  003768  6FA5               	movwf	(??_vfpfcnvrt+2)& (0+255),b
  2454  00376A  6BA6               	clrf	(??_vfpfcnvrt+3)& (0+255),b
  2455  00376C  51A3               	movf	??_vfpfcnvrt& (0+255),w,b
  2456  00376E  27A5               	addwf	(??_vfpfcnvrt+2)& (0+255),f,b
  2457  003770  51A4               	movf	(??_vfpfcnvrt+1)& (0+255),w,b
  2458  003772  23A6               	addwfc	(??_vfpfcnvrt+3)& (0+255),f,b
  2459  003774  51A6               	movf	(??_vfpfcnvrt+3)& (0+255),w,b
  2460  003776  E10A               	bnz	u8150
  2461  003778  0E1A               	movlw	26
  2462  00377A  5DA5               	subwf	(??_vfpfcnvrt+2)& (0+255),w,b
  2463  00377C  A0D8               	btfss	status,0,c
  2464  00377E  EFC3  F01B         	goto	u8151
  2465  003782  EFC6  F01B         	goto	u8150
  2466  003786                     u8151:
  2467  003786  0E01               	movlw	1
  2468  003788  EFC7  F01B         	goto	u8160
  2469  00378C                     u8150:
  2470  00378C  0E00               	movlw	0
  2471  00378E                     u8160:
  2472  00378E  6FB5               	movwf	_vfpfcnvrt$919& (0+255),b
  2473  003790  6BB6               	clrf	(_vfpfcnvrt$919+1)& (0+255),b
  2474  003792                     
  2475                           ; BSR set to: 5
  2476  003792  51B5               	movf	_vfpfcnvrt$919& (0+255),w,b
  2477  003794  11B6               	iorwf	(_vfpfcnvrt$919+1)& (0+255),w,b
  2478  003796  B4D8               	btfsc	status,2,c
  2479  003798  EFD0  F01B         	goto	u8171
  2480  00379C  EFD2  F01B         	goto	u8170
  2481  0037A0                     u8171:
  2482  0037A0  EFF6  F01B         	goto	l6119
  2483  0037A4                     u8170:
  2484  0037A4                     
  2485                           ; BSR set to: 5
  2486                           ;C:\Program Files\Microchip\xc8\v2.32\pic\sources\c99\common\doprnt.c: 954:             
      +                              f = (*(long double *)__va_arg(*(long double **)ap, (long double)0));
  2487  0037A4  0061  F684  F4D9   	movff	vfpfcnvrt@ap,fsr2l
  2488  0037AA  0061  F688  F4DA   	movff	vfpfcnvrt@ap+1,fsr2h
  2489  0037B0  0061 F37C  F5A3    	movff	indf2,??_vfpfcnvrt
  2490  0037B6  0E04               	movlw	4
  2491  0037B8  26DE               	addwf	postinc2,f,c
  2492  0037BA  0061 F37C  F5A4    	movff	indf2,??_vfpfcnvrt+1
  2493  0037C0  0E00               	movlw	0
  2494  0037C2  22DD               	addwfc	postdec2,f,c
  2495  0037C4  0061  F68C  F4D9   	movff	??_vfpfcnvrt,fsr2l
  2496  0037CA  0061  F690  F4DA   	movff	??_vfpfcnvrt+1,fsr2h
  2497  0037D0  0061 F378  F5B7    	movff	postinc2,vfpfcnvrt@f
  2498  0037D6  0061 F378  F5B8    	movff	postinc2,vfpfcnvrt@f+1
  2499  0037DC  0061 F378  F5B9    	movff	postinc2,vfpfcnvrt@f+2
  2500  0037E2  0061 F378  F5BA    	movff	postinc2,vfpfcnvrt@f+3
  2501                           
  2502                           ;C:\Program Files\Microchip\xc8\v2.32\pic\sources\c99\common\doprnt.c: 955:             
      +                          } else {
  2503  0037E8  EF18  F01C         	goto	l1073
  2504  0037EC                     l6119:
  2505                           
  2506                           ; BSR set to: 5
  2507                           ;C:\Program Files\Microchip\xc8\v2.32\pic\sources\c99\common\doprnt.c: 956:             
      +                              f = (long double)(*(double *)__va_arg(*(double **)ap, (double)0));
  2508  0037EC  0061  F684  F4D9   	movff	vfpfcnvrt@ap,fsr2l
  2509  0037F2  0061  F688  F4DA   	movff	vfpfcnvrt@ap+1,fsr2h
  2510  0037F8  0061 F37C  F5A3    	movff	indf2,??_vfpfcnvrt
  2511  0037FE  0E04               	movlw	4
  2512  003800  26DE               	addwf	postinc2,f,c
  2513  003802  0061 F37C  F5A4    	movff	indf2,??_vfpfcnvrt+1
  2514  003808  0E00               	movlw	0
  2515  00380A  22DD               	addwfc	postdec2,f,c
  2516  00380C  0061  F68C  F4D9   	movff	??_vfpfcnvrt,fsr2l
  2517  003812  0061  F690  F4DA   	movff	??_vfpfcnvrt+1,fsr2h
  2518  003818  0061 F378  F5B7    	movff	postinc2,vfpfcnvrt@f
  2519  00381E  0061 F378  F5B8    	movff	postinc2,vfpfcnvrt@f+1
  2520  003824  0061 F378  F5B9    	movff	postinc2,vfpfcnvrt@f+2
  2521  00382A  0061 F378  F5BA    	movff	postinc2,vfpfcnvrt@f+3
  2522  003830                     l1073:
  2523                           
  2524                           ; BSR set to: 5
  2525                           ;C:\Program Files\Microchip\xc8\v2.32\pic\sources\c99\common\doprnt.c: 958:             
      +                          *fmt += ((sizeof("lf")/sizeof("lf"[0]))-1);
  2526  003830  0E02               	movlw	2
  2527  003832  0061  F67C  F4D9   	movff	vfpfcnvrt@fmt,fsr2l
  2528  003838  0061  F680  F4DA   	movff	vfpfcnvrt@fmt+1,fsr2h
  2529  00383E  26DE               	addwf	postinc2,f,c
  2530  003840  0E00               	movlw	0
  2531  003842  22DD               	addwfc	postdec2,f,c
  2532  003844  EF58  F01B         	goto	l6105
  2533  003848                     l6125:
  2534                           
  2535                           ;C:\Program Files\Microchip\xc8\v2.32\pic\sources\c99\common\doprnt.c: 1204:         if 
      +                          (*fmt[0] == 'u') {
  2536  003848  0061  F67C  F4D9   	movff	vfpfcnvrt@fmt,fsr2l
  2537  00384E  0061  F680  F4DA   	movff	vfpfcnvrt@fmt+1,fsr2h
  2538  003854  C4DE F4F6          	movff	postinc2,tblptrl
  2539  003858  C4DD F4F7          	movff	postdec2,tblptrh
  2540  00385C                     	if	0	;tblptru may be non-zero
  2541  00385C                     	endif
  2542  00385C                     	if	1	;Program memory is > 0xFFFF, there are 3 active tblptr bytes
  2543  00385C  0E00               	movlw	low (__mediumconst shr (0+16))
  2544  00385E  6EF8               	movwf	tblptru,c
  2545  003860                     	endif
  2546  003860  0008               	tblrd		*
  2547  003862  50F5               	movf	tablat,w,c
  2548  003864  0A75               	xorlw	117
  2549  003866  A4D8               	btfss	status,2,c
  2550  003868  EF38  F01C         	goto	u8181
  2551  00386C  EF3A  F01C         	goto	u8180
  2552  003870                     u8181:
  2553  003870  EF86  F01C         	goto	l6133
  2554  003874                     u8180:
  2555  003874                     
  2556                           ;C:\Program Files\Microchip\xc8\v2.32\pic\sources\c99\common\doprnt.c: 1206:            
      +                           ++*fmt;
  2557  003874  0061  F67C  F4D9   	movff	vfpfcnvrt@fmt,fsr2l
  2558  00387A  0061  F680  F4DA   	movff	vfpfcnvrt@fmt+1,fsr2h
  2559  003880  2ADE               	incf	postinc2,f,c
  2560  003882  0E00               	movlw	0
  2561  003884  22DD               	addwfc	postdec2,f,c
  2562                           
  2563                           ;C:\Program Files\Microchip\xc8\v2.32\pic\sources\c99\common\doprnt.c: 1207:            
      +                           llu = (unsigned long long)(*(unsigned int *)__va_arg(*(unsigned int **)ap, (unsigned in
      +                          t)0));
  2564  003886  0061  F684  F4D9   	movff	vfpfcnvrt@ap,fsr2l
  2565  00388C  0061  F688  F4DA   	movff	vfpfcnvrt@ap+1,fsr2h
  2566  003892  0061 F37C  F5A3    	movff	indf2,??_vfpfcnvrt
  2567  003898  0E02               	movlw	2
  2568  00389A  26DE               	addwf	postinc2,f,c
  2569  00389C  0061 F37C  F5A4    	movff	indf2,??_vfpfcnvrt+1
  2570  0038A2  0E00               	movlw	0
  2571  0038A4  22DD               	addwfc	postdec2,f,c
  2572  0038A6  0061  F68C  F4D9   	movff	??_vfpfcnvrt,fsr2l
  2573  0038AC  0061  F690  F4DA   	movff	??_vfpfcnvrt+1,fsr2h
  2574  0038B2  0061 F378  F5A5    	movff	postinc2,??_vfpfcnvrt+2
  2575  0038B8  0061 F374  F5A6    	movff	postdec2,??_vfpfcnvrt+3
  2576  0038BE  C5A5  F5A7         	movff	??_vfpfcnvrt+2,vfpfcnvrt@llu
  2577  0038C2  C5A6  F5A8         	movff	??_vfpfcnvrt+3,vfpfcnvrt@llu+1
  2578  0038C6  0105               	movlb	5	; () banked
  2579  0038C8  6BA9               	clrf	(vfpfcnvrt@llu+2)& (0+255),b
  2580  0038CA  6BAA               	clrf	(vfpfcnvrt@llu+3)& (0+255),b
  2581  0038CC  6BAB               	clrf	(vfpfcnvrt@llu+4)& (0+255),b
  2582  0038CE  6BAC               	clrf	(vfpfcnvrt@llu+5)& (0+255),b
  2583  0038D0  6BAD               	clrf	(vfpfcnvrt@llu+6)& (0+255),b
  2584  0038D2  6BAE               	clrf	(vfpfcnvrt@llu+7)& (0+255),b
  2585  0038D4                     
  2586                           ; BSR set to: 5
  2587                           ;C:\Program Files\Microchip\xc8\v2.32\pic\sources\c99\common\doprnt.c: 1209:            
      +                           return utoa(fp, llu);
  2588  0038D4  C59D  F51F         	movff	vfpfcnvrt@fp,utoa@fp
  2589  0038D8  C59E  F520         	movff	vfpfcnvrt@fp+1,utoa@fp+1
  2590  0038DC  C5A7  F521         	movff	vfpfcnvrt@llu,utoa@d
  2591  0038E0  C5A8  F522         	movff	vfpfcnvrt@llu+1,utoa@d+1
  2592  0038E4  C5A9  F523         	movff	vfpfcnvrt@llu+2,utoa@d+2
  2593  0038E8  C5AA  F524         	movff	vfpfcnvrt@llu+3,utoa@d+3
  2594  0038EC  C5AB  F525         	movff	vfpfcnvrt@llu+4,utoa@d+4
  2595  0038F0  C5AC  F526         	movff	vfpfcnvrt@llu+5,utoa@d+5
  2596  0038F4  C5AD  F527         	movff	vfpfcnvrt@llu+6,utoa@d+6
  2597  0038F8  C5AE  F528         	movff	vfpfcnvrt@llu+7,utoa@d+7
  2598  0038FC  EC80  F025         	call	_utoa	;wreg free
  2599  003900  C51F  F59D         	movff	?_utoa,?_vfpfcnvrt
  2600  003904  C520  F59E         	movff	?_utoa+1,?_vfpfcnvrt+1
  2601  003908  EFE7  F01C         	goto	l1066
  2602  00390C                     l6133:
  2603                           
  2604                           ;C:\Program Files\Microchip\xc8\v2.32\pic\sources\c99\common\doprnt.c: 1372:         if 
      +                          ((*fmt)[0] == '%') {
  2605  00390C  0061  F67C  F4D9   	movff	vfpfcnvrt@fmt,fsr2l
  2606  003912  0061  F680  F4DA   	movff	vfpfcnvrt@fmt+1,fsr2h
  2607  003918  C4DE F4F6          	movff	postinc2,tblptrl
  2608  00391C  C4DD F4F7          	movff	postdec2,tblptrh
  2609  003920                     	if	0	;tblptru may be non-zero
  2610  003920                     	endif
  2611  003920                     	if	1	;Program memory is > 0xFFFF, there are 3 active tblptr bytes
  2612  003920  0E00               	movlw	low (__mediumconst shr (0+16))
  2613  003922  6EF8               	movwf	tblptru,c
  2614  003924                     	endif
  2615  003924  0008               	tblrd		*
  2616  003926  50F5               	movf	tablat,w,c
  2617  003928  0A25               	xorlw	37
  2618  00392A  A4D8               	btfss	status,2,c
  2619  00392C  EF9A  F01C         	goto	u8191
  2620  003930  EF9C  F01C         	goto	u8190
  2621  003934                     u8191:
  2622  003934  EFB6  F01C         	goto	l6143
  2623  003938                     u8190:
  2624  003938                     
  2625                           ;C:\Program Files\Microchip\xc8\v2.32\pic\sources\c99\common\doprnt.c: 1373:            
      +                           ++*fmt;
  2626  003938  0061  F67C  F4D9   	movff	vfpfcnvrt@fmt,fsr2l
  2627  00393E  0061  F680  F4DA   	movff	vfpfcnvrt@fmt+1,fsr2h
  2628  003944  2ADE               	incf	postinc2,f,c
  2629  003946  0E00               	movlw	0
  2630  003948  22DD               	addwfc	postdec2,f,c
  2631  00394A                     
  2632                           ;C:\Program Files\Microchip\xc8\v2.32\pic\sources\c99\common\doprnt.c: 1374:            
      +                           fputc((int)'%', fp);
  2633  00394A  0E00               	movlw	0
  2634  00394C  6E05               	movwf	(fputc@c+1)^(0+1280),c
  2635  00394E  0E25               	movlw	37
  2636  003950  6E04               	movwf	fputc@c^(0+1280),c
  2637  003952  C59D  F506         	movff	vfpfcnvrt@fp,fputc@fp
  2638  003956  C59E  F507         	movff	vfpfcnvrt@fp+1,fputc@fp+1
  2639  00395A  EC45  F02B         	call	_fputc	;wreg free
  2640  00395E                     l6139:
  2641                           
  2642                           ;C:\Program Files\Microchip\xc8\v2.32\pic\sources\c99\common\doprnt.c: 1375:            
      +                           return 1;
  2643  00395E  0E00               	movlw	0
  2644  003960  0105               	movlb	5	; () banked
  2645  003962  6F9E               	movwf	(?_vfpfcnvrt+1)& (0+255),b
  2646  003964  0E01               	movlw	1
  2647  003966  6F9D               	movwf	?_vfpfcnvrt& (0+255),b
  2648  003968  EFE7  F01C         	goto	l1066
  2649  00396C                     l6143:
  2650                           
  2651                           ;C:\Program Files\Microchip\xc8\v2.32\pic\sources\c99\common\doprnt.c: 1379:         ++*
      +                          fmt;
  2652  00396C  0061  F67C  F4D9   	movff	vfpfcnvrt@fmt,fsr2l
  2653  003972  0061  F680  F4DA   	movff	vfpfcnvrt@fmt+1,fsr2h
  2654  003978  2ADE               	incf	postinc2,f,c
  2655  00397A  0E00               	movlw	0
  2656  00397C  22DD               	addwfc	postdec2,f,c
  2657  00397E                     
  2658                           ;C:\Program Files\Microchip\xc8\v2.32\pic\sources\c99\common\doprnt.c: 1380:         ret
      +                          urn 0;
  2659  00397E  0E00               	movlw	0
  2660  003980  0105               	movlb	5	; () banked
  2661  003982  6F9E               	movwf	(?_vfpfcnvrt+1)& (0+255),b
  2662  003984  0E00               	movlw	0
  2663  003986  6F9D               	movwf	?_vfpfcnvrt& (0+255),b
  2664  003988  EFE7  F01C         	goto	l1066
  2665  00398C                     l6149:
  2666                           
  2667                           ;C:\Program Files\Microchip\xc8\v2.32\pic\sources\c99\common\doprnt.c: 1384:     fputc((
      +                          int)(*fmt)[0], fp);
  2668  00398C  0061  F67C  F4D9   	movff	vfpfcnvrt@fmt,fsr2l
  2669  003992  0061  F680  F4DA   	movff	vfpfcnvrt@fmt+1,fsr2h
  2670  003998  C4DE F4F6          	movff	postinc2,tblptrl
  2671  00399C  C4DD F4F7          	movff	postdec2,tblptrh
  2672  0039A0                     	if	0	;tblptru may be non-zero
  2673  0039A0                     	endif
  2674  0039A0                     	if	1	;Program memory is > 0xFFFF, there are 3 active tblptr bytes
  2675  0039A0  0E00               	movlw	low (__mediumconst shr (0+16))
  2676  0039A2  6EF8               	movwf	tblptru,c
  2677  0039A4                     	endif
  2678  0039A4  0008               	tblrd		*
  2679  0039A6  50F5               	movf	tablat,w,c
  2680  0039A8  6E04               	movwf	fputc@c^(0+1280),c
  2681  0039AA  6A05               	clrf	(fputc@c+1)^(0+1280),c
  2682  0039AC  C59D  F506         	movff	vfpfcnvrt@fp,fputc@fp
  2683  0039B0  C59E  F507         	movff	vfpfcnvrt@fp+1,fputc@fp+1
  2684  0039B4  EC45  F02B         	call	_fputc	;wreg free
  2685  0039B8                     
  2686                           ;C:\Program Files\Microchip\xc8\v2.32\pic\sources\c99\common\doprnt.c: 1385:     ++*fmt;
  2687  0039B8  0061  F67C  F4D9   	movff	vfpfcnvrt@fmt,fsr2l
  2688  0039BE  0061  F680  F4DA   	movff	vfpfcnvrt@fmt+1,fsr2h
  2689  0039C4  2ADE               	incf	postinc2,f,c
  2690  0039C6  0E00               	movlw	0
  2691  0039C8  22DD               	addwfc	postdec2,f,c
  2692  0039CA  EFAF  F01C         	goto	l6139
  2693  0039CE                     l1066:
  2694  0039CE  0012               	return		;funcret
  2695  0039D0                     __end_of_vfpfcnvrt:
  2696                           	callstack 0
  2697                           
  2698 ;; *************** function _utoa *****************
  2699 ;; Defined at:
  2700 ;;		line 615 in file "C:\Program Files\Microchip\xc8\v2.32\pic\sources\c99\common\doprnt.c"
  2701 ;; Parameters:    Size  Location     Type
  2702 ;;  fp              2   30[COMRAM] PTR struct _IO_FILE
  2703 ;;		 -> sprintf@f(6), 
  2704 ;;  d               8   32[COMRAM] unsigned long long 
  2705 ;; Auto vars:     Size  Location     Type
  2706 ;;  n               8   52[COMRAM] unsigned long long 
  2707 ;;  i               2   60[COMRAM] int 
  2708 ;;  w               2   50[COMRAM] int 
  2709 ;;  p               2   48[COMRAM] int 
  2710 ;; Return value:  Size  Location     Type
  2711 ;;                  2   30[COMRAM] int 
  2712 ;; Registers used:
  2713 ;;		wreg, fsr1l, fsr1h, fsr2l, fsr2h, status,2, status,0, cstack
  2714 ;; Tracked objects:
  2715 ;;		On entry : 0/0
  2716 ;;		On exit  : 0/0
  2717 ;;		Unchanged: 0/0
  2718 ;; Data sizes:     COMRAM   BANK5   BANK6   BANK7   BANK8   BANK9  BANK10  BANK11  BANK12  BANK13  BANK14  BANK15  BANK1
      +6  BANK17  BANK18  BANK19  BANK20  BANK21  BANK22  BANK23  BANK24  BANK25  BANK26  BANK27  BANK28  BANK29  BANK30  BANK3
      +1  BANK32  BANK33  BANK34  BANK35  BANK36
  2719 ;;      Params:        10       0       0       0       0       0       0       0       0       0       0       0       
      +0       0       0       0       0       0       0       0       0       0       0       0       0       0       0       
      +0       0       0       0       0       0
  2720 ;;      Locals:        14       0       0       0       0       0       0       0       0       0       0       0       
      +0       0       0       0       0       0       0       0       0       0       0       0       0       0       0       
      +0       0       0       0       0       0
  2721 ;;      Temps:          8       0       0       0       0       0       0       0       0       0       0       0       
      +0       0       0       0       0       0       0       0       0       0       0       0       0       0       0       
      +0       0       0       0       0       0
  2722 ;;      Totals:        32       0       0       0       0       0       0       0       0       0       0       0       
      +0       0       0       0       0       0       0       0       0       0       0       0       0       0       0       
      +0       0       0       0       0       0
  2723 ;;Total ram usage:       32 bytes
  2724 ;; Hardware stack levels used: 1
  2725 ;; Hardware stack levels required when called: 6
  2726 ;; This function calls:
  2727 ;;		___lodiv
  2728 ;;		___lomod
  2729 ;;		_pad
  2730 ;; This function is called by:
  2731 ;;		_vfpfcnvrt
  2732 ;; This function uses a non-reentrant model
  2733 ;;
  2734                           
  2735                           	psect	text4
  2736  004B00                     __ptext4:
  2737                           	callstack 0
  2738  004B00                     _utoa:
  2739                           	callstack 117
  2740  004B00                     
  2741                           ;C:\Program Files\Microchip\xc8\v2.32\pic\sources\c99\common\doprnt.c: 615: static int u
      +                          toa(FILE *fp, unsigned long long d);C:\Program Files\Microchip\xc8\v2.32\pic\sources\c99
      +                          \common\doprnt.c: 616: {;C:\Program Files\Microchip\xc8\v2.32\pic\sources\c99\common\dop
      +                          rnt.c: 617:     int i, p, w;;C:\Program Files\Microchip\xc8\v2.32\pic\sources\c99\common
      +                          \doprnt.c: 618:     unsigned long long n;;C:\Program Files\Microchip\xc8\v2.32\pic\sourc
      +                          es\c99\common\doprnt.c: 621:     if (!(prec < 0)) {
  2742  004B00  BE5A               	btfsc	(_prec+1)^(0+1280),7,c
  2743  004B02  EF85  F025         	goto	u7791
  2744  004B06  EF87  F025         	goto	u7790
  2745  004B0A                     u7791:
  2746  004B0A  EF88  F025         	goto	l5901
  2747  004B0E                     u7790:
  2748  004B0E                     
  2749                           ;C:\Program Files\Microchip\xc8\v2.32\pic\sources\c99\common\doprnt.c: 622:         flag
      +                          s &= ~(1 << 1);
  2750  004B0E  925B               	bcf	_flags^(0+1280),1,c
  2751  004B10                     l5901:
  2752                           
  2753                           ;C:\Program Files\Microchip\xc8\v2.32\pic\sources\c99\common\doprnt.c: 624:     p = (0 <
      +                           prec) ? prec : 1;
  2754  004B10  BE5A               	btfsc	(_prec+1)^(0+1280),7,c
  2755  004B12  EF95  F025         	goto	u7800
  2756  004B16  505A               	movf	(_prec+1)^(0+1280),w,c
  2757  004B18  E106               	bnz	u7801
  2758  004B1A  0459               	decf	_prec^(0+1280),w,c
  2759  004B1C  B0D8               	btfsc	status,0,c
  2760  004B1E  EF93  F025         	goto	u7801
  2761  004B22  EF95  F025         	goto	u7800
  2762  004B26                     u7801:
  2763  004B26  EF9B  F025         	goto	l1017
  2764  004B2A                     u7800:
  2765  004B2A  0E00               	movlw	0
  2766  004B2C  6E32               	movwf	(utoa@p+1)^(0+1280),c
  2767  004B2E  0E01               	movlw	1
  2768  004B30  6E31               	movwf	utoa@p^(0+1280),c
  2769  004B32  EF9F  F025         	goto	l1019
  2770  004B36                     l1017:
  2771  004B36  C559  F531         	movff	_prec,utoa@p
  2772  004B3A  C55A  F532         	movff	_prec+1,utoa@p+1
  2773  004B3E                     l1019:
  2774                           
  2775                           ;C:\Program Files\Microchip\xc8\v2.32\pic\sources\c99\common\doprnt.c: 625:     w = widt
      +                          h;
  2776  004B3E  C5E7  F533         	movff	_width,utoa@w
  2777  004B42  C5E8  F534         	movff	_width+1,utoa@w+1
  2778                           
  2779                           ;C:\Program Files\Microchip\xc8\v2.32\pic\sources\c99\common\doprnt.c: 628:     n = d;
  2780  004B46  C521  F535         	movff	utoa@d,utoa@n
  2781  004B4A  C522  F536         	movff	utoa@d+1,utoa@n+1
  2782  004B4E  C523  F537         	movff	utoa@d+2,utoa@n+2
  2783  004B52  C524  F538         	movff	utoa@d+3,utoa@n+3
  2784  004B56  C525  F539         	movff	utoa@d+4,utoa@n+4
  2785  004B5A  C526  F53A         	movff	utoa@d+5,utoa@n+5
  2786  004B5E  C527  F53B         	movff	utoa@d+6,utoa@n+6
  2787  004B62  C528  F53C         	movff	utoa@d+7,utoa@n+7
  2788  004B66                     
  2789                           ;C:\Program Files\Microchip\xc8\v2.32\pic\sources\c99\common\doprnt.c: 629:     i = size
      +                          of(dbuf) - 1;
  2790  004B66  0E00               	movlw	0
  2791  004B68  6E3E               	movwf	(utoa@i+1)^(0+1280),c
  2792  004B6A  0E4F               	movlw	79
  2793  004B6C  6E3D               	movwf	utoa@i^(0+1280),c
  2794  004B6E                     
  2795                           ;C:\Program Files\Microchip\xc8\v2.32\pic\sources\c99\common\doprnt.c: 630:     dbuf[i] 
      +                          = '\0';
  2796  004B6E  0E00               	movlw	0
  2797  004B70  0106               	movlb	6	; () banked
  2798  004B72  6F5B               	movwf	(_dbuf+79)& (0+255),b
  2799                           
  2800                           ;C:\Program Files\Microchip\xc8\v2.32\pic\sources\c99\common\doprnt.c: 631:     while (i
      +                           && (n || (0 < p) || ((0 < w) && (flags & (1 << 1))))) {
  2801  004B74  EF32  F026         	goto	l5919
  2802  004B78                     l5909:
  2803                           
  2804                           ;C:\Program Files\Microchip\xc8\v2.32\pic\sources\c99\common\doprnt.c: 632:         --i;
  2805  004B78  063D               	decf	utoa@i^(0+1280),f,c
  2806  004B7A  A0D8               	btfss	status,0,c
  2807  004B7C  063E               	decf	(utoa@i+1)^(0+1280),f,c
  2808  004B7E                     
  2809                           ;C:\Program Files\Microchip\xc8\v2.32\pic\sources\c99\common\doprnt.c: 633:         dbuf
      +                          [i] = '0' + (n % 10);
  2810  004B7E  0E0C               	movlw	low _dbuf
  2811  004B80  243D               	addwf	utoa@i^(0+1280),w,c
  2812  004B82  6ED9               	movwf	fsr2l,c
  2813  004B84  0E06               	movlw	high _dbuf
  2814  004B86  203E               	addwfc	(utoa@i+1)^(0+1280),w,c
  2815  004B88  6EDA               	movwf	fsr2h,c
  2816  004B8A  C535  F504         	movff	utoa@n,___lomod@dividend
  2817  004B8E  C536  F505         	movff	utoa@n+1,___lomod@dividend+1
  2818  004B92  C537  F506         	movff	utoa@n+2,___lomod@dividend+2
  2819  004B96  C538  F507         	movff	utoa@n+3,___lomod@dividend+3
  2820  004B9A  C539  F508         	movff	utoa@n+4,___lomod@dividend+4
  2821  004B9E  C53A  F509         	movff	utoa@n+5,___lomod@dividend+5
  2822  004BA2  C53B  F50A         	movff	utoa@n+6,___lomod@dividend+6
  2823  004BA6  C53C  F50B         	movff	utoa@n+7,___lomod@dividend+7
  2824  004BAA  0E0A               	movlw	10
  2825  004BAC  6E0C               	movwf	___lomod@divisor^(0+1280),c
  2826  004BAE  0E00               	movlw	0
  2827  004BB0  6E0D               	movwf	(___lomod@divisor+1)^(0+1280),c
  2828  004BB2  0E00               	movlw	0
  2829  004BB4  6E0E               	movwf	(___lomod@divisor+2)^(0+1280),c
  2830  004BB6  0E00               	movlw	0
  2831  004BB8  6E0F               	movwf	(___lomod@divisor+3)^(0+1280),c
  2832  004BBA  0E00               	movlw	0
  2833  004BBC  6E10               	movwf	(___lomod@divisor+4)^(0+1280),c
  2834  004BBE  0E00               	movlw	0
  2835  004BC0  6E11               	movwf	(___lomod@divisor+5)^(0+1280),c
  2836  004BC2  0E00               	movlw	0
  2837  004BC4  6E12               	movwf	(___lomod@divisor+6)^(0+1280),c
  2838  004BC6  0E00               	movlw	0
  2839  004BC8  6E13               	movwf	(___lomod@divisor+7)^(0+1280),c
  2840  004BCA  ECB1  F02B         	call	___lomod	;wreg free
  2841  004BCE  C504  F529         	movff	?___lomod,??_utoa
  2842  004BD2  C505  F52A         	movff	?___lomod+1,??_utoa+1
  2843  004BD6  C506  F52B         	movff	?___lomod+2,??_utoa+2
  2844  004BDA  C507  F52C         	movff	?___lomod+3,??_utoa+3
  2845  004BDE  C508  F52D         	movff	?___lomod+4,??_utoa+4
  2846  004BE2  C509  F52E         	movff	?___lomod+5,??_utoa+5
  2847  004BE6  C50A  F52F         	movff	?___lomod+6,??_utoa+6
  2848  004BEA  C50B  F530         	movff	?___lomod+7,??_utoa+7
  2849  004BEE  5029               	movf	??_utoa^(0+1280),w,c
  2850  004BF0  0F30               	addlw	48
  2851  004BF2  6EDF               	movwf	indf2,c
  2852  004BF4                     
  2853                           ;C:\Program Files\Microchip\xc8\v2.32\pic\sources\c99\common\doprnt.c: 634:         --p;
  2854  004BF4  0631               	decf	utoa@p^(0+1280),f,c
  2855  004BF6  A0D8               	btfss	status,0,c
  2856  004BF8  0632               	decf	(utoa@p+1)^(0+1280),f,c
  2857  004BFA                     
  2858                           ;C:\Program Files\Microchip\xc8\v2.32\pic\sources\c99\common\doprnt.c: 635:         --w;
  2859  004BFA  0633               	decf	utoa@w^(0+1280),f,c
  2860  004BFC  A0D8               	btfss	status,0,c
  2861  004BFE  0634               	decf	(utoa@w+1)^(0+1280),f,c
  2862  004C00                     
  2863                           ;C:\Program Files\Microchip\xc8\v2.32\pic\sources\c99\common\doprnt.c: 636:         n = 
      +                          n / 10;
  2864  004C00  C535  F504         	movff	utoa@n,___lodiv@dividend
  2865  004C04  C536  F505         	movff	utoa@n+1,___lodiv@dividend+1
  2866  004C08  C537  F506         	movff	utoa@n+2,___lodiv@dividend+2
  2867  004C0C  C538  F507         	movff	utoa@n+3,___lodiv@dividend+3
  2868  004C10  C539  F508         	movff	utoa@n+4,___lodiv@dividend+4
  2869  004C14  C53A  F509         	movff	utoa@n+5,___lodiv@dividend+5
  2870  004C18  C53B  F50A         	movff	utoa@n+6,___lodiv@dividend+6
  2871  004C1C  C53C  F50B         	movff	utoa@n+7,___lodiv@dividend+7
  2872  004C20  0E0A               	movlw	10
  2873  004C22  6E0C               	movwf	___lodiv@divisor^(0+1280),c
  2874  004C24  0E00               	movlw	0
  2875  004C26  6E0D               	movwf	(___lodiv@divisor+1)^(0+1280),c
  2876  004C28  0E00               	movlw	0
  2877  004C2A  6E0E               	movwf	(___lodiv@divisor+2)^(0+1280),c
  2878  004C2C  0E00               	movlw	0
  2879  004C2E  6E0F               	movwf	(___lodiv@divisor+3)^(0+1280),c
  2880  004C30  0E00               	movlw	0
  2881  004C32  6E10               	movwf	(___lodiv@divisor+4)^(0+1280),c
  2882  004C34  0E00               	movlw	0
  2883  004C36  6E11               	movwf	(___lodiv@divisor+5)^(0+1280),c
  2884  004C38  0E00               	movlw	0
  2885  004C3A  6E12               	movwf	(___lodiv@divisor+6)^(0+1280),c
  2886  004C3C  0E00               	movlw	0
  2887  004C3E  6E13               	movwf	(___lodiv@divisor+7)^(0+1280),c
  2888  004C40  ECCD  F02A         	call	___lodiv	;wreg free
  2889  004C44  C504  F535         	movff	?___lodiv,utoa@n
  2890  004C48  C505  F536         	movff	?___lodiv+1,utoa@n+1
  2891  004C4C  C506  F537         	movff	?___lodiv+2,utoa@n+2
  2892  004C50  C507  F538         	movff	?___lodiv+3,utoa@n+3
  2893  004C54  C508  F539         	movff	?___lodiv+4,utoa@n+4
  2894  004C58  C509  F53A         	movff	?___lodiv+5,utoa@n+5
  2895  004C5C  C50A  F53B         	movff	?___lodiv+6,utoa@n+6
  2896  004C60  C50B  F53C         	movff	?___lodiv+7,utoa@n+7
  2897  004C64                     l5919:
  2898                           
  2899                           ;C:\Program Files\Microchip\xc8\v2.32\pic\sources\c99\common\doprnt.c: 631:     while (i
      +                           && (n || (0 < p) || ((0 < w) && (flags & (1 << 1))))) {
  2900  004C64  503D               	movf	utoa@i^(0+1280),w,c
  2901  004C66  103E               	iorwf	(utoa@i+1)^(0+1280),w,c
  2902  004C68  B4D8               	btfsc	status,2,c
  2903  004C6A  EF39  F026         	goto	u7811
  2904  004C6E  EF3B  F026         	goto	u7810
  2905  004C72                     u7811:
  2906  004C72  EF6B  F026         	goto	l5929
  2907  004C76                     u7810:
  2908  004C76  5035               	movf	utoa@n^(0+1280),w,c
  2909  004C78  1036               	iorwf	(utoa@n+1)^(0+1280),w,c
  2910  004C7A  1037               	iorwf	(utoa@n+2)^(0+1280),w,c
  2911  004C7C  1038               	iorwf	(utoa@n+3)^(0+1280),w,c
  2912  004C7E  1039               	iorwf	(utoa@n+4)^(0+1280),w,c
  2913  004C80  103A               	iorwf	(utoa@n+5)^(0+1280),w,c
  2914  004C82  103B               	iorwf	(utoa@n+6)^(0+1280),w,c
  2915  004C84  103C               	iorwf	(utoa@n+7)^(0+1280),w,c
  2916  004C86  A4D8               	btfss	status,2,c
  2917  004C88  EF48  F026         	goto	u7821
  2918  004C8C  EF4A  F026         	goto	u7820
  2919  004C90                     u7821:
  2920  004C90  EFBC  F025         	goto	l5909
  2921  004C94                     u7820:
  2922  004C94  BE32               	btfsc	(utoa@p+1)^(0+1280),7,c
  2923  004C96  EF57  F026         	goto	u7830
  2924  004C9A  5032               	movf	(utoa@p+1)^(0+1280),w,c
  2925  004C9C  E106               	bnz	u7831
  2926  004C9E  0431               	decf	utoa@p^(0+1280),w,c
  2927  004CA0  B0D8               	btfsc	status,0,c
  2928  004CA2  EF55  F026         	goto	u7831
  2929  004CA6  EF57  F026         	goto	u7830
  2930  004CAA                     u7831:
  2931  004CAA  EFBC  F025         	goto	l5909
  2932  004CAE                     u7830:
  2933  004CAE  BE34               	btfsc	(utoa@w+1)^(0+1280),7,c
  2934  004CB0  EF62  F026         	goto	u7841
  2935  004CB4  5034               	movf	(utoa@w+1)^(0+1280),w,c
  2936  004CB6  E108               	bnz	u7840
  2937  004CB8  0433               	decf	utoa@w^(0+1280),w,c
  2938  004CBA  A0D8               	btfss	status,0,c
  2939  004CBC  EF62  F026         	goto	u7841
  2940  004CC0  EF64  F026         	goto	u7840
  2941  004CC4                     u7841:
  2942  004CC4  EF6B  F026         	goto	l5929
  2943  004CC8                     u7840:
  2944  004CC8  B25B               	btfsc	_flags^(0+1280),1,c
  2945  004CCA  EF69  F026         	goto	u7851
  2946  004CCE  EF6B  F026         	goto	u7850
  2947  004CD2                     u7851:
  2948  004CD2  EFBC  F025         	goto	l5909
  2949  004CD6                     u7850:
  2950  004CD6                     l5929:
  2951                           
  2952                           ;C:\Program Files\Microchip\xc8\v2.32\pic\sources\c99\common\doprnt.c: 640:     return p
      +                          ad(fp, &dbuf[i], w);
  2953  004CD6  C51F  F514         	movff	utoa@fp,pad@fp
  2954  004CDA  C520  F515         	movff	utoa@fp+1,pad@fp+1
  2955  004CDE  0E0C               	movlw	low _dbuf
  2956  004CE0  243D               	addwf	utoa@i^(0+1280),w,c
  2957  004CE2  6E16               	movwf	pad@buf^(0+1280),c
  2958  004CE4  0E06               	movlw	high _dbuf
  2959  004CE6  203E               	addwfc	(utoa@i+1)^(0+1280),w,c
  2960  004CE8  6E17               	movwf	(pad@buf+1)^(0+1280),c
  2961  004CEA  C533  F518         	movff	utoa@w,pad@p
  2962  004CEE  C534  F519         	movff	utoa@w+1,pad@p+1
  2963  004CF2  EC7B  F02C         	call	_pad	;wreg free
  2964  004CF6  C514  F51F         	movff	?_pad,?_utoa
  2965  004CFA  C515  F520         	movff	?_pad+1,?_utoa+1
  2966  004CFE  0012               	return		;funcret
  2967  004D00                     __end_of_utoa:
  2968                           	callstack 0
  2969                           
  2970 ;; *************** function ___lomod *****************
  2971 ;; Defined at:
  2972 ;;		line 9 in file "C:\Program Files\Microchip\xc8\v2.32\pic\sources\c99\common\lomod.c"
  2973 ;; Parameters:    Size  Location     Type
  2974 ;;  dividend        8    3[COMRAM] unsigned long long 
  2975 ;;  divisor         8   11[COMRAM] unsigned long long 
  2976 ;; Auto vars:     Size  Location     Type
  2977 ;;  counter         1   19[COMRAM] unsigned char 
  2978 ;; Return value:  Size  Location     Type
  2979 ;;                  8    3[COMRAM] unsigned long long 
  2980 ;; Registers used:
  2981 ;;		wreg, status,2, status,0
  2982 ;; Tracked objects:
  2983 ;;		On entry : 0/0
  2984 ;;		On exit  : 0/0
  2985 ;;		Unchanged: 0/0
  2986 ;; Data sizes:     COMRAM   BANK5   BANK6   BANK7   BANK8   BANK9  BANK10  BANK11  BANK12  BANK13  BANK14  BANK15  BANK1
      +6  BANK17  BANK18  BANK19  BANK20  BANK21  BANK22  BANK23  BANK24  BANK25  BANK26  BANK27  BANK28  BANK29  BANK30  BANK3
      +1  BANK32  BANK33  BANK34  BANK35  BANK36
  2987 ;;      Params:        16       0       0       0       0       0       0       0       0       0       0       0       
      +0       0       0       0       0       0       0       0       0       0       0       0       0       0       0       
      +0       0       0       0       0       0
  2988 ;;      Locals:         1       0       0       0       0       0       0       0       0       0       0       0       
      +0       0       0       0       0       0       0       0       0       0       0       0       0       0       0       
      +0       0       0       0       0       0
  2989 ;;      Temps:          0       0       0       0       0       0       0       0       0       0       0       0       
      +0       0       0       0       0       0       0       0       0       0       0       0       0       0       0       
      +0       0       0       0       0       0
  2990 ;;      Totals:        17       0       0       0       0       0       0       0       0       0       0       0       
      +0       0       0       0       0       0       0       0       0       0       0       0       0       0       0       
      +0       0       0       0       0       0
  2991 ;;Total ram usage:       17 bytes
  2992 ;; Hardware stack levels used: 1
  2993 ;; Hardware stack levels required when called: 2
  2994 ;; This function calls:
  2995 ;;		Nothing
  2996 ;; This function is called by:
  2997 ;;		_utoa
  2998 ;; This function uses a non-reentrant model
  2999 ;;
  3000                           
  3001                           	psect	text5
  3002  005762                     __ptext5:
  3003                           	callstack 0
  3004  005762                     ___lomod:
  3005                           	callstack 120
  3006  005762  500C               	movf	___lomod@divisor^(0+1280),w,c
  3007  005764  100D               	iorwf	(___lomod@divisor+1)^(0+1280),w,c
  3008  005766  100E               	iorwf	(___lomod@divisor+2)^(0+1280),w,c
  3009  005768  100F               	iorwf	(___lomod@divisor+3)^(0+1280),w,c
  3010  00576A  1010               	iorwf	(___lomod@divisor+4)^(0+1280),w,c
  3011  00576C  1011               	iorwf	(___lomod@divisor+5)^(0+1280),w,c
  3012  00576E  1012               	iorwf	(___lomod@divisor+6)^(0+1280),w,c
  3013  005770  1013               	iorwf	(___lomod@divisor+7)^(0+1280),w,c
  3014  005772  B4D8               	btfsc	status,2,c
  3015  005774  EFBE  F02B         	goto	u6921
  3016  005778  EFC0  F02B         	goto	u6920
  3017  00577C                     u6921:
  3018  00577C  EF08  F02C         	goto	l643
  3019  005780                     u6920:
  3020  005780  0E01               	movlw	1
  3021  005782  6E14               	movwf	___lomod@counter^(0+1280),c
  3022  005784  EFCE  F02B         	goto	l5459
  3023  005788                     l5457:
  3024  005788  90D8               	bcf	status,0,c
  3025  00578A  360C               	rlcf	___lomod@divisor^(0+1280),f,c
  3026  00578C  360D               	rlcf	(___lomod@divisor+1)^(0+1280),f,c
  3027  00578E  360E               	rlcf	(___lomod@divisor+2)^(0+1280),f,c
  3028  005790  360F               	rlcf	(___lomod@divisor+3)^(0+1280),f,c
  3029  005792  3610               	rlcf	(___lomod@divisor+4)^(0+1280),f,c
  3030  005794  3611               	rlcf	(___lomod@divisor+5)^(0+1280),f,c
  3031  005796  3612               	rlcf	(___lomod@divisor+6)^(0+1280),f,c
  3032  005798  3613               	rlcf	(___lomod@divisor+7)^(0+1280),f,c
  3033  00579A  2A14               	incf	___lomod@counter^(0+1280),f,c
  3034  00579C                     l5459:
  3035  00579C  AE13               	btfss	(___lomod@divisor+7)^(0+1280),7,c
  3036  00579E  EFD3  F02B         	goto	u6931
  3037  0057A2  EFD5  F02B         	goto	u6930
  3038  0057A6                     u6931:
  3039  0057A6  EFC4  F02B         	goto	l5457
  3040  0057AA                     u6930:
  3041  0057AA                     l5461:
  3042  0057AA  500C               	movf	___lomod@divisor^(0+1280),w,c
  3043  0057AC  5C04               	subwf	___lomod@dividend^(0+1280),w,c
  3044  0057AE  500D               	movf	(___lomod@divisor+1)^(0+1280),w,c
  3045  0057B0  5805               	subwfb	(___lomod@dividend+1)^(0+1280),w,c
  3046  0057B2  500E               	movf	(___lomod@divisor+2)^(0+1280),w,c
  3047  0057B4  5806               	subwfb	(___lomod@dividend+2)^(0+1280),w,c
  3048  0057B6  500F               	movf	(___lomod@divisor+3)^(0+1280),w,c
  3049  0057B8  5807               	subwfb	(___lomod@dividend+3)^(0+1280),w,c
  3050  0057BA  5010               	movf	(___lomod@divisor+4)^(0+1280),w,c
  3051  0057BC  5808               	subwfb	(___lomod@dividend+4)^(0+1280),w,c
  3052  0057BE  5011               	movf	(___lomod@divisor+5)^(0+1280),w,c
  3053  0057C0  5809               	subwfb	(___lomod@dividend+5)^(0+1280),w,c
  3054  0057C2  5012               	movf	(___lomod@divisor+6)^(0+1280),w,c
  3055  0057C4  580A               	subwfb	(___lomod@dividend+6)^(0+1280),w,c
  3056  0057C6  5013               	movf	(___lomod@divisor+7)^(0+1280),w,c
  3057  0057C8  580B               	subwfb	(___lomod@dividend+7)^(0+1280),w,c
  3058  0057CA  A0D8               	btfss	status,0,c
  3059  0057CC  EFEA  F02B         	goto	u6941
  3060  0057D0  EFEC  F02B         	goto	u6940
  3061  0057D4                     u6941:
  3062  0057D4  EFFC  F02B         	goto	l5465
  3063  0057D8                     u6940:
  3064  0057D8  500C               	movf	___lomod@divisor^(0+1280),w,c
  3065  0057DA  5E04               	subwf	___lomod@dividend^(0+1280),f,c
  3066  0057DC  500D               	movf	(___lomod@divisor+1)^(0+1280),w,c
  3067  0057DE  5A05               	subwfb	(___lomod@dividend+1)^(0+1280),f,c
  3068  0057E0  500E               	movf	(___lomod@divisor+2)^(0+1280),w,c
  3069  0057E2  5A06               	subwfb	(___lomod@dividend+2)^(0+1280),f,c
  3070  0057E4  500F               	movf	(___lomod@divisor+3)^(0+1280),w,c
  3071  0057E6  5A07               	subwfb	(___lomod@dividend+3)^(0+1280),f,c
  3072  0057E8  5010               	movf	(___lomod@divisor+4)^(0+1280),w,c
  3073  0057EA  5A08               	subwfb	(___lomod@dividend+4)^(0+1280),f,c
  3074  0057EC  5011               	movf	(___lomod@divisor+5)^(0+1280),w,c
  3075  0057EE  5A09               	subwfb	(___lomod@dividend+5)^(0+1280),f,c
  3076  0057F0  5012               	movf	(___lomod@divisor+6)^(0+1280),w,c
  3077  0057F2  5A0A               	subwfb	(___lomod@dividend+6)^(0+1280),f,c
  3078  0057F4  5013               	movf	(___lomod@divisor+7)^(0+1280),w,c
  3079  0057F6  5A0B               	subwfb	(___lomod@dividend+7)^(0+1280),f,c
  3080  0057F8                     l5465:
  3081  0057F8  90D8               	bcf	status,0,c
  3082  0057FA  3213               	rrcf	(___lomod@divisor+7)^(0+1280),f,c
  3083  0057FC  3212               	rrcf	(___lomod@divisor+6)^(0+1280),f,c
  3084  0057FE  3211               	rrcf	(___lomod@divisor+5)^(0+1280),f,c
  3085  005800  3210               	rrcf	(___lomod@divisor+4)^(0+1280),f,c
  3086  005802  320F               	rrcf	(___lomod@divisor+3)^(0+1280),f,c
  3087  005804  320E               	rrcf	(___lomod@divisor+2)^(0+1280),f,c
  3088  005806  320D               	rrcf	(___lomod@divisor+1)^(0+1280),f,c
  3089  005808  320C               	rrcf	___lomod@divisor^(0+1280),f,c
  3090  00580A  2E14               	decfsz	___lomod@counter^(0+1280),f,c
  3091  00580C  EFD5  F02B         	goto	l5461
  3092  005810                     l643:
  3093  005810  C504  F504         	movff	___lomod@dividend,?___lomod
  3094  005814  C505  F505         	movff	___lomod@dividend+1,?___lomod+1
  3095  005818  C506  F506         	movff	___lomod@dividend+2,?___lomod+2
  3096  00581C  C507  F507         	movff	___lomod@dividend+3,?___lomod+3
  3097  005820  C508  F508         	movff	___lomod@dividend+4,?___lomod+4
  3098  005824  C509  F509         	movff	___lomod@dividend+5,?___lomod+5
  3099  005828  C50A  F50A         	movff	___lomod@dividend+6,?___lomod+6
  3100  00582C  C50B  F50B         	movff	___lomod@dividend+7,?___lomod+7
  3101  005830  0012               	return		;funcret
  3102  005832                     __end_of___lomod:
  3103                           	callstack 0
  3104                           
  3105 ;; *************** function ___lodiv *****************
  3106 ;; Defined at:
  3107 ;;		line 9 in file "C:\Program Files\Microchip\xc8\v2.32\pic\sources\c99\common\lodiv.c"
  3108 ;; Parameters:    Size  Location     Type
  3109 ;;  dividend        8    3[COMRAM] unsigned long long 
  3110 ;;  divisor         8   11[COMRAM] unsigned long long 
  3111 ;; Auto vars:     Size  Location     Type
  3112 ;;  quotient        8   19[COMRAM] unsigned long long 
  3113 ;;  counter         1   27[COMRAM] unsigned char 
  3114 ;; Return value:  Size  Location     Type
  3115 ;;                  8    3[COMRAM] unsigned long long 
  3116 ;; Registers used:
  3117 ;;		wreg, fsr2l, fsr2h, status,2, status,0
  3118 ;; Tracked objects:
  3119 ;;		On entry : 0/0
  3120 ;;		On exit  : 0/0
  3121 ;;		Unchanged: 0/0
  3122 ;; Data sizes:     COMRAM   BANK5   BANK6   BANK7   BANK8   BANK9  BANK10  BANK11  BANK12  BANK13  BANK14  BANK15  BANK1
      +6  BANK17  BANK18  BANK19  BANK20  BANK21  BANK22  BANK23  BANK24  BANK25  BANK26  BANK27  BANK28  BANK29  BANK30  BANK3
      +1  BANK32  BANK33  BANK34  BANK35  BANK36
  3123 ;;      Params:        16       0       0       0       0       0       0       0       0       0       0       0       
      +0       0       0       0       0       0       0       0       0       0       0       0       0       0       0       
      +0       0       0       0       0       0
  3124 ;;      Locals:         9       0       0       0       0       0       0       0       0       0       0       0       
      +0       0       0       0       0       0       0       0       0       0       0       0       0       0       0       
      +0       0       0       0       0       0
  3125 ;;      Temps:          0       0       0       0       0       0       0       0       0       0       0       0       
      +0       0       0       0       0       0       0       0       0       0       0       0       0       0       0       
      +0       0       0       0       0       0
  3126 ;;      Totals:        25       0       0       0       0       0       0       0       0       0       0       0       
      +0       0       0       0       0       0       0       0       0       0       0       0       0       0       0       
      +0       0       0       0       0       0
  3127 ;;Total ram usage:       25 bytes
  3128 ;; Hardware stack levels used: 1
  3129 ;; Hardware stack levels required when called: 2
  3130 ;; This function calls:
  3131 ;;		Nothing
  3132 ;; This function is called by:
  3133 ;;		_utoa
  3134 ;; This function uses a non-reentrant model
  3135 ;;
  3136                           
  3137                           	psect	text6
  3138  00559A                     __ptext6:
  3139                           	callstack 0
  3140  00559A                     ___lodiv:
  3141                           	callstack 120
  3142  00559A  EE21  F114         	lfsr	2,___lodiv@quotient
  3143  00559E  0E07               	movlw	7
  3144  0055A0                     u6881:
  3145  0055A0  6ADE               	clrf	postinc2,c
  3146  0055A2  06E8               	decf	wreg,f,c
  3147  0055A4  E2FD               	bc	u6881
  3148  0055A6  500C               	movf	___lodiv@divisor^(0+1280),w,c
  3149  0055A8  100D               	iorwf	(___lodiv@divisor+1)^(0+1280),w,c
  3150  0055AA  100E               	iorwf	(___lodiv@divisor+2)^(0+1280),w,c
  3151  0055AC  100F               	iorwf	(___lodiv@divisor+3)^(0+1280),w,c
  3152  0055AE  1010               	iorwf	(___lodiv@divisor+4)^(0+1280),w,c
  3153  0055B0  1011               	iorwf	(___lodiv@divisor+5)^(0+1280),w,c
  3154  0055B2  1012               	iorwf	(___lodiv@divisor+6)^(0+1280),w,c
  3155  0055B4  1013               	iorwf	(___lodiv@divisor+7)^(0+1280),w,c
  3156  0055B6  B4D8               	btfsc	status,2,c
  3157  0055B8  EFE0  F02A         	goto	u6891
  3158  0055BC  EFE2  F02A         	goto	u6890
  3159  0055C0                     u6891:
  3160  0055C0  EF34  F02B         	goto	l633
  3161  0055C4                     u6890:
  3162  0055C4  0E01               	movlw	1
  3163  0055C6  6E1C               	movwf	___lodiv@counter^(0+1280),c
  3164  0055C8  EFF0  F02A         	goto	l5439
  3165  0055CC                     l5437:
  3166  0055CC  90D8               	bcf	status,0,c
  3167  0055CE  360C               	rlcf	___lodiv@divisor^(0+1280),f,c
  3168  0055D0  360D               	rlcf	(___lodiv@divisor+1)^(0+1280),f,c
  3169  0055D2  360E               	rlcf	(___lodiv@divisor+2)^(0+1280),f,c
  3170  0055D4  360F               	rlcf	(___lodiv@divisor+3)^(0+1280),f,c
  3171  0055D6  3610               	rlcf	(___lodiv@divisor+4)^(0+1280),f,c
  3172  0055D8  3611               	rlcf	(___lodiv@divisor+5)^(0+1280),f,c
  3173  0055DA  3612               	rlcf	(___lodiv@divisor+6)^(0+1280),f,c
  3174  0055DC  3613               	rlcf	(___lodiv@divisor+7)^(0+1280),f,c
  3175  0055DE  2A1C               	incf	___lodiv@counter^(0+1280),f,c
  3176  0055E0                     l5439:
  3177  0055E0  AE13               	btfss	(___lodiv@divisor+7)^(0+1280),7,c
  3178  0055E2  EFF5  F02A         	goto	u6901
  3179  0055E6  EFF7  F02A         	goto	u6900
  3180  0055EA                     u6901:
  3181  0055EA  EFE6  F02A         	goto	l5437
  3182  0055EE                     u6900:
  3183  0055EE                     l5441:
  3184  0055EE  90D8               	bcf	status,0,c
  3185  0055F0  3614               	rlcf	___lodiv@quotient^(0+1280),f,c
  3186  0055F2  3615               	rlcf	(___lodiv@quotient+1)^(0+1280),f,c
  3187  0055F4  3616               	rlcf	(___lodiv@quotient+2)^(0+1280),f,c
  3188  0055F6  3617               	rlcf	(___lodiv@quotient+3)^(0+1280),f,c
  3189  0055F8  3618               	rlcf	(___lodiv@quotient+4)^(0+1280),f,c
  3190  0055FA  3619               	rlcf	(___lodiv@quotient+5)^(0+1280),f,c
  3191  0055FC  361A               	rlcf	(___lodiv@quotient+6)^(0+1280),f,c
  3192  0055FE  361B               	rlcf	(___lodiv@quotient+7)^(0+1280),f,c
  3193  005600  500C               	movf	___lodiv@divisor^(0+1280),w,c
  3194  005602  5C04               	subwf	___lodiv@dividend^(0+1280),w,c
  3195  005604  500D               	movf	(___lodiv@divisor+1)^(0+1280),w,c
  3196  005606  5805               	subwfb	(___lodiv@dividend+1)^(0+1280),w,c
  3197  005608  500E               	movf	(___lodiv@divisor+2)^(0+1280),w,c
  3198  00560A  5806               	subwfb	(___lodiv@dividend+2)^(0+1280),w,c
  3199  00560C  500F               	movf	(___lodiv@divisor+3)^(0+1280),w,c
  3200  00560E  5807               	subwfb	(___lodiv@dividend+3)^(0+1280),w,c
  3201  005610  5010               	movf	(___lodiv@divisor+4)^(0+1280),w,c
  3202  005612  5808               	subwfb	(___lodiv@dividend+4)^(0+1280),w,c
  3203  005614  5011               	movf	(___lodiv@divisor+5)^(0+1280),w,c
  3204  005616  5809               	subwfb	(___lodiv@dividend+5)^(0+1280),w,c
  3205  005618  5012               	movf	(___lodiv@divisor+6)^(0+1280),w,c
  3206  00561A  580A               	subwfb	(___lodiv@dividend+6)^(0+1280),w,c
  3207  00561C  5013               	movf	(___lodiv@divisor+7)^(0+1280),w,c
  3208  00561E  580B               	subwfb	(___lodiv@dividend+7)^(0+1280),w,c
  3209  005620  A0D8               	btfss	status,0,c
  3210  005622  EF15  F02B         	goto	u6911
  3211  005626  EF17  F02B         	goto	u6910
  3212  00562A                     u6911:
  3213  00562A  EF28  F02B         	goto	l5449
  3214  00562E                     u6910:
  3215  00562E  500C               	movf	___lodiv@divisor^(0+1280),w,c
  3216  005630  5E04               	subwf	___lodiv@dividend^(0+1280),f,c
  3217  005632  500D               	movf	(___lodiv@divisor+1)^(0+1280),w,c
  3218  005634  5A05               	subwfb	(___lodiv@dividend+1)^(0+1280),f,c
  3219  005636  500E               	movf	(___lodiv@divisor+2)^(0+1280),w,c
  3220  005638  5A06               	subwfb	(___lodiv@dividend+2)^(0+1280),f,c
  3221  00563A  500F               	movf	(___lodiv@divisor+3)^(0+1280),w,c
  3222  00563C  5A07               	subwfb	(___lodiv@dividend+3)^(0+1280),f,c
  3223  00563E  5010               	movf	(___lodiv@divisor+4)^(0+1280),w,c
  3224  005640  5A08               	subwfb	(___lodiv@dividend+4)^(0+1280),f,c
  3225  005642  5011               	movf	(___lodiv@divisor+5)^(0+1280),w,c
  3226  005644  5A09               	subwfb	(___lodiv@dividend+5)^(0+1280),f,c
  3227  005646  5012               	movf	(___lodiv@divisor+6)^(0+1280),w,c
  3228  005648  5A0A               	subwfb	(___lodiv@dividend+6)^(0+1280),f,c
  3229  00564A  5013               	movf	(___lodiv@divisor+7)^(0+1280),w,c
  3230  00564C  5A0B               	subwfb	(___lodiv@dividend+7)^(0+1280),f,c
  3231  00564E  8014               	bsf	___lodiv@quotient^(0+1280),0,c
  3232  005650                     l5449:
  3233  005650  90D8               	bcf	status,0,c
  3234  005652  3213               	rrcf	(___lodiv@divisor+7)^(0+1280),f,c
  3235  005654  3212               	rrcf	(___lodiv@divisor+6)^(0+1280),f,c
  3236  005656  3211               	rrcf	(___lodiv@divisor+5)^(0+1280),f,c
  3237  005658  3210               	rrcf	(___lodiv@divisor+4)^(0+1280),f,c
  3238  00565A  320F               	rrcf	(___lodiv@divisor+3)^(0+1280),f,c
  3239  00565C  320E               	rrcf	(___lodiv@divisor+2)^(0+1280),f,c
  3240  00565E  320D               	rrcf	(___lodiv@divisor+1)^(0+1280),f,c
  3241  005660  320C               	rrcf	___lodiv@divisor^(0+1280),f,c
  3242  005662  2E1C               	decfsz	___lodiv@counter^(0+1280),f,c
  3243  005664  EFF7  F02A         	goto	l5441
  3244  005668                     l633:
  3245  005668  C514  F504         	movff	___lodiv@quotient,?___lodiv
  3246  00566C  C515  F505         	movff	___lodiv@quotient+1,?___lodiv+1
  3247  005670  C516  F506         	movff	___lodiv@quotient+2,?___lodiv+2
  3248  005674  C517  F507         	movff	___lodiv@quotient+3,?___lodiv+3
  3249  005678  C518  F508         	movff	___lodiv@quotient+4,?___lodiv+4
  3250  00567C  C519  F509         	movff	___lodiv@quotient+5,?___lodiv+5
  3251  005680  C51A  F50A         	movff	___lodiv@quotient+6,?___lodiv+6
  3252  005684  C51B  F50B         	movff	___lodiv@quotient+7,?___lodiv+7
  3253  005688  0012               	return		;funcret
  3254  00568A                     __end_of___lodiv:
  3255                           	callstack 0
  3256                           
  3257 ;; *************** function _strncmp *****************
  3258 ;; Defined at:
  3259 ;;		line 3 in file "C:\Program Files\Microchip\xc8\v2.32\pic\sources\c99\common\strncmp.c"
  3260 ;; Parameters:    Size  Location     Type
  3261 ;;  _l              2    3[COMRAM] PTR const unsigned char 
  3262 ;;		 -> vfpfcnvrt@ct(3), 
  3263 ;;  _r              2    5[COMRAM] PTR const unsigned char 
  3264 ;;		 -> STR_15(3), 
  3265 ;;  n               2    7[COMRAM] unsigned int 
  3266 ;; Auto vars:     Size  Location     Type
  3267 ;;  r               2   12[COMRAM] PTR const unsigned char 
  3268 ;;		 -> STR_15(3), 
  3269 ;;  l               2   10[COMRAM] PTR const unsigned char 
  3270 ;;		 -> vfpfcnvrt@ct(3), 
  3271 ;; Return value:  Size  Location     Type
  3272 ;;                  2    3[COMRAM] int 
  3273 ;; Registers used:
  3274 ;;		wreg, fsr2l, fsr2h, status,2, status,0, tblptrl, tblptrh, tblptru
  3275 ;; Tracked objects:
  3276 ;;		On entry : 0/0
  3277 ;;		On exit  : 0/0
  3278 ;;		Unchanged: 0/0
  3279 ;; Data sizes:     COMRAM   BANK5   BANK6   BANK7   BANK8   BANK9  BANK10  BANK11  BANK12  BANK13  BANK14  BANK15  BANK1
      +6  BANK17  BANK18  BANK19  BANK20  BANK21  BANK22  BANK23  BANK24  BANK25  BANK26  BANK27  BANK28  BANK29  BANK30  BANK3
      +1  BANK32  BANK33  BANK34  BANK35  BANK36
  3280 ;;      Params:         6       0       0       0       0       0       0       0       0       0       0       0       
      +0       0       0       0       0       0       0       0       0       0       0       0       0       0       0       
      +0       0       0       0       0       0
  3281 ;;      Locals:         4       0       0       0       0       0       0       0       0       0       0       0       
      +0       0       0       0       0       0       0       0       0       0       0       0       0       0       0       
      +0       0       0       0       0       0
  3282 ;;      Temps:          1       0       0       0       0       0       0       0       0       0       0       0       
      +0       0       0       0       0       0       0       0       0       0       0       0       0       0       0       
      +0       0       0       0       0       0
  3283 ;;      Totals:        11       0       0       0       0       0       0       0       0       0       0       0       
      +0       0       0       0       0       0       0       0       0       0       0       0       0       0       0       
      +0       0       0       0       0       0
  3284 ;;Total ram usage:       11 bytes
  3285 ;; Hardware stack levels used: 1
  3286 ;; Hardware stack levels required when called: 2
  3287 ;; This function calls:
  3288 ;;		Nothing
  3289 ;; This function is called by:
  3290 ;;		_vfpfcnvrt
  3291 ;; This function uses a non-reentrant model
  3292 ;;
  3293                           
  3294                           	psect	text7
  3295  0054A0                     __ptext7:
  3296                           	callstack 0
  3297  0054A0                     _strncmp:
  3298                           	callstack 121
  3299  0054A0  C504  F50B         	movff	strncmp@_l,strncmp@l
  3300  0054A4  C505  F50C         	movff	strncmp@_l+1,strncmp@l+1
  3301  0054A8  C506  F50D         	movff	strncmp@_r,strncmp@r
  3302  0054AC  C507  F50E         	movff	strncmp@_r+1,strncmp@r+1
  3303  0054B0  0608               	decf	strncmp@n^(0+1280),f,c
  3304  0054B2  A0D8               	btfss	status,0,c
  3305  0054B4  0609               	decf	(strncmp@n+1)^(0+1280),f,c
  3306  0054B6  2808               	incf	strncmp@n^(0+1280),w,c
  3307  0054B8  E106               	bnz	u7931
  3308  0054BA  2809               	incf	(strncmp@n+1)^(0+1280),w,c
  3309  0054BC  A4D8               	btfss	status,2,c
  3310  0054BE  EF63  F02A         	goto	u7931
  3311  0054C2  EF65  F02A         	goto	u7930
  3312  0054C6                     u7931:
  3313  0054C6  EF72  F02A         	goto	l5983
  3314  0054CA                     u7930:
  3315  0054CA  0E00               	movlw	0
  3316  0054CC  6E05               	movwf	(?_strncmp+1)^(0+1280),c
  3317  0054CE  0E00               	movlw	0
  3318  0054D0  6E04               	movwf	?_strncmp^(0+1280),c
  3319  0054D2  EFCC  F02A         	goto	l1195
  3320  0054D6                     l5981:
  3321  0054D6  4A0B               	infsnz	strncmp@l^(0+1280),f,c
  3322  0054D8  2A0C               	incf	(strncmp@l+1)^(0+1280),f,c
  3323  0054DA  4A0D               	infsnz	strncmp@r^(0+1280),f,c
  3324  0054DC  2A0E               	incf	(strncmp@r+1)^(0+1280),f,c
  3325  0054DE  0608               	decf	strncmp@n^(0+1280),f,c
  3326  0054E0  A0D8               	btfss	status,0,c
  3327  0054E2  0609               	decf	(strncmp@n+1)^(0+1280),f,c
  3328  0054E4                     l5983:
  3329  0054E4  0061  F42C  F4D9   	movff	strncmp@l,fsr2l
  3330  0054EA  0061  F430  F4DA   	movff	strncmp@l+1,fsr2h
  3331  0054F0  50DF               	movf	indf2,w,c
  3332  0054F2  B4D8               	btfsc	status,2,c
  3333  0054F4  EF7E  F02A         	goto	u7941
  3334  0054F8  EF80  F02A         	goto	u7940
  3335  0054FC                     u7941:
  3336  0054FC  EFB5  F02A         	goto	l5991
  3337  005500                     u7940:
  3338  005500  0061  F434  F4F6   	movff	strncmp@r,tblptrl
  3339  005506  0061  F438  F4F7   	movff	strncmp@r+1,tblptrh
  3340  00550C                     	if	0	;tblptru may be non-zero
  3341  00550C                     	endif
  3342  00550C                     	if	1	;Program memory is > 0xFFFF, there are 3 active tblptr bytes
  3343  00550C  0E00               	movlw	low (__mediumconst shr (0+16))
  3344  00550E  6EF8               	movwf	tblptru,c
  3345  005510                     	endif
  3346  005510  0008               	tblrd		*
  3347  005512  50F5               	movf	tablat,w,c
  3348  005514  0900               	iorlw	0
  3349  005516  B4D8               	btfsc	status,2,c
  3350  005518  EF90  F02A         	goto	u7951
  3351  00551C  EF92  F02A         	goto	u7950
  3352  005520                     u7951:
  3353  005520  EFB5  F02A         	goto	l5991
  3354  005524                     u7950:
  3355  005524  5008               	movf	strncmp@n^(0+1280),w,c
  3356  005526  1009               	iorwf	(strncmp@n+1)^(0+1280),w,c
  3357  005528  B4D8               	btfsc	status,2,c
  3358  00552A  EF99  F02A         	goto	u7961
  3359  00552E  EF9B  F02A         	goto	u7960
  3360  005532                     u7961:
  3361  005532  EFB5  F02A         	goto	l5991
  3362  005536                     u7960:
  3363  005536  0061  F42C  F4D9   	movff	strncmp@l,fsr2l
  3364  00553C  0061  F430  F4DA   	movff	strncmp@l+1,fsr2h
  3365  005542  50DF               	movf	indf2,w,c
  3366  005544  6E0A               	movwf	??_strncmp^(0+1280),c
  3367  005546  0061  F434  F4F6   	movff	strncmp@r,tblptrl
  3368  00554C  0061  F438  F4F7   	movff	strncmp@r+1,tblptrh
  3369  005552                     	if	0	;tblptru may be non-zero
  3370  005552                     	endif
  3371  005552                     	if	1	;Program memory is > 0xFFFF, there are 3 active tblptr bytes
  3372  005552  0E00               	movlw	low (__mediumconst shr (0+16))
  3373  005554  6EF8               	movwf	tblptru,c
  3374  005556                     	endif
  3375  005556  0008               	tblrd		*
  3376  005558  50F5               	movf	tablat,w,c
  3377  00555A  180A               	xorwf	??_strncmp^(0+1280),w,c
  3378  00555C  B4D8               	btfsc	status,2,c
  3379  00555E  EFB3  F02A         	goto	u7971
  3380  005562  EFB5  F02A         	goto	u7970
  3381  005566                     u7971:
  3382  005566  EF6B  F02A         	goto	l5981
  3383  00556A                     u7970:
  3384  00556A                     l5991:
  3385  00556A  0061  F42C  F4D9   	movff	strncmp@l,fsr2l
  3386  005570  0061  F430  F4DA   	movff	strncmp@l+1,fsr2h
  3387  005576  50DF               	movf	indf2,w,c
  3388  005578  6E0A               	movwf	??_strncmp^(0+1280),c
  3389  00557A  0061  F434  F4F6   	movff	strncmp@r,tblptrl
  3390  005580  0061  F438  F4F7   	movff	strncmp@r+1,tblptrh
  3391  005586                     	if	0	;tblptru may be non-zero
  3392  005586                     	endif
  3393  005586                     	if	1	;Program memory is > 0xFFFF, there are 3 active tblptr bytes
  3394  005586  0E00               	movlw	low (__mediumconst shr (0+16))
  3395  005588  6EF8               	movwf	tblptru,c
  3396  00558A                     	endif
  3397  00558A  0008               	tblrd		*
  3398  00558C  50F5               	movf	tablat,w,c
  3399  00558E  5C0A               	subwf	??_strncmp^(0+1280),w,c
  3400  005590  6E04               	movwf	?_strncmp^(0+1280),c
  3401  005592  6A05               	clrf	(?_strncmp+1)^(0+1280),c
  3402  005594  A0D8               	btfss	status,0,c
  3403  005596  0605               	decf	(?_strncmp+1)^(0+1280),f,c
  3404  005598                     l1195:
  3405  005598  0012               	return		;funcret
  3406  00559A                     __end_of_strncmp:
  3407                           	callstack 0
  3408                           
  3409 ;; *************** function _efgtoa *****************
  3410 ;; Defined at:
  3411 ;;		line 332 in file "C:\Program Files\Microchip\xc8\v2.32\pic\sources\c99\common\doprnt.c"
  3412 ;; Parameters:    Size  Location     Type
  3413 ;;  fp              2   79[COMRAM] PTR struct _IO_FILE
  3414 ;;		 -> sprintf@f(6), 
  3415 ;;  f               4   81[COMRAM] PTR struct _IO_FILE
  3416 ;;  c               1   85[COMRAM] unsigned char 
  3417 ;; Auto vars:     Size  Location     Type
  3418 ;;  u               4   57[BANK5 ] unsigned char 
  3419 ;;  g               4   49[BANK5 ] unsigned char 
  3420 ;;  l               4   43[BANK5 ] unsigned char 
  3421 ;;  h               4   39[BANK5 ] unsigned char 
  3422 ;;  ou              4   25[BANK5 ] unsigned char 
  3423 ;;  n               2   55[BANK5 ] int 
  3424 ;;  e               2   53[BANK5 ] int 
  3425 ;;  i               2   47[BANK5 ] int 
  3426 ;;  w               2   35[BANK5 ] int 
  3427 ;;  p               2   33[BANK5 ] int 
  3428 ;;  sign            2   31[BANK5 ] int 
  3429 ;;  d               2   29[BANK5 ] int 
  3430 ;;  m               2   23[BANK5 ] int 
  3431 ;;  ne              2   21[BANK5 ] int 
  3432 ;;  pp              2   19[BANK5 ] int 
  3433 ;;  t               2   17[BANK5 ] int 
  3434 ;;  mode            1   38[BANK5 ] unsigned char 
  3435 ;;  nmode           1   37[BANK5 ] unsigned char 
  3436 ;; Return value:  Size  Location     Type
  3437 ;;                  2   79[COMRAM] int 
  3438 ;; Registers used:
  3439 ;;		wreg, fsr1l, fsr1h, fsr2l, fsr2h, status,2, status,0, tblptrl, tblptrh, tblptru, prodl, prodh, cstack
  3440 ;; Tracked objects:
  3441 ;;		On entry : 0/0
  3442 ;;		On exit  : 0/0
  3443 ;;		Unchanged: 0/0
  3444 ;; Data sizes:     COMRAM   BANK5   BANK6   BANK7   BANK8   BANK9  BANK10  BANK11  BANK12  BANK13  BANK14  BANK15  BANK1
      +6  BANK17  BANK18  BANK19  BANK20  BANK21  BANK22  BANK23  BANK24  BANK25  BANK26  BANK27  BANK28  BANK29  BANK30  BANK3
      +1  BANK32  BANK33  BANK34  BANK35  BANK36
  3445 ;;      Params:         7       0       0       0       0       0       0       0       0       0       0       0       
      +0       0       0       0       0       0       0       0       0       0       0       0       0       0       0       
      +0       0       0       0       0       0
  3446 ;;      Locals:         0      56       0       0       0       0       0       0       0       0       0       0       
      +0       0       0       0       0       0       0       0       0       0       0       0       0       0       0       
      +0       0       0       0       0       0
  3447 ;;      Temps:          0       5       0       0       0       0       0       0       0       0       0       0       
      +0       0       0       0       0       0       0       0       0       0       0       0       0       0       0       
      +0       0       0       0       0       0
  3448 ;;      Totals:         7      61       0       0       0       0       0       0       0       0       0       0       
      +0       0       0       0       0       0       0       0       0       0       0       0       0       0       0       
      +0       0       0       0       0       0
  3449 ;;Total ram usage:       68 bytes
  3450 ;; Hardware stack levels used: 1
  3451 ;; Hardware stack levels required when called: 6
  3452 ;; This function calls:
  3453 ;;		___awdiv
  3454 ;;		___awmod
  3455 ;;		___fladd
  3456 ;;		___fldiv
  3457 ;;		___fleq
  3458 ;;		___flge
  3459 ;;		___flmul
  3460 ;;		___flneg
  3461 ;;		___flsub
  3462 ;;		___fltol
  3463 ;;		___fpclassifyf
  3464 ;;		_floorf
  3465 ;;		_isupper
  3466 ;;		_pad
  3467 ;;		_strcpy
  3468 ;;		_tolower
  3469 ;; This function is called by:
  3470 ;;		_vfpfcnvrt
  3471 ;; This function uses a non-reentrant model
  3472 ;;
  3473                           
  3474                           	psect	text8
  3475  002558                     __ptext8:
  3476                           	callstack 0
  3477  002558                     _efgtoa:
  3478                           	callstack 117
  3479  002558                     
  3480                           ;C:\Program Files\Microchip\xc8\v2.32\pic\sources\c99\common\doprnt.c: 332: static int e
      +                          fgtoa(FILE *fp, long double f, char c);C:\Program Files\Microchip\xc8\v2.32\pic\sources\
      +                          c99\common\doprnt.c: 333: {;C:\Program Files\Microchip\xc8\v2.32\pic\sources\c99\common\
      +                          doprnt.c: 334:     char mode, nmode;;C:\Program Files\Microchip\xc8\v2.32\pic\sources\c9
      +                          9\common\doprnt.c: 335:     int d, e, i, m, n, ne, p, pp, sign, t, w;;C:\Program Files\M
      +                          icrochip\xc8\v2.32\pic\sources\c99\common\doprnt.c: 336:     long double g, h, l, ou, u;
  3481  002558  0E00               	movlw	0
  3482  00255A  0105               	movlb	5	; () banked
  3483  00255C  6F80               	movwf	(efgtoa@sign+1)& (0+255),b
  3484  00255E  0E00               	movlw	0
  3485  002560  6F7F               	movwf	efgtoa@sign& (0+255),b
  3486  002562                     
  3487                           ; BSR set to: 5
  3488                           ;C:\Program Files\Microchip\xc8\v2.32\pic\sources\c99\common\doprnt.c: 340:     g = f;
  3489  002562  C552  F591         	movff	efgtoa@f,efgtoa@g
  3490  002566  C553  F592         	movff	efgtoa@f+1,efgtoa@g+1
  3491  00256A  C554  F593         	movff	efgtoa@f+2,efgtoa@g+2
  3492  00256E  C555  F594         	movff	efgtoa@f+3,efgtoa@g+3
  3493  002572                     
  3494                           ; BSR set to: 5
  3495                           ;C:\Program Files\Microchip\xc8\v2.32\pic\sources\c99\common\doprnt.c: 341:     if (g < 
      +                          0.0) {
  3496  002572  BF94               	btfsc	(efgtoa@g+3)& (0+255),7,b
  3497  002574  EFC0  F012         	goto	u7250
  3498  002578  EFBE  F012         	goto	u7251
  3499  00257C                     u7251:
  3500  00257C  EFD6  F012         	goto	l5599
  3501  002580                     u7250:
  3502  002580                     
  3503                           ; BSR set to: 5
  3504                           ;C:\Program Files\Microchip\xc8\v2.32\pic\sources\c99\common\doprnt.c: 342:         sign
      +                           = 1;
  3505  002580  0E00               	movlw	0
  3506  002582  6F80               	movwf	(efgtoa@sign+1)& (0+255),b
  3507  002584  0E01               	movlw	1
  3508  002586  6F7F               	movwf	efgtoa@sign& (0+255),b
  3509  002588                     
  3510                           ; BSR set to: 5
  3511                           ;C:\Program Files\Microchip\xc8\v2.32\pic\sources\c99\common\doprnt.c: 343:         g = 
      +                          -g;
  3512  002588  C591  F504         	movff	efgtoa@g,___flneg@f1
  3513  00258C  C592  F505         	movff	efgtoa@g+1,___flneg@f1+1
  3514  002590  C593  F506         	movff	efgtoa@g+2,___flneg@f1+2
  3515  002594  C594  F507         	movff	efgtoa@g+3,___flneg@f1+3
  3516  002598  EC45  F030         	call	___flneg	;wreg free
  3517  00259C  C504  F591         	movff	?___flneg,efgtoa@g
  3518  0025A0  C505  F592         	movff	?___flneg+1,efgtoa@g+1
  3519  0025A4  C506  F593         	movff	?___flneg+2,efgtoa@g+2
  3520  0025A8  C507  F594         	movff	?___flneg+3,efgtoa@g+3
  3521  0025AC                     l5599:
  3522                           
  3523                           ;C:\Program Files\Microchip\xc8\v2.32\pic\sources\c99\common\doprnt.c: 347:     n = 0;
  3524  0025AC  0E00               	movlw	0
  3525  0025AE  0105               	movlb	5	; () banked
  3526  0025B0  6F98               	movwf	(efgtoa@n+1)& (0+255),b
  3527  0025B2  0E00               	movlw	0
  3528  0025B4  6F97               	movwf	efgtoa@n& (0+255),b
  3529  0025B6                     
  3530                           ; BSR set to: 5
  3531                           ;C:\Program Files\Microchip\xc8\v2.32\pic\sources\c99\common\doprnt.c: 348:     w = widt
      +                          h;
  3532  0025B6  C5E7  F583         	movff	_width,efgtoa@w
  3533  0025BA  C5E8  F584         	movff	_width+1,efgtoa@w+1
  3534  0025BE                     
  3535                           ; BSR set to: 5
  3536                           ;C:\Program Files\Microchip\xc8\v2.32\pic\sources\c99\common\doprnt.c: 349:     if (sign
      +                           || (flags & (1 << 2))) {
  3537  0025BE  517F               	movf	efgtoa@sign& (0+255),w,b
  3538  0025C0  1180               	iorwf	(efgtoa@sign+1)& (0+255),w,b
  3539  0025C2  A4D8               	btfss	status,2,c
  3540  0025C4  EFE6  F012         	goto	u7261
  3541  0025C8  EFE8  F012         	goto	u7260
  3542  0025CC                     u7261:
  3543  0025CC  EFEF  F012         	goto	l5607
  3544  0025D0                     u7260:
  3545  0025D0                     
  3546                           ; BSR set to: 5
  3547  0025D0  A45B               	btfss	_flags^(0+1280),2,c
  3548  0025D2  EFED  F012         	goto	u7271
  3549  0025D6  EFEF  F012         	goto	u7270
  3550  0025DA                     u7271:
  3551  0025DA  EF09  F013         	goto	l5619
  3552  0025DE                     u7270:
  3553  0025DE                     l5607:
  3554                           
  3555                           ; BSR set to: 5
  3556                           ;C:\Program Files\Microchip\xc8\v2.32\pic\sources\c99\common\doprnt.c: 350:         dbuf
      +                          [n] = sign ? '-' : '+';
  3557  0025DE  517F               	movf	efgtoa@sign& (0+255),w,b
  3558  0025E0  1180               	iorwf	(efgtoa@sign+1)& (0+255),w,b
  3559  0025E2  A4D8               	btfss	status,2,c
  3560  0025E4  EFF6  F012         	goto	u7281
  3561  0025E8  EFF8  F012         	goto	u7280
  3562  0025EC                     u7281:
  3563  0025EC  EFFE  F012         	goto	l5611
  3564  0025F0                     u7280:
  3565  0025F0                     
  3566                           ; BSR set to: 5
  3567  0025F0  0E00               	movlw	0
  3568  0025F2  6F66               	movwf	(_efgtoa$881+1)& (0+255),b
  3569  0025F4  0E2B               	movlw	43
  3570  0025F6  6F65               	movwf	_efgtoa$881& (0+255),b
  3571  0025F8  EF02  F013         	goto	l5613
  3572  0025FC                     l5611:
  3573                           
  3574                           ; BSR set to: 5
  3575  0025FC  0E00               	movlw	0
  3576  0025FE  6F66               	movwf	(_efgtoa$881+1)& (0+255),b
  3577  002600  0E2D               	movlw	45
  3578  002602  6F65               	movwf	_efgtoa$881& (0+255),b
  3579  002604                     l5613:
  3580                           
  3581                           ; BSR set to: 5
  3582  002604  C565  F60C         	movff	_efgtoa$881,_dbuf
  3583  002608                     
  3584                           ; BSR set to: 5
  3585                           ;C:\Program Files\Microchip\xc8\v2.32\pic\sources\c99\common\doprnt.c: 351:         ++n;
  3586  002608  4B97               	infsnz	efgtoa@n& (0+255),f,b
  3587  00260A  2B98               	incf	(efgtoa@n+1)& (0+255),f,b
  3588  00260C                     
  3589                           ; BSR set to: 5
  3590                           ;C:\Program Files\Microchip\xc8\v2.32\pic\sources\c99\common\doprnt.c: 352:         --w;
  3591  00260C  0783               	decf	efgtoa@w& (0+255),f,b
  3592  00260E  A0D8               	btfss	status,0,c
  3593  002610  0784               	decf	(efgtoa@w+1)& (0+255),f,b
  3594  002612                     l5619:
  3595                           
  3596                           ; BSR set to: 5
  3597                           ;C:\Program Files\Microchip\xc8\v2.32\pic\sources\c99\common\doprnt.c: 357:         if (
      +                          (0 ? isupper((int)c) : ((unsigned)((int)c)-'A') < 26)) {
  3598  002612  C591  F504         	movff	efgtoa@g,___fpclassifyf@x
  3599  002616  C592  F505         	movff	efgtoa@g+1,___fpclassifyf@x+1
  3600  00261A  C593  F506         	movff	efgtoa@g+2,___fpclassifyf@x+2
  3601  00261E  C594  F507         	movff	efgtoa@g+3,___fpclassifyf@x+3
  3602  002622  ECD1  F029         	call	___fpclassifyf	;wreg free
  3603  002626  0404               	decf	?___fpclassifyf^(0+1280),w,c
  3604  002628  1005               	iorwf	(?___fpclassifyf+1)^(0+1280),w,c
  3605  00262A  A4D8               	btfss	status,2,c
  3606  00262C  EF1A  F013         	goto	u7291
  3607  002630  EF1C  F013         	goto	u7290
  3608  002634                     u7291:
  3609  002634  EF73  F013         	goto	l5637
  3610  002638                     u7290:
  3611  002638  0EBF               	movlw	191
  3612  00263A  0105               	movlb	5	; () banked
  3613  00263C  6F60               	movwf	??_efgtoa& (0+255),b
  3614  00263E  0EFF               	movlw	255
  3615  002640  6F61               	movwf	(??_efgtoa+1)& (0+255),b
  3616  002642  5056               	movf	efgtoa@c^(0+1280),w,c
  3617  002644  6F62               	movwf	(??_efgtoa+2)& (0+255),b
  3618  002646  6B63               	clrf	(??_efgtoa+3)& (0+255),b
  3619  002648  5160               	movf	??_efgtoa& (0+255),w,b
  3620  00264A  2762               	addwf	(??_efgtoa+2)& (0+255),f,b
  3621  00264C  5161               	movf	(??_efgtoa+1)& (0+255),w,b
  3622  00264E  2363               	addwfc	(??_efgtoa+3)& (0+255),f,b
  3623  002650  5163               	movf	(??_efgtoa+3)& (0+255),w,b
  3624  002652  E10A               	bnz	u7300
  3625  002654  0E1A               	movlw	26
  3626  002656  5D62               	subwf	(??_efgtoa+2)& (0+255),w,b
  3627  002658  A0D8               	btfss	status,0,c
  3628  00265A  EF31  F013         	goto	u7301
  3629  00265E  EF34  F013         	goto	u7300
  3630  002662                     u7301:
  3631  002662  0E01               	movlw	1
  3632  002664  EF35  F013         	goto	u7310
  3633  002668                     u7300:
  3634  002668  0E00               	movlw	0
  3635  00266A                     u7310:
  3636  00266A  6F67               	movwf	_efgtoa$882& (0+255),b
  3637  00266C  6B68               	clrf	(_efgtoa$882+1)& (0+255),b
  3638  00266E                     
  3639                           ; BSR set to: 5
  3640  00266E  5167               	movf	_efgtoa$882& (0+255),w,b
  3641  002670  1168               	iorwf	(_efgtoa$882+1)& (0+255),w,b
  3642  002672  B4D8               	btfsc	status,2,c
  3643  002674  EF3E  F013         	goto	u7321
  3644  002678  EF40  F013         	goto	u7320
  3645  00267C                     u7321:
  3646  00267C  EF4E  F013         	goto	l5629
  3647  002680                     u7320:
  3648  002680                     
  3649                           ; BSR set to: 5
  3650                           ;C:\Program Files\Microchip\xc8\v2.32\pic\sources\c99\common\doprnt.c: 358:             
      +                          strcpy(&dbuf[n], "INF");
  3651  002680  0E0C               	movlw	low _dbuf
  3652  002682  2597               	addwf	efgtoa@n& (0+255),w,b
  3653  002684  6E04               	movwf	strcpy@dest^(0+1280),c
  3654  002686  0E06               	movlw	high _dbuf
  3655  002688  2198               	addwfc	(efgtoa@n+1)& (0+255),w,b
  3656  00268A  6E05               	movwf	(strcpy@dest+1)^(0+1280),c
  3657  00268C  0E44               	movlw	low STR_5
  3658  00268E  6E06               	movwf	strcpy@src^(0+1280),c
  3659  002690  0E25               	movlw	high STR_5
  3660  002692  6E07               	movwf	(strcpy@src+1)^(0+1280),c
  3661  002694  EC3A  F02E         	call	_strcpy	;wreg free
  3662                           
  3663                           ;C:\Program Files\Microchip\xc8\v2.32\pic\sources\c99\common\doprnt.c: 359:         } el
      +                          se {
  3664  002698  EF5A  F013         	goto	l5631
  3665  00269C                     l5629:
  3666                           
  3667                           ; BSR set to: 5
  3668                           ;C:\Program Files\Microchip\xc8\v2.32\pic\sources\c99\common\doprnt.c: 360:             
      +                          strcpy(&dbuf[n], "inf");
  3669  00269C  0E0C               	movlw	low _dbuf
  3670  00269E  2597               	addwf	efgtoa@n& (0+255),w,b
  3671  0026A0  6E04               	movwf	strcpy@dest^(0+1280),c
  3672  0026A2  0E06               	movlw	high _dbuf
  3673  0026A4  2198               	addwfc	(efgtoa@n+1)& (0+255),w,b
  3674  0026A6  6E05               	movwf	(strcpy@dest+1)^(0+1280),c
  3675  0026A8  0E4C               	movlw	low STR_6
  3676  0026AA  6E06               	movwf	strcpy@src^(0+1280),c
  3677  0026AC  0E25               	movlw	high STR_6
  3678  0026AE  6E07               	movwf	(strcpy@src+1)^(0+1280),c
  3679  0026B0  EC3A  F02E         	call	_strcpy	;wreg free
  3680  0026B4                     l5631:
  3681                           
  3682                           ;C:\Program Files\Microchip\xc8\v2.32\pic\sources\c99\common\doprnt.c: 362:         w -=
      +                           ((sizeof("inf")/sizeof("inf"[0]))-1);
  3683  0026B4  0105               	movlb	5	; () banked
  3684  0026B6  0EFD               	movlw	253
  3685  0026B8  2783               	addwf	efgtoa@w& (0+255),f,b
  3686  0026BA  0EFF               	movlw	255
  3687  0026BC  2384               	addwfc	(efgtoa@w+1)& (0+255),f,b
  3688  0026BE                     l5633:
  3689                           
  3690                           ;C:\Program Files\Microchip\xc8\v2.32\pic\sources\c99\common\doprnt.c: 363:         retu
      +                          rn pad(fp, &dbuf[0], w);
  3691  0026BE  C550  F514         	movff	efgtoa@fp,pad@fp
  3692  0026C2  C551  F515         	movff	efgtoa@fp+1,pad@fp+1
  3693  0026C6  0E0C               	movlw	low _dbuf
  3694  0026C8  6E16               	movwf	pad@buf^(0+1280),c
  3695  0026CA  0E06               	movlw	high _dbuf
  3696  0026CC  6E17               	movwf	(pad@buf+1)^(0+1280),c
  3697  0026CE  C583  F518         	movff	efgtoa@w,pad@p
  3698  0026D2  C584  F519         	movff	efgtoa@w+1,pad@p+1
  3699  0026D6  EC7B  F02C         	call	_pad	;wreg free
  3700  0026DA  C514  F550         	movff	?_pad,?_efgtoa
  3701  0026DE  C515  F551         	movff	?_pad+1,?_efgtoa+1
  3702  0026E2  EFDA  F018         	goto	l937
  3703  0026E6                     l5637:
  3704                           
  3705                           ;C:\Program Files\Microchip\xc8\v2.32\pic\sources\c99\common\doprnt.c: 366:         if (
      +                          (0 ? isupper((int)c) : ((unsigned)((int)c)-'A') < 26)) {
  3706  0026E6  C591  F504         	movff	efgtoa@g,___fpclassifyf@x
  3707  0026EA  C592  F505         	movff	efgtoa@g+1,___fpclassifyf@x+1
  3708  0026EE  C593  F506         	movff	efgtoa@g+2,___fpclassifyf@x+2
  3709  0026F2  C594  F507         	movff	efgtoa@g+3,___fpclassifyf@x+3
  3710  0026F6  ECD1  F029         	call	___fpclassifyf	;wreg free
  3711  0026FA  5004               	movf	?___fpclassifyf^(0+1280),w,c
  3712  0026FC  1005               	iorwf	(?___fpclassifyf+1)^(0+1280),w,c
  3713  0026FE  A4D8               	btfss	status,2,c
  3714  002700  EF84  F013         	goto	u7331
  3715  002704  EF86  F013         	goto	u7330
  3716  002708                     u7331:
  3717  002708  EFC6  F013         	goto	l5655
  3718  00270C                     u7330:
  3719  00270C  0EBF               	movlw	191
  3720  00270E  0105               	movlb	5	; () banked
  3721  002710  6F60               	movwf	??_efgtoa& (0+255),b
  3722  002712  0EFF               	movlw	255
  3723  002714  6F61               	movwf	(??_efgtoa+1)& (0+255),b
  3724  002716  5056               	movf	efgtoa@c^(0+1280),w,c
  3725  002718  6F62               	movwf	(??_efgtoa+2)& (0+255),b
  3726  00271A  6B63               	clrf	(??_efgtoa+3)& (0+255),b
  3727  00271C  5160               	movf	??_efgtoa& (0+255),w,b
  3728  00271E  2762               	addwf	(??_efgtoa+2)& (0+255),f,b
  3729  002720  5161               	movf	(??_efgtoa+1)& (0+255),w,b
  3730  002722  2363               	addwfc	(??_efgtoa+3)& (0+255),f,b
  3731  002724  5163               	movf	(??_efgtoa+3)& (0+255),w,b
  3732  002726  E10A               	bnz	u7340
  3733  002728  0E1A               	movlw	26
  3734  00272A  5D62               	subwf	(??_efgtoa+2)& (0+255),w,b
  3735  00272C  A0D8               	btfss	status,0,c
  3736  00272E  EF9B  F013         	goto	u7341
  3737  002732  EF9E  F013         	goto	u7340
  3738  002736                     u7341:
  3739  002736  0E01               	movlw	1
  3740  002738  EF9F  F013         	goto	u7350
  3741  00273C                     u7340:
  3742  00273C  0E00               	movlw	0
  3743  00273E                     u7350:
  3744  00273E  6F69               	movwf	_efgtoa$887& (0+255),b
  3745  002740  6B6A               	clrf	(_efgtoa$887+1)& (0+255),b
  3746  002742                     
  3747                           ; BSR set to: 5
  3748  002742  5169               	movf	_efgtoa$887& (0+255),w,b
  3749  002744  116A               	iorwf	(_efgtoa$887+1)& (0+255),w,b
  3750  002746  B4D8               	btfsc	status,2,c
  3751  002748  EFA8  F013         	goto	u7361
  3752  00274C  EFAA  F013         	goto	u7360
  3753  002750                     u7361:
  3754  002750  EFB8  F013         	goto	l5647
  3755  002754                     u7360:
  3756  002754                     
  3757                           ; BSR set to: 5
  3758                           ;C:\Program Files\Microchip\xc8\v2.32\pic\sources\c99\common\doprnt.c: 367:             
      +                          strcpy(&dbuf[n], "NAN");
  3759  002754  0E0C               	movlw	low _dbuf
  3760  002756  2597               	addwf	efgtoa@n& (0+255),w,b
  3761  002758  6E04               	movwf	strcpy@dest^(0+1280),c
  3762  00275A  0E06               	movlw	high _dbuf
  3763  00275C  2198               	addwfc	(efgtoa@n+1)& (0+255),w,b
  3764  00275E  6E05               	movwf	(strcpy@dest+1)^(0+1280),c
  3765  002760  0E48               	movlw	low STR_9
  3766  002762  6E06               	movwf	strcpy@src^(0+1280),c
  3767  002764  0E25               	movlw	high STR_9
  3768  002766  6E07               	movwf	(strcpy@src+1)^(0+1280),c
  3769  002768  EC3A  F02E         	call	_strcpy	;wreg free
  3770                           
  3771                           ;C:\Program Files\Microchip\xc8\v2.32\pic\sources\c99\common\doprnt.c: 368:         } el
      +                          se {
  3772  00276C  EF5A  F013         	goto	l5631
  3773  002770                     l5647:
  3774                           
  3775                           ; BSR set to: 5
  3776                           ;C:\Program Files\Microchip\xc8\v2.32\pic\sources\c99\common\doprnt.c: 369:             
      +                          strcpy(&dbuf[n], "nan");
  3777  002770  0E0C               	movlw	low _dbuf
  3778  002772  2597               	addwf	efgtoa@n& (0+255),w,b
  3779  002774  6E04               	movwf	strcpy@dest^(0+1280),c
  3780  002776  0E06               	movlw	high _dbuf
  3781  002778  2198               	addwfc	(efgtoa@n+1)& (0+255),w,b
  3782  00277A  6E05               	movwf	(strcpy@dest+1)^(0+1280),c
  3783  00277C  0E50               	movlw	low STR_10
  3784  00277E  6E06               	movwf	strcpy@src^(0+1280),c
  3785  002780  0E25               	movlw	high STR_10
  3786  002782  6E07               	movwf	(strcpy@src+1)^(0+1280),c
  3787  002784  EC3A  F02E         	call	_strcpy	;wreg free
  3788  002788  EF5A  F013         	goto	l5631
  3789  00278C                     l5655:
  3790                           
  3791                           ;C:\Program Files\Microchip\xc8\v2.32\pic\sources\c99\common\doprnt.c: 376:     u = 1.0;
  3792  00278C  0E00               	movlw	0
  3793  00278E  0105               	movlb	5	; () banked
  3794  002790  6F99               	movwf	efgtoa@u& (0+255),b
  3795  002792  0E00               	movlw	0
  3796  002794  6F9A               	movwf	(efgtoa@u+1)& (0+255),b
  3797  002796  0E80               	movlw	128
  3798  002798  6F9B               	movwf	(efgtoa@u+2)& (0+255),b
  3799  00279A  0E3F               	movlw	63
  3800  00279C  6F9C               	movwf	(efgtoa@u+3)& (0+255),b
  3801                           
  3802                           ;C:\Program Files\Microchip\xc8\v2.32\pic\sources\c99\common\doprnt.c: 377:     e = 0;
  3803  00279E  0E00               	movlw	0
  3804  0027A0  6F96               	movwf	(efgtoa@e+1)& (0+255),b
  3805  0027A2  0E00               	movlw	0
  3806  0027A4  6F95               	movwf	efgtoa@e& (0+255),b
  3807  0027A6                     
  3808                           ; BSR set to: 5
  3809                           ;C:\Program Files\Microchip\xc8\v2.32\pic\sources\c99\common\doprnt.c: 378:     if (!(g 
      +                          == 0.0)) {
  3810  0027A6  C591  F504         	movff	efgtoa@g,___fleq@ff1
  3811  0027AA  C592  F505         	movff	efgtoa@g+1,___fleq@ff1+1
  3812  0027AE  C593  F506         	movff	efgtoa@g+2,___fleq@ff1+2
  3813  0027B2  C594  F507         	movff	efgtoa@g+3,___fleq@ff1+3
  3814  0027B6  0E00               	movlw	0
  3815  0027B8  6E08               	movwf	___fleq@ff2^(0+1280),c
  3816  0027BA  0E00               	movlw	0
  3817  0027BC  6E09               	movwf	(___fleq@ff2+1)^(0+1280),c
  3818  0027BE  0E00               	movlw	0
  3819  0027C0  6E0A               	movwf	(___fleq@ff2+2)^(0+1280),c
  3820  0027C2  0E00               	movlw	0
  3821  0027C4  6E0B               	movwf	(___fleq@ff2+3)^(0+1280),c
  3822  0027C6  EC34  F02D         	call	___fleq	;wreg free
  3823  0027CA  B0D8               	btfsc	status,0,c
  3824  0027CC  EFEA  F013         	goto	u7371
  3825  0027D0  EFEC  F013         	goto	u7370
  3826  0027D4                     u7371:
  3827  0027D4  EF6F  F014         	goto	l5673
  3828  0027D8                     u7370:
  3829  0027D8  EF0B  F014         	goto	l5665
  3830  0027DC                     l5661:
  3831                           
  3832                           ;C:\Program Files\Microchip\xc8\v2.32\pic\sources\c99\common\doprnt.c: 380:             
      +                          u = u*10.0;
  3833  0027DC  C599  F52B         	movff	efgtoa@u,___flmul@b
  3834  0027E0  C59A  F52C         	movff	efgtoa@u+1,___flmul@b+1
  3835  0027E4  C59B  F52D         	movff	efgtoa@u+2,___flmul@b+2
  3836  0027E8  C59C  F52E         	movff	efgtoa@u+3,___flmul@b+3
  3837  0027EC  0E00               	movlw	0
  3838  0027EE  6E2F               	movwf	___flmul@a^(0+1280),c
  3839  0027F0  0E00               	movlw	0
  3840  0027F2  6E30               	movwf	(___flmul@a+1)^(0+1280),c
  3841  0027F4  0E20               	movlw	32
  3842  0027F6  6E31               	movwf	(___flmul@a+2)^(0+1280),c
  3843  0027F8  0E41               	movlw	65
  3844  0027FA  6E32               	movwf	(___flmul@a+3)^(0+1280),c
  3845  0027FC  EC48  F01F         	call	___flmul	;wreg free
  3846  002800  C52B  F599         	movff	?___flmul,efgtoa@u
  3847  002804  C52C  F59A         	movff	?___flmul+1,efgtoa@u+1
  3848  002808  C52D  F59B         	movff	?___flmul+2,efgtoa@u+2
  3849  00280C  C52E  F59C         	movff	?___flmul+3,efgtoa@u+3
  3850  002810                     
  3851                           ;C:\Program Files\Microchip\xc8\v2.32\pic\sources\c99\common\doprnt.c: 381:             
      +                          ++e;
  3852  002810  0105               	movlb	5	; () banked
  3853  002812  4B95               	infsnz	efgtoa@e& (0+255),f,b
  3854  002814  2B96               	incf	(efgtoa@e+1)& (0+255),f,b
  3855  002816                     l5665:
  3856                           
  3857                           ;C:\Program Files\Microchip\xc8\v2.32\pic\sources\c99\common\doprnt.c: 379:         whil
      +                          e (!(g < (u*10.0))) {
  3858  002816  C591  F544         	movff	efgtoa@g,___flge@ff1
  3859  00281A  C592  F545         	movff	efgtoa@g+1,___flge@ff1+1
  3860  00281E  C593  F546         	movff	efgtoa@g+2,___flge@ff1+2
  3861  002822  C594  F547         	movff	efgtoa@g+3,___flge@ff1+3
  3862  002826  0E00               	movlw	0
  3863  002828  6E2F               	movwf	___flmul@a^(0+1280),c
  3864  00282A  0E00               	movlw	0
  3865  00282C  6E30               	movwf	(___flmul@a+1)^(0+1280),c
  3866  00282E  0E20               	movlw	32
  3867  002830  6E31               	movwf	(___flmul@a+2)^(0+1280),c
  3868  002832  0E41               	movlw	65
  3869  002834  6E32               	movwf	(___flmul@a+3)^(0+1280),c
  3870  002836  C599  F52B         	movff	efgtoa@u,___flmul@b
  3871  00283A  C59A  F52C         	movff	efgtoa@u+1,___flmul@b+1
  3872  00283E  C59B  F52D         	movff	efgtoa@u+2,___flmul@b+2
  3873  002842  C59C  F52E         	movff	efgtoa@u+3,___flmul@b+3
  3874  002846  EC48  F01F         	call	___flmul	;wreg free
  3875  00284A  C52B  F548         	movff	?___flmul,___flge@ff2
  3876  00284E  C52C  F549         	movff	?___flmul+1,___flge@ff2+1
  3877  002852  C52D  F54A         	movff	?___flmul+2,___flge@ff2+2
  3878  002856  C52E  F54B         	movff	?___flmul+3,___flge@ff2+3
  3879  00285A  EC4F  F029         	call	___flge	;wreg free
  3880  00285E  B0D8               	btfsc	status,0,c
  3881  002860  EF34  F014         	goto	u7381
  3882  002864  EF36  F014         	goto	u7380
  3883  002868                     u7381:
  3884  002868  EFEE  F013         	goto	l5661
  3885  00286C                     u7380:
  3886  00286C  EF56  F014         	goto	l5671
  3887  002870                     l5667:
  3888                           
  3889                           ;C:\Program Files\Microchip\xc8\v2.32\pic\sources\c99\common\doprnt.c: 384:             
      +                          u = u/10.0;
  3890  002870  C599  F512         	movff	efgtoa@u,___fldiv@b
  3891  002874  C59A  F513         	movff	efgtoa@u+1,___fldiv@b+1
  3892  002878  C59B  F514         	movff	efgtoa@u+2,___fldiv@b+2
  3893  00287C  C59C  F515         	movff	efgtoa@u+3,___fldiv@b+3
  3894  002880  0E00               	movlw	0
  3895  002882  6E16               	movwf	___fldiv@a^(0+1280),c
  3896  002884  0E00               	movlw	0
  3897  002886  6E17               	movwf	(___fldiv@a+1)^(0+1280),c
  3898  002888  0E20               	movlw	32
  3899  00288A  6E18               	movwf	(___fldiv@a+2)^(0+1280),c
  3900  00288C  0E41               	movlw	65
  3901  00288E  6E19               	movwf	(___fldiv@a+3)^(0+1280),c
  3902  002890  EC6F  F021         	call	___fldiv	;wreg free
  3903  002894  C512  F599         	movff	?___fldiv,efgtoa@u
  3904  002898  C513  F59A         	movff	?___fldiv+1,efgtoa@u+1
  3905  00289C  C514  F59B         	movff	?___fldiv+2,efgtoa@u+2
  3906  0028A0  C515  F59C         	movff	?___fldiv+3,efgtoa@u+3
  3907  0028A4                     
  3908                           ;C:\Program Files\Microchip\xc8\v2.32\pic\sources\c99\common\doprnt.c: 385:             
      +                          --e;
  3909  0028A4  0105               	movlb	5	; () banked
  3910  0028A6  0795               	decf	efgtoa@e& (0+255),f,b
  3911  0028A8  A0D8               	btfss	status,0,c
  3912  0028AA  0796               	decf	(efgtoa@e+1)& (0+255),f,b
  3913  0028AC                     l5671:
  3914                           
  3915                           ;C:\Program Files\Microchip\xc8\v2.32\pic\sources\c99\common\doprnt.c: 383:         whil
      +                          e (g < u) {
  3916  0028AC  C591  F544         	movff	efgtoa@g,___flge@ff1
  3917  0028B0  C592  F545         	movff	efgtoa@g+1,___flge@ff1+1
  3918  0028B4  C593  F546         	movff	efgtoa@g+2,___flge@ff1+2
  3919  0028B8  C594  F547         	movff	efgtoa@g+3,___flge@ff1+3
  3920  0028BC  C599  F548         	movff	efgtoa@u,___flge@ff2
  3921  0028C0  C59A  F549         	movff	efgtoa@u+1,___flge@ff2+1
  3922  0028C4  C59B  F54A         	movff	efgtoa@u+2,___flge@ff2+2
  3923  0028C8  C59C  F54B         	movff	efgtoa@u+3,___flge@ff2+3
  3924  0028CC  EC4F  F029         	call	___flge	;wreg free
  3925  0028D0  A0D8               	btfss	status,0,c
  3926  0028D2  EF6D  F014         	goto	u7391
  3927  0028D6  EF6F  F014         	goto	u7390
  3928  0028DA                     u7391:
  3929  0028DA  EF38  F014         	goto	l5667
  3930  0028DE                     u7390:
  3931  0028DE                     l5673:
  3932                           
  3933                           ;C:\Program Files\Microchip\xc8\v2.32\pic\sources\c99\common\doprnt.c: 390:     mode = (
      +                          char)tolower((int)c);
  3934  0028DE  C556  F50A         	movff	efgtoa@c,tolower@c
  3935  0028E2  6A0B               	clrf	(tolower@c+1)^(0+1280),c
  3936  0028E4  EC6D  F02E         	call	_tolower	;wreg free
  3937  0028E8  500A               	movf	?_tolower^(0+1280),w,c
  3938  0028EA  0105               	movlb	5	; () banked
  3939  0028EC  6F86               	movwf	efgtoa@mode& (0+255),b
  3940  0028EE                     
  3941                           ; BSR set to: 5
  3942                           ;C:\Program Files\Microchip\xc8\v2.32\pic\sources\c99\common\doprnt.c: 391:     nmode = 
      +                          mode;
  3943  0028EE  C586  F585         	movff	efgtoa@mode,efgtoa@nmode
  3944  0028F2                     
  3945                           ; BSR set to: 5
  3946                           ;C:\Program Files\Microchip\xc8\v2.32\pic\sources\c99\common\doprnt.c: 392:     if (mode
      +                           == 'g') {
  3947  0028F2  0E67               	movlw	103
  3948  0028F4  1986               	xorwf	efgtoa@mode& (0+255),w,b
  3949  0028F6  A4D8               	btfss	status,2,c
  3950  0028F8  EF80  F014         	goto	u7401
  3951  0028FC  EF82  F014         	goto	u7400
  3952  002900                     u7401:
  3953  002900  EFA8  F014         	goto	l5687
  3954  002904                     u7400:
  3955  002904                     
  3956                           ; BSR set to: 5
  3957                           ;C:\Program Files\Microchip\xc8\v2.32\pic\sources\c99\common\doprnt.c: 393:   if (prec =
      +                          = 0) {
  3958  002904  5059               	movf	_prec^(0+1280),w,c
  3959  002906  105A               	iorwf	(_prec+1)^(0+1280),w,c
  3960  002908  A4D8               	btfss	status,2,c
  3961  00290A  EF89  F014         	goto	u7411
  3962  00290E  EF8B  F014         	goto	u7410
  3963  002912                     u7411:
  3964  002912  EF8F  F014         	goto	l5683
  3965  002916                     u7410:
  3966  002916                     
  3967                           ; BSR set to: 5
  3968                           ;C:\Program Files\Microchip\xc8\v2.32\pic\sources\c99\common\doprnt.c: 394:    prec = 1;
  3969  002916  0E00               	movlw	0
  3970  002918  6E5A               	movwf	(_prec+1)^(0+1280),c
  3971  00291A  0E01               	movlw	1
  3972  00291C  6E59               	movwf	_prec^(0+1280),c
  3973  00291E                     l5683:
  3974                           
  3975                           ; BSR set to: 5
  3976                           ;C:\Program Files\Microchip\xc8\v2.32\pic\sources\c99\common\doprnt.c: 396:         p = 
      +                          (0 < prec) ? prec : 6;
  3977  00291E  BE5A               	btfsc	(_prec+1)^(0+1280),7,c
  3978  002920  EF9C  F014         	goto	u7420
  3979  002924  505A               	movf	(_prec+1)^(0+1280),w,c
  3980  002926  E106               	bnz	u7421
  3981  002928  0459               	decf	_prec^(0+1280),w,c
  3982  00292A  B0D8               	btfsc	status,0,c
  3983  00292C  EF9A  F014         	goto	u7421
  3984  002930  EF9C  F014         	goto	u7420
  3985  002934                     u7421:
  3986  002934  EFA2  F014         	goto	l955
  3987  002938                     u7420:
  3988  002938                     l5685:
  3989                           
  3990                           ; BSR set to: 5
  3991  002938  0E00               	movlw	0
  3992  00293A  6F82               	movwf	(efgtoa@p+1)& (0+255),b
  3993  00293C  0E06               	movlw	6
  3994  00293E  6F81               	movwf	efgtoa@p& (0+255),b
  3995  002940  EFB1  F014         	goto	l5693
  3996  002944                     l955:
  3997                           
  3998                           ; BSR set to: 5
  3999  002944  C559  F581         	movff	_prec,efgtoa@p
  4000  002948  C55A  F582         	movff	_prec+1,efgtoa@p+1
  4001  00294C  EFB1  F014         	goto	l5693
  4002  002950                     l5687:
  4003                           
  4004                           ; BSR set to: 5
  4005                           ;C:\Program Files\Microchip\xc8\v2.32\pic\sources\c99\common\doprnt.c: 398:         p = 
      +                          (prec < 0) ? 6 : prec;
  4006  002950  BE5A               	btfsc	(_prec+1)^(0+1280),7,c
  4007  002952  EFAD  F014         	goto	u7431
  4008  002956  EFAF  F014         	goto	u7430
  4009  00295A                     u7431:
  4010  00295A  EF9C  F014         	goto	l5685
  4011  00295E                     u7430:
  4012  00295E  EFA2  F014         	goto	l955
  4013  002962                     l5693:
  4014                           
  4015                           ; BSR set to: 5
  4016                           ;C:\Program Files\Microchip\xc8\v2.32\pic\sources\c99\common\doprnt.c: 402:     if (mode
      +                           == 'g') {
  4017  002962  0E67               	movlw	103
  4018  002964  1986               	xorwf	efgtoa@mode& (0+255),w,b
  4019  002966  A4D8               	btfss	status,2,c
  4020  002968  EFB8  F014         	goto	u7441
  4021  00296C  EFBA  F014         	goto	u7440
  4022  002970                     u7441:
  4023  002970  EFE9  F014         	goto	l5703
  4024  002974                     u7440:
  4025  002974                     
  4026                           ; BSR set to: 5
  4027                           ;C:\Program Files\Microchip\xc8\v2.32\pic\sources\c99\common\doprnt.c: 403:         if (
      +                          !(e < -4) && !((p - 1) < e)) {
  4028  002974  AF96               	btfss	(efgtoa@e+1)& (0+255),7,b
  4029  002976  EFC8  F014         	goto	u7450
  4030  00297A  0EFC               	movlw	252
  4031  00297C  5D95               	subwf	efgtoa@e& (0+255),w,b
  4032  00297E  0EFF               	movlw	255
  4033  002980  5996               	subwfb	(efgtoa@e+1)& (0+255),w,b
  4034  002982  A0D8               	btfss	status,0,c
  4035  002984  EFC6  F014         	goto	u7451
  4036  002988  EFC8  F014         	goto	u7450
  4037  00298C                     u7451:
  4038  00298C  EFE7  F014         	goto	l5701
  4039  002990                     u7450:
  4040  002990                     
  4041                           ; BSR set to: 5
  4042  002990  0EFF               	movlw	255
  4043  002992  6F60               	movwf	??_efgtoa& (0+255),b
  4044  002994  0EFF               	movlw	255
  4045  002996  6F61               	movwf	(??_efgtoa+1)& (0+255),b
  4046  002998  C581  F562         	movff	efgtoa@p,??_efgtoa+2
  4047  00299C  C582  F563         	movff	efgtoa@p+1,??_efgtoa+3
  4048  0029A0  5160               	movf	??_efgtoa& (0+255),w,b
  4049  0029A2  2762               	addwf	(??_efgtoa+2)& (0+255),f,b
  4050  0029A4  5161               	movf	(??_efgtoa+1)& (0+255),w,b
  4051  0029A6  2363               	addwfc	(??_efgtoa+3)& (0+255),f,b
  4052  0029A8  5195               	movf	efgtoa@e& (0+255),w,b
  4053  0029AA  5D62               	subwf	(??_efgtoa+2)& (0+255),w,b
  4054  0029AC  5163               	movf	(??_efgtoa+3)& (0+255),w,b
  4055  0029AE  0A80               	xorlw	128
  4056  0029B0  6F64               	movwf	(??_efgtoa+4)& (0+255),b
  4057  0029B2  5196               	movf	(efgtoa@e+1)& (0+255),w,b
  4058  0029B4  0A80               	xorlw	128
  4059  0029B6  5964               	subwfb	(??_efgtoa+4)& (0+255),w,b
  4060  0029B8  A0D8               	btfss	status,0,c
  4061  0029BA  EFE1  F014         	goto	u7461
  4062  0029BE  EFE3  F014         	goto	u7460
  4063  0029C2                     u7461:
  4064  0029C2  EFE7  F014         	goto	l5701
  4065  0029C6                     u7460:
  4066  0029C6                     
  4067                           ; BSR set to: 5
  4068                           ;C:\Program Files\Microchip\xc8\v2.32\pic\sources\c99\common\doprnt.c: 404:             
      +                          nmode = 'f';
  4069  0029C6  0E66               	movlw	102
  4070  0029C8  6F85               	movwf	efgtoa@nmode& (0+255),b
  4071                           
  4072                           ;C:\Program Files\Microchip\xc8\v2.32\pic\sources\c99\common\doprnt.c: 405:         } el
      +                          se {
  4073  0029CA  EFE9  F014         	goto	l5703
  4074  0029CE                     l5701:
  4075                           
  4076                           ; BSR set to: 5
  4077                           ;C:\Program Files\Microchip\xc8\v2.32\pic\sources\c99\common\doprnt.c: 406:             
      +                          nmode = 'e';
  4078  0029CE  0E65               	movlw	101
  4079  0029D0  6F85               	movwf	efgtoa@nmode& (0+255),b
  4080  0029D2                     l5703:
  4081                           
  4082                           ; BSR set to: 5
  4083                           ;C:\Program Files\Microchip\xc8\v2.32\pic\sources\c99\common\doprnt.c: 411:     m = p;
  4084  0029D2  C581  F577         	movff	efgtoa@p,efgtoa@m
  4085  0029D6  C582  F578         	movff	efgtoa@p+1,efgtoa@m+1
  4086  0029DA                     
  4087                           ; BSR set to: 5
  4088                           ;C:\Program Files\Microchip\xc8\v2.32\pic\sources\c99\common\doprnt.c: 412:     if (!(mo
      +                          de == 'g') || ((nmode == 'f') && (e < 0))) {
  4089  0029DA  0E67               	movlw	103
  4090  0029DC  1986               	xorwf	efgtoa@mode& (0+255),w,b
  4091  0029DE  A4D8               	btfss	status,2,c
  4092  0029E0  EFF4  F014         	goto	u7471
  4093  0029E4  EFF6  F014         	goto	u7470
  4094  0029E8                     u7471:
  4095  0029E8  EF06  F015         	goto	l5711
  4096  0029EC                     u7470:
  4097  0029EC                     
  4098                           ; BSR set to: 5
  4099  0029EC  0E66               	movlw	102
  4100  0029EE  1985               	xorwf	efgtoa@nmode& (0+255),w,b
  4101  0029F0  A4D8               	btfss	status,2,c
  4102  0029F2  EFFD  F014         	goto	u7481
  4103  0029F6  EFFF  F014         	goto	u7480
  4104  0029FA                     u7481:
  4105  0029FA  EF08  F015         	goto	l5713
  4106  0029FE                     u7480:
  4107  0029FE                     
  4108                           ; BSR set to: 5
  4109  0029FE  BF96               	btfsc	(efgtoa@e+1)& (0+255),7,b
  4110  002A00  EF06  F015         	goto	u7490
  4111  002A04  EF04  F015         	goto	u7491
  4112  002A08                     u7491:
  4113  002A08  EF08  F015         	goto	l5713
  4114  002A0C                     u7490:
  4115  002A0C                     l5711:
  4116                           
  4117                           ; BSR set to: 5
  4118                           ;C:\Program Files\Microchip\xc8\v2.32\pic\sources\c99\common\doprnt.c: 413:         ++m;
  4119  002A0C  4B77               	infsnz	efgtoa@m& (0+255),f,b
  4120  002A0E  2B78               	incf	(efgtoa@m+1)& (0+255),f,b
  4121  002A10                     l5713:
  4122                           
  4123                           ; BSR set to: 5
  4124                           ;C:\Program Files\Microchip\xc8\v2.32\pic\sources\c99\common\doprnt.c: 417:     if (nmod
      +                          e == 'f') {
  4125  002A10  0E66               	movlw	102
  4126  002A12  1985               	xorwf	efgtoa@nmode& (0+255),w,b
  4127  002A14  A4D8               	btfss	status,2,c
  4128  002A16  EF0F  F015         	goto	u7501
  4129  002A1A  EF11  F015         	goto	u7500
  4130  002A1E                     u7501:
  4131  002A1E  EF31  F015         	goto	l5723
  4132  002A22                     u7500:
  4133  002A22                     
  4134                           ; BSR set to: 5
  4135                           ;C:\Program Files\Microchip\xc8\v2.32\pic\sources\c99\common\doprnt.c: 418:         if (
      +                          e < 0) {
  4136  002A22  BF96               	btfsc	(efgtoa@e+1)& (0+255),7,b
  4137  002A24  EF18  F015         	goto	u7510
  4138  002A28  EF16  F015         	goto	u7511
  4139  002A2C                     u7511:
  4140  002A2C  EF24  F015         	goto	l5719
  4141  002A30                     u7510:
  4142  002A30                     
  4143                           ; BSR set to: 5
  4144                           ;C:\Program Files\Microchip\xc8\v2.32\pic\sources\c99\common\doprnt.c: 419:             
      +                          u = 1.0;
  4145  002A30  0E00               	movlw	0
  4146  002A32  6F99               	movwf	efgtoa@u& (0+255),b
  4147  002A34  0E00               	movlw	0
  4148  002A36  6F9A               	movwf	(efgtoa@u+1)& (0+255),b
  4149  002A38  0E80               	movlw	128
  4150  002A3A  6F9B               	movwf	(efgtoa@u+2)& (0+255),b
  4151  002A3C  0E3F               	movlw	63
  4152  002A3E  6F9C               	movwf	(efgtoa@u+3)& (0+255),b
  4153                           
  4154                           ;C:\Program Files\Microchip\xc8\v2.32\pic\sources\c99\common\doprnt.c: 420:             
      +                          e = 0;
  4155  002A40  0E00               	movlw	0
  4156  002A42  6F96               	movwf	(efgtoa@e+1)& (0+255),b
  4157  002A44  0E00               	movlw	0
  4158  002A46  6F95               	movwf	efgtoa@e& (0+255),b
  4159  002A48                     l5719:
  4160                           
  4161                           ; BSR set to: 5
  4162                           ;C:\Program Files\Microchip\xc8\v2.32\pic\sources\c99\common\doprnt.c: 422:         if (
      +                          !(mode == 'g')) {
  4163  002A48  0E67               	movlw	103
  4164  002A4A  1986               	xorwf	efgtoa@mode& (0+255),w,b
  4165  002A4C  B4D8               	btfsc	status,2,c
  4166  002A4E  EF2B  F015         	goto	u7521
  4167  002A52  EF2D  F015         	goto	u7520
  4168  002A56                     u7521:
  4169  002A56  EF31  F015         	goto	l5723
  4170  002A5A                     u7520:
  4171  002A5A                     
  4172                           ; BSR set to: 5
  4173                           ;C:\Program Files\Microchip\xc8\v2.32\pic\sources\c99\common\doprnt.c: 423:             
      +                          m += e;
  4174  002A5A  5195               	movf	efgtoa@e& (0+255),w,b
  4175  002A5C  2777               	addwf	efgtoa@m& (0+255),f,b
  4176  002A5E  5196               	movf	(efgtoa@e+1)& (0+255),w,b
  4177  002A60  2378               	addwfc	(efgtoa@m+1)& (0+255),f,b
  4178  002A62                     l5723:
  4179                           
  4180                           ; BSR set to: 5
  4181                           ;C:\Program Files\Microchip\xc8\v2.32\pic\sources\c99\common\doprnt.c: 428:     i = 0;
  4182  002A62  0E00               	movlw	0
  4183  002A64  6F90               	movwf	(efgtoa@i+1)& (0+255),b
  4184  002A66  0E00               	movlw	0
  4185  002A68  6F8F               	movwf	efgtoa@i& (0+255),b
  4186  002A6A                     
  4187                           ; BSR set to: 5
  4188                           ;C:\Program Files\Microchip\xc8\v2.32\pic\sources\c99\common\doprnt.c: 429:     h = g;
  4189  002A6A  C591  F587         	movff	efgtoa@g,efgtoa@h
  4190  002A6E  C592  F588         	movff	efgtoa@g+1,efgtoa@h+1
  4191  002A72  C593  F589         	movff	efgtoa@g+2,efgtoa@h+2
  4192  002A76  C594  F58A         	movff	efgtoa@g+3,efgtoa@h+3
  4193  002A7A                     
  4194                           ; BSR set to: 5
  4195                           ;C:\Program Files\Microchip\xc8\v2.32\pic\sources\c99\common\doprnt.c: 430:     ou = u;
  4196  002A7A  C599  F579         	movff	efgtoa@u,efgtoa@ou
  4197  002A7E  C59A  F57A         	movff	efgtoa@u+1,efgtoa@ou+1
  4198  002A82  C59B  F57B         	movff	efgtoa@u+2,efgtoa@ou+2
  4199  002A86  C59C  F57C         	movff	efgtoa@u+3,efgtoa@ou+3
  4200                           
  4201                           ;C:\Program Files\Microchip\xc8\v2.32\pic\sources\c99\common\doprnt.c: 431:     while (i
      +                           < m) {
  4202  002A8A  EFC2  F015         	goto	l5737
  4203  002A8E                     l5729:
  4204                           
  4205                           ; BSR set to: 5
  4206                           ;C:\Program Files\Microchip\xc8\v2.32\pic\sources\c99\common\doprnt.c: 432:         l = 
      +                          floorf(h/u);
  4207  002A8E  C587  F512         	movff	efgtoa@h,___fldiv@b
  4208  002A92  C588  F513         	movff	efgtoa@h+1,___fldiv@b+1
  4209  002A96  C589  F514         	movff	efgtoa@h+2,___fldiv@b+2
  4210  002A9A  C58A  F515         	movff	efgtoa@h+3,___fldiv@b+3
  4211  002A9E  C599  F516         	movff	efgtoa@u,___fldiv@a
  4212  002AA2  C59A  F517         	movff	efgtoa@u+1,___fldiv@a+1
  4213  002AA6  C59B  F518         	movff	efgtoa@u+2,___fldiv@a+2
  4214  002AAA  C59C  F519         	movff	efgtoa@u+3,___fldiv@a+3
  4215  002AAE  EC6F  F021         	call	___fldiv	;wreg free
  4216  002AB2  C512  F52B         	movff	?___fldiv,floorf@x
  4217  002AB6  C513  F52C         	movff	?___fldiv+1,floorf@x+1
  4218  002ABA  C514  F52D         	movff	?___fldiv+2,floorf@x+2
  4219  002ABE  C515  F52E         	movff	?___fldiv+3,floorf@x+3
  4220  002AC2  EC77  F024         	call	_floorf	;wreg free
  4221  002AC6  C52B  F58B         	movff	?_floorf,efgtoa@l
  4222  002ACA  C52C  F58C         	movff	?_floorf+1,efgtoa@l+1
  4223  002ACE  C52D  F58D         	movff	?_floorf+2,efgtoa@l+2
  4224  002AD2  C52E  F58E         	movff	?_floorf+3,efgtoa@l+3
  4225                           
  4226                           ;C:\Program Files\Microchip\xc8\v2.32\pic\sources\c99\common\doprnt.c: 433:         d = 
      +                          (int)l;
  4227  002AD6  C58B  F544         	movff	efgtoa@l,___fltol@f1
  4228  002ADA  C58C  F545         	movff	efgtoa@l+1,___fltol@f1+1
  4229  002ADE  C58D  F546         	movff	efgtoa@l+2,___fltol@f1+2
  4230  002AE2  C58E  F547         	movff	efgtoa@l+3,___fltol@f1+3
  4231  002AE6  ECCC  F028         	call	___fltol	;wreg free
  4232  002AEA  C544  F57D         	movff	?___fltol,efgtoa@d
  4233  002AEE  C545  F57E         	movff	?___fltol+1,efgtoa@d+1
  4234  002AF2                     
  4235                           ;C:\Program Files\Microchip\xc8\v2.32\pic\sources\c99\common\doprnt.c: 434:         h -=
      +                           l*u;
  4236  002AF2  C587  F544         	movff	efgtoa@h,___flsub@b
  4237  002AF6  C588  F545         	movff	efgtoa@h+1,___flsub@b+1
  4238  002AFA  C589  F546         	movff	efgtoa@h+2,___flsub@b+2
  4239  002AFE  C58A  F547         	movff	efgtoa@h+3,___flsub@b+3
  4240  002B02  C599  F52F         	movff	efgtoa@u,___flmul@a
  4241  002B06  C59A  F530         	movff	efgtoa@u+1,___flmul@a+1
  4242  002B0A  C59B  F531         	movff	efgtoa@u+2,___flmul@a+2
  4243  002B0E  C59C  F532         	movff	efgtoa@u+3,___flmul@a+3
  4244  002B12  C58B  F52B         	movff	efgtoa@l,___flmul@b
  4245  002B16  C58C  F52C         	movff	efgtoa@l+1,___flmul@b+1
  4246  002B1A  C58D  F52D         	movff	efgtoa@l+2,___flmul@b+2
  4247  002B1E  C58E  F52E         	movff	efgtoa@l+3,___flmul@b+3
  4248  002B22  EC48  F01F         	call	___flmul	;wreg free
  4249  002B26  C52B  F548         	movff	?___flmul,___flsub@a
  4250  002B2A  C52C  F549         	movff	?___flmul+1,___flsub@a+1
  4251  002B2E  C52D  F54A         	movff	?___flmul+2,___flsub@a+2
  4252  002B32  C52E  F54B         	movff	?___flmul+3,___flsub@a+3
  4253  002B36  EC43  F02F         	call	___flsub	;wreg free
  4254  002B3A  C544  F587         	movff	?___flsub,efgtoa@h
  4255  002B3E  C545  F588         	movff	?___flsub+1,efgtoa@h+1
  4256  002B42  C546  F589         	movff	?___flsub+2,efgtoa@h+2
  4257  002B46  C547  F58A         	movff	?___flsub+3,efgtoa@h+3
  4258  002B4A                     
  4259                           ;C:\Program Files\Microchip\xc8\v2.32\pic\sources\c99\common\doprnt.c: 435:         u = 
      +                          u/10.0;
  4260  002B4A  C599  F512         	movff	efgtoa@u,___fldiv@b
  4261  002B4E  C59A  F513         	movff	efgtoa@u+1,___fldiv@b+1
  4262  002B52  C59B  F514         	movff	efgtoa@u+2,___fldiv@b+2
  4263  002B56  C59C  F515         	movff	efgtoa@u+3,___fldiv@b+3
  4264  002B5A  0E00               	movlw	0
  4265  002B5C  6E16               	movwf	___fldiv@a^(0+1280),c
  4266  002B5E  0E00               	movlw	0
  4267  002B60  6E17               	movwf	(___fldiv@a+1)^(0+1280),c
  4268  002B62  0E20               	movlw	32
  4269  002B64  6E18               	movwf	(___fldiv@a+2)^(0+1280),c
  4270  002B66  0E41               	movlw	65
  4271  002B68  6E19               	movwf	(___fldiv@a+3)^(0+1280),c
  4272  002B6A  EC6F  F021         	call	___fldiv	;wreg free
  4273  002B6E  C512  F599         	movff	?___fldiv,efgtoa@u
  4274  002B72  C513  F59A         	movff	?___fldiv+1,efgtoa@u+1
  4275  002B76  C514  F59B         	movff	?___fldiv+2,efgtoa@u+2
  4276  002B7A  C515  F59C         	movff	?___fldiv+3,efgtoa@u+3
  4277  002B7E                     
  4278                           ;C:\Program Files\Microchip\xc8\v2.32\pic\sources\c99\common\doprnt.c: 436:         ++i;
  4279  002B7E  0105               	movlb	5	; () banked
  4280  002B80  4B8F               	infsnz	efgtoa@i& (0+255),f,b
  4281  002B82  2B90               	incf	(efgtoa@i+1)& (0+255),f,b
  4282  002B84                     l5737:
  4283                           
  4284                           ; BSR set to: 5
  4285                           ;C:\Program Files\Microchip\xc8\v2.32\pic\sources\c99\common\doprnt.c: 431:     while (i
      +                           < m) {
  4286  002B84  5177               	movf	efgtoa@m& (0+255),w,b
  4287  002B86  5D8F               	subwf	efgtoa@i& (0+255),w,b
  4288  002B88  5190               	movf	(efgtoa@i+1)& (0+255),w,b
  4289  002B8A  0A80               	xorlw	128
  4290  002B8C  6F60               	movwf	??_efgtoa& (0+255),b
  4291  002B8E  5178               	movf	(efgtoa@m+1)& (0+255),w,b
  4292  002B90  0A80               	xorlw	128
  4293  002B92  5960               	subwfb	??_efgtoa& (0+255),w,b
  4294  002B94  A0D8               	btfss	status,0,c
  4295  002B96  EFCF  F015         	goto	u7531
  4296  002B9A  EFD1  F015         	goto	u7530
  4297  002B9E                     u7531:
  4298  002B9E  EF47  F015         	goto	l5729
  4299  002BA2                     u7530:
  4300  002BA2                     
  4301                           ; BSR set to: 5
  4302                           ;C:\Program Files\Microchip\xc8\v2.32\pic\sources\c99\common\doprnt.c: 440:     l = u*5.
      +                          0;
  4303  002BA2  C599  F52B         	movff	efgtoa@u,___flmul@b
  4304  002BA6  C59A  F52C         	movff	efgtoa@u+1,___flmul@b+1
  4305  002BAA  C59B  F52D         	movff	efgtoa@u+2,___flmul@b+2
  4306  002BAE  C59C  F52E         	movff	efgtoa@u+3,___flmul@b+3
  4307  002BB2  0E00               	movlw	0
  4308  002BB4  6E2F               	movwf	___flmul@a^(0+1280),c
  4309  002BB6  0E00               	movlw	0
  4310  002BB8  6E30               	movwf	(___flmul@a+1)^(0+1280),c
  4311  002BBA  0EA0               	movlw	160
  4312  002BBC  6E31               	movwf	(___flmul@a+2)^(0+1280),c
  4313  002BBE  0E40               	movlw	64
  4314  002BC0  6E32               	movwf	(___flmul@a+3)^(0+1280),c
  4315  002BC2  EC48  F01F         	call	___flmul	;wreg free
  4316  002BC6  C52B  F58B         	movff	?___flmul,efgtoa@l
  4317  002BCA  C52C  F58C         	movff	?___flmul+1,efgtoa@l+1
  4318  002BCE  C52D  F58D         	movff	?___flmul+2,efgtoa@l+2
  4319  002BD2  C52E  F58E         	movff	?___flmul+3,efgtoa@l+3
  4320  002BD6                     
  4321                           ;C:\Program Files\Microchip\xc8\v2.32\pic\sources\c99\common\doprnt.c: 441:     if (h < 
      +                          l) {
  4322  002BD6  C587  F544         	movff	efgtoa@h,___flge@ff1
  4323  002BDA  C588  F545         	movff	efgtoa@h+1,___flge@ff1+1
  4324  002BDE  C589  F546         	movff	efgtoa@h+2,___flge@ff1+2
  4325  002BE2  C58A  F547         	movff	efgtoa@h+3,___flge@ff1+3
  4326  002BE6  C58B  F548         	movff	efgtoa@l,___flge@ff2
  4327  002BEA  C58C  F549         	movff	efgtoa@l+1,___flge@ff2+1
  4328  002BEE  C58D  F54A         	movff	efgtoa@l+2,___flge@ff2+2
  4329  002BF2  C58E  F54B         	movff	efgtoa@l+3,___flge@ff2+3
  4330  002BF6  EC4F  F029         	call	___flge	;wreg free
  4331  002BFA  B0D8               	btfsc	status,0,c
  4332  002BFC  EF02  F016         	goto	u7541
  4333  002C00  EF04  F016         	goto	u7540
  4334  002C04                     u7541:
  4335  002C04  EF0F  F016         	goto	l5745
  4336  002C08                     u7540:
  4337  002C08                     
  4338                           ;C:\Program Files\Microchip\xc8\v2.32\pic\sources\c99\common\doprnt.c: 442:         l = 
      +                          0.0;
  4339  002C08  0E00               	movlw	0
  4340  002C0A  0105               	movlb	5	; () banked
  4341  002C0C  6F8B               	movwf	efgtoa@l& (0+255),b
  4342  002C0E  0E00               	movlw	0
  4343  002C10  6F8C               	movwf	(efgtoa@l+1)& (0+255),b
  4344  002C12  0E00               	movlw	0
  4345  002C14  6F8D               	movwf	(efgtoa@l+2)& (0+255),b
  4346  002C16  0E00               	movlw	0
  4347  002C18  6F8E               	movwf	(efgtoa@l+3)& (0+255),b
  4348                           
  4349                           ;C:\Program Files\Microchip\xc8\v2.32\pic\sources\c99\common\doprnt.c: 443:     } else {
  4350  002C1A  EF38  F016         	goto	l5751
  4351  002C1E                     l5745:
  4352                           
  4353                           ;C:\Program Files\Microchip\xc8\v2.32\pic\sources\c99\common\doprnt.c: 445:         if (
      +                          (h == l) && !(d % 2)) {
  4354  002C1E  C587  F504         	movff	efgtoa@h,___fleq@ff1
  4355  002C22  C588  F505         	movff	efgtoa@h+1,___fleq@ff1+1
  4356  002C26  C589  F506         	movff	efgtoa@h+2,___fleq@ff1+2
  4357  002C2A  C58A  F507         	movff	efgtoa@h+3,___fleq@ff1+3
  4358  002C2E  C58B  F508         	movff	efgtoa@l,___fleq@ff2
  4359  002C32  C58C  F509         	movff	efgtoa@l+1,___fleq@ff2+1
  4360  002C36  C58D  F50A         	movff	efgtoa@l+2,___fleq@ff2+2
  4361  002C3A  C58E  F50B         	movff	efgtoa@l+3,___fleq@ff2+3
  4362  002C3E  EC34  F02D         	call	___fleq	;wreg free
  4363  002C42  A0D8               	btfss	status,0,c
  4364  002C44  EF26  F016         	goto	u7551
  4365  002C48  EF28  F016         	goto	u7550
  4366  002C4C                     u7551:
  4367  002C4C  EF38  F016         	goto	l5751
  4368  002C50                     u7550:
  4369  002C50  0105               	movlb	5	; () banked
  4370  002C52  B17D               	btfsc	efgtoa@d& (0+255),0,b
  4371  002C54  EF2E  F016         	goto	u7561
  4372  002C58  EF30  F016         	goto	u7560
  4373  002C5C                     u7561:
  4374  002C5C  EF38  F016         	goto	l5751
  4375  002C60                     u7560:
  4376  002C60                     
  4377                           ; BSR set to: 5
  4378                           ;C:\Program Files\Microchip\xc8\v2.32\pic\sources\c99\common\doprnt.c: 446:             
      +                          l = 0.0;
  4379  002C60  0E00               	movlw	0
  4380  002C62  6F8B               	movwf	efgtoa@l& (0+255),b
  4381  002C64  0E00               	movlw	0
  4382  002C66  6F8C               	movwf	(efgtoa@l+1)& (0+255),b
  4383  002C68  0E00               	movlw	0
  4384  002C6A  6F8D               	movwf	(efgtoa@l+2)& (0+255),b
  4385  002C6C  0E00               	movlw	0
  4386  002C6E  6F8E               	movwf	(efgtoa@l+3)& (0+255),b
  4387  002C70                     l5751:
  4388                           
  4389                           ;C:\Program Files\Microchip\xc8\v2.32\pic\sources\c99\common\doprnt.c: 451:     h = g + 
      +                          l;
  4390  002C70  C591  F504         	movff	efgtoa@g,___fladd@b
  4391  002C74  C592  F505         	movff	efgtoa@g+1,___fladd@b+1
  4392  002C78  C593  F506         	movff	efgtoa@g+2,___fladd@b+2
  4393  002C7C  C594  F507         	movff	efgtoa@g+3,___fladd@b+3
  4394  002C80  C58B  F508         	movff	efgtoa@l,___fladd@a
  4395  002C84  C58C  F509         	movff	efgtoa@l+1,___fladd@a+1
  4396  002C88  C58D  F50A         	movff	efgtoa@l+2,___fladd@a+2
  4397  002C8C  C58E  F50B         	movff	efgtoa@l+3,___fladd@a+3
  4398  002C90  ECE8  F01C         	call	___fladd	;wreg free
  4399  002C94  C504  F587         	movff	?___fladd,efgtoa@h
  4400  002C98  C505  F588         	movff	?___fladd+1,efgtoa@h+1
  4401  002C9C  C506  F589         	movff	?___fladd+2,efgtoa@h+2
  4402  002CA0  C507  F58A         	movff	?___fladd+3,efgtoa@h+3
  4403  002CA4                     
  4404                           ;C:\Program Files\Microchip\xc8\v2.32\pic\sources\c99\common\doprnt.c: 453:  if (h >= (o
      +                          u*10.0)) {
  4405  002CA4  C587  F544         	movff	efgtoa@h,___flge@ff1
  4406  002CA8  C588  F545         	movff	efgtoa@h+1,___flge@ff1+1
  4407  002CAC  C589  F546         	movff	efgtoa@h+2,___flge@ff1+2
  4408  002CB0  C58A  F547         	movff	efgtoa@h+3,___flge@ff1+3
  4409  002CB4  0E00               	movlw	0
  4410  002CB6  6E2F               	movwf	___flmul@a^(0+1280),c
  4411  002CB8  0E00               	movlw	0
  4412  002CBA  6E30               	movwf	(___flmul@a+1)^(0+1280),c
  4413  002CBC  0E20               	movlw	32
  4414  002CBE  6E31               	movwf	(___flmul@a+2)^(0+1280),c
  4415  002CC0  0E41               	movlw	65
  4416  002CC2  6E32               	movwf	(___flmul@a+3)^(0+1280),c
  4417  002CC4  C579  F52B         	movff	efgtoa@ou,___flmul@b
  4418  002CC8  C57A  F52C         	movff	efgtoa@ou+1,___flmul@b+1
  4419  002CCC  C57B  F52D         	movff	efgtoa@ou+2,___flmul@b+2
  4420  002CD0  C57C  F52E         	movff	efgtoa@ou+3,___flmul@b+3
  4421  002CD4  EC48  F01F         	call	___flmul	;wreg free
  4422  002CD8  C52B  F548         	movff	?___flmul,___flge@ff2
  4423  002CDC  C52C  F549         	movff	?___flmul+1,___flge@ff2+1
  4424  002CE0  C52D  F54A         	movff	?___flmul+2,___flge@ff2+2
  4425  002CE4  C52E  F54B         	movff	?___flmul+3,___flge@ff2+3
  4426  002CE8  EC4F  F029         	call	___flge	;wreg free
  4427  002CEC  A0D8               	btfss	status,0,c
  4428  002CEE  EF7B  F016         	goto	u7571
  4429  002CF2  EF7D  F016         	goto	u7570
  4430  002CF6                     u7571:
  4431  002CF6  EFA6  F016         	goto	l5763
  4432  002CFA                     u7570:
  4433  002CFA                     
  4434                           ;C:\Program Files\Microchip\xc8\v2.32\pic\sources\c99\common\doprnt.c: 454:   e++;
  4435  002CFA  0105               	movlb	5	; () banked
  4436  002CFC  4B95               	infsnz	efgtoa@e& (0+255),f,b
  4437  002CFE  2B96               	incf	(efgtoa@e+1)& (0+255),f,b
  4438  002D00                     
  4439                           ; BSR set to: 5
  4440                           ;C:\Program Files\Microchip\xc8\v2.32\pic\sources\c99\common\doprnt.c: 455:   ou *= 10.0
      +                          ;
  4441  002D00  C579  F52B         	movff	efgtoa@ou,___flmul@b
  4442  002D04  C57A  F52C         	movff	efgtoa@ou+1,___flmul@b+1
  4443  002D08  C57B  F52D         	movff	efgtoa@ou+2,___flmul@b+2
  4444  002D0C  C57C  F52E         	movff	efgtoa@ou+3,___flmul@b+3
  4445  002D10  0E00               	movlw	0
  4446  002D12  6E2F               	movwf	___flmul@a^(0+1280),c
  4447  002D14  0E00               	movlw	0
  4448  002D16  6E30               	movwf	(___flmul@a+1)^(0+1280),c
  4449  002D18  0E20               	movlw	32
  4450  002D1A  6E31               	movwf	(___flmul@a+2)^(0+1280),c
  4451  002D1C  0E41               	movlw	65
  4452  002D1E  6E32               	movwf	(___flmul@a+3)^(0+1280),c
  4453  002D20  EC48  F01F         	call	___flmul	;wreg free
  4454  002D24  C52B  F579         	movff	?___flmul,efgtoa@ou
  4455  002D28  C52C  F57A         	movff	?___flmul+1,efgtoa@ou+1
  4456  002D2C  C52D  F57B         	movff	?___flmul+2,efgtoa@ou+2
  4457  002D30  C52E  F57C         	movff	?___flmul+3,efgtoa@ou+3
  4458  002D34                     
  4459                           ;C:\Program Files\Microchip\xc8\v2.32\pic\sources\c99\common\doprnt.c: 456:   if (nmode 
      +                          == 'f') {
  4460  002D34  0E66               	movlw	102
  4461  002D36  0105               	movlb	5	; () banked
  4462  002D38  1985               	xorwf	efgtoa@nmode& (0+255),w,b
  4463  002D3A  A4D8               	btfss	status,2,c
  4464  002D3C  EFA2  F016         	goto	u7581
  4465  002D40  EFA4  F016         	goto	u7580
  4466  002D44                     u7581:
  4467  002D44  EFA6  F016         	goto	l5763
  4468  002D48                     u7580:
  4469  002D48                     
  4470                           ; BSR set to: 5
  4471                           ;C:\Program Files\Microchip\xc8\v2.32\pic\sources\c99\common\doprnt.c: 458:    m++;
  4472  002D48  4B77               	infsnz	efgtoa@m& (0+255),f,b
  4473  002D4A  2B78               	incf	(efgtoa@m+1)& (0+255),f,b
  4474  002D4C                     l5763:
  4475                           
  4476                           ;C:\Program Files\Microchip\xc8\v2.32\pic\sources\c99\common\doprnt.c: 463:     u = ou;
  4477  002D4C  C579  F599         	movff	efgtoa@ou,efgtoa@u
  4478  002D50  C57A  F59A         	movff	efgtoa@ou+1,efgtoa@u+1
  4479  002D54  C57B  F59B         	movff	efgtoa@ou+2,efgtoa@u+2
  4480  002D58  C57C  F59C         	movff	efgtoa@ou+3,efgtoa@u+3
  4481  002D5C                     
  4482                           ;C:\Program Files\Microchip\xc8\v2.32\pic\sources\c99\common\doprnt.c: 464:     ne = (nm
      +                          ode == 'e') ? 0 : e;
  4483  002D5C  0E65               	movlw	101
  4484  002D5E  0105               	movlb	5	; () banked
  4485  002D60  1985               	xorwf	efgtoa@nmode& (0+255),w,b
  4486  002D62  B4D8               	btfsc	status,2,c
  4487  002D64  EFB6  F016         	goto	u7591
  4488  002D68  EFB8  F016         	goto	u7590
  4489  002D6C                     u7591:
  4490  002D6C  EFBE  F016         	goto	l5769
  4491  002D70                     u7590:
  4492  002D70                     
  4493                           ; BSR set to: 5
  4494  002D70  C595  F575         	movff	efgtoa@e,efgtoa@ne
  4495  002D74  C596  F576         	movff	efgtoa@e+1,efgtoa@ne+1
  4496  002D78  EFC2  F016         	goto	l983
  4497  002D7C                     l5769:
  4498                           
  4499                           ; BSR set to: 5
  4500  002D7C  0E00               	movlw	0
  4501  002D7E  6F76               	movwf	(efgtoa@ne+1)& (0+255),b
  4502  002D80  0E00               	movlw	0
  4503  002D82  6F75               	movwf	efgtoa@ne& (0+255),b
  4504  002D84                     l983:
  4505                           
  4506                           ; BSR set to: 5
  4507                           ;C:\Program Files\Microchip\xc8\v2.32\pic\sources\c99\common\doprnt.c: 465:     pp = 0;
  4508  002D84  0E00               	movlw	0
  4509  002D86  6F74               	movwf	(efgtoa@pp+1)& (0+255),b
  4510  002D88  0E00               	movlw	0
  4511  002D8A  6F73               	movwf	efgtoa@pp& (0+255),b
  4512                           
  4513                           ;C:\Program Files\Microchip\xc8\v2.32\pic\sources\c99\common\doprnt.c: 466:     t = 0;
  4514  002D8C  0E00               	movlw	0
  4515  002D8E  6F72               	movwf	(efgtoa@t+1)& (0+255),b
  4516  002D90  0E00               	movlw	0
  4517  002D92  6F71               	movwf	efgtoa@t& (0+255),b
  4518                           
  4519                           ;C:\Program Files\Microchip\xc8\v2.32\pic\sources\c99\common\doprnt.c: 467:     i = 0;
  4520  002D94  0E00               	movlw	0
  4521  002D96  6F90               	movwf	(efgtoa@i+1)& (0+255),b
  4522  002D98  0E00               	movlw	0
  4523  002D9A  6F8F               	movwf	efgtoa@i& (0+255),b
  4524                           
  4525                           ;C:\Program Files\Microchip\xc8\v2.32\pic\sources\c99\common\doprnt.c: 468:     while ((
      +                          i < m) && (n < (80 - 5))) {
  4526  002D9C  EFBE  F017         	goto	l5819
  4527  002DA0                     l5771:
  4528                           
  4529                           ; BSR set to: 5
  4530                           ;C:\Program Files\Microchip\xc8\v2.32\pic\sources\c99\common\doprnt.c: 469:         l = 
      +                          floorf(h/u);
  4531  002DA0  C587  F512         	movff	efgtoa@h,___fldiv@b
  4532  002DA4  C588  F513         	movff	efgtoa@h+1,___fldiv@b+1
  4533  002DA8  C589  F514         	movff	efgtoa@h+2,___fldiv@b+2
  4534  002DAC  C58A  F515         	movff	efgtoa@h+3,___fldiv@b+3
  4535  002DB0  C599  F516         	movff	efgtoa@u,___fldiv@a
  4536  002DB4  C59A  F517         	movff	efgtoa@u+1,___fldiv@a+1
  4537  002DB8  C59B  F518         	movff	efgtoa@u+2,___fldiv@a+2
  4538  002DBC  C59C  F519         	movff	efgtoa@u+3,___fldiv@a+3
  4539  002DC0  EC6F  F021         	call	___fldiv	;wreg free
  4540  002DC4  C512  F52B         	movff	?___fldiv,floorf@x
  4541  002DC8  C513  F52C         	movff	?___fldiv+1,floorf@x+1
  4542  002DCC  C514  F52D         	movff	?___fldiv+2,floorf@x+2
  4543  002DD0  C515  F52E         	movff	?___fldiv+3,floorf@x+3
  4544  002DD4  EC77  F024         	call	_floorf	;wreg free
  4545  002DD8  C52B  F58B         	movff	?_floorf,efgtoa@l
  4546  002DDC  C52C  F58C         	movff	?_floorf+1,efgtoa@l+1
  4547  002DE0  C52D  F58D         	movff	?_floorf+2,efgtoa@l+2
  4548  002DE4  C52E  F58E         	movff	?_floorf+3,efgtoa@l+3
  4549                           
  4550                           ;C:\Program Files\Microchip\xc8\v2.32\pic\sources\c99\common\doprnt.c: 470:         d = 
      +                          (int)l;
  4551  002DE8  C58B  F544         	movff	efgtoa@l,___fltol@f1
  4552  002DEC  C58C  F545         	movff	efgtoa@l+1,___fltol@f1+1
  4553  002DF0  C58D  F546         	movff	efgtoa@l+2,___fltol@f1+2
  4554  002DF4  C58E  F547         	movff	efgtoa@l+3,___fltol@f1+3
  4555  002DF8  ECCC  F028         	call	___fltol	;wreg free
  4556  002DFC  C544  F57D         	movff	?___fltol,efgtoa@d
  4557  002E00  C545  F57E         	movff	?___fltol+1,efgtoa@d+1
  4558  002E04                     
  4559                           ;C:\Program Files\Microchip\xc8\v2.32\pic\sources\c99\common\doprnt.c: 471:         if (
      +                          !(flags & (1 << 4)) && !d && (mode == 'g') && (ne < 0)) {
  4560  002E04  B85B               	btfsc	_flags^(0+1280),4,c
  4561  002E06  EF07  F017         	goto	u7601
  4562  002E0A  EF09  F017         	goto	u7600
  4563  002E0E                     u7601:
  4564  002E0E  EF27  F017         	goto	l5783
  4565  002E12                     u7600:
  4566  002E12  0105               	movlb	5	; () banked
  4567  002E14  517D               	movf	efgtoa@d& (0+255),w,b
  4568  002E16  117E               	iorwf	(efgtoa@d+1)& (0+255),w,b
  4569  002E18  A4D8               	btfss	status,2,c
  4570  002E1A  EF11  F017         	goto	u7611
  4571  002E1E  EF13  F017         	goto	u7610
  4572  002E22                     u7611:
  4573  002E22  EF27  F017         	goto	l5783
  4574  002E26                     u7610:
  4575  002E26                     
  4576                           ; BSR set to: 5
  4577  002E26  0E67               	movlw	103
  4578  002E28  1986               	xorwf	efgtoa@mode& (0+255),w,b
  4579  002E2A  A4D8               	btfss	status,2,c
  4580  002E2C  EF1A  F017         	goto	u7621
  4581  002E30  EF1C  F017         	goto	u7620
  4582  002E34                     u7621:
  4583  002E34  EF27  F017         	goto	l5783
  4584  002E38                     u7620:
  4585  002E38                     
  4586                           ; BSR set to: 5
  4587  002E38  BF76               	btfsc	(efgtoa@ne+1)& (0+255),7,b
  4588  002E3A  EF23  F017         	goto	u7630
  4589  002E3E  EF21  F017         	goto	u7631
  4590  002E42                     u7631:
  4591  002E42  EF27  F017         	goto	l5783
  4592  002E46                     u7630:
  4593  002E46                     
  4594                           ; BSR set to: 5
  4595                           ;C:\Program Files\Microchip\xc8\v2.32\pic\sources\c99\common\doprnt.c: 472:             
      +                          ++t;
  4596  002E46  4B71               	infsnz	efgtoa@t& (0+255),f,b
  4597  002E48  2B72               	incf	(efgtoa@t+1)& (0+255),f,b
  4598                           
  4599                           ;C:\Program Files\Microchip\xc8\v2.32\pic\sources\c99\common\doprnt.c: 473:         } el
      +                          se {
  4600  002E4A  EF72  F017         	goto	l5811
  4601  002E4E                     l5783:
  4602                           
  4603                           ;C:\Program Files\Microchip\xc8\v2.32\pic\sources\c99\common\doprnt.c: 474:             
      +                          if (!pp && (ne < 0)) {
  4604  002E4E  0105               	movlb	5	; () banked
  4605  002E50  5173               	movf	efgtoa@pp& (0+255),w,b
  4606  002E52  1174               	iorwf	(efgtoa@pp+1)& (0+255),w,b
  4607  002E54  A4D8               	btfss	status,2,c
  4608  002E56  EF2F  F017         	goto	u7641
  4609  002E5A  EF31  F017         	goto	u7640
  4610  002E5E                     u7641:
  4611  002E5E  EF5B  F017         	goto	l5803
  4612  002E62                     u7640:
  4613  002E62                     
  4614                           ; BSR set to: 5
  4615  002E62  BF76               	btfsc	(efgtoa@ne+1)& (0+255),7,b
  4616  002E64  EF38  F017         	goto	u7650
  4617  002E68  EF36  F017         	goto	u7651
  4618  002E6C                     u7651:
  4619  002E6C  EF5B  F017         	goto	l5803
  4620  002E70                     u7650:
  4621  002E70                     
  4622                           ; BSR set to: 5
  4623                           ;C:\Program Files\Microchip\xc8\v2.32\pic\sources\c99\common\doprnt.c: 475:             
      +                              dbuf[n++] = '.';
  4624  002E70  0E0C               	movlw	low _dbuf
  4625  002E72  2597               	addwf	efgtoa@n& (0+255),w,b
  4626  002E74  6ED9               	movwf	fsr2l,c
  4627  002E76  0E06               	movlw	high _dbuf
  4628  002E78  2198               	addwfc	(efgtoa@n+1)& (0+255),w,b
  4629  002E7A  6EDA               	movwf	fsr2h,c
  4630  002E7C  0E2E               	movlw	46
  4631  002E7E  6EDF               	movwf	indf2,c
  4632  002E80                     
  4633                           ; BSR set to: 5
  4634  002E80  4B97               	infsnz	efgtoa@n& (0+255),f,b
  4635  002E82  2B98               	incf	(efgtoa@n+1)& (0+255),f,b
  4636  002E84                     
  4637                           ; BSR set to: 5
  4638                           ;C:\Program Files\Microchip\xc8\v2.32\pic\sources\c99\common\doprnt.c: 476:             
      +                              --w;
  4639  002E84  0783               	decf	efgtoa@w& (0+255),f,b
  4640  002E86  A0D8               	btfss	status,0,c
  4641  002E88  0784               	decf	(efgtoa@w+1)& (0+255),f,b
  4642  002E8A                     
  4643                           ; BSR set to: 5
  4644                           ;C:\Program Files\Microchip\xc8\v2.32\pic\sources\c99\common\doprnt.c: 477:             
      +                              pp = 1;
  4645  002E8A  0E00               	movlw	0
  4646  002E8C  6F74               	movwf	(efgtoa@pp+1)& (0+255),b
  4647  002E8E  0E01               	movlw	1
  4648  002E90  6F73               	movwf	efgtoa@pp& (0+255),b
  4649  002E92  EF5B  F017         	goto	l5803
  4650  002E96                     l5795:
  4651                           
  4652                           ; BSR set to: 5
  4653                           ;C:\Program Files\Microchip\xc8\v2.32\pic\sources\c99\common\doprnt.c: 480:             
      +                              dbuf[n++] = '0';
  4654  002E96  0E0C               	movlw	low _dbuf
  4655  002E98  2597               	addwf	efgtoa@n& (0+255),w,b
  4656  002E9A  6ED9               	movwf	fsr2l,c
  4657  002E9C  0E06               	movlw	high _dbuf
  4658  002E9E  2198               	addwfc	(efgtoa@n+1)& (0+255),w,b
  4659  002EA0  6EDA               	movwf	fsr2h,c
  4660  002EA2  0E30               	movlw	48
  4661  002EA4  6EDF               	movwf	indf2,c
  4662  002EA6                     
  4663                           ; BSR set to: 5
  4664  002EA6  4B97               	infsnz	efgtoa@n& (0+255),f,b
  4665  002EA8  2B98               	incf	(efgtoa@n+1)& (0+255),f,b
  4666  002EAA                     
  4667                           ; BSR set to: 5
  4668                           ;C:\Program Files\Microchip\xc8\v2.32\pic\sources\c99\common\doprnt.c: 481:             
      +                              --w;
  4669  002EAA  0783               	decf	efgtoa@w& (0+255),f,b
  4670  002EAC  A0D8               	btfss	status,0,c
  4671  002EAE  0784               	decf	(efgtoa@w+1)& (0+255),f,b
  4672  002EB0                     
  4673                           ; BSR set to: 5
  4674                           ;C:\Program Files\Microchip\xc8\v2.32\pic\sources\c99\common\doprnt.c: 482:             
      +                              --t;
  4675  002EB0  0771               	decf	efgtoa@t& (0+255),f,b
  4676  002EB2  A0D8               	btfss	status,0,c
  4677  002EB4  0772               	decf	(efgtoa@t+1)& (0+255),f,b
  4678  002EB6                     l5803:
  4679                           
  4680                           ; BSR set to: 5
  4681                           ;C:\Program Files\Microchip\xc8\v2.32\pic\sources\c99\common\doprnt.c: 479:             
      +                          while (t) {
  4682  002EB6  5171               	movf	efgtoa@t& (0+255),w,b
  4683  002EB8  1172               	iorwf	(efgtoa@t+1)& (0+255),w,b
  4684  002EBA  A4D8               	btfss	status,2,c
  4685  002EBC  EF62  F017         	goto	u7661
  4686  002EC0  EF64  F017         	goto	u7660
  4687  002EC4                     u7661:
  4688  002EC4  EF4B  F017         	goto	l5795
  4689  002EC8                     u7660:
  4690  002EC8                     
  4691                           ; BSR set to: 5
  4692                           ;C:\Program Files\Microchip\xc8\v2.32\pic\sources\c99\common\doprnt.c: 484:             
      +                          dbuf[n++] = (char)((int)'0' + d);
  4693  002EC8  0E0C               	movlw	low _dbuf
  4694  002ECA  2597               	addwf	efgtoa@n& (0+255),w,b
  4695  002ECC  6ED9               	movwf	fsr2l,c
  4696  002ECE  0E06               	movlw	high _dbuf
  4697  002ED0  2198               	addwfc	(efgtoa@n+1)& (0+255),w,b
  4698  002ED2  6EDA               	movwf	fsr2h,c
  4699  002ED4  517D               	movf	efgtoa@d& (0+255),w,b
  4700  002ED6  0F30               	addlw	48
  4701  002ED8  6EDF               	movwf	indf2,c
  4702  002EDA                     
  4703                           ; BSR set to: 5
  4704  002EDA  4B97               	infsnz	efgtoa@n& (0+255),f,b
  4705  002EDC  2B98               	incf	(efgtoa@n+1)& (0+255),f,b
  4706  002EDE                     
  4707                           ; BSR set to: 5
  4708                           ;C:\Program Files\Microchip\xc8\v2.32\pic\sources\c99\common\doprnt.c: 485:             
      +                          --w;
  4709  002EDE  0783               	decf	efgtoa@w& (0+255),f,b
  4710  002EE0  A0D8               	btfss	status,0,c
  4711  002EE2  0784               	decf	(efgtoa@w+1)& (0+255),f,b
  4712  002EE4                     l5811:
  4713                           
  4714                           ; BSR set to: 5
  4715                           ;C:\Program Files\Microchip\xc8\v2.32\pic\sources\c99\common\doprnt.c: 487:         h -=
      +                           l*u;
  4716  002EE4  C587  F544         	movff	efgtoa@h,___flsub@b
  4717  002EE8  C588  F545         	movff	efgtoa@h+1,___flsub@b+1
  4718  002EEC  C589  F546         	movff	efgtoa@h+2,___flsub@b+2
  4719  002EF0  C58A  F547         	movff	efgtoa@h+3,___flsub@b+3
  4720  002EF4  C599  F52F         	movff	efgtoa@u,___flmul@a
  4721  002EF8  C59A  F530         	movff	efgtoa@u+1,___flmul@a+1
  4722  002EFC  C59B  F531         	movff	efgtoa@u+2,___flmul@a+2
  4723  002F00  C59C  F532         	movff	efgtoa@u+3,___flmul@a+3
  4724  002F04  C58B  F52B         	movff	efgtoa@l,___flmul@b
  4725  002F08  C58C  F52C         	movff	efgtoa@l+1,___flmul@b+1
  4726  002F0C  C58D  F52D         	movff	efgtoa@l+2,___flmul@b+2
  4727  002F10  C58E  F52E         	movff	efgtoa@l+3,___flmul@b+3
  4728  002F14  EC48  F01F         	call	___flmul	;wreg free
  4729  002F18  C52B  F548         	movff	?___flmul,___flsub@a
  4730  002F1C  C52C  F549         	movff	?___flmul+1,___flsub@a+1
  4731  002F20  C52D  F54A         	movff	?___flmul+2,___flsub@a+2
  4732  002F24  C52E  F54B         	movff	?___flmul+3,___flsub@a+3
  4733  002F28  EC43  F02F         	call	___flsub	;wreg free
  4734  002F2C  C544  F587         	movff	?___flsub,efgtoa@h
  4735  002F30  C545  F588         	movff	?___flsub+1,efgtoa@h+1
  4736  002F34  C546  F589         	movff	?___flsub+2,efgtoa@h+2
  4737  002F38  C547  F58A         	movff	?___flsub+3,efgtoa@h+3
  4738  002F3C                     
  4739                           ;C:\Program Files\Microchip\xc8\v2.32\pic\sources\c99\common\doprnt.c: 488:         u = 
      +                          u/10.0;
  4740  002F3C  C599  F512         	movff	efgtoa@u,___fldiv@b
  4741  002F40  C59A  F513         	movff	efgtoa@u+1,___fldiv@b+1
  4742  002F44  C59B  F514         	movff	efgtoa@u+2,___fldiv@b+2
  4743  002F48  C59C  F515         	movff	efgtoa@u+3,___fldiv@b+3
  4744  002F4C  0E00               	movlw	0
  4745  002F4E  6E16               	movwf	___fldiv@a^(0+1280),c
  4746  002F50  0E00               	movlw	0
  4747  002F52  6E17               	movwf	(___fldiv@a+1)^(0+1280),c
  4748  002F54  0E20               	movlw	32
  4749  002F56  6E18               	movwf	(___fldiv@a+2)^(0+1280),c
  4750  002F58  0E41               	movlw	65
  4751  002F5A  6E19               	movwf	(___fldiv@a+3)^(0+1280),c
  4752  002F5C  EC6F  F021         	call	___fldiv	;wreg free
  4753  002F60  C512  F599         	movff	?___fldiv,efgtoa@u
  4754  002F64  C513  F59A         	movff	?___fldiv+1,efgtoa@u+1
  4755  002F68  C514  F59B         	movff	?___fldiv+2,efgtoa@u+2
  4756  002F6C  C515  F59C         	movff	?___fldiv+3,efgtoa@u+3
  4757  002F70                     
  4758                           ;C:\Program Files\Microchip\xc8\v2.32\pic\sources\c99\common\doprnt.c: 489:         --ne
      +                          ;
  4759  002F70  0105               	movlb	5	; () banked
  4760  002F72  0775               	decf	efgtoa@ne& (0+255),f,b
  4761  002F74  A0D8               	btfss	status,0,c
  4762  002F76  0776               	decf	(efgtoa@ne+1)& (0+255),f,b
  4763  002F78                     
  4764                           ; BSR set to: 5
  4765                           ;C:\Program Files\Microchip\xc8\v2.32\pic\sources\c99\common\doprnt.c: 490:         ++i;
  4766  002F78  4B8F               	infsnz	efgtoa@i& (0+255),f,b
  4767  002F7A  2B90               	incf	(efgtoa@i+1)& (0+255),f,b
  4768  002F7C                     l5819:
  4769                           
  4770                           ; BSR set to: 5
  4771                           ;C:\Program Files\Microchip\xc8\v2.32\pic\sources\c99\common\doprnt.c: 468:     while ((
      +                          i < m) && (n < (80 - 5))) {
  4772  002F7C  5177               	movf	efgtoa@m& (0+255),w,b
  4773  002F7E  5D8F               	subwf	efgtoa@i& (0+255),w,b
  4774  002F80  5190               	movf	(efgtoa@i+1)& (0+255),w,b
  4775  002F82  0A80               	xorlw	128
  4776  002F84  6F60               	movwf	??_efgtoa& (0+255),b
  4777  002F86  5178               	movf	(efgtoa@m+1)& (0+255),w,b
  4778  002F88  0A80               	xorlw	128
  4779  002F8A  5960               	subwfb	??_efgtoa& (0+255),w,b
  4780  002F8C  B0D8               	btfsc	status,0,c
  4781  002F8E  EFCB  F017         	goto	u7671
  4782  002F92  EFCD  F017         	goto	u7670
  4783  002F96                     u7671:
  4784  002F96  EFDB  F017         	goto	l5823
  4785  002F9A                     u7670:
  4786  002F9A                     
  4787                           ; BSR set to: 5
  4788  002F9A  BF98               	btfsc	(efgtoa@n+1)& (0+255),7,b
  4789  002F9C  EFD9  F017         	goto	u7681
  4790  002FA0  5198               	movf	(efgtoa@n+1)& (0+255),w,b
  4791  002FA2  E109               	bnz	u7680
  4792  002FA4  0E4B               	movlw	75
  4793  002FA6  5D97               	subwf	efgtoa@n& (0+255),w,b
  4794  002FA8  A0D8               	btfss	status,0,c
  4795  002FAA  EFD9  F017         	goto	u7681
  4796  002FAE  EFDB  F017         	goto	u7680
  4797  002FB2                     u7681:
  4798  002FB2  EFD0  F016         	goto	l5771
  4799  002FB6                     u7680:
  4800  002FB6                     l5823:
  4801                           
  4802                           ; BSR set to: 5
  4803                           ;C:\Program Files\Microchip\xc8\v2.32\pic\sources\c99\common\doprnt.c: 492:     if (!pp 
      +                          && (flags & (1 << 4))) {
  4804  002FB6  5173               	movf	efgtoa@pp& (0+255),w,b
  4805  002FB8  1174               	iorwf	(efgtoa@pp+1)& (0+255),w,b
  4806  002FBA  A4D8               	btfss	status,2,c
  4807  002FBC  EFE2  F017         	goto	u7691
  4808  002FC0  EFE4  F017         	goto	u7690
  4809  002FC4                     u7691:
  4810  002FC4  EFF5  F017         	goto	l5831
  4811  002FC8                     u7690:
  4812  002FC8                     
  4813                           ; BSR set to: 5
  4814  002FC8  A85B               	btfss	_flags^(0+1280),4,c
  4815  002FCA  EFE9  F017         	goto	u7701
  4816  002FCE  EFEB  F017         	goto	u7700
  4817  002FD2                     u7701:
  4818  002FD2  EFF5  F017         	goto	l5831
  4819  002FD6                     u7700:
  4820  002FD6                     
  4821                           ; BSR set to: 5
  4822                           ;C:\Program Files\Microchip\xc8\v2.32\pic\sources\c99\common\doprnt.c: 493:         dbuf
      +                          [n++] = '.';
  4823  002FD6  0E0C               	movlw	low _dbuf
  4824  002FD8  2597               	addwf	efgtoa@n& (0+255),w,b
  4825  002FDA  6ED9               	movwf	fsr2l,c
  4826  002FDC  0E06               	movlw	high _dbuf
  4827  002FDE  2198               	addwfc	(efgtoa@n+1)& (0+255),w,b
  4828  002FE0  6EDA               	movwf	fsr2h,c
  4829  002FE2  0E2E               	movlw	46
  4830  002FE4  6EDF               	movwf	indf2,c
  4831  002FE6                     
  4832                           ; BSR set to: 5
  4833  002FE6  4B97               	infsnz	efgtoa@n& (0+255),f,b
  4834  002FE8  2B98               	incf	(efgtoa@n+1)& (0+255),f,b
  4835  002FEA                     l5831:
  4836                           
  4837                           ; BSR set to: 5
  4838                           ;C:\Program Files\Microchip\xc8\v2.32\pic\sources\c99\common\doprnt.c: 495:     dbuf[n] 
      +                          = '\0';
  4839  002FEA  0E0C               	movlw	low _dbuf
  4840  002FEC  2597               	addwf	efgtoa@n& (0+255),w,b
  4841  002FEE  6ED9               	movwf	fsr2l,c
  4842  002FF0  0E06               	movlw	high _dbuf
  4843  002FF2  2198               	addwfc	(efgtoa@n+1)& (0+255),w,b
  4844  002FF4  6EDA               	movwf	fsr2h,c
  4845  002FF6  0E00               	movlw	0
  4846  002FF8  6EDF               	movwf	indf2,c
  4847  002FFA                     
  4848                           ; BSR set to: 5
  4849                           ;C:\Program Files\Microchip\xc8\v2.32\pic\sources\c99\common\doprnt.c: 498:     if (nmod
      +                          e == 'e') {
  4850  002FFA  0E65               	movlw	101
  4851  002FFC  1985               	xorwf	efgtoa@nmode& (0+255),w,b
  4852  002FFE  A4D8               	btfss	status,2,c
  4853  003000  EF04  F018         	goto	u7711
  4854  003004  EF06  F018         	goto	u7710
  4855  003008                     u7711:
  4856  003008  EF5F  F013         	goto	l5633
  4857  00300C                     u7710:
  4858  00300C                     
  4859                           ; BSR set to: 5
  4860                           ;C:\Program Files\Microchip\xc8\v2.32\pic\sources\c99\common\doprnt.c: 499:         i = 
      +                          sizeof(dbuf) - 1;
  4861  00300C  0E00               	movlw	0
  4862  00300E  6F90               	movwf	(efgtoa@i+1)& (0+255),b
  4863  003010  0E4F               	movlw	79
  4864  003012  6F8F               	movwf	efgtoa@i& (0+255),b
  4865  003014                     
  4866                           ; BSR set to: 5
  4867                           ;C:\Program Files\Microchip\xc8\v2.32\pic\sources\c99\common\doprnt.c: 500:         dbuf
      +                          [i] = '\0';
  4868  003014  0E0C               	movlw	low _dbuf
  4869  003016  258F               	addwf	efgtoa@i& (0+255),w,b
  4870  003018  6ED9               	movwf	fsr2l,c
  4871  00301A  0E06               	movlw	high _dbuf
  4872  00301C  2190               	addwfc	(efgtoa@i+1)& (0+255),w,b
  4873  00301E  6EDA               	movwf	fsr2h,c
  4874  003020  0E00               	movlw	0
  4875  003022  6EDF               	movwf	indf2,c
  4876  003024                     
  4877                           ; BSR set to: 5
  4878                           ;C:\Program Files\Microchip\xc8\v2.32\pic\sources\c99\common\doprnt.c: 501:         sign
      +                           = 0;
  4879  003024  0E00               	movlw	0
  4880  003026  6F80               	movwf	(efgtoa@sign+1)& (0+255),b
  4881  003028  0E00               	movlw	0
  4882  00302A  6F7F               	movwf	efgtoa@sign& (0+255),b
  4883  00302C                     
  4884                           ; BSR set to: 5
  4885                           ;C:\Program Files\Microchip\xc8\v2.32\pic\sources\c99\common\doprnt.c: 502:         if (
      +                          e < 0) {
  4886  00302C  BF96               	btfsc	(efgtoa@e+1)& (0+255),7,b
  4887  00302E  EF1D  F018         	goto	u7720
  4888  003032  EF1B  F018         	goto	u7721
  4889  003036                     u7721:
  4890  003036  EF25  F018         	goto	l5847
  4891  00303A                     u7720:
  4892  00303A                     
  4893                           ; BSR set to: 5
  4894                           ;C:\Program Files\Microchip\xc8\v2.32\pic\sources\c99\common\doprnt.c: 503:             
      +                          sign = 1;
  4895  00303A  0E00               	movlw	0
  4896  00303C  6F80               	movwf	(efgtoa@sign+1)& (0+255),b
  4897  00303E  0E01               	movlw	1
  4898  003040  6F7F               	movwf	efgtoa@sign& (0+255),b
  4899  003042                     
  4900                           ; BSR set to: 5
  4901                           ;C:\Program Files\Microchip\xc8\v2.32\pic\sources\c99\common\doprnt.c: 504:             
      +                          e = -e;
  4902  003042  6D95               	negf	efgtoa@e& (0+255),b
  4903  003044  1F96               	comf	(efgtoa@e+1)& (0+255),f,b
  4904  003046  B0D8               	btfsc	status,0,c
  4905  003048  2B96               	incf	(efgtoa@e+1)& (0+255),f,b
  4906  00304A                     l5847:
  4907                           
  4908                           ; BSR set to: 5
  4909                           ;C:\Program Files\Microchip\xc8\v2.32\pic\sources\c99\common\doprnt.c: 506:         p = 
      +                          2;
  4910  00304A  0E00               	movlw	0
  4911  00304C  6F82               	movwf	(efgtoa@p+1)& (0+255),b
  4912  00304E  0E02               	movlw	2
  4913  003050  6F81               	movwf	efgtoa@p& (0+255),b
  4914                           
  4915                           ;C:\Program Files\Microchip\xc8\v2.32\pic\sources\c99\common\doprnt.c: 507:         whil
      +                          e (e || (0 < p)) {
  4916  003052  EF56  F018         	goto	l5859
  4917  003056                     l5849:
  4918                           
  4919                           ; BSR set to: 5
  4920                           ;C:\Program Files\Microchip\xc8\v2.32\pic\sources\c99\common\doprnt.c: 508:             
      +                          --i;
  4921  003056  078F               	decf	efgtoa@i& (0+255),f,b
  4922  003058  A0D8               	btfss	status,0,c
  4923  00305A  0790               	decf	(efgtoa@i+1)& (0+255),f,b
  4924  00305C                     
  4925                           ; BSR set to: 5
  4926                           ;C:\Program Files\Microchip\xc8\v2.32\pic\sources\c99\common\doprnt.c: 509:             
      +                          dbuf[i] = '0' + (e % 10);
  4927  00305C  0E0C               	movlw	low _dbuf
  4928  00305E  258F               	addwf	efgtoa@i& (0+255),w,b
  4929  003060  6ED9               	movwf	fsr2l,c
  4930  003062  0E06               	movlw	high _dbuf
  4931  003064  2190               	addwfc	(efgtoa@i+1)& (0+255),w,b
  4932  003066  6EDA               	movwf	fsr2h,c
  4933  003068  C595  F504         	movff	efgtoa@e,___awmod@dividend
  4934  00306C  C596  F505         	movff	efgtoa@e+1,___awmod@dividend+1
  4935  003070  0E00               	movlw	0
  4936  003072  6E07               	movwf	(___awmod@divisor+1)^(0+1280),c
  4937  003074  0E0A               	movlw	10
  4938  003076  6E06               	movwf	___awmod@divisor^(0+1280),c
  4939  003078  ECDC  F02C         	call	___awmod	;wreg free
  4940  00307C  5004               	movf	?___awmod^(0+1280),w,c
  4941  00307E  0F30               	addlw	48
  4942  003080  6EDF               	movwf	indf2,c
  4943  003082                     
  4944                           ;C:\Program Files\Microchip\xc8\v2.32\pic\sources\c99\common\doprnt.c: 510:             
      +                          e = e / 10;
  4945  003082  C595  F504         	movff	efgtoa@e,___awdiv@dividend
  4946  003086  C596  F505         	movff	efgtoa@e+1,___awdiv@dividend+1
  4947  00308A  0E00               	movlw	0
  4948  00308C  6E07               	movwf	(___awdiv@divisor+1)^(0+1280),c
  4949  00308E  0E0A               	movlw	10
  4950  003090  6E06               	movwf	___awdiv@divisor^(0+1280),c
  4951  003092  EC19  F02C         	call	___awdiv	;wreg free
  4952  003096  C504  F595         	movff	?___awdiv,efgtoa@e
  4953  00309A  C505  F596         	movff	?___awdiv+1,efgtoa@e+1
  4954  00309E                     
  4955                           ;C:\Program Files\Microchip\xc8\v2.32\pic\sources\c99\common\doprnt.c: 511:             
      +                          --p;
  4956  00309E  0105               	movlb	5	; () banked
  4957  0030A0  0781               	decf	efgtoa@p& (0+255),f,b
  4958  0030A2  A0D8               	btfss	status,0,c
  4959  0030A4  0782               	decf	(efgtoa@p+1)& (0+255),f,b
  4960  0030A6                     
  4961                           ; BSR set to: 5
  4962                           ;C:\Program Files\Microchip\xc8\v2.32\pic\sources\c99\common\doprnt.c: 512:             
      +                          --w;
  4963  0030A6  0783               	decf	efgtoa@w& (0+255),f,b
  4964  0030A8  A0D8               	btfss	status,0,c
  4965  0030AA  0784               	decf	(efgtoa@w+1)& (0+255),f,b
  4966  0030AC                     l5859:
  4967                           
  4968                           ; BSR set to: 5
  4969                           ;C:\Program Files\Microchip\xc8\v2.32\pic\sources\c99\common\doprnt.c: 507:         whil
      +                          e (e || (0 < p)) {
  4970  0030AC  5195               	movf	efgtoa@e& (0+255),w,b
  4971  0030AE  1196               	iorwf	(efgtoa@e+1)& (0+255),w,b
  4972  0030B0  A4D8               	btfss	status,2,c
  4973  0030B2  EF5D  F018         	goto	u7731
  4974  0030B6  EF5F  F018         	goto	u7730
  4975  0030BA                     u7731:
  4976  0030BA  EF2B  F018         	goto	l5849
  4977  0030BE                     u7730:
  4978  0030BE                     
  4979                           ; BSR set to: 5
  4980  0030BE  BF82               	btfsc	(efgtoa@p+1)& (0+255),7,b
  4981  0030C0  EF6C  F018         	goto	u7740
  4982  0030C4  5182               	movf	(efgtoa@p+1)& (0+255),w,b
  4983  0030C6  E106               	bnz	u7741
  4984  0030C8  0581               	decf	efgtoa@p& (0+255),w,b
  4985  0030CA  B0D8               	btfsc	status,0,c
  4986  0030CC  EF6A  F018         	goto	u7741
  4987  0030D0  EF6C  F018         	goto	u7740
  4988  0030D4                     u7741:
  4989  0030D4  EF2B  F018         	goto	l5849
  4990  0030D8                     u7740:
  4991  0030D8                     
  4992                           ; BSR set to: 5
  4993                           ;C:\Program Files\Microchip\xc8\v2.32\pic\sources\c99\common\doprnt.c: 514:         --i;
  4994  0030D8  078F               	decf	efgtoa@i& (0+255),f,b
  4995  0030DA  A0D8               	btfss	status,0,c
  4996  0030DC  0790               	decf	(efgtoa@i+1)& (0+255),f,b
  4997  0030DE                     
  4998                           ; BSR set to: 5
  4999                           ;C:\Program Files\Microchip\xc8\v2.32\pic\sources\c99\common\doprnt.c: 515:         dbuf
      +                          [i] = sign ? '-' : '+';
  5000  0030DE  517F               	movf	efgtoa@sign& (0+255),w,b
  5001  0030E0  1180               	iorwf	(efgtoa@sign+1)& (0+255),w,b
  5002  0030E2  A4D8               	btfss	status,2,c
  5003  0030E4  EF76  F018         	goto	u7751
  5004  0030E8  EF78  F018         	goto	u7750
  5005  0030EC                     u7751:
  5006  0030EC  EF7E  F018         	goto	l5869
  5007  0030F0                     u7750:
  5008  0030F0                     
  5009                           ; BSR set to: 5
  5010  0030F0  0E00               	movlw	0
  5011  0030F2  6F6C               	movwf	(_efgtoa$891+1)& (0+255),b
  5012  0030F4  0E2B               	movlw	43
  5013  0030F6  6F6B               	movwf	_efgtoa$891& (0+255),b
  5014  0030F8  EF82  F018         	goto	l5871
  5015  0030FC                     l5869:
  5016                           
  5017                           ; BSR set to: 5
  5018  0030FC  0E00               	movlw	0
  5019  0030FE  6F6C               	movwf	(_efgtoa$891+1)& (0+255),b
  5020  003100  0E2D               	movlw	45
  5021  003102  6F6B               	movwf	_efgtoa$891& (0+255),b
  5022  003104                     l5871:
  5023                           
  5024                           ; BSR set to: 5
  5025  003104  0E0C               	movlw	low _dbuf
  5026  003106  258F               	addwf	efgtoa@i& (0+255),w,b
  5027  003108  6ED9               	movwf	fsr2l,c
  5028  00310A  0E06               	movlw	high _dbuf
  5029  00310C  2190               	addwfc	(efgtoa@i+1)& (0+255),w,b
  5030  00310E  6EDA               	movwf	fsr2h,c
  5031  003110  0061  F5AC  F4DF   	movff	_efgtoa$891,indf2
  5032  003116                     
  5033                           ; BSR set to: 5
  5034                           ;C:\Program Files\Microchip\xc8\v2.32\pic\sources\c99\common\doprnt.c: 516:         --w;
  5035  003116  0783               	decf	efgtoa@w& (0+255),f,b
  5036  003118  A0D8               	btfss	status,0,c
  5037  00311A  0784               	decf	(efgtoa@w+1)& (0+255),f,b
  5038  00311C                     
  5039                           ; BSR set to: 5
  5040                           ;C:\Program Files\Microchip\xc8\v2.32\pic\sources\c99\common\doprnt.c: 518:         dbuf
      +                          [i] = (0 ? isupper((int)c) : ((unsigned)((int)c)-'A') < 26) ? 'E' : 'e';
  5041  00311C  078F               	decf	efgtoa@i& (0+255),f,b
  5042  00311E  A0D8               	btfss	status,0,c
  5043  003120  0790               	decf	(efgtoa@i+1)& (0+255),f,b
  5044  003122                     
  5045                           ; BSR set to: 5
  5046  003122  0EBF               	movlw	191
  5047  003124  6F60               	movwf	??_efgtoa& (0+255),b
  5048  003126  0EFF               	movlw	255
  5049  003128  6F61               	movwf	(??_efgtoa+1)& (0+255),b
  5050  00312A  5056               	movf	efgtoa@c^(0+1280),w,c
  5051  00312C  6F62               	movwf	(??_efgtoa+2)& (0+255),b
  5052  00312E  6B63               	clrf	(??_efgtoa+3)& (0+255),b
  5053  003130  5160               	movf	??_efgtoa& (0+255),w,b
  5054  003132  2762               	addwf	(??_efgtoa+2)& (0+255),f,b
  5055  003134  5161               	movf	(??_efgtoa+1)& (0+255),w,b
  5056  003136  2363               	addwfc	(??_efgtoa+3)& (0+255),f,b
  5057  003138  5163               	movf	(??_efgtoa+3)& (0+255),w,b
  5058  00313A  E10A               	bnz	u7760
  5059  00313C  0E1A               	movlw	26
  5060  00313E  5D62               	subwf	(??_efgtoa+2)& (0+255),w,b
  5061  003140  A0D8               	btfss	status,0,c
  5062  003142  EFA5  F018         	goto	u7761
  5063  003146  EFA8  F018         	goto	u7760
  5064  00314A                     u7761:
  5065  00314A  0E01               	movlw	1
  5066  00314C  EFA9  F018         	goto	u7770
  5067  003150                     u7760:
  5068  003150  0E00               	movlw	0
  5069  003152                     u7770:
  5070  003152  6F6F               	movwf	_efgtoa$893& (0+255),b
  5071  003154  6B70               	clrf	(_efgtoa$893+1)& (0+255),b
  5072  003156                     
  5073                           ; BSR set to: 5
  5074  003156  516F               	movf	_efgtoa$893& (0+255),w,b
  5075  003158  1170               	iorwf	(_efgtoa$893+1)& (0+255),w,b
  5076  00315A  A4D8               	btfss	status,2,c
  5077  00315C  EFB2  F018         	goto	u7781
  5078  003160  EFB4  F018         	goto	u7780
  5079  003164                     u7781:
  5080  003164  EFBA  F018         	goto	l5885
  5081  003168                     u7780:
  5082  003168                     
  5083                           ; BSR set to: 5
  5084  003168  0E00               	movlw	0
  5085  00316A  6F6E               	movwf	(_efgtoa$892+1)& (0+255),b
  5086  00316C  0E65               	movlw	101
  5087  00316E  6F6D               	movwf	_efgtoa$892& (0+255),b
  5088  003170  EFBE  F018         	goto	l5887
  5089  003174                     l5885:
  5090                           
  5091                           ; BSR set to: 5
  5092  003174  0E00               	movlw	0
  5093  003176  6F6E               	movwf	(_efgtoa$892+1)& (0+255),b
  5094  003178  0E45               	movlw	69
  5095  00317A  6F6D               	movwf	_efgtoa$892& (0+255),b
  5096  00317C                     l5887:
  5097                           
  5098                           ; BSR set to: 5
  5099  00317C  0E0C               	movlw	low _dbuf
  5100  00317E  258F               	addwf	efgtoa@i& (0+255),w,b
  5101  003180  6ED9               	movwf	fsr2l,c
  5102  003182  0E06               	movlw	high _dbuf
  5103  003184  2190               	addwfc	(efgtoa@i+1)& (0+255),w,b
  5104  003186  6EDA               	movwf	fsr2h,c
  5105  003188  0061  F5B4  F4DF   	movff	_efgtoa$892,indf2
  5106  00318E                     
  5107                           ; BSR set to: 5
  5108                           ;C:\Program Files\Microchip\xc8\v2.32\pic\sources\c99\common\doprnt.c: 519:         --w;
  5109  00318E  0783               	decf	efgtoa@w& (0+255),f,b
  5110  003190  A0D8               	btfss	status,0,c
  5111  003192  0784               	decf	(efgtoa@w+1)& (0+255),f,b
  5112  003194                     
  5113                           ; BSR set to: 5
  5114                           ;C:\Program Files\Microchip\xc8\v2.32\pic\sources\c99\common\doprnt.c: 520:         strc
      +                          py(&dbuf[n], &dbuf[i]);
  5115  003194  0E0C               	movlw	low _dbuf
  5116  003196  2597               	addwf	efgtoa@n& (0+255),w,b
  5117  003198  6E04               	movwf	strcpy@dest^(0+1280),c
  5118  00319A  0E06               	movlw	high _dbuf
  5119  00319C  2198               	addwfc	(efgtoa@n+1)& (0+255),w,b
  5120  00319E  6E05               	movwf	(strcpy@dest+1)^(0+1280),c
  5121  0031A0  0E0C               	movlw	low _dbuf
  5122  0031A2  258F               	addwf	efgtoa@i& (0+255),w,b
  5123  0031A4  6E06               	movwf	strcpy@src^(0+1280),c
  5124  0031A6  0E06               	movlw	high _dbuf
  5125  0031A8  2190               	addwfc	(efgtoa@i+1)& (0+255),w,b
  5126  0031AA  6E07               	movwf	(strcpy@src+1)^(0+1280),c
  5127  0031AC  EC3A  F02E         	call	_strcpy	;wreg free
  5128  0031B0  EF5F  F013         	goto	l5633
  5129  0031B4                     l937:
  5130  0031B4  0012               	return		;funcret
  5131  0031B6                     __end_of_efgtoa:
  5132                           	callstack 0
  5133                           
  5134 ;; *************** function _tolower *****************
  5135 ;; Defined at:
  5136 ;;		line 4 in file "C:\Program Files\Microchip\xc8\v2.32\pic\sources\c99\common\tolower.c"
  5137 ;; Parameters:    Size  Location     Type
  5138 ;;  c               2    9[COMRAM] int 
  5139 ;; Auto vars:     Size  Location     Type
  5140 ;;		None
  5141 ;; Return value:  Size  Location     Type
  5142 ;;                  2    9[COMRAM] int 
  5143 ;; Registers used:
  5144 ;;		wreg, status,2, status,0
  5145 ;; Tracked objects:
  5146 ;;		On entry : 0/0
  5147 ;;		On exit  : 0/0
  5148 ;;		Unchanged: 0/0
  5149 ;; Data sizes:     COMRAM   BANK5   BANK6   BANK7   BANK8   BANK9  BANK10  BANK11  BANK12  BANK13  BANK14  BANK15  BANK1
      +6  BANK17  BANK18  BANK19  BANK20  BANK21  BANK22  BANK23  BANK24  BANK25  BANK26  BANK27  BANK28  BANK29  BANK30  BANK3
      +1  BANK32  BANK33  BANK34  BANK35  BANK36
  5150 ;;      Params:         2       0       0       0       0       0       0       0       0       0       0       0       
      +0       0       0       0       0       0       0       0       0       0       0       0       0       0       0       
      +0       0       0       0       0       0
  5151 ;;      Locals:         2       0       0       0       0       0       0       0       0       0       0       0       
      +0       0       0       0       0       0       0       0       0       0       0       0       0       0       0       
      +0       0       0       0       0       0
  5152 ;;      Temps:          4       0       0       0       0       0       0       0       0       0       0       0       
      +0       0       0       0       0       0       0       0       0       0       0       0       0       0       0       
      +0       0       0       0       0       0
  5153 ;;      Totals:         8       0       0       0       0       0       0       0       0       0       0       0       
      +0       0       0       0       0       0       0       0       0       0       0       0       0       0       0       
      +0       0       0       0       0       0
  5154 ;;Total ram usage:        8 bytes
  5155 ;; Hardware stack levels used: 1
  5156 ;; Hardware stack levels required when called: 3
  5157 ;; This function calls:
  5158 ;;		_isupper
  5159 ;; This function is called by:
  5160 ;;		_efgtoa
  5161 ;;		_vfpfcnvrt
  5162 ;; This function uses a non-reentrant model
  5163 ;;
  5164                           
  5165                           	psect	text9
  5166  005CDA                     __ptext9:
  5167                           	callstack 0
  5168  005CDA                     _tolower:
  5169                           	callstack 120
  5170  005CDA  0EBF               	movlw	191
  5171  005CDC  6E0C               	movwf	??_tolower^(0+1280),c
  5172  005CDE  0EFF               	movlw	255
  5173  005CE0  6E0D               	movwf	(??_tolower+1)^(0+1280),c
  5174  005CE2  C50A  F50E         	movff	tolower@c,??_tolower+2
  5175  005CE6  C50B  F50F         	movff	tolower@c+1,??_tolower+3
  5176  005CEA  500C               	movf	??_tolower^(0+1280),w,c
  5177  005CEC  260E               	addwf	(??_tolower+2)^(0+1280),f,c
  5178  005CEE  500D               	movf	(??_tolower+1)^(0+1280),w,c
  5179  005CF0  220F               	addwfc	(??_tolower+3)^(0+1280),f,c
  5180  005CF2  500F               	movf	(??_tolower+3)^(0+1280),w,c
  5181  005CF4  E10A               	bnz	u7080
  5182  005CF6  0E1A               	movlw	26
  5183  005CF8  5C0E               	subwf	(??_tolower+2)^(0+1280),w,c
  5184  005CFA  A0D8               	btfss	status,0,c
  5185  005CFC  EF82  F02E         	goto	u7081
  5186  005D00  EF85  F02E         	goto	u7080
  5187  005D04                     u7081:
  5188  005D04  0E01               	movlw	1
  5189  005D06  EF86  F02E         	goto	u7090
  5190  005D0A                     u7080:
  5191  005D0A  0E00               	movlw	0
  5192  005D0C                     u7090:
  5193  005D0C  6E10               	movwf	_tolower$1049^(0+1280),c
  5194  005D0E  6A11               	clrf	(_tolower$1049+1)^(0+1280),c
  5195  005D10  5010               	movf	_tolower$1049^(0+1280),w,c
  5196  005D12  1011               	iorwf	(_tolower$1049+1)^(0+1280),w,c
  5197  005D14  B4D8               	btfsc	status,2,c
  5198  005D16  EF8F  F02E         	goto	u7101
  5199  005D1A  EF91  F02E         	goto	u7100
  5200  005D1E                     u7101:
  5201  005D1E  EF98  F02E         	goto	l1205
  5202  005D22                     u7100:
  5203  005D22  0E20               	movlw	32
  5204  005D24  100A               	iorwf	tolower@c^(0+1280),w,c
  5205  005D26  6E0A               	movwf	?_tolower^(0+1280),c
  5206  005D28  500B               	movf	(tolower@c+1)^(0+1280),w,c
  5207  005D2A  6E0B               	movwf	(?_tolower+1)^(0+1280),c
  5208  005D2C  EF9C  F02E         	goto	l1210
  5209  005D30                     l1205:
  5210  005D30  C50A  F50A         	movff	tolower@c,?_tolower
  5211  005D34  C50B  F50B         	movff	tolower@c+1,?_tolower+1
  5212  005D38                     l1210:
  5213  005D38  0012               	return		;funcret
  5214  005D3A                     __end_of_tolower:
  5215                           	callstack 0
  5216                           
  5217 ;; *************** function _isupper *****************
  5218 ;; Defined at:
  5219 ;;		line 5 in file "C:\Program Files\Microchip\xc8\v2.32\pic\sources\c99\common\isupper.c"
  5220 ;; Parameters:    Size  Location     Type
  5221 ;;  c               2    3[COMRAM] int 
  5222 ;; Auto vars:     Size  Location     Type
  5223 ;;		None
  5224 ;; Return value:  Size  Location     Type
  5225 ;;                  2    3[COMRAM] int 
  5226 ;; Registers used:
  5227 ;;		wreg, status,2, status,0
  5228 ;; Tracked objects:
  5229 ;;		On entry : 0/0
  5230 ;;		On exit  : 0/0
  5231 ;;		Unchanged: 0/0
  5232 ;; Data sizes:     COMRAM   BANK5   BANK6   BANK7   BANK8   BANK9  BANK10  BANK11  BANK12  BANK13  BANK14  BANK15  BANK1
      +6  BANK17  BANK18  BANK19  BANK20  BANK21  BANK22  BANK23  BANK24  BANK25  BANK26  BANK27  BANK28  BANK29  BANK30  BANK3
      +1  BANK32  BANK33  BANK34  BANK35  BANK36
  5233 ;;      Params:         2       0       0       0       0       0       0       0       0       0       0       0       
      +0       0       0       0       0       0       0       0       0       0       0       0       0       0       0       
      +0       0       0       0       0       0
  5234 ;;      Locals:         0       0       0       0       0       0       0       0       0       0       0       0       
      +0       0       0       0       0       0       0       0       0       0       0       0       0       0       0       
      +0       0       0       0       0       0
  5235 ;;      Temps:          4       0       0       0       0       0       0       0       0       0       0       0       
      +0       0       0       0       0       0       0       0       0       0       0       0       0       0       0       
      +0       0       0       0       0       0
  5236 ;;      Totals:         6       0       0       0       0       0       0       0       0       0       0       0       
      +0       0       0       0       0       0       0       0       0       0       0       0       0       0       0       
      +0       0       0       0       0       0
  5237 ;;Total ram usage:        6 bytes
  5238 ;; Hardware stack levels used: 1
  5239 ;; Hardware stack levels required when called: 2
  5240 ;; This function calls:
  5241 ;;		Nothing
  5242 ;; This function is called by:
  5243 ;;		_efgtoa
  5244 ;;		_vfpfcnvrt
  5245 ;;		_tolower
  5246 ;; This function uses a non-reentrant model
  5247 ;;
  5248                           
  5249                           	psect	text10
  5250  006052                     __ptext10:
  5251                           	callstack 0
  5252  006052                     _isupper:
  5253                           	callstack 120
  5254  006052  0EBF               	movlw	191
  5255  006054  6E06               	movwf	??_isupper^(0+1280),c
  5256  006056  0EFF               	movlw	255
  5257  006058  6E07               	movwf	(??_isupper+1)^(0+1280),c
  5258  00605A  C504  F508         	movff	isupper@c,??_isupper+2
  5259  00605E  C505  F509         	movff	isupper@c+1,??_isupper+3
  5260  006062  5006               	movf	??_isupper^(0+1280),w,c
  5261  006064  2608               	addwf	(??_isupper+2)^(0+1280),f,c
  5262  006066  5007               	movf	(??_isupper+1)^(0+1280),w,c
  5263  006068  2209               	addwfc	(??_isupper+3)^(0+1280),f,c
  5264  00606A  5009               	movf	(??_isupper+3)^(0+1280),w,c
  5265  00606C  E10A               	bnz	u6160
  5266  00606E  0E1A               	movlw	26
  5267  006070  5C08               	subwf	(??_isupper+2)^(0+1280),w,c
  5268  006072  A0D8               	btfss	status,0,c
  5269  006074  EF3E  F030         	goto	u6161
  5270  006078  EF41  F030         	goto	u6160
  5271  00607C                     u6161:
  5272  00607C  0E01               	movlw	1
  5273  00607E  EF42  F030         	goto	u6170
  5274  006082                     u6160:
  5275  006082  0E00               	movlw	0
  5276  006084                     u6170:
  5277  006084  6E04               	movwf	?_isupper^(0+1280),c
  5278  006086  6A05               	clrf	(?_isupper+1)^(0+1280),c
  5279  006088  0012               	return		;funcret
  5280  00608A                     __end_of_isupper:
  5281                           	callstack 0
  5282                           
  5283 ;; *************** function _strcpy *****************
  5284 ;; Defined at:
  5285 ;;		line 3 in file "C:\Program Files\Microchip\xc8\v2.32\pic\sources\c99\common\strcpy.c"
  5286 ;; Parameters:    Size  Location     Type
  5287 ;;  dest            2    3[COMRAM] PTR unsigned char 
  5288 ;;		 -> dbuf(80), 
  5289 ;;  src             2    5[COMRAM] PTR const unsigned char 
  5290 ;;		 -> STR_10(4), STR_9(4), STR_6(4), STR_5(4), 
  5291 ;;		 -> dbuf(80), 
  5292 ;; Auto vars:     Size  Location     Type
  5293 ;;  d               2   11[COMRAM] PTR unsigned char 
  5294 ;;		 -> dbuf(80), 
  5295 ;;  s               2    9[COMRAM] PTR const unsigned char 
  5296 ;;		 -> STR_10(4), STR_9(4), STR_6(4), STR_5(4), 
  5297 ;;		 -> dbuf(80), 
  5298 ;; Return value:  Size  Location     Type
  5299 ;;                  2    3[COMRAM] PTR unsigned char 
  5300 ;; Registers used:
  5301 ;;		wreg, fsr1l, fsr1h, fsr2l, fsr2h, status,2, status,0, tblptrl, tblptrh, tblptru
  5302 ;; Tracked objects:
  5303 ;;		On entry : 0/0
  5304 ;;		On exit  : 0/0
  5305 ;;		Unchanged: 0/0
  5306 ;; Data sizes:     COMRAM   BANK5   BANK6   BANK7   BANK8   BANK9  BANK10  BANK11  BANK12  BANK13  BANK14  BANK15  BANK1
      +6  BANK17  BANK18  BANK19  BANK20  BANK21  BANK22  BANK23  BANK24  BANK25  BANK26  BANK27  BANK28  BANK29  BANK30  BANK3
      +1  BANK32  BANK33  BANK34  BANK35  BANK36
  5307 ;;      Params:         4       0       0       0       0       0       0       0       0       0       0       0       
      +0       0       0       0       0       0       0       0       0       0       0       0       0       0       0       
      +0       0       0       0       0       0
  5308 ;;      Locals:         4       0       0       0       0       0       0       0       0       0       0       0       
      +0       0       0       0       0       0       0       0       0       0       0       0       0       0       0       
      +0       0       0       0       0       0
  5309 ;;      Temps:          2       0       0       0       0       0       0       0       0       0       0       0       
      +0       0       0       0       0       0       0       0       0       0       0       0       0       0       0       
      +0       0       0       0       0       0
  5310 ;;      Totals:        10       0       0       0       0       0       0       0       0       0       0       0       
      +0       0       0       0       0       0       0       0       0       0       0       0       0       0       0       
      +0       0       0       0       0       0
  5311 ;;Total ram usage:       10 bytes
  5312 ;; Hardware stack levels used: 1
  5313 ;; Hardware stack levels required when called: 2
  5314 ;; This function calls:
  5315 ;;		Nothing
  5316 ;; This function is called by:
  5317 ;;		_efgtoa
  5318 ;; This function uses a non-reentrant model
  5319 ;;
  5320                           
  5321                           	psect	text11
  5322  005C74                     __ptext11:
  5323                           	callstack 0
  5324  005C74                     _strcpy:
  5325                           	callstack 120
  5326  005C74  C506  F50A         	movff	strcpy@src,strcpy@s
  5327  005C78  C507  F50B         	movff	strcpy@src+1,strcpy@s+1
  5328  005C7C  C504  F50C         	movff	strcpy@dest,strcpy@d
  5329  005C80  C505  F50D         	movff	strcpy@dest+1,strcpy@d+1
  5330  005C84                     l5515:
  5331  005C84  500A               	movf	strcpy@s^(0+1280),w,c
  5332  005C86  6E08               	movwf	??_strcpy^(0+1280),c
  5333  005C88  500B               	movf	(strcpy@s+1)^(0+1280),w,c
  5334  005C8A  6E09               	movwf	(??_strcpy+1)^(0+1280),c
  5335  005C8C  4A0A               	infsnz	strcpy@s^(0+1280),f,c
  5336  005C8E  2A0B               	incf	(strcpy@s+1)^(0+1280),f,c
  5337  005C90  0061  F420  F4F6   	movff	??_strcpy,tblptrl
  5338  005C96  0061  F424  F4F7   	movff	??_strcpy+1,tblptrh
  5339  005C9C  0E00               	movlw	low (__smallconst shr (0+16))
  5340  005C9E  6EF8               	movwf	tblptru,c
  5341  005CA0  0061  F430  F4D9   	movff	strcpy@d,fsr2l
  5342  005CA6  0061  F434  F4DA   	movff	strcpy@d+1,fsr2h
  5343  005CAC  4A0C               	infsnz	strcpy@d^(0+1280),f,c
  5344  005CAE  2A0D               	incf	(strcpy@d+1)^(0+1280),f,c
  5345  005CB0  0E24               	movlw	(high __ramtop+-1)
  5346  005CB2  64F7               	cpfsgt	tblptrh,c
  5347  005CB4  D003               	bra	u7067
  5348  005CB6  0008               	tblrd		*
  5349  005CB8  50F5               	movf	tablat,w,c
  5350  005CBA  D005               	bra	u7060
  5351  005CBC                     u7067:
  5352  005CBC  C4F6 F4E1          	movff	tblptrl,fsr1l
  5353  005CC0  C4F7 F4E2          	movff	tblptrh,fsr1h
  5354  005CC4  50E7               	movf	indf1,w,c
  5355  005CC6                     u7060:
  5356  005CC6  6EDF               	movwf	indf2,c
  5357  005CC8  50DF               	movf	indf2,w,c
  5358  005CCA  A4D8               	btfss	status,2,c
  5359  005CCC  EF6A  F02E         	goto	u7071
  5360  005CD0  EF6C  F02E         	goto	u7070
  5361  005CD4                     u7071:
  5362  005CD4  EF42  F02E         	goto	l5515
  5363  005CD8                     u7070:
  5364  005CD8  0012               	return		;funcret
  5365  005CDA                     __end_of_strcpy:
  5366                           	callstack 0
  5367                           
  5368 ;; *************** function _pad *****************
  5369 ;; Defined at:
  5370 ;;		line 72 in file "C:\Program Files\Microchip\xc8\v2.32\pic\sources\c99\common\doprnt.c"
  5371 ;; Parameters:    Size  Location     Type
  5372 ;;  fp              2   19[COMRAM] PTR struct _IO_FILE
  5373 ;;		 -> sprintf@f(6), 
  5374 ;;  buf             2   21[COMRAM] PTR unsigned char 
  5375 ;;		 -> dbuf(80), 
  5376 ;;  p               2   23[COMRAM] int 
  5377 ;; Auto vars:     Size  Location     Type
  5378 ;;  w               2   28[COMRAM] int 
  5379 ;;  i               2   26[COMRAM] int 
  5380 ;; Return value:  Size  Location     Type
  5381 ;;                  2   19[COMRAM] int 
  5382 ;; Registers used:
  5383 ;;		wreg, fsr1l, fsr1h, fsr2l, fsr2h, status,2, status,0, cstack
  5384 ;; Tracked objects:
  5385 ;;		On entry : 0/0
  5386 ;;		On exit  : 0/0
  5387 ;;		Unchanged: 0/0
  5388 ;; Data sizes:     COMRAM   BANK5   BANK6   BANK7   BANK8   BANK9  BANK10  BANK11  BANK12  BANK13  BANK14  BANK15  BANK1
      +6  BANK17  BANK18  BANK19  BANK20  BANK21  BANK22  BANK23  BANK24  BANK25  BANK26  BANK27  BANK28  BANK29  BANK30  BANK3
      +1  BANK32  BANK33  BANK34  BANK35  BANK36
  5389 ;;      Params:         6       0       0       0       0       0       0       0       0       0       0       0       
      +0       0       0       0       0       0       0       0       0       0       0       0       0       0       0       
      +0       0       0       0       0       0
  5390 ;;      Locals:         4       0       0       0       0       0       0       0       0       0       0       0       
      +0       0       0       0       0       0       0       0       0       0       0       0       0       0       0       
      +0       0       0       0       0       0
  5391 ;;      Temps:          1       0       0       0       0       0       0       0       0       0       0       0       
      +0       0       0       0       0       0       0       0       0       0       0       0       0       0       0       
      +0       0       0       0       0       0
  5392 ;;      Totals:        11       0       0       0       0       0       0       0       0       0       0       0       
      +0       0       0       0       0       0       0       0       0       0       0       0       0       0       0       
      +0       0       0       0       0       0
  5393 ;;Total ram usage:       11 bytes
  5394 ;; Hardware stack levels used: 1
  5395 ;; Hardware stack levels required when called: 5
  5396 ;; This function calls:
  5397 ;;		_fputc
  5398 ;;		_fputs
  5399 ;;		_strlen
  5400 ;; This function is called by:
  5401 ;;		_efgtoa
  5402 ;;		_utoa
  5403 ;; This function uses a non-reentrant model
  5404 ;;
  5405                           
  5406                           	psect	text12
  5407  0058F6                     __ptext12:
  5408                           	callstack 0
  5409  0058F6                     _pad:
  5410                           	callstack 117
  5411  0058F6                     
  5412                           ;C:\Program Files\Microchip\xc8\v2.32\pic\sources\c99\common\doprnt.c: 72: static int pa
      +                          d(FILE *fp, char *buf, int p);C:\Program Files\Microchip\xc8\v2.32\pic\sources\c99\commo
      +                          n\doprnt.c: 73: {;C:\Program Files\Microchip\xc8\v2.32\pic\sources\c99\common\doprnt.c: 
      +                          74:     int i, w;;C:\Program Files\Microchip\xc8\v2.32\pic\sources\c99\common\doprnt.c: 
      +                          77:     if (flags & (1 << 0)) {
  5413  0058F6  A05B               	btfss	_flags^(0+1280),0,c
  5414  0058F8  EF80  F02C         	goto	u6951
  5415  0058FC  EF82  F02C         	goto	u6950
  5416  005900                     u6951:
  5417  005900  EF8C  F02C         	goto	l5473
  5418  005904                     u6950:
  5419  005904                     
  5420                           ;C:\Program Files\Microchip\xc8\v2.32\pic\sources\c99\common\doprnt.c: 78:         fputs
      +                          ((const char *)buf, fp);
  5421  005904  C516  F50D         	movff	pad@buf,fputs@s
  5422  005908  C517  F50E         	movff	pad@buf+1,fputs@s+1
  5423  00590C  C514  F50F         	movff	pad@fp,fputs@fp
  5424  005910  C515  F510         	movff	pad@fp+1,fputs@fp+1
  5425  005914  EC66  F02F         	call	_fputs	;wreg free
  5426  005918                     l5473:
  5427                           
  5428                           ;C:\Program Files\Microchip\xc8\v2.32\pic\sources\c99\common\doprnt.c: 82:     w = (p < 
      +                          0) ? 0 : p;
  5429  005918  BE19               	btfsc	(pad@p+1)^(0+1280),7,c
  5430  00591A  EF91  F02C         	goto	u6961
  5431  00591E  EF93  F02C         	goto	u6960
  5432  005922                     u6961:
  5433  005922  EF99  F02C         	goto	l5477
  5434  005926                     u6960:
  5435  005926  C518  F51D         	movff	pad@p,pad@w
  5436  00592A  C519  F51E         	movff	pad@p+1,pad@w+1
  5437  00592E  EF9D  F02C         	goto	l914
  5438  005932                     l5477:
  5439  005932  0E00               	movlw	0
  5440  005934  6E1E               	movwf	(pad@w+1)^(0+1280),c
  5441  005936  0E00               	movlw	0
  5442  005938  6E1D               	movwf	pad@w^(0+1280),c
  5443  00593A                     l914:
  5444                           
  5445                           ;C:\Program Files\Microchip\xc8\v2.32\pic\sources\c99\common\doprnt.c: 83:     i = 0;
  5446  00593A  0E00               	movlw	0
  5447  00593C  6E1C               	movwf	(pad@i+1)^(0+1280),c
  5448  00593E  0E00               	movlw	0
  5449  005940  6E1B               	movwf	pad@i^(0+1280),c
  5450                           
  5451                           ;C:\Program Files\Microchip\xc8\v2.32\pic\sources\c99\common\doprnt.c: 84:     while (i 
      +                          < w) {
  5452  005942  EFAF  F02C         	goto	l5483
  5453  005946                     l5479:
  5454                           
  5455                           ;C:\Program Files\Microchip\xc8\v2.32\pic\sources\c99\common\doprnt.c: 85:         fputc
      +                          (' ', fp);
  5456  005946  0E00               	movlw	0
  5457  005948  6E05               	movwf	(fputc@c+1)^(0+1280),c
  5458  00594A  0E20               	movlw	32
  5459  00594C  6E04               	movwf	fputc@c^(0+1280),c
  5460  00594E  C514  F506         	movff	pad@fp,fputc@fp
  5461  005952  C515  F507         	movff	pad@fp+1,fputc@fp+1
  5462  005956  EC45  F02B         	call	_fputc	;wreg free
  5463  00595A                     
  5464                           ;C:\Program Files\Microchip\xc8\v2.32\pic\sources\c99\common\doprnt.c: 86:         ++i;
  5465  00595A  4A1B               	infsnz	pad@i^(0+1280),f,c
  5466  00595C  2A1C               	incf	(pad@i+1)^(0+1280),f,c
  5467  00595E                     l5483:
  5468                           
  5469                           ;C:\Program Files\Microchip\xc8\v2.32\pic\sources\c99\common\doprnt.c: 84:     while (i 
      +                          < w) {
  5470  00595E  501D               	movf	pad@w^(0+1280),w,c
  5471  005960  5C1B               	subwf	pad@i^(0+1280),w,c
  5472  005962  501C               	movf	(pad@i+1)^(0+1280),w,c
  5473  005964  0A80               	xorlw	128
  5474  005966  6E1A               	movwf	??_pad^(0+1280),c
  5475  005968  501E               	movf	(pad@w+1)^(0+1280),w,c
  5476  00596A  0A80               	xorlw	128
  5477  00596C  581A               	subwfb	??_pad^(0+1280),w,c
  5478  00596E  A0D8               	btfss	status,0,c
  5479  005970  EFBC  F02C         	goto	u6971
  5480  005974  EFBE  F02C         	goto	u6970
  5481  005978                     u6971:
  5482  005978  EFA3  F02C         	goto	l5479
  5483  00597C                     u6970:
  5484  00597C                     
  5485                           ;C:\Program Files\Microchip\xc8\v2.32\pic\sources\c99\common\doprnt.c: 90:     if (!(fla
      +                          gs & (1 << 0))) {
  5486  00597C  B05B               	btfsc	_flags^(0+1280),0,c
  5487  00597E  EFC3  F02C         	goto	u6981
  5488  005982  EFC5  F02C         	goto	u6980
  5489  005986                     u6981:
  5490  005986  EFCF  F02C         	goto	l5487
  5491  00598A                     u6980:
  5492  00598A                     
  5493                           ;C:\Program Files\Microchip\xc8\v2.32\pic\sources\c99\common\doprnt.c: 91:         fputs
      +                          ((const char *)buf, fp);
  5494  00598A  C516  F50D         	movff	pad@buf,fputs@s
  5495  00598E  C517  F50E         	movff	pad@buf+1,fputs@s+1
  5496  005992  C514  F50F         	movff	pad@fp,fputs@fp
  5497  005996  C515  F510         	movff	pad@fp+1,fputs@fp+1
  5498  00599A  EC66  F02F         	call	_fputs	;wreg free
  5499  00599E                     l5487:
  5500                           
  5501                           ;C:\Program Files\Microchip\xc8\v2.32\pic\sources\c99\common\doprnt.c: 94:     return (i
      +                          nt)(strlen(buf) + (size_t)w);
  5502  00599E  C516  F504         	movff	pad@buf,strlen@s
  5503  0059A2  C517  F505         	movff	pad@buf+1,strlen@s+1
  5504  0059A6  EC0C  F030         	call	_strlen	;wreg free
  5505  0059AA  501D               	movf	pad@w^(0+1280),w,c
  5506  0059AC  2404               	addwf	?_strlen^(0+1280),w,c
  5507  0059AE  6E14               	movwf	?_pad^(0+1280),c
  5508  0059B0  501E               	movf	(pad@w+1)^(0+1280),w,c
  5509  0059B2  2005               	addwfc	(?_strlen+1)^(0+1280),w,c
  5510  0059B4  6E15               	movwf	(?_pad+1)^(0+1280),c
  5511  0059B6  0012               	return		;funcret
  5512  0059B8                     __end_of_pad:
  5513                           	callstack 0
  5514                           
  5515 ;; *************** function _strlen *****************
  5516 ;; Defined at:
  5517 ;;		line 5 in file "C:\Program Files\Microchip\xc8\v2.32\pic\sources\c99\common\strlen.c"
  5518 ;; Parameters:    Size  Location     Type
  5519 ;;  s               2    3[COMRAM] PTR const unsigned char 
  5520 ;;		 -> dbuf(80), 
  5521 ;; Auto vars:     Size  Location     Type
  5522 ;;  a               2    5[COMRAM] PTR const unsigned char 
  5523 ;;		 -> dbuf(80), 
  5524 ;; Return value:  Size  Location     Type
  5525 ;;                  2    3[COMRAM] unsigned int 
  5526 ;; Registers used:
  5527 ;;		wreg, fsr2l, fsr2h, status,2, status,0
  5528 ;; Tracked objects:
  5529 ;;		On entry : 0/0
  5530 ;;		On exit  : 0/0
  5531 ;;		Unchanged: 0/0
  5532 ;; Data sizes:     COMRAM   BANK5   BANK6   BANK7   BANK8   BANK9  BANK10  BANK11  BANK12  BANK13  BANK14  BANK15  BANK1
      +6  BANK17  BANK18  BANK19  BANK20  BANK21  BANK22  BANK23  BANK24  BANK25  BANK26  BANK27  BANK28  BANK29  BANK30  BANK3
      +1  BANK32  BANK33  BANK34  BANK35  BANK36
  5533 ;;      Params:         2       0       0       0       0       0       0       0       0       0       0       0       
      +0       0       0       0       0       0       0       0       0       0       0       0       0       0       0       
      +0       0       0       0       0       0
  5534 ;;      Locals:         2       0       0       0       0       0       0       0       0       0       0       0       
      +0       0       0       0       0       0       0       0       0       0       0       0       0       0       0       
      +0       0       0       0       0       0
  5535 ;;      Temps:          0       0       0       0       0       0       0       0       0       0       0       0       
      +0       0       0       0       0       0       0       0       0       0       0       0       0       0       0       
      +0       0       0       0       0       0
  5536 ;;      Totals:         4       0       0       0       0       0       0       0       0       0       0       0       
      +0       0       0       0       0       0       0       0       0       0       0       0       0       0       0       
      +0       0       0       0       0       0
  5537 ;;Total ram usage:        4 bytes
  5538 ;; Hardware stack levels used: 1
  5539 ;; Hardware stack levels required when called: 2
  5540 ;; This function calls:
  5541 ;;		Nothing
  5542 ;; This function is called by:
  5543 ;;		_pad
  5544 ;; This function uses a non-reentrant model
  5545 ;;
  5546                           
  5547                           	psect	text13
  5548  006018                     __ptext13:
  5549                           	callstack 0
  5550  006018                     _strlen:
  5551                           	callstack 119
  5552  006018  C504  F506         	movff	strlen@s,strlen@a
  5553  00601C  C505  F507         	movff	strlen@s+1,strlen@a+1
  5554  006020  EF14  F030         	goto	l4971
  5555  006024                     l4969:
  5556  006024  4A04               	infsnz	strlen@s^(0+1280),f,c
  5557  006026  2A05               	incf	(strlen@s+1)^(0+1280),f,c
  5558  006028                     l4971:
  5559  006028  0061  F410  F4D9   	movff	strlen@s,fsr2l
  5560  00602E  0061  F414  F4DA   	movff	strlen@s+1,fsr2h
  5561  006034  50DF               	movf	indf2,w,c
  5562  006036  A4D8               	btfss	status,2,c
  5563  006038  EF20  F030         	goto	u6151
  5564  00603C  EF22  F030         	goto	u6150
  5565  006040                     u6151:
  5566  006040  EF12  F030         	goto	l4969
  5567  006044                     u6150:
  5568  006044  5006               	movf	strlen@a^(0+1280),w,c
  5569  006046  5C04               	subwf	strlen@s^(0+1280),w,c
  5570  006048  6E04               	movwf	?_strlen^(0+1280),c
  5571  00604A  5007               	movf	(strlen@a+1)^(0+1280),w,c
  5572  00604C  5805               	subwfb	(strlen@s+1)^(0+1280),w,c
  5573  00604E  6E05               	movwf	(?_strlen+1)^(0+1280),c
  5574  006050  0012               	return		;funcret
  5575  006052                     __end_of_strlen:
  5576                           	callstack 0
  5577                           
  5578 ;; *************** function _fputs *****************
  5579 ;; Defined at:
  5580 ;;		line 8 in file "C:\Program Files\Microchip\xc8\v2.32\pic\sources\c99\common\nf_fputs.c"
  5581 ;; Parameters:    Size  Location     Type
  5582 ;;  s               2   12[COMRAM] PTR const unsigned char 
  5583 ;;		 -> dbuf(80), 
  5584 ;;  fp              2   14[COMRAM] PTR struct _IO_FILE
  5585 ;;		 -> sprintf@f(6), 
  5586 ;; Auto vars:     Size  Location     Type
  5587 ;;  i               2   17[COMRAM] int 
  5588 ;;  c               1   16[COMRAM] unsigned char 
  5589 ;; Return value:  Size  Location     Type
  5590 ;;                  2   12[COMRAM] int 
  5591 ;; Registers used:
  5592 ;;		wreg, fsr1l, fsr1h, fsr2l, fsr2h, status,2, status,0, cstack
  5593 ;; Tracked objects:
  5594 ;;		On entry : 0/0
  5595 ;;		On exit  : 0/0
  5596 ;;		Unchanged: 0/0
  5597 ;; Data sizes:     COMRAM   BANK5   BANK6   BANK7   BANK8   BANK9  BANK10  BANK11  BANK12  BANK13  BANK14  BANK15  BANK1
      +6  BANK17  BANK18  BANK19  BANK20  BANK21  BANK22  BANK23  BANK24  BANK25  BANK26  BANK27  BANK28  BANK29  BANK30  BANK3
      +1  BANK32  BANK33  BANK34  BANK35  BANK36
  5598 ;;      Params:         4       0       0       0       0       0       0       0       0       0       0       0       
      +0       0       0       0       0       0       0       0       0       0       0       0       0       0       0       
      +0       0       0       0       0       0
  5599 ;;      Locals:         3       0       0       0       0       0       0       0       0       0       0       0       
      +0       0       0       0       0       0       0       0       0       0       0       0       0       0       0       
      +0       0       0       0       0       0
  5600 ;;      Temps:          0       0       0       0       0       0       0       0       0       0       0       0       
      +0       0       0       0       0       0       0       0       0       0       0       0       0       0       0       
      +0       0       0       0       0       0
  5601 ;;      Totals:         7       0       0       0       0       0       0       0       0       0       0       0       
      +0       0       0       0       0       0       0       0       0       0       0       0       0       0       0       
      +0       0       0       0       0       0
  5602 ;;Total ram usage:        7 bytes
  5603 ;; Hardware stack levels used: 1
  5604 ;; Hardware stack levels required when called: 4
  5605 ;; This function calls:
  5606 ;;		_fputc
  5607 ;; This function is called by:
  5608 ;;		_pad
  5609 ;; This function uses a non-reentrant model
  5610 ;;
  5611                           
  5612                           	psect	text14
  5613  005ECC                     __ptext14:
  5614                           	callstack 0
  5615  005ECC                     _fputs:
  5616                           	callstack 117
  5617  005ECC  0E00               	movlw	0
  5618  005ECE  6E13               	movwf	(fputs@i+1)^(0+1280),c
  5619  005ED0  0E00               	movlw	0
  5620  005ED2  6E12               	movwf	fputs@i^(0+1280),c
  5621  005ED4  EF77  F02F         	goto	l4965
  5622  005ED8                     l4961:
  5623  005ED8  C511  F504         	movff	fputs@c,fputc@c
  5624  005EDC  6A05               	clrf	(fputc@c+1)^(0+1280),c
  5625  005EDE  C50F  F506         	movff	fputs@fp,fputc@fp
  5626  005EE2  C510  F507         	movff	fputs@fp+1,fputc@fp+1
  5627  005EE6  EC45  F02B         	call	_fputc	;wreg free
  5628  005EEA  4A12               	infsnz	fputs@i^(0+1280),f,c
  5629  005EEC  2A13               	incf	(fputs@i+1)^(0+1280),f,c
  5630  005EEE                     l4965:
  5631  005EEE  5012               	movf	fputs@i^(0+1280),w,c
  5632  005EF0  240D               	addwf	fputs@s^(0+1280),w,c
  5633  005EF2  6ED9               	movwf	fsr2l,c
  5634  005EF4  5013               	movf	(fputs@i+1)^(0+1280),w,c
  5635  005EF6  200E               	addwfc	(fputs@s+1)^(0+1280),w,c
  5636  005EF8  6EDA               	movwf	fsr2h,c
  5637  005EFA  50DF               	movf	indf2,w,c
  5638  005EFC  6E11               	movwf	fputs@c^(0+1280),c
  5639  005EFE  5011               	movf	fputs@c^(0+1280),w,c
  5640  005F00  A4D8               	btfss	status,2,c
  5641  005F02  EF85  F02F         	goto	u6141
  5642  005F06  EF87  F02F         	goto	u6140
  5643  005F0A                     u6141:
  5644  005F0A  EF6C  F02F         	goto	l4961
  5645  005F0E                     u6140:
  5646  005F0E  0012               	return		;funcret
  5647  005F10                     __end_of_fputs:
  5648                           	callstack 0
  5649                           
  5650 ;; *************** function _fputc *****************
  5651 ;; Defined at:
  5652 ;;		line 8 in file "C:\Program Files\Microchip\xc8\v2.32\pic\sources\c99\common\nf_fputc.c"
  5653 ;; Parameters:    Size  Location     Type
  5654 ;;  c               2    3[COMRAM] int 
  5655 ;;  fp              2    5[COMRAM] PTR struct _IO_FILE
  5656 ;;		 -> sprintf@f(6), 
  5657 ;; Auto vars:     Size  Location     Type
  5658 ;;		None
  5659 ;; Return value:  Size  Location     Type
  5660 ;;                  2    3[COMRAM] int 
  5661 ;; Registers used:
  5662 ;;		wreg, fsr1l, fsr1h, fsr2l, fsr2h, status,2, status,0, cstack
  5663 ;; Tracked objects:
  5664 ;;		On entry : 0/0
  5665 ;;		On exit  : 0/0
  5666 ;;		Unchanged: 0/0
  5667 ;; Data sizes:     COMRAM   BANK5   BANK6   BANK7   BANK8   BANK9  BANK10  BANK11  BANK12  BANK13  BANK14  BANK15  BANK1
      +6  BANK17  BANK18  BANK19  BANK20  BANK21  BANK22  BANK23  BANK24  BANK25  BANK26  BANK27  BANK28  BANK29  BANK30  BANK3
      +1  BANK32  BANK33  BANK34  BANK35  BANK36
  5668 ;;      Params:         4       0       0       0       0       0       0       0       0       0       0       0       
      +0       0       0       0       0       0       0       0       0       0       0       0       0       0       0       
      +0       0       0       0       0       0
  5669 ;;      Locals:         0       0       0       0       0       0       0       0       0       0       0       0       
      +0       0       0       0       0       0       0       0       0       0       0       0       0       0       0       
      +0       0       0       0       0       0
  5670 ;;      Temps:          5       0       0       0       0       0       0       0       0       0       0       0       
      +0       0       0       0       0       0       0       0       0       0       0       0       0       0       0       
      +0       0       0       0       0       0
  5671 ;;      Totals:         9       0       0       0       0       0       0       0       0       0       0       0       
      +0       0       0       0       0       0       0       0       0       0       0       0       0       0       0       
      +0       0       0       0       0       0
  5672 ;;Total ram usage:        9 bytes
  5673 ;; Hardware stack levels used: 1
  5674 ;; Hardware stack levels required when called: 3
  5675 ;; This function calls:
  5676 ;;		_putch
  5677 ;; This function is called by:
  5678 ;;		_pad
  5679 ;;		_vfpfcnvrt
  5680 ;;		_fputs
  5681 ;; This function uses a non-reentrant model
  5682 ;;
  5683                           
  5684                           	psect	text15
  5685  00568A                     __ptext15:
  5686                           	callstack 0
  5687  00568A                     _fputc:
  5688                           	callstack 117
  5689  00568A  5006               	movf	fputc@fp^(0+1280),w,c
  5690  00568C  1007               	iorwf	(fputc@fp+1)^(0+1280),w,c
  5691  00568E  B4D8               	btfsc	status,2,c
  5692  005690  EF4C  F02B         	goto	u5711
  5693  005694  EF4E  F02B         	goto	u5710
  5694  005698                     u5711:
  5695  005698  EF57  F02B         	goto	l4747
  5696  00569C                     u5710:
  5697  00569C  5006               	movf	fputc@fp^(0+1280),w,c
  5698  00569E  1007               	iorwf	(fputc@fp+1)^(0+1280),w,c
  5699  0056A0  A4D8               	btfss	status,2,c
  5700  0056A2  EF55  F02B         	goto	u5721
  5701  0056A6  EF57  F02B         	goto	u5720
  5702  0056AA                     u5721:
  5703  0056AA  EF5C  F02B         	goto	l4749
  5704  0056AE                     u5720:
  5705  0056AE                     l4747:
  5706  0056AE  5004               	movf	fputc@c^(0+1280),w,c
  5707  0056B0  ECDC  F030         	call	_putch
  5708  0056B4  EFB0  F02B         	goto	l1168
  5709  0056B8                     l4749:
  5710  0056B8  EE20 F004          	lfsr	2,4
  5711  0056BC  5006               	movf	fputc@fp^(0+1280),w,c
  5712  0056BE  26D9               	addwf	fsr2l,f,c
  5713  0056C0  5007               	movf	(fputc@fp+1)^(0+1280),w,c
  5714  0056C2  22DA               	addwfc	fsr2h,f,c
  5715  0056C4  50DE               	movf	postinc2,w,c
  5716  0056C6  10DE               	iorwf	postinc2,w,c
  5717  0056C8  B4D8               	btfsc	status,2,c
  5718  0056CA  EF69  F02B         	goto	u5731
  5719  0056CE  EF6B  F02B         	goto	u5730
  5720  0056D2                     u5731:
  5721  0056D2  EF86  F02B         	goto	l4753
  5722  0056D6                     u5730:
  5723  0056D6  EE20 F004          	lfsr	2,4
  5724  0056DA  5006               	movf	fputc@fp^(0+1280),w,c
  5725  0056DC  26D9               	addwf	fsr2l,f,c
  5726  0056DE  5007               	movf	(fputc@fp+1)^(0+1280),w,c
  5727  0056E0  22DA               	addwfc	fsr2h,f,c
  5728  0056E2  EE10 F002          	lfsr	1,2
  5729  0056E6  5006               	movf	fputc@fp^(0+1280),w,c
  5730  0056E8  26E1               	addwf	fsr1l,f,c
  5731  0056EA  5007               	movf	(fputc@fp+1)^(0+1280),w,c
  5732  0056EC  22E2               	addwfc	fsr1h,f,c
  5733  0056EE  50DE               	movf	postinc2,w,c
  5734  0056F0  5CE6               	subwf	postinc1,w,c
  5735  0056F2  50E6               	movf	postinc1,w,c
  5736  0056F4  0A80               	xorlw	128
  5737  0056F6  6E0C               	movwf	(??_fputc+4)^(0+1280),c
  5738  0056F8  50DE               	movf	postinc2,w,c
  5739  0056FA  0A80               	xorlw	128
  5740  0056FC  580C               	subwfb	(??_fputc+4)^(0+1280),w,c
  5741  0056FE  B0D8               	btfsc	status,0,c
  5742  005700  EF84  F02B         	goto	u5741
  5743  005704  EF86  F02B         	goto	u5740
  5744  005708                     u5741:
  5745  005708  EFB0  F02B         	goto	l1168
  5746  00570C                     u5740:
  5747  00570C                     l4753:
  5748  00570C  EE20 F002          	lfsr	2,2
  5749  005710  5006               	movf	fputc@fp^(0+1280),w,c
  5750  005712  26D9               	addwf	fsr2l,f,c
  5751  005714  5007               	movf	(fputc@fp+1)^(0+1280),w,c
  5752  005716  22DA               	addwfc	fsr2h,f,c
  5753  005718  0061 F378  F508    	movff	postinc2,??_fputc
  5754  00571E  0061 F374  F509    	movff	postdec2,??_fputc+1
  5755  005724  0061  F418  F4D9   	movff	fputc@fp,fsr2l
  5756  00572A  0061  F41C  F4DA   	movff	fputc@fp+1,fsr2h
  5757  005730  0061 F378  F50A    	movff	postinc2,??_fputc+2
  5758  005736  0061 F374  F50B    	movff	postdec2,??_fputc+3
  5759  00573C  5008               	movf	??_fputc^(0+1280),w,c
  5760  00573E  240A               	addwf	(??_fputc+2)^(0+1280),w,c
  5761  005740  6ED9               	movwf	fsr2l,c
  5762  005742  5009               	movf	(??_fputc+1)^(0+1280),w,c
  5763  005744  200B               	addwfc	(??_fputc+3)^(0+1280),w,c
  5764  005746  6EDA               	movwf	fsr2h,c
  5765  005748  0061  F410  F4DF   	movff	fputc@c,indf2
  5766  00574E  EE20 F002          	lfsr	2,2
  5767  005752  5006               	movf	fputc@fp^(0+1280),w,c
  5768  005754  26D9               	addwf	fsr2l,f,c
  5769  005756  5007               	movf	(fputc@fp+1)^(0+1280),w,c
  5770  005758  22DA               	addwfc	fsr2h,f,c
  5771  00575A  2ADE               	incf	postinc2,f,c
  5772  00575C  0E00               	movlw	0
  5773  00575E  22DD               	addwfc	postdec2,f,c
  5774  005760                     l1168:
  5775  005760  0012               	return		;funcret
  5776  005762                     __end_of_fputc:
  5777                           	callstack 0
  5778                           
  5779 ;; *************** function _putch *****************
  5780 ;; Defined at:
  5781 ;;		line 7 in file "C:\Program Files\Microchip\xc8\v2.32\pic\sources\c99\common\putch.c"
  5782 ;; Parameters:    Size  Location     Type
  5783 ;;  c               1    wreg     unsigned char 
  5784 ;; Auto vars:     Size  Location     Type
  5785 ;;  c               1    0[COMRAM] unsigned char 
  5786 ;; Return value:  Size  Location     Type
  5787 ;;                  1    wreg      void 
  5788 ;; Registers used:
  5789 ;;		wreg
  5790 ;; Tracked objects:
  5791 ;;		On entry : 0/0
  5792 ;;		On exit  : 0/0
  5793 ;;		Unchanged: 0/0
  5794 ;; Data sizes:     COMRAM   BANK5   BANK6   BANK7   BANK8   BANK9  BANK10  BANK11  BANK12  BANK13  BANK14  BANK15  BANK1
      +6  BANK17  BANK18  BANK19  BANK20  BANK21  BANK22  BANK23  BANK24  BANK25  BANK26  BANK27  BANK28  BANK29  BANK30  BANK3
      +1  BANK32  BANK33  BANK34  BANK35  BANK36
  5795 ;;      Params:         0       0       0       0       0       0       0       0       0       0       0       0       
      +0       0       0       0       0       0       0       0       0       0       0       0       0       0       0       
      +0       0       0       0       0       0
  5796 ;;      Locals:         0       0       0       0       0       0       0       0       0       0       0       0       
      +0       0       0       0       0       0       0       0       0       0       0       0       0       0       0       
      +0       0       0       0       0       0
  5797 ;;      Temps:          0       0       0       0       0       0       0       0       0       0       0       0       
      +0       0       0       0       0       0       0       0       0       0       0       0       0       0       0       
      +0       0       0       0       0       0
  5798 ;;      Totals:         0       0       0       0       0       0       0       0       0       0       0       0       
      +0       0       0       0       0       0       0       0       0       0       0       0       0       0       0       
      +0       0       0       0       0       0
  5799 ;;Total ram usage:        0 bytes
  5800 ;; Hardware stack levels used: 1
  5801 ;; Hardware stack levels required when called: 2
  5802 ;; This function calls:
  5803 ;;		Nothing
  5804 ;; This function is called by:
  5805 ;;		_fputc
  5806 ;; This function uses a non-reentrant model
  5807 ;;
  5808                           
  5809                           	psect	text16
  5810  0061B8                     __ptext16:
  5811                           	callstack 0
  5812  0061B8                     _putch:
  5813                           	callstack 117
  5814  0061B8  0012               	return		;funcret
  5815  0061BA                     __end_of_putch:
  5816                           	callstack 0
  5817                           
  5818 ;; *************** function _floorf *****************
  5819 ;; Defined at:
  5820 ;;		line 3 in file "C:\Program Files\Microchip\xc8\v2.32\pic\sources\c99\common\floorf.c"
  5821 ;; Parameters:    Size  Location     Type
  5822 ;;  x               4   42[COMRAM] float 
  5823 ;; Auto vars:     Size  Location     Type
  5824 ;;  u               4   58[COMRAM] struct .
  5825 ;;  m               4   52[COMRAM] unsigned long 
  5826 ;;  e               2   56[COMRAM] int 
  5827 ;; Return value:  Size  Location     Type
  5828 ;;                  4   42[COMRAM] float 
  5829 ;; Registers used:
  5830 ;;		wreg, status,2, status,0
  5831 ;; Tracked objects:
  5832 ;;		On entry : 0/0
  5833 ;;		On exit  : 0/0
  5834 ;;		Unchanged: 0/0
  5835 ;; Data sizes:     COMRAM   BANK5   BANK6   BANK7   BANK8   BANK9  BANK10  BANK11  BANK12  BANK13  BANK14  BANK15  BANK1
      +6  BANK17  BANK18  BANK19  BANK20  BANK21  BANK22  BANK23  BANK24  BANK25  BANK26  BANK27  BANK28  BANK29  BANK30  BANK3
      +1  BANK32  BANK33  BANK34  BANK35  BANK36
  5836 ;;      Params:         4       0       0       0       0       0       0       0       0       0       0       0       
      +0       0       0       0       0       0       0       0       0       0       0       0       0       0       0       
      +0       0       0       0       0       0
  5837 ;;      Locals:        10       0       0       0       0       0       0       0       0       0       0       0       
      +0       0       0       0       0       0       0       0       0       0       0       0       0       0       0       
      +0       0       0       0       0       0
  5838 ;;      Temps:          6       0       0       0       0       0       0       0       0       0       0       0       
      +0       0       0       0       0       0       0       0       0       0       0       0       0       0       0       
      +0       0       0       0       0       0
  5839 ;;      Totals:        20       0       0       0       0       0       0       0       0       0       0       0       
      +0       0       0       0       0       0       0       0       0       0       0       0       0       0       0       
      +0       0       0       0       0       0
  5840 ;;Total ram usage:       20 bytes
  5841 ;; Hardware stack levels used: 1
  5842 ;; Hardware stack levels required when called: 2
  5843 ;; This function calls:
  5844 ;;		Nothing
  5845 ;; This function is called by:
  5846 ;;		_efgtoa
  5847 ;; This function uses a non-reentrant model
  5848 ;;
  5849                           
  5850                           	psect	text17
  5851  0048EE                     __ptext17:
  5852                           	callstack 0
  5853  0048EE                     _floorf:
  5854                           	callstack 120
  5855  0048EE  C608  F53B         	movff	floorf@F527,floorf@u
  5856  0048F2  C609  F53C         	movff	floorf@F527+1,floorf@u+1
  5857  0048F6  C60A  F53D         	movff	floorf@F527+2,floorf@u+2
  5858  0048FA  C60B  F53E         	movff	floorf@F527+3,floorf@u+3
  5859  0048FE  C52B  F53B         	movff	floorf@x,floorf@u
  5860  004902  C52C  F53C         	movff	floorf@x+1,floorf@u+1
  5861  004906  C52D  F53D         	movff	floorf@x+2,floorf@u+2
  5862  00490A  C52E  F53E         	movff	floorf@x+3,floorf@u+3
  5863  00490E  0E81               	movlw	129
  5864  004910  6E2F               	movwf	??_floorf^(0+1280),c
  5865  004912  0EFF               	movlw	255
  5866  004914  6E30               	movwf	(??_floorf+1)^(0+1280),c
  5867  004916  C53B  F531         	movff	floorf@u,??_floorf+2
  5868  00491A  C53C  F532         	movff	floorf@u+1,??_floorf+3
  5869  00491E  C53D  F533         	movff	floorf@u+2,??_floorf+4
  5870  004922  C53E  F534         	movff	floorf@u+3,??_floorf+5
  5871  004926  0E18               	movlw	24
  5872  004928  EF9B  F024         	goto	u7110
  5873  00492C                     u7115:
  5874  00492C  90D8               	bcf	status,0,c
  5875  00492E  3234               	rrcf	(??_floorf+5)^(0+1280),f,c
  5876  004930  3233               	rrcf	(??_floorf+4)^(0+1280),f,c
  5877  004932  3232               	rrcf	(??_floorf+3)^(0+1280),f,c
  5878  004934  3231               	rrcf	(??_floorf+2)^(0+1280),f,c
  5879  004936                     u7110:
  5880  004936  2EE8               	decfsz	wreg,f,c
  5881  004938  EF96  F024         	goto	u7115
  5882  00493C  5031               	movf	(??_floorf+2)^(0+1280),w,c
  5883  00493E  242F               	addwf	??_floorf^(0+1280),w,c
  5884  004940  6E39               	movwf	floorf@e^(0+1280),c
  5885  004942  0E00               	movlw	0
  5886  004944  2030               	addwfc	(??_floorf+1)^(0+1280),w,c
  5887  004946  6E3A               	movwf	(floorf@e+1)^(0+1280),c
  5888  004948  BE3A               	btfsc	(floorf@e+1)^(0+1280),7,c
  5889  00494A  EFB0  F024         	goto	u7121
  5890  00494E  503A               	movf	(floorf@e+1)^(0+1280),w,c
  5891  004950  E109               	bnz	u7120
  5892  004952  0E17               	movlw	23
  5893  004954  5C39               	subwf	floorf@e^(0+1280),w,c
  5894  004956  A0D8               	btfss	status,0,c
  5895  004958  EFB0  F024         	goto	u7121
  5896  00495C  EFB2  F024         	goto	u7120
  5897  004960                     u7121:
  5898  004960  EFBC  F024         	goto	l5533
  5899  004964                     u7120:
  5900  004964                     l5531:
  5901  004964  C52B  F52B         	movff	floorf@x,?_floorf
  5902  004968  C52C  F52C         	movff	floorf@x+1,?_floorf+1
  5903  00496C  C52D  F52D         	movff	floorf@x+2,?_floorf+2
  5904  004970  C52E  F52E         	movff	floorf@x+3,?_floorf+3
  5905  004974  EF7F  F025         	goto	l1129
  5906  004978                     l5533:
  5907  004978  BE3A               	btfsc	(floorf@e+1)^(0+1280),7,c
  5908  00497A  EFC1  F024         	goto	u7131
  5909  00497E  EFC3  F024         	goto	u7130
  5910  004982                     u7131:
  5911  004982  EF33  F025         	goto	l5543
  5912  004986                     u7130:
  5913  004986  C539  F52F         	movff	floorf@e,??_floorf
  5914  00498A  0EFF               	movlw	255
  5915  00498C  6E30               	movwf	(??_floorf+1)^(0+1280),c
  5916  00498E  0EFF               	movlw	255
  5917  004990  6E31               	movwf	(??_floorf+2)^(0+1280),c
  5918  004992  0E7F               	movlw	127
  5919  004994  6E32               	movwf	(??_floorf+3)^(0+1280),c
  5920  004996  0E00               	movlw	0
  5921  004998  6E33               	movwf	(??_floorf+4)^(0+1280),c
  5922  00499A                     u7145:
  5923  00499A  662F               	tstfsz	??_floorf^(0+1280),c
  5924  00499C  EFD2  F024         	goto	u7146
  5925  0049A0  EFDA  F024         	goto	u7147
  5926  0049A4                     u7146:
  5927  0049A4  3433               	rlcf	(??_floorf+4)^(0+1280),w,c
  5928  0049A6  3233               	rrcf	(??_floorf+4)^(0+1280),f,c
  5929  0049A8  3232               	rrcf	(??_floorf+3)^(0+1280),f,c
  5930  0049AA  3231               	rrcf	(??_floorf+2)^(0+1280),f,c
  5931  0049AC  3230               	rrcf	(??_floorf+1)^(0+1280),f,c
  5932  0049AE  2E2F               	decfsz	??_floorf^(0+1280),f,c
  5933  0049B0  EFCD  F024         	goto	u7145
  5934  0049B4                     u7147:
  5935  0049B4  C530  F535         	movff	??_floorf+1,floorf@m
  5936  0049B8  C531  F536         	movff	??_floorf+2,floorf@m+1
  5937  0049BC  C532  F537         	movff	??_floorf+3,floorf@m+2
  5938  0049C0  C533  F538         	movff	??_floorf+4,floorf@m+3
  5939  0049C4  5035               	movf	floorf@m^(0+1280),w,c
  5940  0049C6  143B               	andwf	floorf@u^(0+1280),w,c
  5941  0049C8  6E2F               	movwf	??_floorf^(0+1280),c
  5942  0049CA  5036               	movf	(floorf@m+1)^(0+1280),w,c
  5943  0049CC  143C               	andwf	(floorf@u+1)^(0+1280),w,c
  5944  0049CE  6E30               	movwf	(??_floorf+1)^(0+1280),c
  5945  0049D0  5037               	movf	(floorf@m+2)^(0+1280),w,c
  5946  0049D2  143D               	andwf	(floorf@u+2)^(0+1280),w,c
  5947  0049D4  6E31               	movwf	(??_floorf+2)^(0+1280),c
  5948  0049D6  5038               	movf	(floorf@m+3)^(0+1280),w,c
  5949  0049D8  143E               	andwf	(floorf@u+3)^(0+1280),w,c
  5950  0049DA  6E32               	movwf	(??_floorf+3)^(0+1280),c
  5951  0049DC  502F               	movf	??_floorf^(0+1280),w,c
  5952  0049DE  1030               	iorwf	(??_floorf+1)^(0+1280),w,c
  5953  0049E0  1031               	iorwf	(??_floorf+2)^(0+1280),w,c
  5954  0049E2  1032               	iorwf	(??_floorf+3)^(0+1280),w,c
  5955  0049E4  A4D8               	btfss	status,2,c
  5956  0049E6  EFF7  F024         	goto	u7151
  5957  0049EA  EFF9  F024         	goto	u7150
  5958  0049EE                     u7151:
  5959  0049EE  EFFB  F024         	goto	l5539
  5960  0049F2                     u7150:
  5961  0049F2  EFB2  F024         	goto	l5531
  5962  0049F6                     l5539:
  5963  0049F6  C53B  F52F         	movff	floorf@u,??_floorf
  5964  0049FA  C53C  F530         	movff	floorf@u+1,??_floorf+1
  5965  0049FE  C53D  F531         	movff	floorf@u+2,??_floorf+2
  5966  004A02  C53E  F532         	movff	floorf@u+3,??_floorf+3
  5967  004A06  0E20               	movlw	32
  5968  004A08  EF0B  F025         	goto	u7160
  5969  004A0C                     u7165:
  5970  004A0C  90D8               	bcf	status,0,c
  5971  004A0E  3232               	rrcf	(??_floorf+3)^(0+1280),f,c
  5972  004A10  3231               	rrcf	(??_floorf+2)^(0+1280),f,c
  5973  004A12  3230               	rrcf	(??_floorf+1)^(0+1280),f,c
  5974  004A14  322F               	rrcf	??_floorf^(0+1280),f,c
  5975  004A16                     u7160:
  5976  004A16  2EE8               	decfsz	wreg,f,c
  5977  004A18  EF06  F025         	goto	u7165
  5978  004A1C  502F               	movf	??_floorf^(0+1280),w,c
  5979  004A1E  1030               	iorwf	(??_floorf+1)^(0+1280),w,c
  5980  004A20  1031               	iorwf	(??_floorf+2)^(0+1280),w,c
  5981  004A22  1032               	iorwf	(??_floorf+3)^(0+1280),w,c
  5982  004A24  B4D8               	btfsc	status,2,c
  5983  004A26  EF17  F025         	goto	u7171
  5984  004A2A  EF19  F025         	goto	u7170
  5985  004A2E                     u7171:
  5986  004A2E  EF21  F025         	goto	l1132
  5987  004A32                     u7170:
  5988  004A32  5035               	movf	floorf@m^(0+1280),w,c
  5989  004A34  263B               	addwf	floorf@u^(0+1280),f,c
  5990  004A36  5036               	movf	(floorf@m+1)^(0+1280),w,c
  5991  004A38  223C               	addwfc	(floorf@u+1)^(0+1280),f,c
  5992  004A3A  5037               	movf	(floorf@m+2)^(0+1280),w,c
  5993  004A3C  223D               	addwfc	(floorf@u+2)^(0+1280),f,c
  5994  004A3E  5038               	movf	(floorf@m+3)^(0+1280),w,c
  5995  004A40  223E               	addwfc	(floorf@u+3)^(0+1280),f,c
  5996  004A42                     l1132:
  5997  004A42  1C35               	comf	floorf@m^(0+1280),w,c
  5998  004A44  6E2F               	movwf	??_floorf^(0+1280),c
  5999  004A46  1C36               	comf	(floorf@m+1)^(0+1280),w,c
  6000  004A48  6E30               	movwf	(??_floorf+1)^(0+1280),c
  6001  004A4A  1C37               	comf	(floorf@m+2)^(0+1280),w,c
  6002  004A4C  6E31               	movwf	(??_floorf+2)^(0+1280),c
  6003  004A4E  1C38               	comf	(floorf@m+3)^(0+1280),w,c
  6004  004A50  6E32               	movwf	(??_floorf+3)^(0+1280),c
  6005  004A52  502F               	movf	??_floorf^(0+1280),w,c
  6006  004A54  163B               	andwf	floorf@u^(0+1280),f,c
  6007  004A56  5030               	movf	(??_floorf+1)^(0+1280),w,c
  6008  004A58  163C               	andwf	(floorf@u+1)^(0+1280),f,c
  6009  004A5A  5031               	movf	(??_floorf+2)^(0+1280),w,c
  6010  004A5C  163D               	andwf	(floorf@u+2)^(0+1280),f,c
  6011  004A5E  5032               	movf	(??_floorf+3)^(0+1280),w,c
  6012  004A60  163E               	andwf	(floorf@u+3)^(0+1280),f,c
  6013  004A62  EF77  F025         	goto	l5551
  6014  004A66                     l5543:
  6015  004A66  C53B  F52F         	movff	floorf@u,??_floorf
  6016  004A6A  C53C  F530         	movff	floorf@u+1,??_floorf+1
  6017  004A6E  C53D  F531         	movff	floorf@u+2,??_floorf+2
  6018  004A72  C53E  F532         	movff	floorf@u+3,??_floorf+3
  6019  004A76  0E20               	movlw	32
  6020  004A78  EF43  F025         	goto	u7180
  6021  004A7C                     u7185:
  6022  004A7C  90D8               	bcf	status,0,c
  6023  004A7E  3232               	rrcf	(??_floorf+3)^(0+1280),f,c
  6024  004A80  3231               	rrcf	(??_floorf+2)^(0+1280),f,c
  6025  004A82  3230               	rrcf	(??_floorf+1)^(0+1280),f,c
  6026  004A84  322F               	rrcf	??_floorf^(0+1280),f,c
  6027  004A86                     u7180:
  6028  004A86  2EE8               	decfsz	wreg,f,c
  6029  004A88  EF3E  F025         	goto	u7185
  6030  004A8C  502F               	movf	??_floorf^(0+1280),w,c
  6031  004A8E  1030               	iorwf	(??_floorf+1)^(0+1280),w,c
  6032  004A90  1031               	iorwf	(??_floorf+2)^(0+1280),w,c
  6033  004A92  1032               	iorwf	(??_floorf+3)^(0+1280),w,c
  6034  004A94  A4D8               	btfss	status,2,c
  6035  004A96  EF4F  F025         	goto	u7191
  6036  004A9A  EF51  F025         	goto	u7190
  6037  004A9E                     u7191:
  6038  004A9E  EF5B  F025         	goto	l5547
  6039  004AA2                     u7190:
  6040  004AA2  0E00               	movlw	0
  6041  004AA4  6E3B               	movwf	floorf@u^(0+1280),c
  6042  004AA6  0E00               	movlw	0
  6043  004AA8  6E3C               	movwf	(floorf@u+1)^(0+1280),c
  6044  004AAA  0E00               	movlw	0
  6045  004AAC  6E3D               	movwf	(floorf@u+2)^(0+1280),c
  6046  004AAE  0E00               	movlw	0
  6047  004AB0  6E3E               	movwf	(floorf@u+3)^(0+1280),c
  6048  004AB2  EF77  F025         	goto	l5551
  6049  004AB6                     l5547:
  6050  004AB6  90D8               	bcf	status,0,c
  6051  004AB8  343B               	rlcf	floorf@u^(0+1280),w,c
  6052  004ABA  6E2F               	movwf	??_floorf^(0+1280),c
  6053  004ABC  343C               	rlcf	(floorf@u+1)^(0+1280),w,c
  6054  004ABE  6E30               	movwf	(??_floorf+1)^(0+1280),c
  6055  004AC0  343D               	rlcf	(floorf@u+2)^(0+1280),w,c
  6056  004AC2  6E31               	movwf	(??_floorf+2)^(0+1280),c
  6057  004AC4  343E               	rlcf	(floorf@u+3)^(0+1280),w,c
  6058  004AC6  6E32               	movwf	(??_floorf+3)^(0+1280),c
  6059  004AC8  502F               	movf	??_floorf^(0+1280),w,c
  6060  004ACA  1030               	iorwf	(??_floorf+1)^(0+1280),w,c
  6061  004ACC  1031               	iorwf	(??_floorf+2)^(0+1280),w,c
  6062  004ACE  1032               	iorwf	(??_floorf+3)^(0+1280),w,c
  6063  004AD0  B4D8               	btfsc	status,2,c
  6064  004AD2  EF6D  F025         	goto	u7201
  6065  004AD6  EF6F  F025         	goto	u7200
  6066  004ADA                     u7201:
  6067  004ADA  EF77  F025         	goto	l5551
  6068  004ADE                     u7200:
  6069  004ADE  0E00               	movlw	0
  6070  004AE0  6E3B               	movwf	floorf@u^(0+1280),c
  6071  004AE2  0E00               	movlw	0
  6072  004AE4  6E3C               	movwf	(floorf@u+1)^(0+1280),c
  6073  004AE6  0E80               	movlw	128
  6074  004AE8  6E3D               	movwf	(floorf@u+2)^(0+1280),c
  6075  004AEA  0EBF               	movlw	191
  6076  004AEC  6E3E               	movwf	(floorf@u+3)^(0+1280),c
  6077  004AEE                     l5551:
  6078  004AEE  C53B  F52B         	movff	floorf@u,?_floorf
  6079  004AF2  C53C  F52C         	movff	floorf@u+1,?_floorf+1
  6080  004AF6  C53D  F52D         	movff	floorf@u+2,?_floorf+2
  6081  004AFA  C53E  F52E         	movff	floorf@u+3,?_floorf+3
  6082  004AFE                     l1129:
  6083  004AFE  0012               	return		;funcret
  6084  004B00                     __end_of_floorf:
  6085                           	callstack 0
  6086                           
  6087 ;; *************** function ___fpclassifyf *****************
  6088 ;; Defined at:
  6089 ;;		line 4 in file "C:\Program Files\Microchip\xc8\v2.32\pic\sources\c99\common\__fpclassifyf.c"
  6090 ;; Parameters:    Size  Location     Type
  6091 ;;  x               4    3[COMRAM] float 
  6092 ;; Auto vars:     Size  Location     Type
  6093 ;;  u               4   13[COMRAM] struct .
  6094 ;;  e               2   11[COMRAM] int 
  6095 ;; Return value:  Size  Location     Type
  6096 ;;                  2    3[COMRAM] int 
  6097 ;; Registers used:
  6098 ;;		wreg, status,2, status,0
  6099 ;; Tracked objects:
  6100 ;;		On entry : 0/0
  6101 ;;		On exit  : 0/0
  6102 ;;		Unchanged: 0/0
  6103 ;; Data sizes:     COMRAM   BANK5   BANK6   BANK7   BANK8   BANK9  BANK10  BANK11  BANK12  BANK13  BANK14  BANK15  BANK1
      +6  BANK17  BANK18  BANK19  BANK20  BANK21  BANK22  BANK23  BANK24  BANK25  BANK26  BANK27  BANK28  BANK29  BANK30  BANK3
      +1  BANK32  BANK33  BANK34  BANK35  BANK36
  6104 ;;      Params:         4       0       0       0       0       0       0       0       0       0       0       0       
      +0       0       0       0       0       0       0       0       0       0       0       0       0       0       0       
      +0       0       0       0       0       0
  6105 ;;      Locals:         6       0       0       0       0       0       0       0       0       0       0       0       
      +0       0       0       0       0       0       0       0       0       0       0       0       0       0       0       
      +0       0       0       0       0       0
  6106 ;;      Temps:          4       0       0       0       0       0       0       0       0       0       0       0       
      +0       0       0       0       0       0       0       0       0       0       0       0       0       0       0       
      +0       0       0       0       0       0
  6107 ;;      Totals:        14       0       0       0       0       0       0       0       0       0       0       0       
      +0       0       0       0       0       0       0       0       0       0       0       0       0       0       0       
      +0       0       0       0       0       0
  6108 ;;Total ram usage:       14 bytes
  6109 ;; Hardware stack levels used: 1
  6110 ;; Hardware stack levels required when called: 2
  6111 ;; This function calls:
  6112 ;;		Nothing
  6113 ;; This function is called by:
  6114 ;;		_efgtoa
  6115 ;; This function uses a non-reentrant model
  6116 ;;
  6117                           
  6118                           	psect	text18
  6119  0053A2                     __ptext18:
  6120                           	callstack 0
  6121  0053A2                     ___fpclassifyf:
  6122                           	callstack 120
  6123  0053A2  C5E1  F50E         	movff	___fpclassifyf@F465,___fpclassifyf@u
  6124  0053A6  C5E2  F50F         	movff	___fpclassifyf@F465+1,___fpclassifyf@u+1
  6125  0053AA  C5E3  F510         	movff	___fpclassifyf@F465+2,___fpclassifyf@u+2
  6126  0053AE  C5E4  F511         	movff	___fpclassifyf@F465+3,___fpclassifyf@u+3
  6127  0053B2  C504  F50E         	movff	___fpclassifyf@x,___fpclassifyf@u
  6128  0053B6  C505  F50F         	movff	___fpclassifyf@x+1,___fpclassifyf@u+1
  6129  0053BA  C506  F510         	movff	___fpclassifyf@x+2,___fpclassifyf@u+2
  6130  0053BE  C507  F511         	movff	___fpclassifyf@x+3,___fpclassifyf@u+3
  6131  0053C2  C50E  F508         	movff	___fpclassifyf@u,??___fpclassifyf
  6132  0053C6  C50F  F509         	movff	___fpclassifyf@u+1,??___fpclassifyf+1
  6133  0053CA  C510  F50A         	movff	___fpclassifyf@u+2,??___fpclassifyf+2
  6134  0053CE  C511  F50B         	movff	___fpclassifyf@u+3,??___fpclassifyf+3
  6135  0053D2  0E18               	movlw	24
  6136  0053D4  EFF1  F029         	goto	u6990
  6137  0053D8                     u6995:
  6138  0053D8  90D8               	bcf	status,0,c
  6139  0053DA  320B               	rrcf	(??___fpclassifyf+3)^(0+1280),f,c
  6140  0053DC  320A               	rrcf	(??___fpclassifyf+2)^(0+1280),f,c
  6141  0053DE  3209               	rrcf	(??___fpclassifyf+1)^(0+1280),f,c
  6142  0053E0  3208               	rrcf	??___fpclassifyf^(0+1280),f,c
  6143  0053E2                     u6990:
  6144  0053E2  2EE8               	decfsz	wreg,f,c
  6145  0053E4  EFEC  F029         	goto	u6995
  6146  0053E8  5008               	movf	??___fpclassifyf^(0+1280),w,c
  6147  0053EA  6E0C               	movwf	___fpclassifyf@e^(0+1280),c
  6148  0053EC  6A0D               	clrf	(___fpclassifyf@e+1)^(0+1280),c
  6149  0053EE  500C               	movf	___fpclassifyf@e^(0+1280),w,c
  6150  0053F0  100D               	iorwf	(___fpclassifyf@e+1)^(0+1280),w,c
  6151  0053F2  A4D8               	btfss	status,2,c
  6152  0053F4  EFFE  F029         	goto	u7001
  6153  0053F8  EF00  F02A         	goto	u7000
  6154  0053FC                     u7001:
  6155  0053FC  EF20  F02A         	goto	l5503
  6156  005400                     u7000:
  6157  005400  90D8               	bcf	status,0,c
  6158  005402  340E               	rlcf	___fpclassifyf@u^(0+1280),w,c
  6159  005404  6E08               	movwf	??___fpclassifyf^(0+1280),c
  6160  005406  340F               	rlcf	(___fpclassifyf@u+1)^(0+1280),w,c
  6161  005408  6E09               	movwf	(??___fpclassifyf+1)^(0+1280),c
  6162  00540A  3410               	rlcf	(___fpclassifyf@u+2)^(0+1280),w,c
  6163  00540C  6E0A               	movwf	(??___fpclassifyf+2)^(0+1280),c
  6164  00540E  3411               	rlcf	(___fpclassifyf@u+3)^(0+1280),w,c
  6165  005410  6E0B               	movwf	(??___fpclassifyf+3)^(0+1280),c
  6166  005412  5008               	movf	??___fpclassifyf^(0+1280),w,c
  6167  005414  1009               	iorwf	(??___fpclassifyf+1)^(0+1280),w,c
  6168  005416  100A               	iorwf	(??___fpclassifyf+2)^(0+1280),w,c
  6169  005418  100B               	iorwf	(??___fpclassifyf+3)^(0+1280),w,c
  6170  00541A  A4D8               	btfss	status,2,c
  6171  00541C  EF12  F02A         	goto	u7011
  6172  005420  EF14  F02A         	goto	u7010
  6173  005424                     u7011:
  6174  005424  EF1A  F02A         	goto	l5499
  6175  005428                     u7010:
  6176  005428  0E00               	movlw	0
  6177  00542A  6E05               	movwf	(?___fpclassifyf+1)^(0+1280),c
  6178  00542C  0E02               	movlw	2
  6179  00542E  6E04               	movwf	?___fpclassifyf^(0+1280),c
  6180  005430  EF4F  F02A         	goto	l1091
  6181  005434                     l5499:
  6182  005434  0E00               	movlw	0
  6183  005436  6E05               	movwf	(?___fpclassifyf+1)^(0+1280),c
  6184  005438  0E03               	movlw	3
  6185  00543A  6E04               	movwf	?___fpclassifyf^(0+1280),c
  6186  00543C  EF4F  F02A         	goto	l1091
  6187  005440                     l5503:
  6188  005440  280C               	incf	___fpclassifyf@e^(0+1280),w,c
  6189  005442  100D               	iorwf	(___fpclassifyf@e+1)^(0+1280),w,c
  6190  005444  A4D8               	btfss	status,2,c
  6191  005446  EF27  F02A         	goto	u7021
  6192  00544A  EF29  F02A         	goto	u7020
  6193  00544E                     u7021:
  6194  00544E  EF4B  F02A         	goto	l5509
  6195  005452                     u7020:
  6196  005452  C50E  F508         	movff	___fpclassifyf@u,??___fpclassifyf
  6197  005456  C50F  F509         	movff	___fpclassifyf@u+1,??___fpclassifyf+1
  6198  00545A  C510  F50A         	movff	___fpclassifyf@u+2,??___fpclassifyf+2
  6199  00545E  C511  F50B         	movff	___fpclassifyf@u+3,??___fpclassifyf+3
  6200  005462  0E09               	movlw	9
  6201  005464                     u7035:
  6202  005464  90D8               	bcf	status,0,c
  6203  005466  3608               	rlcf	??___fpclassifyf^(0+1280),f,c
  6204  005468  3609               	rlcf	(??___fpclassifyf+1)^(0+1280),f,c
  6205  00546A  360A               	rlcf	(??___fpclassifyf+2)^(0+1280),f,c
  6206  00546C  360B               	rlcf	(??___fpclassifyf+3)^(0+1280),f,c
  6207  00546E  2EE8               	decfsz	wreg,f,c
  6208  005470  EF32  F02A         	goto	u7035
  6209  005474  5008               	movf	??___fpclassifyf^(0+1280),w,c
  6210  005476  1009               	iorwf	(??___fpclassifyf+1)^(0+1280),w,c
  6211  005478  100A               	iorwf	(??___fpclassifyf+2)^(0+1280),w,c
  6212  00547A  100B               	iorwf	(??___fpclassifyf+3)^(0+1280),w,c
  6213  00547C  B4D8               	btfsc	status,2,c
  6214  00547E  EF43  F02A         	goto	u7041
  6215  005482  EF46  F02A         	goto	u7040
  6216  005486                     u7041:
  6217  005486  0E01               	movlw	1
  6218  005488  EF47  F02A         	goto	u7050
  6219  00548C                     u7040:
  6220  00548C  0E00               	movlw	0
  6221  00548E                     u7050:
  6222  00548E  6E04               	movwf	?___fpclassifyf^(0+1280),c
  6223  005490  6A05               	clrf	(?___fpclassifyf+1)^(0+1280),c
  6224  005492  EF4F  F02A         	goto	l1091
  6225  005496                     l5509:
  6226  005496  0E00               	movlw	0
  6227  005498  6E05               	movwf	(?___fpclassifyf+1)^(0+1280),c
  6228  00549A  0E04               	movlw	4
  6229  00549C  6E04               	movwf	?___fpclassifyf^(0+1280),c
  6230  00549E                     l1091:
  6231  00549E  0012               	return		;funcret
  6232  0054A0                     __end_of___fpclassifyf:
  6233                           	callstack 0
  6234                           
  6235 ;; *************** function ___fltol *****************
  6236 ;; Defined at:
  6237 ;;		line 43 in file "C:\Program Files\Microchip\xc8\v2.32\pic\sources\c99\common\fltol.c"
  6238 ;; Parameters:    Size  Location     Type
  6239 ;;  f1              4   67[COMRAM] int 
  6240 ;; Auto vars:     Size  Location     Type
  6241 ;;  exp1            1   76[COMRAM] unsigned char 
  6242 ;;  sign1           1   75[COMRAM] unsigned char 
  6243 ;; Return value:  Size  Location     Type
  6244 ;;                  4   67[COMRAM] long 
  6245 ;; Registers used:
  6246 ;;		wreg, status,2, status,0
  6247 ;; Tracked objects:
  6248 ;;		On entry : 0/0
  6249 ;;		On exit  : 0/0
  6250 ;;		Unchanged: 0/0
  6251 ;; Data sizes:     COMRAM   BANK5   BANK6   BANK7   BANK8   BANK9  BANK10  BANK11  BANK12  BANK13  BANK14  BANK15  BANK1
      +6  BANK17  BANK18  BANK19  BANK20  BANK21  BANK22  BANK23  BANK24  BANK25  BANK26  BANK27  BANK28  BANK29  BANK30  BANK3
      +1  BANK32  BANK33  BANK34  BANK35  BANK36
  6252 ;;      Params:         4       0       0       0       0       0       0       0       0       0       0       0       
      +0       0       0       0       0       0       0       0       0       0       0       0       0       0       0       
      +0       0       0       0       0       0
  6253 ;;      Locals:         2       0       0       0       0       0       0       0       0       0       0       0       
      +0       0       0       0       0       0       0       0       0       0       0       0       0       0       0       
      +0       0       0       0       0       0
  6254 ;;      Temps:          4       0       0       0       0       0       0       0       0       0       0       0       
      +0       0       0       0       0       0       0       0       0       0       0       0       0       0       0       
      +0       0       0       0       0       0
  6255 ;;      Totals:        10       0       0       0       0       0       0       0       0       0       0       0       
      +0       0       0       0       0       0       0       0       0       0       0       0       0       0       0       
      +0       0       0       0       0       0
  6256 ;;Total ram usage:       10 bytes
  6257 ;; Hardware stack levels used: 1
  6258 ;; Hardware stack levels required when called: 2
  6259 ;; This function calls:
  6260 ;;		Nothing
  6261 ;; This function is called by:
  6262 ;;		_main
  6263 ;;		_efgtoa
  6264 ;; This function uses a non-reentrant model
  6265 ;;
  6266                           
  6267                           	psect	text19
  6268  005198                     __ptext19:
  6269                           	callstack 0
  6270  005198                     ___fltol:
  6271                           	callstack 120
  6272  005198  3446               	rlcf	(___fltol@f1+2)^(0+1280),w,c
  6273  00519A  3447               	rlcf	(___fltol@f1+3)^(0+1280),w,c
  6274  00519C  6E4D               	movwf	___fltol@exp1^(0+1280),c
  6275  00519E  504D               	movf	___fltol@exp1^(0+1280),w,c
  6276  0051A0  A4D8               	btfss	status,2,c
  6277  0051A2  EFD5  F028         	goto	u6811
  6278  0051A6  EFD7  F028         	goto	u6810
  6279  0051AA                     u6811:
  6280  0051AA  EFE1  F028         	goto	l5393
  6281  0051AE                     u6810:
  6282  0051AE                     l5389:
  6283  0051AE  0E00               	movlw	0
  6284  0051B0  6E44               	movwf	?___fltol^(0+1280),c
  6285  0051B2  0E00               	movlw	0
  6286  0051B4  6E45               	movwf	(?___fltol+1)^(0+1280),c
  6287  0051B6  0E00               	movlw	0
  6288  0051B8  6E46               	movwf	(?___fltol+2)^(0+1280),c
  6289  0051BA  0E00               	movlw	0
  6290  0051BC  6E47               	movwf	(?___fltol+3)^(0+1280),c
  6291  0051BE  EF4E  F029         	goto	l492
  6292  0051C2                     l5393:
  6293  0051C2  C544  F548         	movff	___fltol@f1,??___fltol
  6294  0051C6  C545  F549         	movff	___fltol@f1+1,??___fltol+1
  6295  0051CA  C546  F54A         	movff	___fltol@f1+2,??___fltol+2
  6296  0051CE  C547  F54B         	movff	___fltol@f1+3,??___fltol+3
  6297  0051D2  0E20               	movlw	32
  6298  0051D4  EFF1  F028         	goto	u6820
  6299  0051D8                     u6825:
  6300  0051D8  90D8               	bcf	status,0,c
  6301  0051DA  324B               	rrcf	(??___fltol+3)^(0+1280),f,c
  6302  0051DC  324A               	rrcf	(??___fltol+2)^(0+1280),f,c
  6303  0051DE  3249               	rrcf	(??___fltol+1)^(0+1280),f,c
  6304  0051E0  3248               	rrcf	??___fltol^(0+1280),f,c
  6305  0051E2                     u6820:
  6306  0051E2  2EE8               	decfsz	wreg,f,c
  6307  0051E4  EFEC  F028         	goto	u6825
  6308  0051E8  5048               	movf	??___fltol^(0+1280),w,c
  6309  0051EA  6E4C               	movwf	___fltol@sign1^(0+1280),c
  6310  0051EC  8E46               	bsf	(___fltol@f1+2)^(0+1280),7,c
  6311  0051EE  0EFF               	movlw	255
  6312  0051F0  1644               	andwf	___fltol@f1^(0+1280),f,c
  6313  0051F2  0EFF               	movlw	255
  6314  0051F4  1645               	andwf	(___fltol@f1+1)^(0+1280),f,c
  6315  0051F6  0EFF               	movlw	255
  6316  0051F8  1646               	andwf	(___fltol@f1+2)^(0+1280),f,c
  6317  0051FA  0E00               	movlw	0
  6318  0051FC  1647               	andwf	(___fltol@f1+3)^(0+1280),f,c
  6319  0051FE  0E96               	movlw	150
  6320  005200  5E4D               	subwf	___fltol@exp1^(0+1280),f,c
  6321  005202  BE4D               	btfsc	___fltol@exp1^(0+1280),7,c
  6322  005204  EF08  F029         	goto	u6830
  6323  005208  EF06  F029         	goto	u6831
  6324  00520C                     u6831:
  6325  00520C  EF1E  F029         	goto	l5413
  6326  005210                     u6830:
  6327  005210  504D               	movf	___fltol@exp1^(0+1280),w,c
  6328  005212  0A80               	xorlw	128
  6329  005214  0F97               	addlw	151
  6330  005216  B0D8               	btfsc	status,0,c
  6331  005218  EF10  F029         	goto	u6841
  6332  00521C  EF12  F029         	goto	u6840
  6333  005220                     u6841:
  6334  005220  EF14  F029         	goto	l5409
  6335  005224                     u6840:
  6336  005224  EFD7  F028         	goto	l5389
  6337  005228                     l5409:
  6338  005228  90D8               	bcf	status,0,c
  6339  00522A  3247               	rrcf	(___fltol@f1+3)^(0+1280),f,c
  6340  00522C  3246               	rrcf	(___fltol@f1+2)^(0+1280),f,c
  6341  00522E  3245               	rrcf	(___fltol@f1+1)^(0+1280),f,c
  6342  005230  3244               	rrcf	___fltol@f1^(0+1280),f,c
  6343  005232  3E4D               	incfsz	___fltol@exp1^(0+1280),f,c
  6344  005234  EF14  F029         	goto	l5409
  6345  005238  EF36  F029         	goto	l5423
  6346  00523C                     l5413:
  6347  00523C  0E1F               	movlw	31
  6348  00523E  644D               	cpfsgt	___fltol@exp1^(0+1280),c
  6349  005240  EF24  F029         	goto	u6851
  6350  005244  EF26  F029         	goto	u6850
  6351  005248                     u6851:
  6352  005248  EF2E  F029         	goto	l5421
  6353  00524C                     u6850:
  6354  00524C  EFD7  F028         	goto	l5389
  6355  005250                     l5419:
  6356  005250  90D8               	bcf	status,0,c
  6357  005252  3644               	rlcf	___fltol@f1^(0+1280),f,c
  6358  005254  3645               	rlcf	(___fltol@f1+1)^(0+1280),f,c
  6359  005256  3646               	rlcf	(___fltol@f1+2)^(0+1280),f,c
  6360  005258  3647               	rlcf	(___fltol@f1+3)^(0+1280),f,c
  6361  00525A  064D               	decf	___fltol@exp1^(0+1280),f,c
  6362  00525C                     l5421:
  6363  00525C  504D               	movf	___fltol@exp1^(0+1280),w,c
  6364  00525E  A4D8               	btfss	status,2,c
  6365  005260  EF34  F029         	goto	u6861
  6366  005264  EF36  F029         	goto	u6860
  6367  005268                     u6861:
  6368  005268  EF28  F029         	goto	l5419
  6369  00526C                     u6860:
  6370  00526C                     l5423:
  6371  00526C  504C               	movf	___fltol@sign1^(0+1280),w,c
  6372  00526E  B4D8               	btfsc	status,2,c
  6373  005270  EF3C  F029         	goto	u6871
  6374  005274  EF3E  F029         	goto	u6870
  6375  005278                     u6871:
  6376  005278  EF46  F029         	goto	l5427
  6377  00527C                     u6870:
  6378  00527C  1E47               	comf	(___fltol@f1+3)^(0+1280),f,c
  6379  00527E  1E46               	comf	(___fltol@f1+2)^(0+1280),f,c
  6380  005280  1E45               	comf	(___fltol@f1+1)^(0+1280),f,c
  6381  005282  6C44               	negf	___fltol@f1^(0+1280),c
  6382  005284  0E00               	movlw	0
  6383  005286  2245               	addwfc	(___fltol@f1+1)^(0+1280),f,c
  6384  005288  2246               	addwfc	(___fltol@f1+2)^(0+1280),f,c
  6385  00528A  2247               	addwfc	(___fltol@f1+3)^(0+1280),f,c
  6386  00528C                     l5427:
  6387  00528C  C544  F544         	movff	___fltol@f1,?___fltol
  6388  005290  C545  F545         	movff	___fltol@f1+1,?___fltol+1
  6389  005294  C546  F546         	movff	___fltol@f1+2,?___fltol+2
  6390  005298  C547  F547         	movff	___fltol@f1+3,?___fltol+3
  6391  00529C                     l492:
  6392  00529C  0012               	return		;funcret
  6393  00529E                     __end_of___fltol:
  6394                           	callstack 0
  6395                           
  6396 ;; *************** function ___flsub *****************
  6397 ;; Defined at:
  6398 ;;		line 245 in file "C:\Program Files\Microchip\xc8\v2.32\pic\sources\c99\common\sprcadd.c"
  6399 ;; Parameters:    Size  Location     Type
  6400 ;;  b               4   67[COMRAM] long 
  6401 ;;  a               4   71[COMRAM] long 
  6402 ;; Auto vars:     Size  Location     Type
  6403 ;;		None
  6404 ;; Return value:  Size  Location     Type
  6405 ;;                  4   67[COMRAM] long 
  6406 ;; Registers used:
  6407 ;;		wreg, status,2, status,0, cstack
  6408 ;; Tracked objects:
  6409 ;;		On entry : 0/0
  6410 ;;		On exit  : 0/0
  6411 ;;		Unchanged: 0/0
  6412 ;; Data sizes:     COMRAM   BANK5   BANK6   BANK7   BANK8   BANK9  BANK10  BANK11  BANK12  BANK13  BANK14  BANK15  BANK1
      +6  BANK17  BANK18  BANK19  BANK20  BANK21  BANK22  BANK23  BANK24  BANK25  BANK26  BANK27  BANK28  BANK29  BANK30  BANK3
      +1  BANK32  BANK33  BANK34  BANK35  BANK36
  6413 ;;      Params:         8       0       0       0       0       0       0       0       0       0       0       0       
      +0       0       0       0       0       0       0       0       0       0       0       0       0       0       0       
      +0       0       0       0       0       0
  6414 ;;      Locals:         0       0       0       0       0       0       0       0       0       0       0       0       
      +0       0       0       0       0       0       0       0       0       0       0       0       0       0       0       
      +0       0       0       0       0       0
  6415 ;;      Temps:          0       0       0       0       0       0       0       0       0       0       0       0       
      +0       0       0       0       0       0       0       0       0       0       0       0       0       0       0       
      +0       0       0       0       0       0
  6416 ;;      Totals:         8       0       0       0       0       0       0       0       0       0       0       0       
      +0       0       0       0       0       0       0       0       0       0       0       0       0       0       0       
      +0       0       0       0       0       0
  6417 ;;Total ram usage:        8 bytes
  6418 ;; Hardware stack levels used: 1
  6419 ;; Hardware stack levels required when called: 3
  6420 ;; This function calls:
  6421 ;;		___fladd
  6422 ;; This function is called by:
  6423 ;;		_efgtoa
  6424 ;; This function uses a non-reentrant model
  6425 ;;
  6426                           
  6427                           	psect	text20
  6428  005E86                     __ptext20:
  6429                           	callstack 0
  6430  005E86                     ___flsub:
  6431                           	callstack 119
  6432  005E86  0E00               	movlw	0
  6433  005E88  1A48               	xorwf	___flsub@a^(0+1280),f,c
  6434  005E8A  0E00               	movlw	0
  6435  005E8C  1A49               	xorwf	(___flsub@a+1)^(0+1280),f,c
  6436  005E8E  0E00               	movlw	0
  6437  005E90  1A4A               	xorwf	(___flsub@a+2)^(0+1280),f,c
  6438  005E92  0E80               	movlw	128
  6439  005E94  1A4B               	xorwf	(___flsub@a+3)^(0+1280),f,c
  6440  005E96  C544  F504         	movff	___flsub@b,___fladd@b
  6441  005E9A  C545  F505         	movff	___flsub@b+1,___fladd@b+1
  6442  005E9E  C546  F506         	movff	___flsub@b+2,___fladd@b+2
  6443  005EA2  C547  F507         	movff	___flsub@b+3,___fladd@b+3
  6444  005EA6  C548  F508         	movff	___flsub@a,___fladd@a
  6445  005EAA  C549  F509         	movff	___flsub@a+1,___fladd@a+1
  6446  005EAE  C54A  F50A         	movff	___flsub@a+2,___fladd@a+2
  6447  005EB2  C54B  F50B         	movff	___flsub@a+3,___fladd@a+3
  6448  005EB6  ECE8  F01C         	call	___fladd	;wreg free
  6449  005EBA  C504  F544         	movff	?___fladd,?___flsub
  6450  005EBE  C505  F545         	movff	?___fladd+1,?___flsub+1
  6451  005EC2  C506  F546         	movff	?___fladd+2,?___flsub+2
  6452  005EC6  C507  F547         	movff	?___fladd+3,?___flsub+3
  6453  005ECA  0012               	return		;funcret
  6454  005ECC                     __end_of___flsub:
  6455                           	callstack 0
  6456                           
  6457 ;; *************** function ___fladd *****************
  6458 ;; Defined at:
  6459 ;;		line 10 in file "C:\Program Files\Microchip\xc8\v2.32\pic\sources\c99\common\sprcadd.c"
  6460 ;; Parameters:    Size  Location     Type
  6461 ;;  b               4    3[COMRAM] long 
  6462 ;;  a               4    7[COMRAM] long 
  6463 ;; Auto vars:     Size  Location     Type
  6464 ;;  grs             1   18[COMRAM] unsigned char 
  6465 ;;  bexp            1   17[COMRAM] unsigned char 
  6466 ;;  aexp            1   16[COMRAM] unsigned char 
  6467 ;;  signs           1   15[COMRAM] unsigned char 
  6468 ;; Return value:  Size  Location     Type
  6469 ;;                  4    3[COMRAM] unsigned char 
  6470 ;; Registers used:
  6471 ;;		wreg, status,2, status,0
  6472 ;; Tracked objects:
  6473 ;;		On entry : 0/0
  6474 ;;		On exit  : 0/0
  6475 ;;		Unchanged: 0/0
  6476 ;; Data sizes:     COMRAM   BANK5   BANK6   BANK7   BANK8   BANK9  BANK10  BANK11  BANK12  BANK13  BANK14  BANK15  BANK1
      +6  BANK17  BANK18  BANK19  BANK20  BANK21  BANK22  BANK23  BANK24  BANK25  BANK26  BANK27  BANK28  BANK29  BANK30  BANK3
      +1  BANK32  BANK33  BANK34  BANK35  BANK36
  6477 ;;      Params:         8       0       0       0       0       0       0       0       0       0       0       0       
      +0       0       0       0       0       0       0       0       0       0       0       0       0       0       0       
      +0       0       0       0       0       0
  6478 ;;      Locals:         4       0       0       0       0       0       0       0       0       0       0       0       
      +0       0       0       0       0       0       0       0       0       0       0       0       0       0       0       
      +0       0       0       0       0       0
  6479 ;;      Temps:          4       0       0       0       0       0       0       0       0       0       0       0       
      +0       0       0       0       0       0       0       0       0       0       0       0       0       0       0       
      +0       0       0       0       0       0
  6480 ;;      Totals:        16       0       0       0       0       0       0       0       0       0       0       0       
      +0       0       0       0       0       0       0       0       0       0       0       0       0       0       0       
      +0       0       0       0       0       0
  6481 ;;Total ram usage:       16 bytes
  6482 ;; Hardware stack levels used: 1
  6483 ;; Hardware stack levels required when called: 2
  6484 ;; This function calls:
  6485 ;;		Nothing
  6486 ;; This function is called by:
  6487 ;;		___flsub
  6488 ;;		_efgtoa
  6489 ;; This function uses a non-reentrant model
  6490 ;;
  6491                           
  6492                           	psect	text21
  6493  0039D0                     __ptext21:
  6494                           	callstack 0
  6495  0039D0                     ___fladd:
  6496                           	callstack 119
  6497  0039D0  5007               	movf	(___fladd@b+3)^(0+1280),w,c
  6498  0039D2  0B80               	andlw	128
  6499  0039D4  6E10               	movwf	___fladd@signs^(0+1280),c
  6500  0039D6  5007               	movf	(___fladd@b+3)^(0+1280),w,c
  6501  0039D8  2407               	addwf	(___fladd@b+3)^(0+1280),w,c
  6502  0039DA  6E12               	movwf	___fladd@bexp^(0+1280),c
  6503  0039DC  AE06               	btfss	(___fladd@b+2)^(0+1280),7,c
  6504  0039DE  EFF3  F01C         	goto	u5751
  6505  0039E2  EFF5  F01C         	goto	u5750
  6506  0039E6                     u5751:
  6507  0039E6  EFF6  F01C         	goto	l4763
  6508  0039EA                     u5750:
  6509  0039EA  8012               	bsf	___fladd@bexp^(0+1280),0,c
  6510  0039EC                     l4763:
  6511  0039EC  5012               	movf	___fladd@bexp^(0+1280),w,c
  6512  0039EE  B4D8               	btfsc	status,2,c
  6513  0039F0  EFFC  F01C         	goto	u5761
  6514  0039F4  EFFE  F01C         	goto	u5760
  6515  0039F8                     u5761:
  6516  0039F8  EF13  F01D         	goto	l4773
  6517  0039FC                     u5760:
  6518  0039FC  2812               	incf	___fladd@bexp^(0+1280),w,c
  6519  0039FE  A4D8               	btfss	status,2,c
  6520  003A00  EF04  F01D         	goto	u5771
  6521  003A04  EF06  F01D         	goto	u5770
  6522  003A08                     u5771:
  6523  003A08  EF0E  F01D         	goto	l4769
  6524  003A0C                     u5770:
  6525  003A0C  0E00               	movlw	0
  6526  003A0E  6E04               	movwf	___fladd@b^(0+1280),c
  6527  003A10  0E00               	movlw	0
  6528  003A12  6E05               	movwf	(___fladd@b+1)^(0+1280),c
  6529  003A14  0E00               	movlw	0
  6530  003A16  6E06               	movwf	(___fladd@b+2)^(0+1280),c
  6531  003A18  0E00               	movlw	0
  6532  003A1A  6E07               	movwf	(___fladd@b+3)^(0+1280),c
  6533  003A1C                     l4769:
  6534  003A1C  8E06               	bsf	(___fladd@b+2)^(0+1280),7,c
  6535  003A1E  0E00               	movlw	0
  6536  003A20  6E07               	movwf	(___fladd@b+3)^(0+1280),c
  6537  003A22  EF1B  F01D         	goto	l4775
  6538  003A26                     l4773:
  6539  003A26  0E00               	movlw	0
  6540  003A28  6E04               	movwf	___fladd@b^(0+1280),c
  6541  003A2A  0E00               	movlw	0
  6542  003A2C  6E05               	movwf	(___fladd@b+1)^(0+1280),c
  6543  003A2E  0E00               	movlw	0
  6544  003A30  6E06               	movwf	(___fladd@b+2)^(0+1280),c
  6545  003A32  0E00               	movlw	0
  6546  003A34  6E07               	movwf	(___fladd@b+3)^(0+1280),c
  6547  003A36                     l4775:
  6548  003A36  500B               	movf	(___fladd@a+3)^(0+1280),w,c
  6549  003A38  0B80               	andlw	128
  6550  003A3A  6E11               	movwf	___fladd@aexp^(0+1280),c
  6551  003A3C  5010               	movf	___fladd@signs^(0+1280),w,c
  6552  003A3E  1811               	xorwf	___fladd@aexp^(0+1280),w,c
  6553  003A40  B4D8               	btfsc	status,2,c
  6554  003A42  EF25  F01D         	goto	u5781
  6555  003A46  EF27  F01D         	goto	u5780
  6556  003A4A                     u5781:
  6557  003A4A  EF28  F01D         	goto	l4781
  6558  003A4E                     u5780:
  6559  003A4E  8C10               	bsf	___fladd@signs^(0+1280),6,c
  6560  003A50                     l4781:
  6561  003A50  500B               	movf	(___fladd@a+3)^(0+1280),w,c
  6562  003A52  240B               	addwf	(___fladd@a+3)^(0+1280),w,c
  6563  003A54  6E11               	movwf	___fladd@aexp^(0+1280),c
  6564  003A56  AE0A               	btfss	(___fladd@a+2)^(0+1280),7,c
  6565  003A58  EF30  F01D         	goto	u5791
  6566  003A5C  EF32  F01D         	goto	u5790
  6567  003A60                     u5791:
  6568  003A60  EF33  F01D         	goto	l4787
  6569  003A64                     u5790:
  6570  003A64  8011               	bsf	___fladd@aexp^(0+1280),0,c
  6571  003A66                     l4787:
  6572  003A66  5011               	movf	___fladd@aexp^(0+1280),w,c
  6573  003A68  B4D8               	btfsc	status,2,c
  6574  003A6A  EF39  F01D         	goto	u5801
  6575  003A6E  EF3B  F01D         	goto	u5800
  6576  003A72                     u5801:
  6577  003A72  EF50  F01D         	goto	l4797
  6578  003A76                     u5800:
  6579  003A76  2811               	incf	___fladd@aexp^(0+1280),w,c
  6580  003A78  A4D8               	btfss	status,2,c
  6581  003A7A  EF41  F01D         	goto	u5811
  6582  003A7E  EF43  F01D         	goto	u5810
  6583  003A82                     u5811:
  6584  003A82  EF4B  F01D         	goto	l4793
  6585  003A86                     u5810:
  6586  003A86  0E00               	movlw	0
  6587  003A88  6E08               	movwf	___fladd@a^(0+1280),c
  6588  003A8A  0E00               	movlw	0
  6589  003A8C  6E09               	movwf	(___fladd@a+1)^(0+1280),c
  6590  003A8E  0E00               	movlw	0
  6591  003A90  6E0A               	movwf	(___fladd@a+2)^(0+1280),c
  6592  003A92  0E00               	movlw	0
  6593  003A94  6E0B               	movwf	(___fladd@a+3)^(0+1280),c
  6594  003A96                     l4793:
  6595  003A96  8E0A               	bsf	(___fladd@a+2)^(0+1280),7,c
  6596  003A98  0E00               	movlw	0
  6597  003A9A  6E0B               	movwf	(___fladd@a+3)^(0+1280),c
  6598  003A9C  EF58  F01D         	goto	l4799
  6599  003AA0                     l4797:
  6600  003AA0  0E00               	movlw	0
  6601  003AA2  6E08               	movwf	___fladd@a^(0+1280),c
  6602  003AA4  0E00               	movlw	0
  6603  003AA6  6E09               	movwf	(___fladd@a+1)^(0+1280),c
  6604  003AA8  0E00               	movlw	0
  6605  003AAA  6E0A               	movwf	(___fladd@a+2)^(0+1280),c
  6606  003AAC  0E00               	movlw	0
  6607  003AAE  6E0B               	movwf	(___fladd@a+3)^(0+1280),c
  6608  003AB0                     l4799:
  6609  003AB0  5012               	movf	___fladd@bexp^(0+1280),w,c
  6610  003AB2  5C11               	subwf	___fladd@aexp^(0+1280),w,c
  6611  003AB4  B0D8               	btfsc	status,0,c
  6612  003AB6  EF5F  F01D         	goto	u5821
  6613  003ABA  EF61  F01D         	goto	u5820
  6614  003ABE                     u5821:
  6615  003ABE  EF88  F01D         	goto	l4835
  6616  003AC2                     u5820:
  6617  003AC2  AC10               	btfss	___fladd@signs^(0+1280),6,c
  6618  003AC4  EF66  F01D         	goto	u5831
  6619  003AC8  EF68  F01D         	goto	u5830
  6620  003ACC                     u5831:
  6621  003ACC  EF6A  F01D         	goto	l4805
  6622  003AD0                     u5830:
  6623  003AD0  0E80               	movlw	128
  6624  003AD2  1A10               	xorwf	___fladd@signs^(0+1280),f,c
  6625  003AD4                     l4805:
  6626  003AD4  C512  F513         	movff	___fladd@bexp,___fladd@grs
  6627  003AD8  C511  F512         	movff	___fladd@aexp,___fladd@bexp
  6628  003ADC  C513  F511         	movff	___fladd@grs,___fladd@aexp
  6629  003AE0  C504  F513         	movff	___fladd@b,___fladd@grs
  6630  003AE4  C508  F504         	movff	___fladd@a,___fladd@b
  6631  003AE8  C513  F508         	movff	___fladd@grs,___fladd@a
  6632  003AEC  C505  F513         	movff	___fladd@b+1,___fladd@grs
  6633  003AF0  C509  F505         	movff	___fladd@a+1,___fladd@b+1
  6634  003AF4  C513  F509         	movff	___fladd@grs,___fladd@a+1
  6635  003AF8  C506  F513         	movff	___fladd@b+2,___fladd@grs
  6636  003AFC  C50A  F506         	movff	___fladd@a+2,___fladd@b+2
  6637  003B00  C513  F50A         	movff	___fladd@grs,___fladd@a+2
  6638  003B04  C507  F513         	movff	___fladd@b+3,___fladd@grs
  6639  003B08  C50B  F507         	movff	___fladd@a+3,___fladd@b+3
  6640  003B0C  C513  F50B         	movff	___fladd@grs,___fladd@a+3
  6641  003B10                     l4835:
  6642  003B10  0E00               	movlw	0
  6643  003B12  6E13               	movwf	___fladd@grs^(0+1280),c
  6644  003B14  5012               	movf	___fladd@bexp^(0+1280),w,c
  6645  003B16  C511  F50C         	movff	___fladd@aexp,??___fladd
  6646  003B1A  6A0D               	clrf	(??___fladd+1)^(0+1280),c
  6647  003B1C  5E0C               	subwf	??___fladd^(0+1280),f,c
  6648  003B1E  0E00               	movlw	0
  6649  003B20  5A0D               	subwfb	(??___fladd+1)^(0+1280),f,c
  6650  003B22  BE0D               	btfsc	(??___fladd+1)^(0+1280),7,c
  6651  003B24  EF9D  F01D         	goto	u5841
  6652  003B28  500D               	movf	(??___fladd+1)^(0+1280),w,c
  6653  003B2A  E109               	bnz	u5840
  6654  003B2C  0E1A               	movlw	26
  6655  003B2E  5C0C               	subwf	??___fladd^(0+1280),w,c
  6656  003B30  A0D8               	btfss	status,0,c
  6657  003B32  EF9D  F01D         	goto	u5841
  6658  003B36  EF9F  F01D         	goto	u5840
  6659  003B3A                     u5841:
  6660  003B3A  EFD6  F01D         	goto	l724
  6661  003B3E                     u5840:
  6662  003B3E  5004               	movf	___fladd@b^(0+1280),w,c
  6663  003B40  1005               	iorwf	(___fladd@b+1)^(0+1280),w,c
  6664  003B42  1006               	iorwf	(___fladd@b+2)^(0+1280),w,c
  6665  003B44  1007               	iorwf	(___fladd@b+3)^(0+1280),w,c
  6666  003B46  A4D8               	btfss	status,2,c
  6667  003B48  EFA8  F01D         	goto	u5851
  6668  003B4C  EFAB  F01D         	goto	u5850
  6669  003B50                     u5851:
  6670  003B50  0E01               	movlw	1
  6671  003B52  EFAC  F01D         	goto	u5860
  6672  003B56                     u5850:
  6673  003B56  0E00               	movlw	0
  6674  003B58                     u5860:
  6675  003B58  6E13               	movwf	___fladd@grs^(0+1280),c
  6676  003B5A  0E00               	movlw	0
  6677  003B5C  6E04               	movwf	___fladd@b^(0+1280),c
  6678  003B5E  0E00               	movlw	0
  6679  003B60  6E05               	movwf	(___fladd@b+1)^(0+1280),c
  6680  003B62  0E00               	movlw	0
  6681  003B64  6E06               	movwf	(___fladd@b+2)^(0+1280),c
  6682  003B66  0E00               	movlw	0
  6683  003B68  6E07               	movwf	(___fladd@b+3)^(0+1280),c
  6684  003B6A  C511  F512         	movff	___fladd@aexp,___fladd@bexp
  6685  003B6E  EFDF  F01D         	goto	l723
  6686  003B72                     l725:
  6687  003B72  A013               	btfss	___fladd@grs^(0+1280),0,c
  6688  003B74  EFBE  F01D         	goto	u5871
  6689  003B78  EFC0  F01D         	goto	u5870
  6690  003B7C                     u5871:
  6691  003B7C  EFC6  F01D         	goto	l4847
  6692  003B80                     u5870:
  6693  003B80  90D8               	bcf	status,0,c
  6694  003B82  3013               	rrcf	___fladd@grs^(0+1280),w,c
  6695  003B84  0901               	iorlw	1
  6696  003B86  6E13               	movwf	___fladd@grs^(0+1280),c
  6697  003B88  EFC8  F01D         	goto	l4849
  6698  003B8C                     l4847:
  6699  003B8C  90D8               	bcf	status,0,c
  6700  003B8E  3213               	rrcf	___fladd@grs^(0+1280),f,c
  6701  003B90                     l4849:
  6702  003B90  A004               	btfss	___fladd@b^(0+1280),0,c
  6703  003B92  EFCD  F01D         	goto	u5881
  6704  003B96  EFCF  F01D         	goto	u5880
  6705  003B9A                     u5881:
  6706  003B9A  EFD0  F01D         	goto	l4853
  6707  003B9E                     u5880:
  6708  003B9E  8E13               	bsf	___fladd@grs^(0+1280),7,c
  6709  003BA0                     l4853:
  6710  003BA0  3407               	rlcf	(___fladd@b+3)^(0+1280),w,c
  6711  003BA2  3207               	rrcf	(___fladd@b+3)^(0+1280),f,c
  6712  003BA4  3206               	rrcf	(___fladd@b+2)^(0+1280),f,c
  6713  003BA6  3205               	rrcf	(___fladd@b+1)^(0+1280),f,c
  6714  003BA8  3204               	rrcf	___fladd@b^(0+1280),f,c
  6715  003BAA  2A12               	incf	___fladd@bexp^(0+1280),f,c
  6716  003BAC                     l724:
  6717  003BAC  5011               	movf	___fladd@aexp^(0+1280),w,c
  6718  003BAE  5C12               	subwf	___fladd@bexp^(0+1280),w,c
  6719  003BB0  A0D8               	btfss	status,0,c
  6720  003BB2  EFDD  F01D         	goto	u5891
  6721  003BB6  EFDF  F01D         	goto	u5890
  6722  003BBA                     u5891:
  6723  003BBA  EFB9  F01D         	goto	l725
  6724  003BBE                     u5890:
  6725  003BBE                     l723:
  6726  003BBE  BC10               	btfsc	___fladd@signs^(0+1280),6,c
  6727  003BC0  EFE4  F01D         	goto	u5901
  6728  003BC4  EFE6  F01D         	goto	u5900
  6729  003BC8                     u5901:
  6730  003BC8  EF26  F01E         	goto	l4881
  6731  003BCC                     u5900:
  6732  003BCC  5012               	movf	___fladd@bexp^(0+1280),w,c
  6733  003BCE  A4D8               	btfss	status,2,c
  6734  003BD0  EFEC  F01D         	goto	u5911
  6735  003BD4  EFEE  F01D         	goto	u5910
  6736  003BD8                     u5911:
  6737  003BD8  EFF8  F01D         	goto	l4863
  6738  003BDC                     u5910:
  6739  003BDC  0E00               	movlw	0
  6740  003BDE  6E04               	movwf	?___fladd^(0+1280),c
  6741  003BE0  0E00               	movlw	0
  6742  003BE2  6E05               	movwf	(?___fladd+1)^(0+1280),c
  6743  003BE4  0E00               	movlw	0
  6744  003BE6  6E06               	movwf	(?___fladd+2)^(0+1280),c
  6745  003BE8  0E00               	movlw	0
  6746  003BEA  6E07               	movwf	(?___fladd+3)^(0+1280),c
  6747  003BEC  EF47  F01F         	goto	l732
  6748  003BF0                     l4863:
  6749  003BF0  5008               	movf	___fladd@a^(0+1280),w,c
  6750  003BF2  2604               	addwf	___fladd@b^(0+1280),f,c
  6751  003BF4  5009               	movf	(___fladd@a+1)^(0+1280),w,c
  6752  003BF6  2205               	addwfc	(___fladd@b+1)^(0+1280),f,c
  6753  003BF8  500A               	movf	(___fladd@a+2)^(0+1280),w,c
  6754  003BFA  2206               	addwfc	(___fladd@b+2)^(0+1280),f,c
  6755  003BFC  500B               	movf	(___fladd@a+3)^(0+1280),w,c
  6756  003BFE  2207               	addwfc	(___fladd@b+3)^(0+1280),f,c
  6757  003C00  A007               	btfss	(___fladd@b+3)^(0+1280),0,c
  6758  003C02  EF05  F01E         	goto	u5921
  6759  003C06  EF07  F01E         	goto	u5920
  6760  003C0A                     u5921:
  6761  003C0A  EFB3  F01E         	goto	l4917
  6762  003C0E                     u5920:
  6763  003C0E  A013               	btfss	___fladd@grs^(0+1280),0,c
  6764  003C10  EF0C  F01E         	goto	u5931
  6765  003C14  EF0E  F01E         	goto	u5930
  6766  003C18                     u5931:
  6767  003C18  EF14  F01E         	goto	l4871
  6768  003C1C                     u5930:
  6769  003C1C  90D8               	bcf	status,0,c
  6770  003C1E  3013               	rrcf	___fladd@grs^(0+1280),w,c
  6771  003C20  0901               	iorlw	1
  6772  003C22  6E13               	movwf	___fladd@grs^(0+1280),c
  6773  003C24  EF16  F01E         	goto	l4873
  6774  003C28                     l4871:
  6775  003C28  90D8               	bcf	status,0,c
  6776  003C2A  3213               	rrcf	___fladd@grs^(0+1280),f,c
  6777  003C2C                     l4873:
  6778  003C2C  A004               	btfss	___fladd@b^(0+1280),0,c
  6779  003C2E  EF1B  F01E         	goto	u5941
  6780  003C32  EF1D  F01E         	goto	u5940
  6781  003C36                     u5941:
  6782  003C36  EF1E  F01E         	goto	l4877
  6783  003C3A                     u5940:
  6784  003C3A  8E13               	bsf	___fladd@grs^(0+1280),7,c
  6785  003C3C                     l4877:
  6786  003C3C  3407               	rlcf	(___fladd@b+3)^(0+1280),w,c
  6787  003C3E  3207               	rrcf	(___fladd@b+3)^(0+1280),f,c
  6788  003C40  3206               	rrcf	(___fladd@b+2)^(0+1280),f,c
  6789  003C42  3205               	rrcf	(___fladd@b+1)^(0+1280),f,c
  6790  003C44  3204               	rrcf	___fladd@b^(0+1280),f,c
  6791  003C46  2A12               	incf	___fladd@bexp^(0+1280),f,c
  6792  003C48  EFB3  F01E         	goto	l4917
  6793  003C4C                     l4881:
  6794  003C4C  5008               	movf	___fladd@a^(0+1280),w,c
  6795  003C4E  5C04               	subwf	___fladd@b^(0+1280),w,c
  6796  003C50  5009               	movf	(___fladd@a+1)^(0+1280),w,c
  6797  003C52  5805               	subwfb	(___fladd@b+1)^(0+1280),w,c
  6798  003C54  500A               	movf	(___fladd@a+2)^(0+1280),w,c
  6799  003C56  5806               	subwfb	(___fladd@b+2)^(0+1280),w,c
  6800  003C58  5007               	movf	(___fladd@b+3)^(0+1280),w,c
  6801  003C5A  0A80               	xorlw	128
  6802  003C5C  6E0C               	movwf	??___fladd^(0+1280),c
  6803  003C5E  500B               	movf	(___fladd@a+3)^(0+1280),w,c
  6804  003C60  0A80               	xorlw	128
  6805  003C62  580C               	subwfb	??___fladd^(0+1280),w,c
  6806  003C64  B0D8               	btfsc	status,0,c
  6807  003C66  EF37  F01E         	goto	u5951
  6808  003C6A  EF39  F01E         	goto	u5950
  6809  003C6E                     u5951:
  6810  003C6E  EF64  F01E         	goto	l4891
  6811  003C72                     u5950:
  6812  003C72  5004               	movf	___fladd@b^(0+1280),w,c
  6813  003C74  5C08               	subwf	___fladd@a^(0+1280),w,c
  6814  003C76  6E0C               	movwf	??___fladd^(0+1280),c
  6815  003C78  5005               	movf	(___fladd@b+1)^(0+1280),w,c
  6816  003C7A  5809               	subwfb	(___fladd@a+1)^(0+1280),w,c
  6817  003C7C  6E0D               	movwf	(??___fladd+1)^(0+1280),c
  6818  003C7E  5006               	movf	(___fladd@b+2)^(0+1280),w,c
  6819  003C80  580A               	subwfb	(___fladd@a+2)^(0+1280),w,c
  6820  003C82  6E0E               	movwf	(??___fladd+2)^(0+1280),c
  6821  003C84  5007               	movf	(___fladd@b+3)^(0+1280),w,c
  6822  003C86  580B               	subwfb	(___fladd@a+3)^(0+1280),w,c
  6823  003C88  6E0F               	movwf	(??___fladd+3)^(0+1280),c
  6824  003C8A  0EFF               	movlw	255
  6825  003C8C  240C               	addwf	??___fladd^(0+1280),w,c
  6826  003C8E  6E04               	movwf	___fladd@b^(0+1280),c
  6827  003C90  0EFF               	movlw	255
  6828  003C92  200D               	addwfc	(??___fladd+1)^(0+1280),w,c
  6829  003C94  6E05               	movwf	(___fladd@b+1)^(0+1280),c
  6830  003C96  0EFF               	movlw	255
  6831  003C98  200E               	addwfc	(??___fladd+2)^(0+1280),w,c
  6832  003C9A  6E06               	movwf	(___fladd@b+2)^(0+1280),c
  6833  003C9C  0EFF               	movlw	255
  6834  003C9E  200F               	addwfc	(??___fladd+3)^(0+1280),w,c
  6835  003CA0  6E07               	movwf	(___fladd@b+3)^(0+1280),c
  6836  003CA2  0E80               	movlw	128
  6837  003CA4  1A10               	xorwf	___fladd@signs^(0+1280),f,c
  6838  003CA6  6C13               	negf	___fladd@grs^(0+1280),c
  6839  003CA8  5013               	movf	___fladd@grs^(0+1280),w,c
  6840  003CAA  A4D8               	btfss	status,2,c
  6841  003CAC  EF5A  F01E         	goto	u5961
  6842  003CB0  EF5C  F01E         	goto	u5960
  6843  003CB4                     u5961:
  6844  003CB4  EF6C  F01E         	goto	l740
  6845  003CB8                     u5960:
  6846  003CB8  0E01               	movlw	1
  6847  003CBA  2604               	addwf	___fladd@b^(0+1280),f,c
  6848  003CBC  0E00               	movlw	0
  6849  003CBE  2205               	addwfc	(___fladd@b+1)^(0+1280),f,c
  6850  003CC0  2206               	addwfc	(___fladd@b+2)^(0+1280),f,c
  6851  003CC2  2207               	addwfc	(___fladd@b+3)^(0+1280),f,c
  6852  003CC4  EF6C  F01E         	goto	l740
  6853  003CC8                     l4891:
  6854  003CC8  5008               	movf	___fladd@a^(0+1280),w,c
  6855  003CCA  5E04               	subwf	___fladd@b^(0+1280),f,c
  6856  003CCC  5009               	movf	(___fladd@a+1)^(0+1280),w,c
  6857  003CCE  5A05               	subwfb	(___fladd@b+1)^(0+1280),f,c
  6858  003CD0  500A               	movf	(___fladd@a+2)^(0+1280),w,c
  6859  003CD2  5A06               	subwfb	(___fladd@b+2)^(0+1280),f,c
  6860  003CD4  500B               	movf	(___fladd@a+3)^(0+1280),w,c
  6861  003CD6  5A07               	subwfb	(___fladd@b+3)^(0+1280),f,c
  6862  003CD8                     l740:
  6863  003CD8  5004               	movf	___fladd@b^(0+1280),w,c
  6864  003CDA  1005               	iorwf	(___fladd@b+1)^(0+1280),w,c
  6865  003CDC  1006               	iorwf	(___fladd@b+2)^(0+1280),w,c
  6866  003CDE  1007               	iorwf	(___fladd@b+3)^(0+1280),w,c
  6867  003CE0  A4D8               	btfss	status,2,c
  6868  003CE2  EF75  F01E         	goto	u5971
  6869  003CE6  EF77  F01E         	goto	u5970
  6870  003CEA                     u5971:
  6871  003CEA  EFAC  F01E         	goto	l4915
  6872  003CEE                     u5970:
  6873  003CEE  5013               	movf	___fladd@grs^(0+1280),w,c
  6874  003CF0  A4D8               	btfss	status,2,c
  6875  003CF2  EF7D  F01E         	goto	u5981
  6876  003CF6  EF7F  F01E         	goto	u5980
  6877  003CFA                     u5981:
  6878  003CFA  EFAC  F01E         	goto	l4915
  6879  003CFE                     u5980:
  6880  003CFE  0E00               	movlw	0
  6881  003D00  6E04               	movwf	?___fladd^(0+1280),c
  6882  003D02  0E00               	movlw	0
  6883  003D04  6E05               	movwf	(?___fladd+1)^(0+1280),c
  6884  003D06  0E00               	movlw	0
  6885  003D08  6E06               	movwf	(?___fladd+2)^(0+1280),c
  6886  003D0A  0E00               	movlw	0
  6887  003D0C  6E07               	movwf	(?___fladd+3)^(0+1280),c
  6888  003D0E  EF47  F01F         	goto	l732
  6889  003D12                     l4899:
  6890  003D12  90D8               	bcf	status,0,c
  6891  003D14  3604               	rlcf	___fladd@b^(0+1280),f,c
  6892  003D16  3605               	rlcf	(___fladd@b+1)^(0+1280),f,c
  6893  003D18  3606               	rlcf	(___fladd@b+2)^(0+1280),f,c
  6894  003D1A  3607               	rlcf	(___fladd@b+3)^(0+1280),f,c
  6895  003D1C  AE13               	btfss	___fladd@grs^(0+1280),7,c
  6896  003D1E  EF93  F01E         	goto	u5991
  6897  003D22  EF95  F01E         	goto	u5990
  6898  003D26                     u5991:
  6899  003D26  EF96  F01E         	goto	l4905
  6900  003D2A                     u5990:
  6901  003D2A  8004               	bsf	___fladd@b^(0+1280),0,c
  6902  003D2C                     l4905:
  6903  003D2C  A013               	btfss	___fladd@grs^(0+1280),0,c
  6904  003D2E  EF9B  F01E         	goto	u6001
  6905  003D32  EF9D  F01E         	goto	u6000
  6906  003D36                     u6001:
  6907  003D36  EFA1  F01E         	goto	l4909
  6908  003D3A                     u6000:
  6909  003D3A  80D8               	bsf	status,0,c
  6910  003D3C  3613               	rlcf	___fladd@grs^(0+1280),f,c
  6911  003D3E  EFA3  F01E         	goto	l4911
  6912  003D42                     l4909:
  6913  003D42  90D8               	bcf	status,0,c
  6914  003D44  3613               	rlcf	___fladd@grs^(0+1280),f,c
  6915  003D46                     l4911:
  6916  003D46  5012               	movf	___fladd@bexp^(0+1280),w,c
  6917  003D48  B4D8               	btfsc	status,2,c
  6918  003D4A  EFA9  F01E         	goto	u6011
  6919  003D4E  EFAB  F01E         	goto	u6010
  6920  003D52                     u6011:
  6921  003D52  EFAC  F01E         	goto	l4915
  6922  003D56                     u6010:
  6923  003D56  0612               	decf	___fladd@bexp^(0+1280),f,c
  6924  003D58                     l4915:
  6925  003D58  AE06               	btfss	(___fladd@b+2)^(0+1280),7,c
  6926  003D5A  EFB1  F01E         	goto	u6021
  6927  003D5E  EFB3  F01E         	goto	u6020
  6928  003D62                     u6021:
  6929  003D62  EF89  F01E         	goto	l4899
  6930  003D66                     u6020:
  6931  003D66                     l4917:
  6932  003D66  0E00               	movlw	0
  6933  003D68  6E11               	movwf	___fladd@aexp^(0+1280),c
  6934  003D6A  AE13               	btfss	___fladd@grs^(0+1280),7,c
  6935  003D6C  EFBA  F01E         	goto	u6031
  6936  003D70  EFBC  F01E         	goto	u6030
  6937  003D74                     u6031:
  6938  003D74  EFD4  F01E         	goto	l749
  6939  003D78                     u6030:
  6940  003D78  C513  F50C         	movff	___fladd@grs,??___fladd
  6941  003D7C  0E7F               	movlw	127
  6942  003D7E  160C               	andwf	??___fladd^(0+1280),f,c
  6943  003D80  B4D8               	btfsc	status,2,c
  6944  003D82  EFC5  F01E         	goto	u6041
  6945  003D86  EFC7  F01E         	goto	u6040
  6946  003D8A                     u6041:
  6947  003D8A  EFCB  F01E         	goto	l750
  6948  003D8E                     u6040:
  6949  003D8E                     l4923:
  6950  003D8E  0E01               	movlw	1
  6951  003D90  6E11               	movwf	___fladd@aexp^(0+1280),c
  6952  003D92  EFD4  F01E         	goto	l749
  6953  003D96                     l750:
  6954  003D96  A004               	btfss	___fladd@b^(0+1280),0,c
  6955  003D98  EFD0  F01E         	goto	u6051
  6956  003D9C  EFD2  F01E         	goto	u6050
  6957  003DA0                     u6051:
  6958  003DA0  EFD4  F01E         	goto	l749
  6959  003DA4                     u6050:
  6960  003DA4  EFC7  F01E         	goto	l4923
  6961  003DA8                     l749:
  6962  003DA8  5011               	movf	___fladd@aexp^(0+1280),w,c
  6963  003DAA  B4D8               	btfsc	status,2,c
  6964  003DAC  EFDA  F01E         	goto	u6061
  6965  003DB0  EFDC  F01E         	goto	u6060
  6966  003DB4                     u6061:
  6967  003DB4  EF07  F01F         	goto	l4935
  6968  003DB8                     u6060:
  6969  003DB8  0E01               	movlw	1
  6970  003DBA  2604               	addwf	___fladd@b^(0+1280),f,c
  6971  003DBC  0E00               	movlw	0
  6972  003DBE  2205               	addwfc	(___fladd@b+1)^(0+1280),f,c
  6973  003DC0  2206               	addwfc	(___fladd@b+2)^(0+1280),f,c
  6974  003DC2  2207               	addwfc	(___fladd@b+3)^(0+1280),f,c
  6975  003DC4  A007               	btfss	(___fladd@b+3)^(0+1280),0,c
  6976  003DC6  EFE7  F01E         	goto	u6071
  6977  003DCA  EFE9  F01E         	goto	u6070
  6978  003DCE                     u6071:
  6979  003DCE  EF07  F01F         	goto	l4935
  6980  003DD2                     u6070:
  6981  003DD2  C504  F50C         	movff	___fladd@b,??___fladd
  6982  003DD6  C505  F50D         	movff	___fladd@b+1,??___fladd+1
  6983  003DDA  C506  F50E         	movff	___fladd@b+2,??___fladd+2
  6984  003DDE  C507  F50F         	movff	___fladd@b+3,??___fladd+3
  6985  003DE2  340F               	rlcf	(??___fladd+3)^(0+1280),w,c
  6986  003DE4  320F               	rrcf	(??___fladd+3)^(0+1280),f,c
  6987  003DE6  320E               	rrcf	(??___fladd+2)^(0+1280),f,c
  6988  003DE8  320D               	rrcf	(??___fladd+1)^(0+1280),f,c
  6989  003DEA  320C               	rrcf	??___fladd^(0+1280),f,c
  6990  003DEC  C50C  F504         	movff	??___fladd,___fladd@b
  6991  003DF0  C50D  F505         	movff	??___fladd+1,___fladd@b+1
  6992  003DF4  C50E  F506         	movff	??___fladd+2,___fladd@b+2
  6993  003DF8  C50F  F507         	movff	??___fladd+3,___fladd@b+3
  6994  003DFC  2812               	incf	___fladd@bexp^(0+1280),w,c
  6995  003DFE  B4D8               	btfsc	status,2,c
  6996  003E00  EF04  F01F         	goto	u6081
  6997  003E04  EF06  F01F         	goto	u6080
  6998  003E08                     u6081:
  6999  003E08  EF07  F01F         	goto	l4935
  7000  003E0C                     u6080:
  7001  003E0C  2A12               	incf	___fladd@bexp^(0+1280),f,c
  7002  003E0E                     l4935:
  7003  003E0E  2812               	incf	___fladd@bexp^(0+1280),w,c
  7004  003E10  B4D8               	btfsc	status,2,c
  7005  003E12  EF0D  F01F         	goto	u6091
  7006  003E16  EF0F  F01F         	goto	u6090
  7007  003E1A                     u6091:
  7008  003E1A  EF17  F01F         	goto	l4939
  7009  003E1E                     u6090:
  7010  003E1E  5012               	movf	___fladd@bexp^(0+1280),w,c
  7011  003E20  A4D8               	btfss	status,2,c
  7012  003E22  EF15  F01F         	goto	u6101
  7013  003E26  EF17  F01F         	goto	u6100
  7014  003E2A                     u6101:
  7015  003E2A  EF29  F01F         	goto	l4943
  7016  003E2E                     u6100:
  7017  003E2E                     l4939:
  7018  003E2E  0E00               	movlw	0
  7019  003E30  6E04               	movwf	___fladd@b^(0+1280),c
  7020  003E32  0E00               	movlw	0
  7021  003E34  6E05               	movwf	(___fladd@b+1)^(0+1280),c
  7022  003E36  0E00               	movlw	0
  7023  003E38  6E06               	movwf	(___fladd@b+2)^(0+1280),c
  7024  003E3A  0E00               	movlw	0
  7025  003E3C  6E07               	movwf	(___fladd@b+3)^(0+1280),c
  7026  003E3E  5012               	movf	___fladd@bexp^(0+1280),w,c
  7027  003E40  A4D8               	btfss	status,2,c
  7028  003E42  EF25  F01F         	goto	u6111
  7029  003E46  EF27  F01F         	goto	u6110
  7030  003E4A                     u6111:
  7031  003E4A  EF29  F01F         	goto	l4943
  7032  003E4E                     u6110:
  7033  003E4E  0E00               	movlw	0
  7034  003E50  6E10               	movwf	___fladd@signs^(0+1280),c
  7035  003E52                     l4943:
  7036  003E52  A012               	btfss	___fladd@bexp^(0+1280),0,c
  7037  003E54  EF2E  F01F         	goto	u6121
  7038  003E58  EF30  F01F         	goto	u6120
  7039  003E5C                     u6121:
  7040  003E5C  EF33  F01F         	goto	l4947
  7041  003E60                     u6120:
  7042  003E60  8E06               	bsf	(___fladd@b+2)^(0+1280),7,c
  7043  003E62  EF34  F01F         	goto	l4949
  7044  003E66                     l4947:
  7045  003E66  9E06               	bcf	(___fladd@b+2)^(0+1280),7,c
  7046  003E68                     l4949:
  7047  003E68  90D8               	bcf	status,0,c
  7048  003E6A  3012               	rrcf	___fladd@bexp^(0+1280),w,c
  7049  003E6C  6E07               	movwf	(___fladd@b+3)^(0+1280),c
  7050  003E6E  AE10               	btfss	___fladd@signs^(0+1280),7,c
  7051  003E70  EF3C  F01F         	goto	u6131
  7052  003E74  EF3E  F01F         	goto	u6130
  7053  003E78                     u6131:
  7054  003E78  EF3F  F01F         	goto	l4955
  7055  003E7C                     u6130:
  7056  003E7C  8E07               	bsf	(___fladd@b+3)^(0+1280),7,c
  7057  003E7E                     l4955:
  7058  003E7E  C504  F504         	movff	___fladd@b,?___fladd
  7059  003E82  C505  F505         	movff	___fladd@b+1,?___fladd+1
  7060  003E86  C506  F506         	movff	___fladd@b+2,?___fladd+2
  7061  003E8A  C507  F507         	movff	___fladd@b+3,?___fladd+3
  7062  003E8E                     l732:
  7063  003E8E  0012               	return		;funcret
  7064  003E90                     __end_of___fladd:
  7065                           	callstack 0
  7066                           
  7067 ;; *************** function ___flneg *****************
  7068 ;; Defined at:
  7069 ;;		line 15 in file "C:\Program Files\Microchip\xc8\v2.32\pic\sources\c99\common\flneg.c"
  7070 ;; Parameters:    Size  Location     Type
  7071 ;;  f1              4    3[COMRAM] unsigned char 
  7072 ;; Auto vars:     Size  Location     Type
  7073 ;;		None
  7074 ;; Return value:  Size  Location     Type
  7075 ;;                  4    3[COMRAM] unsigned char 
  7076 ;; Registers used:
  7077 ;;		wreg, status,2, status,0
  7078 ;; Tracked objects:
  7079 ;;		On entry : 0/0
  7080 ;;		On exit  : 0/0
  7081 ;;		Unchanged: 0/0
  7082 ;; Data sizes:     COMRAM   BANK5   BANK6   BANK7   BANK8   BANK9  BANK10  BANK11  BANK12  BANK13  BANK14  BANK15  BANK1
      +6  BANK17  BANK18  BANK19  BANK20  BANK21  BANK22  BANK23  BANK24  BANK25  BANK26  BANK27  BANK28  BANK29  BANK30  BANK3
      +1  BANK32  BANK33  BANK34  BANK35  BANK36
  7083 ;;      Params:         4       0       0       0       0       0       0       0       0       0       0       0       
      +0       0       0       0       0       0       0       0       0       0       0       0       0       0       0       
      +0       0       0       0       0       0
  7084 ;;      Locals:         0       0       0       0       0       0       0       0       0       0       0       0       
      +0       0       0       0       0       0       0       0       0       0       0       0       0       0       0       
      +0       0       0       0       0       0
  7085 ;;      Temps:          0       0       0       0       0       0       0       0       0       0       0       0       
      +0       0       0       0       0       0       0       0       0       0       0       0       0       0       0       
      +0       0       0       0       0       0
  7086 ;;      Totals:         4       0       0       0       0       0       0       0       0       0       0       0       
      +0       0       0       0       0       0       0       0       0       0       0       0       0       0       0       
      +0       0       0       0       0       0
  7087 ;;Total ram usage:        4 bytes
  7088 ;; Hardware stack levels used: 1
  7089 ;; Hardware stack levels required when called: 2
  7090 ;; This function calls:
  7091 ;;		Nothing
  7092 ;; This function is called by:
  7093 ;;		_efgtoa
  7094 ;; This function uses a non-reentrant model
  7095 ;;
  7096                           
  7097                           	psect	text22
  7098  00608A                     __ptext22:
  7099                           	callstack 0
  7100  00608A                     ___flneg:
  7101                           	callstack 120
  7102  00608A  5004               	movf	___flneg@f1^(0+1280),w,c
  7103  00608C  1005               	iorwf	(___flneg@f1+1)^(0+1280),w,c
  7104  00608E  1006               	iorwf	(___flneg@f1+2)^(0+1280),w,c
  7105  006090  1007               	iorwf	(___flneg@f1+3)^(0+1280),w,c
  7106  006092  B4D8               	btfsc	status,2,c
  7107  006094  EF4E  F030         	goto	u6801
  7108  006098  EF50  F030         	goto	u6800
  7109  00609C                     u6801:
  7110  00609C  EF58  F030         	goto	l5383
  7111  0060A0                     u6800:
  7112  0060A0  0E00               	movlw	0
  7113  0060A2  1A04               	xorwf	___flneg@f1^(0+1280),f,c
  7114  0060A4  0E00               	movlw	0
  7115  0060A6  1A05               	xorwf	(___flneg@f1+1)^(0+1280),f,c
  7116  0060A8  0E00               	movlw	0
  7117  0060AA  1A06               	xorwf	(___flneg@f1+2)^(0+1280),f,c
  7118  0060AC  0E80               	movlw	128
  7119  0060AE  1A07               	xorwf	(___flneg@f1+3)^(0+1280),f,c
  7120  0060B0                     l5383:
  7121  0060B0  C504  F504         	movff	___flneg@f1,?___flneg
  7122  0060B4  C505  F505         	movff	___flneg@f1+1,?___flneg+1
  7123  0060B8  C506  F506         	movff	___flneg@f1+2,?___flneg+2
  7124  0060BC  C507  F507         	movff	___flneg@f1+3,?___flneg+3
  7125  0060C0  0012               	return		;funcret
  7126  0060C2                     __end_of___flneg:
  7127                           	callstack 0
  7128                           
  7129 ;; *************** function ___flmul *****************
  7130 ;; Defined at:
  7131 ;;		line 8 in file "C:\Program Files\Microchip\xc8\v2.32\pic\sources\c99\common\sprcmul.c"
  7132 ;; Parameters:    Size  Location     Type
  7133 ;;  b               4   42[COMRAM] unsigned char 
  7134 ;;  a               4   46[COMRAM] unsigned char 
  7135 ;; Auto vars:     Size  Location     Type
  7136 ;;  prod            4   61[COMRAM] struct .
  7137 ;;  grs             4   56[COMRAM] unsigned long 
  7138 ;;  temp            2   65[COMRAM] struct .
  7139 ;;  bexp            1   60[COMRAM] unsigned char 
  7140 ;;  aexp            1   55[COMRAM] unsigned char 
  7141 ;;  sign            1   54[COMRAM] unsigned char 
  7142 ;; Return value:  Size  Location     Type
  7143 ;;                  4   42[COMRAM] unsigned char 
  7144 ;; Registers used:
  7145 ;;		wreg, status,2, status,0, prodl, prodh
  7146 ;; Tracked objects:
  7147 ;;		On entry : 0/0
  7148 ;;		On exit  : 0/0
  7149 ;;		Unchanged: 0/0
  7150 ;; Data sizes:     COMRAM   BANK5   BANK6   BANK7   BANK8   BANK9  BANK10  BANK11  BANK12  BANK13  BANK14  BANK15  BANK1
      +6  BANK17  BANK18  BANK19  BANK20  BANK21  BANK22  BANK23  BANK24  BANK25  BANK26  BANK27  BANK28  BANK29  BANK30  BANK3
      +1  BANK32  BANK33  BANK34  BANK35  BANK36
  7151 ;;      Params:         8       0       0       0       0       0       0       0       0       0       0       0       
      +0       0       0       0       0       0       0       0       0       0       0       0       0       0       0       
      +0       0       0       0       0       0
  7152 ;;      Locals:        13       0       0       0       0       0       0       0       0       0       0       0       
      +0       0       0       0       0       0       0       0       0       0       0       0       0       0       0       
      +0       0       0       0       0       0
  7153 ;;      Temps:          4       0       0       0       0       0       0       0       0       0       0       0       
      +0       0       0       0       0       0       0       0       0       0       0       0       0       0       0       
      +0       0       0       0       0       0
  7154 ;;      Totals:        25       0       0       0       0       0       0       0       0       0       0       0       
      +0       0       0       0       0       0       0       0       0       0       0       0       0       0       0       
      +0       0       0       0       0       0
  7155 ;;Total ram usage:       25 bytes
  7156 ;; Hardware stack levels used: 1
  7157 ;; Hardware stack levels required when called: 2
  7158 ;; This function calls:
  7159 ;;		Nothing
  7160 ;; This function is called by:
  7161 ;;		_main
  7162 ;;		_efgtoa
  7163 ;; This function uses a non-reentrant model
  7164 ;;
  7165                           
  7166                           	psect	text23
  7167  003E90                     __ptext23:
  7168                           	callstack 0
  7169  003E90                     ___flmul:
  7170                           	callstack 120
  7171  003E90  502E               	movf	(___flmul@b+3)^(0+1280),w,c
  7172  003E92  0B80               	andlw	128
  7173  003E94  6E37               	movwf	___flmul@sign^(0+1280),c
  7174  003E96  502E               	movf	(___flmul@b+3)^(0+1280),w,c
  7175  003E98  242E               	addwf	(___flmul@b+3)^(0+1280),w,c
  7176  003E9A  6E3D               	movwf	___flmul@bexp^(0+1280),c
  7177  003E9C  AE2D               	btfss	(___flmul@b+2)^(0+1280),7,c
  7178  003E9E  EF53  F01F         	goto	u6411
  7179  003EA2  EF55  F01F         	goto	u6410
  7180  003EA6                     u6411:
  7181  003EA6  EF56  F01F         	goto	l5131
  7182  003EAA                     u6410:
  7183  003EAA  803D               	bsf	___flmul@bexp^(0+1280),0,c
  7184  003EAC                     l5131:
  7185  003EAC  503D               	movf	___flmul@bexp^(0+1280),w,c
  7186  003EAE  B4D8               	btfsc	status,2,c
  7187  003EB0  EF5C  F01F         	goto	u6421
  7188  003EB4  EF5E  F01F         	goto	u6420
  7189  003EB8                     u6421:
  7190  003EB8  EF71  F01F         	goto	l5139
  7191  003EBC                     u6420:
  7192  003EBC  283D               	incf	___flmul@bexp^(0+1280),w,c
  7193  003EBE  A4D8               	btfss	status,2,c
  7194  003EC0  EF64  F01F         	goto	u6431
  7195  003EC4  EF66  F01F         	goto	u6430
  7196  003EC8                     u6431:
  7197  003EC8  EF6E  F01F         	goto	l5137
  7198  003ECC                     u6430:
  7199  003ECC  0E00               	movlw	0
  7200  003ECE  6E2B               	movwf	___flmul@b^(0+1280),c
  7201  003ED0  0E00               	movlw	0
  7202  003ED2  6E2C               	movwf	(___flmul@b+1)^(0+1280),c
  7203  003ED4  0E00               	movlw	0
  7204  003ED6  6E2D               	movwf	(___flmul@b+2)^(0+1280),c
  7205  003ED8  0E00               	movlw	0
  7206  003EDA  6E2E               	movwf	(___flmul@b+3)^(0+1280),c
  7207  003EDC                     l5137:
  7208  003EDC  8E2D               	bsf	(___flmul@b+2)^(0+1280),7,c
  7209  003EDE  EF79  F01F         	goto	l5141
  7210  003EE2                     l5139:
  7211  003EE2  0E00               	movlw	0
  7212  003EE4  6E2B               	movwf	___flmul@b^(0+1280),c
  7213  003EE6  0E00               	movlw	0
  7214  003EE8  6E2C               	movwf	(___flmul@b+1)^(0+1280),c
  7215  003EEA  0E00               	movlw	0
  7216  003EEC  6E2D               	movwf	(___flmul@b+2)^(0+1280),c
  7217  003EEE  0E00               	movlw	0
  7218  003EF0  6E2E               	movwf	(___flmul@b+3)^(0+1280),c
  7219  003EF2                     l5141:
  7220  003EF2  5032               	movf	(___flmul@a+3)^(0+1280),w,c
  7221  003EF4  0B80               	andlw	128
  7222  003EF6  1A37               	xorwf	___flmul@sign^(0+1280),f,c
  7223  003EF8  5032               	movf	(___flmul@a+3)^(0+1280),w,c
  7224  003EFA  2432               	addwf	(___flmul@a+3)^(0+1280),w,c
  7225  003EFC  6E38               	movwf	___flmul@aexp^(0+1280),c
  7226  003EFE  AE31               	btfss	(___flmul@a+2)^(0+1280),7,c
  7227  003F00  EF84  F01F         	goto	u6441
  7228  003F04  EF86  F01F         	goto	u6440
  7229  003F08                     u6441:
  7230  003F08  EF87  F01F         	goto	l5149
  7231  003F0C                     u6440:
  7232  003F0C  8038               	bsf	___flmul@aexp^(0+1280),0,c
  7233  003F0E                     l5149:
  7234  003F0E  5038               	movf	___flmul@aexp^(0+1280),w,c
  7235  003F10  B4D8               	btfsc	status,2,c
  7236  003F12  EF8D  F01F         	goto	u6451
  7237  003F16  EF8F  F01F         	goto	u6450
  7238  003F1A                     u6451:
  7239  003F1A  EFA2  F01F         	goto	l5157
  7240  003F1E                     u6450:
  7241  003F1E  2838               	incf	___flmul@aexp^(0+1280),w,c
  7242  003F20  A4D8               	btfss	status,2,c
  7243  003F22  EF95  F01F         	goto	u6461
  7244  003F26  EF97  F01F         	goto	u6460
  7245  003F2A                     u6461:
  7246  003F2A  EF9F  F01F         	goto	l5155
  7247  003F2E                     u6460:
  7248  003F2E  0E00               	movlw	0
  7249  003F30  6E2F               	movwf	___flmul@a^(0+1280),c
  7250  003F32  0E00               	movlw	0
  7251  003F34  6E30               	movwf	(___flmul@a+1)^(0+1280),c
  7252  003F36  0E00               	movlw	0
  7253  003F38  6E31               	movwf	(___flmul@a+2)^(0+1280),c
  7254  003F3A  0E00               	movlw	0
  7255  003F3C  6E32               	movwf	(___flmul@a+3)^(0+1280),c
  7256  003F3E                     l5155:
  7257  003F3E  8E31               	bsf	(___flmul@a+2)^(0+1280),7,c
  7258  003F40  EFAA  F01F         	goto	l809
  7259  003F44                     l5157:
  7260  003F44  0E00               	movlw	0
  7261  003F46  6E2F               	movwf	___flmul@a^(0+1280),c
  7262  003F48  0E00               	movlw	0
  7263  003F4A  6E30               	movwf	(___flmul@a+1)^(0+1280),c
  7264  003F4C  0E00               	movlw	0
  7265  003F4E  6E31               	movwf	(___flmul@a+2)^(0+1280),c
  7266  003F50  0E00               	movlw	0
  7267  003F52  6E32               	movwf	(___flmul@a+3)^(0+1280),c
  7268  003F54                     l809:
  7269  003F54  5038               	movf	___flmul@aexp^(0+1280),w,c
  7270  003F56  B4D8               	btfsc	status,2,c
  7271  003F58  EFB0  F01F         	goto	u6471
  7272  003F5C  EFB2  F01F         	goto	u6470
  7273  003F60                     u6471:
  7274  003F60  EFBA  F01F         	goto	l5161
  7275  003F64                     u6470:
  7276  003F64  503D               	movf	___flmul@bexp^(0+1280),w,c
  7277  003F66  A4D8               	btfss	status,2,c
  7278  003F68  EFB8  F01F         	goto	u6481
  7279  003F6C  EFBA  F01F         	goto	u6480
  7280  003F70                     u6481:
  7281  003F70  EFC4  F01F         	goto	l5165
  7282  003F74                     u6480:
  7283  003F74                     l5161:
  7284  003F74  0E00               	movlw	0
  7285  003F76  6E2B               	movwf	?___flmul^(0+1280),c
  7286  003F78  0E00               	movlw	0
  7287  003F7A  6E2C               	movwf	(?___flmul+1)^(0+1280),c
  7288  003F7C  0E00               	movlw	0
  7289  003F7E  6E2D               	movwf	(?___flmul+2)^(0+1280),c
  7290  003F80  0E00               	movlw	0
  7291  003F82  6E2E               	movwf	(?___flmul+3)^(0+1280),c
  7292  003F84  EF6E  F021         	goto	l813
  7293  003F88                     l5165:
  7294  003F88  5031               	movf	(___flmul@a+2)^(0+1280),w,c
  7295  003F8A  022B               	mulwf	___flmul@b^(0+1280),c
  7296  003F8C  0061 F3CC  F542    	movff	prodl,___flmul@temp
  7297  003F92  0061 F3D0  F543    	movff	prodh,___flmul@temp+1
  7298  003F98  5042               	movf	___flmul@temp^(0+1280),w,c
  7299  003F9A  6E39               	movwf	___flmul@grs^(0+1280),c
  7300  003F9C  6A3A               	clrf	(___flmul@grs+1)^(0+1280),c
  7301  003F9E  6A3B               	clrf	(___flmul@grs+2)^(0+1280),c
  7302  003FA0  6A3C               	clrf	(___flmul@grs+3)^(0+1280),c
  7303  003FA2  5043               	movf	(___flmul@temp+1)^(0+1280),w,c
  7304  003FA4  6E3E               	movwf	___flmul@prod^(0+1280),c
  7305  003FA6  6A3F               	clrf	(___flmul@prod+1)^(0+1280),c
  7306  003FA8  6A40               	clrf	(___flmul@prod+2)^(0+1280),c
  7307  003FAA  6A41               	clrf	(___flmul@prod+3)^(0+1280),c
  7308  003FAC  5030               	movf	(___flmul@a+1)^(0+1280),w,c
  7309  003FAE  022C               	mulwf	(___flmul@b+1)^(0+1280),c
  7310  003FB0  0061 F3CC  F542    	movff	prodl,___flmul@temp
  7311  003FB6  0061 F3D0  F543    	movff	prodh,___flmul@temp+1
  7312  003FBC  5042               	movf	___flmul@temp^(0+1280),w,c
  7313  003FBE  2639               	addwf	___flmul@grs^(0+1280),f,c
  7314  003FC0  0E00               	movlw	0
  7315  003FC2  223A               	addwfc	(___flmul@grs+1)^(0+1280),f,c
  7316  003FC4  223B               	addwfc	(___flmul@grs+2)^(0+1280),f,c
  7317  003FC6  223C               	addwfc	(___flmul@grs+3)^(0+1280),f,c
  7318  003FC8  5043               	movf	(___flmul@temp+1)^(0+1280),w,c
  7319  003FCA  263E               	addwf	___flmul@prod^(0+1280),f,c
  7320  003FCC  0E00               	movlw	0
  7321  003FCE  223F               	addwfc	(___flmul@prod+1)^(0+1280),f,c
  7322  003FD0  2240               	addwfc	(___flmul@prod+2)^(0+1280),f,c
  7323  003FD2  2241               	addwfc	(___flmul@prod+3)^(0+1280),f,c
  7324  003FD4  502F               	movf	___flmul@a^(0+1280),w,c
  7325  003FD6  022D               	mulwf	(___flmul@b+2)^(0+1280),c
  7326  003FD8  0061 F3CC  F542    	movff	prodl,___flmul@temp
  7327  003FDE  0061 F3D0  F543    	movff	prodh,___flmul@temp+1
  7328  003FE4  5042               	movf	___flmul@temp^(0+1280),w,c
  7329  003FE6  2639               	addwf	___flmul@grs^(0+1280),f,c
  7330  003FE8  0E00               	movlw	0
  7331  003FEA  223A               	addwfc	(___flmul@grs+1)^(0+1280),f,c
  7332  003FEC  223B               	addwfc	(___flmul@grs+2)^(0+1280),f,c
  7333  003FEE  223C               	addwfc	(___flmul@grs+3)^(0+1280),f,c
  7334  003FF0  5043               	movf	(___flmul@temp+1)^(0+1280),w,c
  7335  003FF2  263E               	addwf	___flmul@prod^(0+1280),f,c
  7336  003FF4  0E00               	movlw	0
  7337  003FF6  223F               	addwfc	(___flmul@prod+1)^(0+1280),f,c
  7338  003FF8  2240               	addwfc	(___flmul@prod+2)^(0+1280),f,c
  7339  003FFA  2241               	addwfc	(___flmul@prod+3)^(0+1280),f,c
  7340  003FFC  C53B  F53C         	movff	___flmul@grs+2,___flmul@grs+3
  7341  004000  C53A  F53B         	movff	___flmul@grs+1,___flmul@grs+2
  7342  004004  C539  F53A         	movff	___flmul@grs,___flmul@grs+1
  7343  004008  6A39               	clrf	___flmul@grs^(0+1280),c
  7344  00400A  502F               	movf	___flmul@a^(0+1280),w,c
  7345  00400C  022C               	mulwf	(___flmul@b+1)^(0+1280),c
  7346  00400E  0061 F3CC  F542    	movff	prodl,___flmul@temp
  7347  004014  0061 F3D0  F543    	movff	prodh,___flmul@temp+1
  7348  00401A  5042               	movf	___flmul@temp^(0+1280),w,c
  7349  00401C  2639               	addwf	___flmul@grs^(0+1280),f,c
  7350  00401E  5043               	movf	(___flmul@temp+1)^(0+1280),w,c
  7351  004020  223A               	addwfc	(___flmul@grs+1)^(0+1280),f,c
  7352  004022  0E00               	movlw	0
  7353  004024  223B               	addwfc	(___flmul@grs+2)^(0+1280),f,c
  7354  004026  0E00               	movlw	0
  7355  004028  223C               	addwfc	(___flmul@grs+3)^(0+1280),f,c
  7356  00402A  5030               	movf	(___flmul@a+1)^(0+1280),w,c
  7357  00402C  022B               	mulwf	___flmul@b^(0+1280),c
  7358  00402E  0061 F3CC  F542    	movff	prodl,___flmul@temp
  7359  004034  0061 F3D0  F543    	movff	prodh,___flmul@temp+1
  7360  00403A  5042               	movf	___flmul@temp^(0+1280),w,c
  7361  00403C  2639               	addwf	___flmul@grs^(0+1280),f,c
  7362  00403E  5043               	movf	(___flmul@temp+1)^(0+1280),w,c
  7363  004040  223A               	addwfc	(___flmul@grs+1)^(0+1280),f,c
  7364  004042  0E00               	movlw	0
  7365  004044  223B               	addwfc	(___flmul@grs+2)^(0+1280),f,c
  7366  004046  0E00               	movlw	0
  7367  004048  223C               	addwfc	(___flmul@grs+3)^(0+1280),f,c
  7368  00404A  C53B  F53C         	movff	___flmul@grs+2,___flmul@grs+3
  7369  00404E  C53A  F53B         	movff	___flmul@grs+1,___flmul@grs+2
  7370  004052  C539  F53A         	movff	___flmul@grs,___flmul@grs+1
  7371  004056  6A39               	clrf	___flmul@grs^(0+1280),c
  7372  004058  502F               	movf	___flmul@a^(0+1280),w,c
  7373  00405A  022B               	mulwf	___flmul@b^(0+1280),c
  7374  00405C  0061 F3CC  F542    	movff	prodl,___flmul@temp
  7375  004062  0061 F3D0  F543    	movff	prodh,___flmul@temp+1
  7376  004068  5042               	movf	___flmul@temp^(0+1280),w,c
  7377  00406A  2639               	addwf	___flmul@grs^(0+1280),f,c
  7378  00406C  5043               	movf	(___flmul@temp+1)^(0+1280),w,c
  7379  00406E  223A               	addwfc	(___flmul@grs+1)^(0+1280),f,c
  7380  004070  0E00               	movlw	0
  7381  004072  223B               	addwfc	(___flmul@grs+2)^(0+1280),f,c
  7382  004074  0E00               	movlw	0
  7383  004076  223C               	addwfc	(___flmul@grs+3)^(0+1280),f,c
  7384  004078  5031               	movf	(___flmul@a+2)^(0+1280),w,c
  7385  00407A  022C               	mulwf	(___flmul@b+1)^(0+1280),c
  7386  00407C  0061 F3CC  F542    	movff	prodl,___flmul@temp
  7387  004082  0061 F3D0  F543    	movff	prodh,___flmul@temp+1
  7388  004088  5042               	movf	___flmul@temp^(0+1280),w,c
  7389  00408A  263E               	addwf	___flmul@prod^(0+1280),f,c
  7390  00408C  5043               	movf	(___flmul@temp+1)^(0+1280),w,c
  7391  00408E  223F               	addwfc	(___flmul@prod+1)^(0+1280),f,c
  7392  004090  0E00               	movlw	0
  7393  004092  2240               	addwfc	(___flmul@prod+2)^(0+1280),f,c
  7394  004094  0E00               	movlw	0
  7395  004096  2241               	addwfc	(___flmul@prod+3)^(0+1280),f,c
  7396  004098  5030               	movf	(___flmul@a+1)^(0+1280),w,c
  7397  00409A  022D               	mulwf	(___flmul@b+2)^(0+1280),c
  7398  00409C  0061 F3CC  F542    	movff	prodl,___flmul@temp
  7399  0040A2  0061 F3D0  F543    	movff	prodh,___flmul@temp+1
  7400  0040A8  5042               	movf	___flmul@temp^(0+1280),w,c
  7401  0040AA  263E               	addwf	___flmul@prod^(0+1280),f,c
  7402  0040AC  5043               	movf	(___flmul@temp+1)^(0+1280),w,c
  7403  0040AE  223F               	addwfc	(___flmul@prod+1)^(0+1280),f,c
  7404  0040B0  0E00               	movlw	0
  7405  0040B2  2240               	addwfc	(___flmul@prod+2)^(0+1280),f,c
  7406  0040B4  0E00               	movlw	0
  7407  0040B6  2241               	addwfc	(___flmul@prod+3)^(0+1280),f,c
  7408  0040B8  5031               	movf	(___flmul@a+2)^(0+1280),w,c
  7409  0040BA  022D               	mulwf	(___flmul@b+2)^(0+1280),c
  7410  0040BC  0061 F3CC  F542    	movff	prodl,___flmul@temp
  7411  0040C2  0061 F3D0  F543    	movff	prodh,___flmul@temp+1
  7412  0040C8  5042               	movf	___flmul@temp^(0+1280),w,c
  7413  0040CA  6E33               	movwf	??___flmul^(0+1280),c
  7414  0040CC  5043               	movf	(___flmul@temp+1)^(0+1280),w,c
  7415  0040CE  6E34               	movwf	(??___flmul+1)^(0+1280),c
  7416  0040D0  6A35               	clrf	(??___flmul+2)^(0+1280),c
  7417  0040D2  6A36               	clrf	(??___flmul+3)^(0+1280),c
  7418  0040D4  C535  F536         	movff	??___flmul+2,??___flmul+3
  7419  0040D8  C534  F535         	movff	??___flmul+1,??___flmul+2
  7420  0040DC  C533  F534         	movff	??___flmul,??___flmul+1
  7421  0040E0  6A33               	clrf	??___flmul^(0+1280),c
  7422  0040E2  5033               	movf	??___flmul^(0+1280),w,c
  7423  0040E4  263E               	addwf	___flmul@prod^(0+1280),f,c
  7424  0040E6  5034               	movf	(??___flmul+1)^(0+1280),w,c
  7425  0040E8  223F               	addwfc	(___flmul@prod+1)^(0+1280),f,c
  7426  0040EA  5035               	movf	(??___flmul+2)^(0+1280),w,c
  7427  0040EC  2240               	addwfc	(___flmul@prod+2)^(0+1280),f,c
  7428  0040EE  5036               	movf	(??___flmul+3)^(0+1280),w,c
  7429  0040F0  2241               	addwfc	(___flmul@prod+3)^(0+1280),f,c
  7430  0040F2  C539  F533         	movff	___flmul@grs,??___flmul
  7431  0040F6  C53A  F534         	movff	___flmul@grs+1,??___flmul+1
  7432  0040FA  C53B  F535         	movff	___flmul@grs+2,??___flmul+2
  7433  0040FE  C53C  F536         	movff	___flmul@grs+3,??___flmul+3
  7434  004102  0E19               	movlw	25
  7435  004104  EF89  F020         	goto	u6490
  7436  004108                     u6495:
  7437  004108  90D8               	bcf	status,0,c
  7438  00410A  3236               	rrcf	(??___flmul+3)^(0+1280),f,c
  7439  00410C  3235               	rrcf	(??___flmul+2)^(0+1280),f,c
  7440  00410E  3234               	rrcf	(??___flmul+1)^(0+1280),f,c
  7441  004110  3233               	rrcf	??___flmul^(0+1280),f,c
  7442  004112                     u6490:
  7443  004112  2EE8               	decfsz	wreg,f,c
  7444  004114  EF84  F020         	goto	u6495
  7445  004118  5033               	movf	??___flmul^(0+1280),w,c
  7446  00411A  263E               	addwf	___flmul@prod^(0+1280),f,c
  7447  00411C  5034               	movf	(??___flmul+1)^(0+1280),w,c
  7448  00411E  223F               	addwfc	(___flmul@prod+1)^(0+1280),f,c
  7449  004120  5035               	movf	(??___flmul+2)^(0+1280),w,c
  7450  004122  2240               	addwfc	(___flmul@prod+2)^(0+1280),f,c
  7451  004124  5036               	movf	(??___flmul+3)^(0+1280),w,c
  7452  004126  2241               	addwfc	(___flmul@prod+3)^(0+1280),f,c
  7453  004128  C53B  F53C         	movff	___flmul@grs+2,___flmul@grs+3
  7454  00412C  C53A  F53B         	movff	___flmul@grs+1,___flmul@grs+2
  7455  004130  C539  F53A         	movff	___flmul@grs,___flmul@grs+1
  7456  004134  6A39               	clrf	___flmul@grs^(0+1280),c
  7457  004136  5038               	movf	___flmul@aexp^(0+1280),w,c
  7458  004138  C53D  F533         	movff	___flmul@bexp,??___flmul
  7459  00413C  6A34               	clrf	(??___flmul+1)^(0+1280),c
  7460  00413E  2633               	addwf	??___flmul^(0+1280),f,c
  7461  004140  0E00               	movlw	0
  7462  004142  2234               	addwfc	(??___flmul+1)^(0+1280),f,c
  7463  004144  0E82               	movlw	130
  7464  004146  2433               	addwf	??___flmul^(0+1280),w,c
  7465  004148  6E42               	movwf	___flmul@temp^(0+1280),c
  7466  00414A  0EFF               	movlw	255
  7467  00414C  2034               	addwfc	(??___flmul+1)^(0+1280),w,c
  7468  00414E  6E43               	movwf	(___flmul@temp+1)^(0+1280),c
  7469  004150  EFBF  F020         	goto	l5213
  7470  004154                     l5207:
  7471  004154  90D8               	bcf	status,0,c
  7472  004156  363E               	rlcf	___flmul@prod^(0+1280),f,c
  7473  004158  363F               	rlcf	(___flmul@prod+1)^(0+1280),f,c
  7474  00415A  3640               	rlcf	(___flmul@prod+2)^(0+1280),f,c
  7475  00415C  3641               	rlcf	(___flmul@prod+3)^(0+1280),f,c
  7476  00415E  AE3C               	btfss	(___flmul@grs+3)^(0+1280),7,c
  7477  004160  EFB4  F020         	goto	u6501
  7478  004164  EFB6  F020         	goto	u6500
  7479  004168                     u6501:
  7480  004168  EFB7  F020         	goto	l816
  7481  00416C                     u6500:
  7482  00416C  803E               	bsf	___flmul@prod^(0+1280),0,c
  7483  00416E                     l816:
  7484  00416E  90D8               	bcf	status,0,c
  7485  004170  3639               	rlcf	___flmul@grs^(0+1280),f,c
  7486  004172  363A               	rlcf	(___flmul@grs+1)^(0+1280),f,c
  7487  004174  363B               	rlcf	(___flmul@grs+2)^(0+1280),f,c
  7488  004176  363C               	rlcf	(___flmul@grs+3)^(0+1280),f,c
  7489  004178  0642               	decf	___flmul@temp^(0+1280),f,c
  7490  00417A  A0D8               	btfss	status,0,c
  7491  00417C  0643               	decf	(___flmul@temp+1)^(0+1280),f,c
  7492  00417E                     l5213:
  7493  00417E  AE40               	btfss	(___flmul@prod+2)^(0+1280),7,c
  7494  004180  EFC4  F020         	goto	u6511
  7495  004184  EFC6  F020         	goto	u6510
  7496  004188                     u6511:
  7497  004188  EFAA  F020         	goto	l5207
  7498  00418C                     u6510:
  7499  00418C  0E00               	movlw	0
  7500  00418E  6E38               	movwf	___flmul@aexp^(0+1280),c
  7501  004190  AE3C               	btfss	(___flmul@grs+3)^(0+1280),7,c
  7502  004192  EFCD  F020         	goto	u6521
  7503  004196  EFCF  F020         	goto	u6520
  7504  00419A                     u6521:
  7505  00419A  EFF3  F020         	goto	l818
  7506  00419E                     u6520:
  7507  00419E  0EFF               	movlw	255
  7508  0041A0  1439               	andwf	___flmul@grs^(0+1280),w,c
  7509  0041A2  6E33               	movwf	??___flmul^(0+1280),c
  7510  0041A4  0EFF               	movlw	255
  7511  0041A6  143A               	andwf	(___flmul@grs+1)^(0+1280),w,c
  7512  0041A8  6E34               	movwf	(??___flmul+1)^(0+1280),c
  7513  0041AA  0EFF               	movlw	255
  7514  0041AC  143B               	andwf	(___flmul@grs+2)^(0+1280),w,c
  7515  0041AE  6E35               	movwf	(??___flmul+2)^(0+1280),c
  7516  0041B0  0E7F               	movlw	127
  7517  0041B2  143C               	andwf	(___flmul@grs+3)^(0+1280),w,c
  7518  0041B4  6E36               	movwf	(??___flmul+3)^(0+1280),c
  7519  0041B6  5033               	movf	??___flmul^(0+1280),w,c
  7520  0041B8  1034               	iorwf	(??___flmul+1)^(0+1280),w,c
  7521  0041BA  1035               	iorwf	(??___flmul+2)^(0+1280),w,c
  7522  0041BC  1036               	iorwf	(??___flmul+3)^(0+1280),w,c
  7523  0041BE  B4D8               	btfsc	status,2,c
  7524  0041C0  EFE4  F020         	goto	u6531
  7525  0041C4  EFE6  F020         	goto	u6530
  7526  0041C8                     u6531:
  7527  0041C8  EFEA  F020         	goto	l819
  7528  0041CC                     u6530:
  7529  0041CC                     l5221:
  7530  0041CC  0E01               	movlw	1
  7531  0041CE  6E38               	movwf	___flmul@aexp^(0+1280),c
  7532  0041D0  EFF3  F020         	goto	l818
  7533  0041D4                     l819:
  7534  0041D4  A03E               	btfss	___flmul@prod^(0+1280),0,c
  7535  0041D6  EFEF  F020         	goto	u6541
  7536  0041DA  EFF1  F020         	goto	u6540
  7537  0041DE                     u6541:
  7538  0041DE  EFF3  F020         	goto	l818
  7539  0041E2                     u6540:
  7540  0041E2  EFE6  F020         	goto	l5221
  7541  0041E6                     l818:
  7542  0041E6  5038               	movf	___flmul@aexp^(0+1280),w,c
  7543  0041E8  B4D8               	btfsc	status,2,c
  7544  0041EA  EFF9  F020         	goto	u6551
  7545  0041EE  EFFB  F020         	goto	u6550
  7546  0041F2                     u6551:
  7547  0041F2  EF1F  F021         	goto	l5233
  7548  0041F6                     u6550:
  7549  0041F6  0E01               	movlw	1
  7550  0041F8  263E               	addwf	___flmul@prod^(0+1280),f,c
  7551  0041FA  0E00               	movlw	0
  7552  0041FC  223F               	addwfc	(___flmul@prod+1)^(0+1280),f,c
  7553  0041FE  2240               	addwfc	(___flmul@prod+2)^(0+1280),f,c
  7554  004200  2241               	addwfc	(___flmul@prod+3)^(0+1280),f,c
  7555  004202  A041               	btfss	(___flmul@prod+3)^(0+1280),0,c
  7556  004204  EF06  F021         	goto	u6561
  7557  004208  EF08  F021         	goto	u6560
  7558  00420C                     u6561:
  7559  00420C  EF1F  F021         	goto	l5233
  7560  004210                     u6560:
  7561  004210  C53E  F533         	movff	___flmul@prod,??___flmul
  7562  004214  C53F  F534         	movff	___flmul@prod+1,??___flmul+1
  7563  004218  C540  F535         	movff	___flmul@prod+2,??___flmul+2
  7564  00421C  C541  F536         	movff	___flmul@prod+3,??___flmul+3
  7565  004220  3436               	rlcf	(??___flmul+3)^(0+1280),w,c
  7566  004222  3236               	rrcf	(??___flmul+3)^(0+1280),f,c
  7567  004224  3235               	rrcf	(??___flmul+2)^(0+1280),f,c
  7568  004226  3234               	rrcf	(??___flmul+1)^(0+1280),f,c
  7569  004228  3233               	rrcf	??___flmul^(0+1280),f,c
  7570  00422A  C533  F53E         	movff	??___flmul,___flmul@prod
  7571  00422E  C534  F53F         	movff	??___flmul+1,___flmul@prod+1
  7572  004232  C535  F540         	movff	??___flmul+2,___flmul@prod+2
  7573  004236  C536  F541         	movff	??___flmul+3,___flmul@prod+3
  7574  00423A  4A42               	infsnz	___flmul@temp^(0+1280),f,c
  7575  00423C  2A43               	incf	(___flmul@temp+1)^(0+1280),f,c
  7576  00423E                     l5233:
  7577  00423E  BE43               	btfsc	(___flmul@temp+1)^(0+1280),7,c
  7578  004240  EF2A  F021         	goto	u6571
  7579  004244  5043               	movf	(___flmul@temp+1)^(0+1280),w,c
  7580  004246  E108               	bnz	u6570
  7581  004248  2842               	incf	___flmul@temp^(0+1280),w,c
  7582  00424A  A0D8               	btfss	status,0,c
  7583  00424C  EF2A  F021         	goto	u6571
  7584  004250  EF2C  F021         	goto	u6570
  7585  004254                     u6571:
  7586  004254  EF36  F021         	goto	l5237
  7587  004258                     u6570:
  7588  004258  0E00               	movlw	0
  7589  00425A  6E3E               	movwf	___flmul@prod^(0+1280),c
  7590  00425C  0E00               	movlw	0
  7591  00425E  6E3F               	movwf	(___flmul@prod+1)^(0+1280),c
  7592  004260  0E80               	movlw	128
  7593  004262  6E40               	movwf	(___flmul@prod+2)^(0+1280),c
  7594  004264  0E7F               	movlw	127
  7595  004266  6E41               	movwf	(___flmul@prod+3)^(0+1280),c
  7596  004268  EF64  F021         	goto	l5249
  7597  00426C                     l5237:
  7598  00426C  BE43               	btfsc	(___flmul@temp+1)^(0+1280),7,c
  7599  00426E  EF43  F021         	goto	u6580
  7600  004272  5043               	movf	(___flmul@temp+1)^(0+1280),w,c
  7601  004274  E106               	bnz	u6581
  7602  004276  0442               	decf	___flmul@temp^(0+1280),w,c
  7603  004278  B0D8               	btfsc	status,0,c
  7604  00427A  EF41  F021         	goto	u6581
  7605  00427E  EF43  F021         	goto	u6580
  7606  004282                     u6581:
  7607  004282  EF4F  F021         	goto	l826
  7608  004286                     u6580:
  7609  004286  0E00               	movlw	0
  7610  004288  6E3E               	movwf	___flmul@prod^(0+1280),c
  7611  00428A  0E00               	movlw	0
  7612  00428C  6E3F               	movwf	(___flmul@prod+1)^(0+1280),c
  7613  00428E  0E00               	movlw	0
  7614  004290  6E40               	movwf	(___flmul@prod+2)^(0+1280),c
  7615  004292  0E00               	movlw	0
  7616  004294  6E41               	movwf	(___flmul@prod+3)^(0+1280),c
  7617  004296  0E00               	movlw	0
  7618  004298  6E37               	movwf	___flmul@sign^(0+1280),c
  7619  00429A  EF64  F021         	goto	l5249
  7620  00429E                     l826:
  7621  00429E  C542  F53D         	movff	___flmul@temp,___flmul@bexp
  7622  0042A2  0EFF               	movlw	255
  7623  0042A4  163E               	andwf	___flmul@prod^(0+1280),f,c
  7624  0042A6  0EFF               	movlw	255
  7625  0042A8  163F               	andwf	(___flmul@prod+1)^(0+1280),f,c
  7626  0042AA  0E7F               	movlw	127
  7627  0042AC  1640               	andwf	(___flmul@prod+2)^(0+1280),f,c
  7628  0042AE  0E00               	movlw	0
  7629  0042B0  1641               	andwf	(___flmul@prod+3)^(0+1280),f,c
  7630  0042B2  A03D               	btfss	___flmul@bexp^(0+1280),0,c
  7631  0042B4  EF5E  F021         	goto	u6591
  7632  0042B8  EF60  F021         	goto	u6590
  7633  0042BC                     u6591:
  7634  0042BC  EF61  F021         	goto	l5247
  7635  0042C0                     u6590:
  7636  0042C0  8E40               	bsf	(___flmul@prod+2)^(0+1280),7,c
  7637  0042C2                     l5247:
  7638  0042C2  90D8               	bcf	status,0,c
  7639  0042C4  303D               	rrcf	___flmul@bexp^(0+1280),w,c
  7640  0042C6  6E41               	movwf	(___flmul@prod+3)^(0+1280),c
  7641  0042C8                     l5249:
  7642  0042C8  5037               	movf	___flmul@sign^(0+1280),w,c
  7643  0042CA  1241               	iorwf	(___flmul@prod+3)^(0+1280),f,c
  7644  0042CC  C53E  F52B         	movff	___flmul@prod,?___flmul
  7645  0042D0  C53F  F52C         	movff	___flmul@prod+1,?___flmul+1
  7646  0042D4  C540  F52D         	movff	___flmul@prod+2,?___flmul+2
  7647  0042D8  C541  F52E         	movff	___flmul@prod+3,?___flmul+3
  7648  0042DC                     l813:
  7649  0042DC  0012               	return		;funcret
  7650  0042DE                     __end_of___flmul:
  7651                           	callstack 0
  7652                           
  7653 ;; *************** function ___flge *****************
  7654 ;; Defined at:
  7655 ;;		line 4 in file "C:\Program Files\Microchip\xc8\v2.32\pic\sources\c99\common\flge.c"
  7656 ;; Parameters:    Size  Location     Type
  7657 ;;  ff1             4   67[COMRAM] unsigned char 
  7658 ;;  ff2             4   71[COMRAM] unsigned char 
  7659 ;; Auto vars:     Size  Location     Type
  7660 ;;		None
  7661 ;; Return value:  Size  Location     Type
  7662 ;;		None               void
  7663 ;; Registers used:
  7664 ;;		wreg, status,2, status,0
  7665 ;; Tracked objects:
  7666 ;;		On entry : 0/0
  7667 ;;		On exit  : 0/0
  7668 ;;		Unchanged: 0/0
  7669 ;; Data sizes:     COMRAM   BANK5   BANK6   BANK7   BANK8   BANK9  BANK10  BANK11  BANK12  BANK13  BANK14  BANK15  BANK1
      +6  BANK17  BANK18  BANK19  BANK20  BANK21  BANK22  BANK23  BANK24  BANK25  BANK26  BANK27  BANK28  BANK29  BANK30  BANK3
      +1  BANK32  BANK33  BANK34  BANK35  BANK36
  7670 ;;      Params:         8       0       0       0       0       0       0       0       0       0       0       0       
      +0       0       0       0       0       0       0       0       0       0       0       0       0       0       0       
      +0       0       0       0       0       0
  7671 ;;      Locals:         0       0       0       0       0       0       0       0       0       0       0       0       
      +0       0       0       0       0       0       0       0       0       0       0       0       0       0       0       
      +0       0       0       0       0       0
  7672 ;;      Temps:          4       0       0       0       0       0       0       0       0       0       0       0       
      +0       0       0       0       0       0       0       0       0       0       0       0       0       0       0       
      +0       0       0       0       0       0
  7673 ;;      Totals:        12       0       0       0       0       0       0       0       0       0       0       0       
      +0       0       0       0       0       0       0       0       0       0       0       0       0       0       0       
      +0       0       0       0       0       0
  7674 ;;Total ram usage:       12 bytes
  7675 ;; Hardware stack levels used: 1
  7676 ;; Hardware stack levels required when called: 2
  7677 ;; This function calls:
  7678 ;;		Nothing
  7679 ;; This function is called by:
  7680 ;;		_efgtoa
  7681 ;; This function uses a non-reentrant model
  7682 ;;
  7683                           
  7684                           	psect	text24
  7685  00529E                     __ptext24:
  7686                           	callstack 0
  7687  00529E                     ___flge:
  7688                           	callstack 120
  7689  00529E  0E00               	movlw	0
  7690  0052A0  1444               	andwf	___flge@ff1^(0+1280),w,c
  7691  0052A2  6E4C               	movwf	??___flge^(0+1280),c
  7692  0052A4  0E00               	movlw	0
  7693  0052A6  1445               	andwf	(___flge@ff1+1)^(0+1280),w,c
  7694  0052A8  6E4D               	movwf	(??___flge+1)^(0+1280),c
  7695  0052AA  0E80               	movlw	128
  7696  0052AC  1446               	andwf	(___flge@ff1+2)^(0+1280),w,c
  7697  0052AE  6E4E               	movwf	(??___flge+2)^(0+1280),c
  7698  0052B0  0E7F               	movlw	127
  7699  0052B2  1447               	andwf	(___flge@ff1+3)^(0+1280),w,c
  7700  0052B4  6E4F               	movwf	(??___flge+3)^(0+1280),c
  7701  0052B6  504C               	movf	??___flge^(0+1280),w,c
  7702  0052B8  104D               	iorwf	(??___flge+1)^(0+1280),w,c
  7703  0052BA  104E               	iorwf	(??___flge+2)^(0+1280),w,c
  7704  0052BC  104F               	iorwf	(??___flge+3)^(0+1280),w,c
  7705  0052BE  A4D8               	btfss	status,2,c
  7706  0052C0  EF64  F029         	goto	u6751
  7707  0052C4  EF66  F029         	goto	u6750
  7708  0052C8                     u6751:
  7709  0052C8  EF6E  F029         	goto	l5361
  7710  0052CC                     u6750:
  7711  0052CC  0E00               	movlw	0
  7712  0052CE  6E44               	movwf	___flge@ff1^(0+1280),c
  7713  0052D0  0E00               	movlw	0
  7714  0052D2  6E45               	movwf	(___flge@ff1+1)^(0+1280),c
  7715  0052D4  0E00               	movlw	0
  7716  0052D6  6E46               	movwf	(___flge@ff1+2)^(0+1280),c
  7717  0052D8  0E00               	movlw	0
  7718  0052DA  6E47               	movwf	(___flge@ff1+3)^(0+1280),c
  7719  0052DC                     l5361:
  7720  0052DC  0E00               	movlw	0
  7721  0052DE  1448               	andwf	___flge@ff2^(0+1280),w,c
  7722  0052E0  6E4C               	movwf	??___flge^(0+1280),c
  7723  0052E2  0E00               	movlw	0
  7724  0052E4  1449               	andwf	(___flge@ff2+1)^(0+1280),w,c
  7725  0052E6  6E4D               	movwf	(??___flge+1)^(0+1280),c
  7726  0052E8  0E80               	movlw	128
  7727  0052EA  144A               	andwf	(___flge@ff2+2)^(0+1280),w,c
  7728  0052EC  6E4E               	movwf	(??___flge+2)^(0+1280),c
  7729  0052EE  0E7F               	movlw	127
  7730  0052F0  144B               	andwf	(___flge@ff2+3)^(0+1280),w,c
  7731  0052F2  6E4F               	movwf	(??___flge+3)^(0+1280),c
  7732  0052F4  504C               	movf	??___flge^(0+1280),w,c
  7733  0052F6  104D               	iorwf	(??___flge+1)^(0+1280),w,c
  7734  0052F8  104E               	iorwf	(??___flge+2)^(0+1280),w,c
  7735  0052FA  104F               	iorwf	(??___flge+3)^(0+1280),w,c
  7736  0052FC  A4D8               	btfss	status,2,c
  7737  0052FE  EF83  F029         	goto	u6761
  7738  005302  EF85  F029         	goto	u6760
  7739  005306                     u6761:
  7740  005306  EF8D  F029         	goto	l5365
  7741  00530A                     u6760:
  7742  00530A  0E00               	movlw	0
  7743  00530C  6E48               	movwf	___flge@ff2^(0+1280),c
  7744  00530E  0E00               	movlw	0
  7745  005310  6E49               	movwf	(___flge@ff2+1)^(0+1280),c
  7746  005312  0E00               	movlw	0
  7747  005314  6E4A               	movwf	(___flge@ff2+2)^(0+1280),c
  7748  005316  0E00               	movlw	0
  7749  005318  6E4B               	movwf	(___flge@ff2+3)^(0+1280),c
  7750  00531A                     l5365:
  7751  00531A  AE47               	btfss	(___flge@ff1+3)^(0+1280),7,c
  7752  00531C  EF92  F029         	goto	u6771
  7753  005320  EF94  F029         	goto	u6770
  7754  005324                     u6771:
  7755  005324  EF9D  F029         	goto	l5369
  7756  005328                     u6770:
  7757  005328  6C44               	negf	___flge@ff1^(0+1280),c
  7758  00532A  1E45               	comf	(___flge@ff1+1)^(0+1280),f,c
  7759  00532C  B0D8               	btfsc	status,0,c
  7760  00532E  2A45               	incf	(___flge@ff1+1)^(0+1280),f,c
  7761  005330  1E46               	comf	(___flge@ff1+2)^(0+1280),f,c
  7762  005332  B0D8               	btfsc	status,0,c
  7763  005334  2A46               	incf	(___flge@ff1+2)^(0+1280),f,c
  7764  005336  0E80               	movlw	128
  7765  005338  5647               	subfwb	(___flge@ff1+3)^(0+1280),f,c
  7766  00533A                     l5369:
  7767  00533A  AE4B               	btfss	(___flge@ff2+3)^(0+1280),7,c
  7768  00533C  EFA2  F029         	goto	u6781
  7769  005340  EFA4  F029         	goto	u6780
  7770  005344                     u6781:
  7771  005344  EFAD  F029         	goto	l460
  7772  005348                     u6780:
  7773  005348  6C48               	negf	___flge@ff2^(0+1280),c
  7774  00534A  1E49               	comf	(___flge@ff2+1)^(0+1280),f,c
  7775  00534C  B0D8               	btfsc	status,0,c
  7776  00534E  2A49               	incf	(___flge@ff2+1)^(0+1280),f,c
  7777  005350  1E4A               	comf	(___flge@ff2+2)^(0+1280),f,c
  7778  005352  B0D8               	btfsc	status,0,c
  7779  005354  2A4A               	incf	(___flge@ff2+2)^(0+1280),f,c
  7780  005356  0E80               	movlw	128
  7781  005358  564B               	subfwb	(___flge@ff2+3)^(0+1280),f,c
  7782  00535A                     l460:
  7783  00535A  0E00               	movlw	0
  7784  00535C  1A44               	xorwf	___flge@ff1^(0+1280),f,c
  7785  00535E  0E00               	movlw	0
  7786  005360  1A45               	xorwf	(___flge@ff1+1)^(0+1280),f,c
  7787  005362  0E00               	movlw	0
  7788  005364  1A46               	xorwf	(___flge@ff1+2)^(0+1280),f,c
  7789  005366  0E80               	movlw	128
  7790  005368  1A47               	xorwf	(___flge@ff1+3)^(0+1280),f,c
  7791  00536A  0E00               	movlw	0
  7792  00536C  1A48               	xorwf	___flge@ff2^(0+1280),f,c
  7793  00536E  0E00               	movlw	0
  7794  005370  1A49               	xorwf	(___flge@ff2+1)^(0+1280),f,c
  7795  005372  0E00               	movlw	0
  7796  005374  1A4A               	xorwf	(___flge@ff2+2)^(0+1280),f,c
  7797  005376  0E80               	movlw	128
  7798  005378  1A4B               	xorwf	(___flge@ff2+3)^(0+1280),f,c
  7799  00537A  5048               	movf	___flge@ff2^(0+1280),w,c
  7800  00537C  5C44               	subwf	___flge@ff1^(0+1280),w,c
  7801  00537E  5049               	movf	(___flge@ff2+1)^(0+1280),w,c
  7802  005380  5845               	subwfb	(___flge@ff1+1)^(0+1280),w,c
  7803  005382  504A               	movf	(___flge@ff2+2)^(0+1280),w,c
  7804  005384  5846               	subwfb	(___flge@ff1+2)^(0+1280),w,c
  7805  005386  504B               	movf	(___flge@ff2+3)^(0+1280),w,c
  7806  005388  5847               	subwfb	(___flge@ff1+3)^(0+1280),w,c
  7807  00538A  B0D8               	btfsc	status,0,c
  7808  00538C  EFCA  F029         	goto	u6791
  7809  005390  EFCC  F029         	goto	u6790
  7810  005394                     u6791:
  7811  005394  EFCF  F029         	goto	l5375
  7812  005398                     u6790:
  7813  005398  90D8               	bcf	status,0,c
  7814  00539A  EFD0  F029         	goto	l465
  7815  00539E                     l5375:
  7816  00539E  80D8               	bsf	status,0,c
  7817  0053A0                     l465:
  7818  0053A0  0012               	return		;funcret
  7819  0053A2                     __end_of___flge:
  7820                           	callstack 0
  7821                           
  7822 ;; *************** function ___fleq *****************
  7823 ;; Defined at:
  7824 ;;		line 4 in file "C:\Program Files\Microchip\xc8\v2.32\pic\sources\c99\common\fleq.c"
  7825 ;; Parameters:    Size  Location     Type
  7826 ;;  ff1             4    3[COMRAM] unsigned char 
  7827 ;;  ff2             4    7[COMRAM] unsigned char 
  7828 ;; Auto vars:     Size  Location     Type
  7829 ;;		None
  7830 ;; Return value:  Size  Location     Type
  7831 ;;		None               void
  7832 ;; Registers used:
  7833 ;;		wreg, status,2, status,0
  7834 ;; Tracked objects:
  7835 ;;		On entry : 0/0
  7836 ;;		On exit  : 0/0
  7837 ;;		Unchanged: 0/0
  7838 ;; Data sizes:     COMRAM   BANK5   BANK6   BANK7   BANK8   BANK9  BANK10  BANK11  BANK12  BANK13  BANK14  BANK15  BANK1
      +6  BANK17  BANK18  BANK19  BANK20  BANK21  BANK22  BANK23  BANK24  BANK25  BANK26  BANK27  BANK28  BANK29  BANK30  BANK3
      +1  BANK32  BANK33  BANK34  BANK35  BANK36
  7839 ;;      Params:         8       0       0       0       0       0       0       0       0       0       0       0       
      +0       0       0       0       0       0       0       0       0       0       0       0       0       0       0       
      +0       0       0       0       0       0
  7840 ;;      Locals:         0       0       0       0       0       0       0       0       0       0       0       0       
      +0       0       0       0       0       0       0       0       0       0       0       0       0       0       0       
      +0       0       0       0       0       0
  7841 ;;      Temps:          4       0       0       0       0       0       0       0       0       0       0       0       
      +0       0       0       0       0       0       0       0       0       0       0       0       0       0       0       
      +0       0       0       0       0       0
  7842 ;;      Totals:        12       0       0       0       0       0       0       0       0       0       0       0       
      +0       0       0       0       0       0       0       0       0       0       0       0       0       0       0       
      +0       0       0       0       0       0
  7843 ;;Total ram usage:       12 bytes
  7844 ;; Hardware stack levels used: 1
  7845 ;; Hardware stack levels required when called: 2
  7846 ;; This function calls:
  7847 ;;		Nothing
  7848 ;; This function is called by:
  7849 ;;		_efgtoa
  7850 ;; This function uses a non-reentrant model
  7851 ;;
  7852                           
  7853                           	psect	text25
  7854  005A68                     __ptext25:
  7855                           	callstack 0
  7856  005A68                     ___fleq:
  7857                           	callstack 120
  7858  005A68  0E00               	movlw	0
  7859  005A6A  1404               	andwf	___fleq@ff1^(0+1280),w,c
  7860  005A6C  6E0C               	movwf	??___fleq^(0+1280),c
  7861  005A6E  0E00               	movlw	0
  7862  005A70  1405               	andwf	(___fleq@ff1+1)^(0+1280),w,c
  7863  005A72  6E0D               	movwf	(??___fleq+1)^(0+1280),c
  7864  005A74  0E80               	movlw	128
  7865  005A76  1406               	andwf	(___fleq@ff1+2)^(0+1280),w,c
  7866  005A78  6E0E               	movwf	(??___fleq+2)^(0+1280),c
  7867  005A7A  0E7F               	movlw	127
  7868  005A7C  1407               	andwf	(___fleq@ff1+3)^(0+1280),w,c
  7869  005A7E  6E0F               	movwf	(??___fleq+3)^(0+1280),c
  7870  005A80  500C               	movf	??___fleq^(0+1280),w,c
  7871  005A82  100D               	iorwf	(??___fleq+1)^(0+1280),w,c
  7872  005A84  100E               	iorwf	(??___fleq+2)^(0+1280),w,c
  7873  005A86  100F               	iorwf	(??___fleq+3)^(0+1280),w,c
  7874  005A88  A4D8               	btfss	status,2,c
  7875  005A8A  EF49  F02D         	goto	u6721
  7876  005A8E  EF4B  F02D         	goto	u6720
  7877  005A92                     u6721:
  7878  005A92  EF53  F02D         	goto	l5345
  7879  005A96                     u6720:
  7880  005A96  0E00               	movlw	0
  7881  005A98  6E04               	movwf	___fleq@ff1^(0+1280),c
  7882  005A9A  0E00               	movlw	0
  7883  005A9C  6E05               	movwf	(___fleq@ff1+1)^(0+1280),c
  7884  005A9E  0E00               	movlw	0
  7885  005AA0  6E06               	movwf	(___fleq@ff1+2)^(0+1280),c
  7886  005AA2  0E00               	movlw	0
  7887  005AA4  6E07               	movwf	(___fleq@ff1+3)^(0+1280),c
  7888  005AA6                     l5345:
  7889  005AA6  0E00               	movlw	0
  7890  005AA8  1408               	andwf	___fleq@ff2^(0+1280),w,c
  7891  005AAA  6E0C               	movwf	??___fleq^(0+1280),c
  7892  005AAC  0E00               	movlw	0
  7893  005AAE  1409               	andwf	(___fleq@ff2+1)^(0+1280),w,c
  7894  005AB0  6E0D               	movwf	(??___fleq+1)^(0+1280),c
  7895  005AB2  0E80               	movlw	128
  7896  005AB4  140A               	andwf	(___fleq@ff2+2)^(0+1280),w,c
  7897  005AB6  6E0E               	movwf	(??___fleq+2)^(0+1280),c
  7898  005AB8  0E7F               	movlw	127
  7899  005ABA  140B               	andwf	(___fleq@ff2+3)^(0+1280),w,c
  7900  005ABC  6E0F               	movwf	(??___fleq+3)^(0+1280),c
  7901  005ABE  500C               	movf	??___fleq^(0+1280),w,c
  7902  005AC0  100D               	iorwf	(??___fleq+1)^(0+1280),w,c
  7903  005AC2  100E               	iorwf	(??___fleq+2)^(0+1280),w,c
  7904  005AC4  100F               	iorwf	(??___fleq+3)^(0+1280),w,c
  7905  005AC6  A4D8               	btfss	status,2,c
  7906  005AC8  EF68  F02D         	goto	u6731
  7907  005ACC  EF6A  F02D         	goto	u6730
  7908  005AD0                     u6731:
  7909  005AD0  EF72  F02D         	goto	l5349
  7910  005AD4                     u6730:
  7911  005AD4  0E00               	movlw	0
  7912  005AD6  6E08               	movwf	___fleq@ff2^(0+1280),c
  7913  005AD8  0E00               	movlw	0
  7914  005ADA  6E09               	movwf	(___fleq@ff2+1)^(0+1280),c
  7915  005ADC  0E00               	movlw	0
  7916  005ADE  6E0A               	movwf	(___fleq@ff2+2)^(0+1280),c
  7917  005AE0  0E00               	movlw	0
  7918  005AE2  6E0B               	movwf	(___fleq@ff2+3)^(0+1280),c
  7919  005AE4                     l5349:
  7920  005AE4  5008               	movf	___fleq@ff2^(0+1280),w,c
  7921  005AE6  1804               	xorwf	___fleq@ff1^(0+1280),w,c
  7922  005AE8  E10F               	bnz	u6740
  7923  005AEA  5009               	movf	(___fleq@ff2+1)^(0+1280),w,c
  7924  005AEC  1805               	xorwf	(___fleq@ff1+1)^(0+1280),w,c
  7925  005AEE  E10C               	bnz	u6740
  7926  005AF0  500A               	movf	(___fleq@ff2+2)^(0+1280),w,c
  7927  005AF2  1806               	xorwf	(___fleq@ff1+2)^(0+1280),w,c
  7928  005AF4  E109               	bnz	u6740
  7929  005AF6  500B               	movf	(___fleq@ff2+3)^(0+1280),w,c
  7930  005AF8  1807               	xorwf	(___fleq@ff1+3)^(0+1280),w,c
  7931  005AFA  B4D8               	btfsc	status,2,c
  7932  005AFC  EF82  F02D         	goto	u6741
  7933  005B00  EF84  F02D         	goto	u6740
  7934  005B04                     u6741:
  7935  005B04  EF87  F02D         	goto	l5353
  7936  005B08                     u6740:
  7937  005B08  90D8               	bcf	status,0,c
  7938  005B0A  EF88  F02D         	goto	l454
  7939  005B0E                     l5353:
  7940  005B0E  80D8               	bsf	status,0,c
  7941  005B10                     l454:
  7942  005B10  0012               	return		;funcret
  7943  005B12                     __end_of___fleq:
  7944                           	callstack 0
  7945                           
  7946 ;; *************** function ___fldiv *****************
  7947 ;; Defined at:
  7948 ;;		line 11 in file "C:\Program Files\Microchip\xc8\v2.32\pic\sources\c99\common\sprcdiv.c"
  7949 ;; Parameters:    Size  Location     Type
  7950 ;;  b               4   17[COMRAM] unsigned char 
  7951 ;;  a               4   21[COMRAM] unsigned char 
  7952 ;; Auto vars:     Size  Location     Type
  7953 ;;  grs             4   36[COMRAM] unsigned long 
  7954 ;;  rem             4   29[COMRAM] unsigned long 
  7955 ;;  new_exp         2   34[COMRAM] short 
  7956 ;;  aexp            1   41[COMRAM] unsigned char 
  7957 ;;  bexp            1   40[COMRAM] unsigned char 
  7958 ;;  sign            1   33[COMRAM] unsigned char 
  7959 ;; Return value:  Size  Location     Type
  7960 ;;                  4   17[COMRAM] unsigned char 
  7961 ;; Registers used:
  7962 ;;		wreg, status,2, status,0
  7963 ;; Tracked objects:
  7964 ;;		On entry : 0/0
  7965 ;;		On exit  : 0/0
  7966 ;;		Unchanged: 0/0
  7967 ;; Data sizes:     COMRAM   BANK5   BANK6   BANK7   BANK8   BANK9  BANK10  BANK11  BANK12  BANK13  BANK14  BANK15  BANK1
      +6  BANK17  BANK18  BANK19  BANK20  BANK21  BANK22  BANK23  BANK24  BANK25  BANK26  BANK27  BANK28  BANK29  BANK30  BANK3
      +1  BANK32  BANK33  BANK34  BANK35  BANK36
  7968 ;;      Params:         8       0       0       0       0       0       0       0       0       0       0       0       
      +0       0       0       0       0       0       0       0       0       0       0       0       0       0       0       
      +0       0       0       0       0       0
  7969 ;;      Locals:        13       0       0       0       0       0       0       0       0       0       0       0       
      +0       0       0       0       0       0       0       0       0       0       0       0       0       0       0       
      +0       0       0       0       0       0
  7970 ;;      Temps:          4       0       0       0       0       0       0       0       0       0       0       0       
      +0       0       0       0       0       0       0       0       0       0       0       0       0       0       0       
      +0       0       0       0       0       0
  7971 ;;      Totals:        25       0       0       0       0       0       0       0       0       0       0       0       
      +0       0       0       0       0       0       0       0       0       0       0       0       0       0       0       
      +0       0       0       0       0       0
  7972 ;;Total ram usage:       25 bytes
  7973 ;; Hardware stack levels used: 1
  7974 ;; Hardware stack levels required when called: 2
  7975 ;; This function calls:
  7976 ;;		Nothing
  7977 ;; This function is called by:
  7978 ;;		_main
  7979 ;;		_efgtoa
  7980 ;; This function uses a non-reentrant model
  7981 ;;
  7982                           
  7983                           	psect	text26
  7984  0042DE                     __ptext26:
  7985                           	callstack 0
  7986  0042DE                     ___fldiv:
  7987                           	callstack 120
  7988  0042DE  5015               	movf	(___fldiv@b+3)^(0+1280),w,c
  7989  0042E0  0B80               	andlw	128
  7990  0042E2  6E22               	movwf	___fldiv@sign^(0+1280),c
  7991  0042E4  5015               	movf	(___fldiv@b+3)^(0+1280),w,c
  7992  0042E6  2415               	addwf	(___fldiv@b+3)^(0+1280),w,c
  7993  0042E8  6E29               	movwf	___fldiv@bexp^(0+1280),c
  7994  0042EA  AE14               	btfss	(___fldiv@b+2)^(0+1280),7,c
  7995  0042EC  EF7A  F021         	goto	u6181
  7996  0042F0  EF7C  F021         	goto	u6180
  7997  0042F4                     u6181:
  7998  0042F4  EF7D  F021         	goto	l4993
  7999  0042F8                     u6180:
  8000  0042F8  8029               	bsf	___fldiv@bexp^(0+1280),0,c
  8001  0042FA                     l4993:
  8002  0042FA  5029               	movf	___fldiv@bexp^(0+1280),w,c
  8003  0042FC  B4D8               	btfsc	status,2,c
  8004  0042FE  EF83  F021         	goto	u6191
  8005  004302  EF85  F021         	goto	u6190
  8006  004306                     u6191:
  8007  004306  EF9A  F021         	goto	l5003
  8008  00430A                     u6190:
  8009  00430A  2829               	incf	___fldiv@bexp^(0+1280),w,c
  8010  00430C  A4D8               	btfss	status,2,c
  8011  00430E  EF8B  F021         	goto	u6201
  8012  004312  EF8D  F021         	goto	u6200
  8013  004316                     u6201:
  8014  004316  EF95  F021         	goto	l4999
  8015  00431A                     u6200:
  8016  00431A  0E00               	movlw	0
  8017  00431C  6E12               	movwf	___fldiv@b^(0+1280),c
  8018  00431E  0E00               	movlw	0
  8019  004320  6E13               	movwf	(___fldiv@b+1)^(0+1280),c
  8020  004322  0E00               	movlw	0
  8021  004324  6E14               	movwf	(___fldiv@b+2)^(0+1280),c
  8022  004326  0E00               	movlw	0
  8023  004328  6E15               	movwf	(___fldiv@b+3)^(0+1280),c
  8024  00432A                     l4999:
  8025  00432A  8E14               	bsf	(___fldiv@b+2)^(0+1280),7,c
  8026  00432C  0E00               	movlw	0
  8027  00432E  6E15               	movwf	(___fldiv@b+3)^(0+1280),c
  8028  004330  EFA2  F021         	goto	l5005
  8029  004334                     l5003:
  8030  004334  0E00               	movlw	0
  8031  004336  6E12               	movwf	___fldiv@b^(0+1280),c
  8032  004338  0E00               	movlw	0
  8033  00433A  6E13               	movwf	(___fldiv@b+1)^(0+1280),c
  8034  00433C  0E00               	movlw	0
  8035  00433E  6E14               	movwf	(___fldiv@b+2)^(0+1280),c
  8036  004340  0E00               	movlw	0
  8037  004342  6E15               	movwf	(___fldiv@b+3)^(0+1280),c
  8038  004344                     l5005:
  8039  004344  5019               	movf	(___fldiv@a+3)^(0+1280),w,c
  8040  004346  0B80               	andlw	128
  8041  004348  1A22               	xorwf	___fldiv@sign^(0+1280),f,c
  8042  00434A  5019               	movf	(___fldiv@a+3)^(0+1280),w,c
  8043  00434C  2419               	addwf	(___fldiv@a+3)^(0+1280),w,c
  8044  00434E  6E2A               	movwf	___fldiv@aexp^(0+1280),c
  8045  004350  AE18               	btfss	(___fldiv@a+2)^(0+1280),7,c
  8046  004352  EFAD  F021         	goto	u6211
  8047  004356  EFAF  F021         	goto	u6210
  8048  00435A                     u6211:
  8049  00435A  EFB0  F021         	goto	l5013
  8050  00435E                     u6210:
  8051  00435E  802A               	bsf	___fldiv@aexp^(0+1280),0,c
  8052  004360                     l5013:
  8053  004360  502A               	movf	___fldiv@aexp^(0+1280),w,c
  8054  004362  B4D8               	btfsc	status,2,c
  8055  004364  EFB6  F021         	goto	u6221
  8056  004368  EFB8  F021         	goto	u6220
  8057  00436C                     u6221:
  8058  00436C  EFCD  F021         	goto	l5023
  8059  004370                     u6220:
  8060  004370  282A               	incf	___fldiv@aexp^(0+1280),w,c
  8061  004372  A4D8               	btfss	status,2,c
  8062  004374  EFBE  F021         	goto	u6231
  8063  004378  EFC0  F021         	goto	u6230
  8064  00437C                     u6231:
  8065  00437C  EFC8  F021         	goto	l5019
  8066  004380                     u6230:
  8067  004380  0E00               	movlw	0
  8068  004382  6E16               	movwf	___fldiv@a^(0+1280),c
  8069  004384  0E00               	movlw	0
  8070  004386  6E17               	movwf	(___fldiv@a+1)^(0+1280),c
  8071  004388  0E00               	movlw	0
  8072  00438A  6E18               	movwf	(___fldiv@a+2)^(0+1280),c
  8073  00438C  0E00               	movlw	0
  8074  00438E  6E19               	movwf	(___fldiv@a+3)^(0+1280),c
  8075  004390                     l5019:
  8076  004390  8E18               	bsf	(___fldiv@a+2)^(0+1280),7,c
  8077  004392  0E00               	movlw	0
  8078  004394  6E19               	movwf	(___fldiv@a+3)^(0+1280),c
  8079  004396  EFD5  F021         	goto	l5025
  8080  00439A                     l5023:
  8081  00439A  0E00               	movlw	0
  8082  00439C  6E16               	movwf	___fldiv@a^(0+1280),c
  8083  00439E  0E00               	movlw	0
  8084  0043A0  6E17               	movwf	(___fldiv@a+1)^(0+1280),c
  8085  0043A2  0E00               	movlw	0
  8086  0043A4  6E18               	movwf	(___fldiv@a+2)^(0+1280),c
  8087  0043A6  0E00               	movlw	0
  8088  0043A8  6E19               	movwf	(___fldiv@a+3)^(0+1280),c
  8089  0043AA                     l5025:
  8090  0043AA  5016               	movf	___fldiv@a^(0+1280),w,c
  8091  0043AC  1017               	iorwf	(___fldiv@a+1)^(0+1280),w,c
  8092  0043AE  1018               	iorwf	(___fldiv@a+2)^(0+1280),w,c
  8093  0043B0  1019               	iorwf	(___fldiv@a+3)^(0+1280),w,c
  8094  0043B2  A4D8               	btfss	status,2,c
  8095  0043B4  EFDE  F021         	goto	u6241
  8096  0043B8  EFE0  F021         	goto	u6240
  8097  0043BC                     u6241:
  8098  0043BC  EFF8  F021         	goto	l5037
  8099  0043C0                     u6240:
  8100  0043C0  0E00               	movlw	0
  8101  0043C2  6E12               	movwf	___fldiv@b^(0+1280),c
  8102  0043C4  0E00               	movlw	0
  8103  0043C6  6E13               	movwf	(___fldiv@b+1)^(0+1280),c
  8104  0043C8  0E00               	movlw	0
  8105  0043CA  6E14               	movwf	(___fldiv@b+2)^(0+1280),c
  8106  0043CC  0E00               	movlw	0
  8107  0043CE  6E15               	movwf	(___fldiv@b+3)^(0+1280),c
  8108  0043D0  0E80               	movlw	128
  8109  0043D2  1214               	iorwf	(___fldiv@b+2)^(0+1280),f,c
  8110  0043D4  0E7F               	movlw	127
  8111  0043D6  1215               	iorwf	(___fldiv@b+3)^(0+1280),f,c
  8112  0043D8                     l5031:
  8113  0043D8  5022               	movf	___fldiv@sign^(0+1280),w,c
  8114  0043DA  1215               	iorwf	(___fldiv@b+3)^(0+1280),f,c
  8115  0043DC  C512  F512         	movff	___fldiv@b,?___fldiv
  8116  0043E0  C513  F513         	movff	___fldiv@b+1,?___fldiv+1
  8117  0043E4  C514  F514         	movff	___fldiv@b+2,?___fldiv+2
  8118  0043E8  C515  F515         	movff	___fldiv@b+3,?___fldiv+3
  8119  0043EC  EF3B  F023         	goto	l777
  8120  0043F0                     l5037:
  8121  0043F0  5029               	movf	___fldiv@bexp^(0+1280),w,c
  8122  0043F2  A4D8               	btfss	status,2,c
  8123  0043F4  EFFE  F021         	goto	u6251
  8124  0043F8  EF00  F022         	goto	u6250
  8125  0043FC                     u6251:
  8126  0043FC  EF0A  F022         	goto	l5045
  8127  004400                     u6250:
  8128  004400  0E00               	movlw	0
  8129  004402  6E12               	movwf	?___fldiv^(0+1280),c
  8130  004404  0E00               	movlw	0
  8131  004406  6E13               	movwf	(?___fldiv+1)^(0+1280),c
  8132  004408  0E00               	movlw	0
  8133  00440A  6E14               	movwf	(?___fldiv+2)^(0+1280),c
  8134  00440C  0E00               	movlw	0
  8135  00440E  6E15               	movwf	(?___fldiv+3)^(0+1280),c
  8136  004410  EF3B  F023         	goto	l777
  8137  004414                     l5045:
  8138  004414  502A               	movf	___fldiv@aexp^(0+1280),w,c
  8139  004416  C529  F51A         	movff	___fldiv@bexp,??___fldiv
  8140  00441A  6A1B               	clrf	(??___fldiv+1)^(0+1280),c
  8141  00441C  5E1A               	subwf	??___fldiv^(0+1280),f,c
  8142  00441E  0E00               	movlw	0
  8143  004420  5A1B               	subwfb	(??___fldiv+1)^(0+1280),f,c
  8144  004422  0E7F               	movlw	127
  8145  004424  241A               	addwf	??___fldiv^(0+1280),w,c
  8146  004426  6E23               	movwf	___fldiv@new_exp^(0+1280),c
  8147  004428  0E00               	movlw	0
  8148  00442A  201B               	addwfc	(??___fldiv+1)^(0+1280),w,c
  8149  00442C  6E24               	movwf	(___fldiv@new_exp+1)^(0+1280),c
  8150  00442E  C512  F51E         	movff	___fldiv@b,___fldiv@rem
  8151  004432  C513  F51F         	movff	___fldiv@b+1,___fldiv@rem+1
  8152  004436  C514  F520         	movff	___fldiv@b+2,___fldiv@rem+2
  8153  00443A  C515  F521         	movff	___fldiv@b+3,___fldiv@rem+3
  8154  00443E  0E00               	movlw	0
  8155  004440  6E12               	movwf	___fldiv@b^(0+1280),c
  8156  004442  0E00               	movlw	0
  8157  004444  6E13               	movwf	(___fldiv@b+1)^(0+1280),c
  8158  004446  0E00               	movlw	0
  8159  004448  6E14               	movwf	(___fldiv@b+2)^(0+1280),c
  8160  00444A  0E00               	movlw	0
  8161  00444C  6E15               	movwf	(___fldiv@b+3)^(0+1280),c
  8162  00444E  0E00               	movlw	0
  8163  004450  6E25               	movwf	___fldiv@grs^(0+1280),c
  8164  004452  0E00               	movlw	0
  8165  004454  6E26               	movwf	(___fldiv@grs+1)^(0+1280),c
  8166  004456  0E00               	movlw	0
  8167  004458  6E27               	movwf	(___fldiv@grs+2)^(0+1280),c
  8168  00445A  0E00               	movlw	0
  8169  00445C  6E28               	movwf	(___fldiv@grs+3)^(0+1280),c
  8170  00445E  0E00               	movlw	0
  8171  004460  6E2A               	movwf	___fldiv@aexp^(0+1280),c
  8172  004462  EF6B  F022         	goto	l779
  8173  004466                     l5055:
  8174  004466  502A               	movf	___fldiv@aexp^(0+1280),w,c
  8175  004468  B4D8               	btfsc	status,2,c
  8176  00446A  EF39  F022         	goto	u6261
  8177  00446E  EF3B  F022         	goto	u6260
  8178  004472                     u6261:
  8179  004472  EF52  F022         	goto	l5063
  8180  004476                     u6260:
  8181  004476  90D8               	bcf	status,0,c
  8182  004478  361E               	rlcf	___fldiv@rem^(0+1280),f,c
  8183  00447A  361F               	rlcf	(___fldiv@rem+1)^(0+1280),f,c
  8184  00447C  3620               	rlcf	(___fldiv@rem+2)^(0+1280),f,c
  8185  00447E  3621               	rlcf	(___fldiv@rem+3)^(0+1280),f,c
  8186  004480  90D8               	bcf	status,0,c
  8187  004482  3612               	rlcf	___fldiv@b^(0+1280),f,c
  8188  004484  3613               	rlcf	(___fldiv@b+1)^(0+1280),f,c
  8189  004486  3614               	rlcf	(___fldiv@b+2)^(0+1280),f,c
  8190  004488  3615               	rlcf	(___fldiv@b+3)^(0+1280),f,c
  8191  00448A  AE28               	btfss	(___fldiv@grs+3)^(0+1280),7,c
  8192  00448C  EF4A  F022         	goto	u6271
  8193  004490  EF4C  F022         	goto	u6270
  8194  004494                     u6271:
  8195  004494  EF4D  F022         	goto	l782
  8196  004498                     u6270:
  8197  004498  8012               	bsf	___fldiv@b^(0+1280),0,c
  8198  00449A                     l782:
  8199  00449A  90D8               	bcf	status,0,c
  8200  00449C  3625               	rlcf	___fldiv@grs^(0+1280),f,c
  8201  00449E  3626               	rlcf	(___fldiv@grs+1)^(0+1280),f,c
  8202  0044A0  3627               	rlcf	(___fldiv@grs+2)^(0+1280),f,c
  8203  0044A2  3628               	rlcf	(___fldiv@grs+3)^(0+1280),f,c
  8204  0044A4                     l5063:
  8205  0044A4  5016               	movf	___fldiv@a^(0+1280),w,c
  8206  0044A6  5C1E               	subwf	___fldiv@rem^(0+1280),w,c
  8207  0044A8  5017               	movf	(___fldiv@a+1)^(0+1280),w,c
  8208  0044AA  581F               	subwfb	(___fldiv@rem+1)^(0+1280),w,c
  8209  0044AC  5018               	movf	(___fldiv@a+2)^(0+1280),w,c
  8210  0044AE  5820               	subwfb	(___fldiv@rem+2)^(0+1280),w,c
  8211  0044B0  5019               	movf	(___fldiv@a+3)^(0+1280),w,c
  8212  0044B2  5821               	subwfb	(___fldiv@rem+3)^(0+1280),w,c
  8213  0044B4  A0D8               	btfss	status,0,c
  8214  0044B6  EF5F  F022         	goto	u6281
  8215  0044BA  EF61  F022         	goto	u6280
  8216  0044BE                     u6281:
  8217  0044BE  EF6A  F022         	goto	l5069
  8218  0044C2                     u6280:
  8219  0044C2  8C28               	bsf	(___fldiv@grs+3)^(0+1280),6,c
  8220  0044C4  5016               	movf	___fldiv@a^(0+1280),w,c
  8221  0044C6  5E1E               	subwf	___fldiv@rem^(0+1280),f,c
  8222  0044C8  5017               	movf	(___fldiv@a+1)^(0+1280),w,c
  8223  0044CA  5A1F               	subwfb	(___fldiv@rem+1)^(0+1280),f,c
  8224  0044CC  5018               	movf	(___fldiv@a+2)^(0+1280),w,c
  8225  0044CE  5A20               	subwfb	(___fldiv@rem+2)^(0+1280),f,c
  8226  0044D0  5019               	movf	(___fldiv@a+3)^(0+1280),w,c
  8227  0044D2  5A21               	subwfb	(___fldiv@rem+3)^(0+1280),f,c
  8228  0044D4                     l5069:
  8229  0044D4  2A2A               	incf	___fldiv@aexp^(0+1280),f,c
  8230  0044D6                     l779:
  8231  0044D6  0E19               	movlw	25
  8232  0044D8  642A               	cpfsgt	___fldiv@aexp^(0+1280),c
  8233  0044DA  EF71  F022         	goto	u6291
  8234  0044DE  EF73  F022         	goto	u6290
  8235  0044E2                     u6291:
  8236  0044E2  EF33  F022         	goto	l5055
  8237  0044E6                     u6290:
  8238  0044E6  501E               	movf	___fldiv@rem^(0+1280),w,c
  8239  0044E8  101F               	iorwf	(___fldiv@rem+1)^(0+1280),w,c
  8240  0044EA  1020               	iorwf	(___fldiv@rem+2)^(0+1280),w,c
  8241  0044EC  1021               	iorwf	(___fldiv@rem+3)^(0+1280),w,c
  8242  0044EE  B4D8               	btfsc	status,2,c
  8243  0044F0  EF7C  F022         	goto	u6301
  8244  0044F4  EF7E  F022         	goto	u6300
  8245  0044F8                     u6301:
  8246  0044F8  EF96  F022         	goto	l5081
  8247  0044FC                     u6300:
  8248  0044FC  8025               	bsf	___fldiv@grs^(0+1280),0,c
  8249  0044FE  EF96  F022         	goto	l5081
  8250  004502                     l5075:
  8251  004502  90D8               	bcf	status,0,c
  8252  004504  3612               	rlcf	___fldiv@b^(0+1280),f,c
  8253  004506  3613               	rlcf	(___fldiv@b+1)^(0+1280),f,c
  8254  004508  3614               	rlcf	(___fldiv@b+2)^(0+1280),f,c
  8255  00450A  3615               	rlcf	(___fldiv@b+3)^(0+1280),f,c
  8256  00450C  AE28               	btfss	(___fldiv@grs+3)^(0+1280),7,c
  8257  00450E  EF8B  F022         	goto	u6311
  8258  004512  EF8D  F022         	goto	u6310
  8259  004516                     u6311:
  8260  004516  EF8E  F022         	goto	l788
  8261  00451A                     u6310:
  8262  00451A  8012               	bsf	___fldiv@b^(0+1280),0,c
  8263  00451C                     l788:
  8264  00451C  90D8               	bcf	status,0,c
  8265  00451E  3625               	rlcf	___fldiv@grs^(0+1280),f,c
  8266  004520  3626               	rlcf	(___fldiv@grs+1)^(0+1280),f,c
  8267  004522  3627               	rlcf	(___fldiv@grs+2)^(0+1280),f,c
  8268  004524  3628               	rlcf	(___fldiv@grs+3)^(0+1280),f,c
  8269  004526  0623               	decf	___fldiv@new_exp^(0+1280),f,c
  8270  004528  A0D8               	btfss	status,0,c
  8271  00452A  0624               	decf	(___fldiv@new_exp+1)^(0+1280),f,c
  8272  00452C                     l5081:
  8273  00452C  AE14               	btfss	(___fldiv@b+2)^(0+1280),7,c
  8274  00452E  EF9B  F022         	goto	u6321
  8275  004532  EF9D  F022         	goto	u6320
  8276  004536                     u6321:
  8277  004536  EF81  F022         	goto	l5075
  8278  00453A                     u6320:
  8279  00453A  0E00               	movlw	0
  8280  00453C  6E2A               	movwf	___fldiv@aexp^(0+1280),c
  8281  00453E  AE28               	btfss	(___fldiv@grs+3)^(0+1280),7,c
  8282  004540  EFA4  F022         	goto	u6331
  8283  004544  EFA6  F022         	goto	u6330
  8284  004548                     u6331:
  8285  004548  EFCA  F022         	goto	l790
  8286  00454C                     u6330:
  8287  00454C  0EFF               	movlw	255
  8288  00454E  1425               	andwf	___fldiv@grs^(0+1280),w,c
  8289  004550  6E1A               	movwf	??___fldiv^(0+1280),c
  8290  004552  0EFF               	movlw	255
  8291  004554  1426               	andwf	(___fldiv@grs+1)^(0+1280),w,c
  8292  004556  6E1B               	movwf	(??___fldiv+1)^(0+1280),c
  8293  004558  0EFF               	movlw	255
  8294  00455A  1427               	andwf	(___fldiv@grs+2)^(0+1280),w,c
  8295  00455C  6E1C               	movwf	(??___fldiv+2)^(0+1280),c
  8296  00455E  0E7F               	movlw	127
  8297  004560  1428               	andwf	(___fldiv@grs+3)^(0+1280),w,c
  8298  004562  6E1D               	movwf	(??___fldiv+3)^(0+1280),c
  8299  004564  501A               	movf	??___fldiv^(0+1280),w,c
  8300  004566  101B               	iorwf	(??___fldiv+1)^(0+1280),w,c
  8301  004568  101C               	iorwf	(??___fldiv+2)^(0+1280),w,c
  8302  00456A  101D               	iorwf	(??___fldiv+3)^(0+1280),w,c
  8303  00456C  B4D8               	btfsc	status,2,c
  8304  00456E  EFBB  F022         	goto	u6341
  8305  004572  EFBD  F022         	goto	u6340
  8306  004576                     u6341:
  8307  004576  EFC1  F022         	goto	l791
  8308  00457A                     u6340:
  8309  00457A                     l5089:
  8310  00457A  0E01               	movlw	1
  8311  00457C  6E2A               	movwf	___fldiv@aexp^(0+1280),c
  8312  00457E  EFCA  F022         	goto	l790
  8313  004582                     l791:
  8314  004582  A012               	btfss	___fldiv@b^(0+1280),0,c
  8315  004584  EFC6  F022         	goto	u6351
  8316  004588  EFC8  F022         	goto	u6350
  8317  00458C                     u6351:
  8318  00458C  EFCA  F022         	goto	l790
  8319  004590                     u6350:
  8320  004590  EFBD  F022         	goto	l5089
  8321  004594                     l790:
  8322  004594  502A               	movf	___fldiv@aexp^(0+1280),w,c
  8323  004596  B4D8               	btfsc	status,2,c
  8324  004598  EFD0  F022         	goto	u6361
  8325  00459C  EFD2  F022         	goto	u6360
  8326  0045A0                     u6361:
  8327  0045A0  EFF6  F022         	goto	l5101
  8328  0045A4                     u6360:
  8329  0045A4  0E01               	movlw	1
  8330  0045A6  2612               	addwf	___fldiv@b^(0+1280),f,c
  8331  0045A8  0E00               	movlw	0
  8332  0045AA  2213               	addwfc	(___fldiv@b+1)^(0+1280),f,c
  8333  0045AC  2214               	addwfc	(___fldiv@b+2)^(0+1280),f,c
  8334  0045AE  2215               	addwfc	(___fldiv@b+3)^(0+1280),f,c
  8335  0045B0  A015               	btfss	(___fldiv@b+3)^(0+1280),0,c
  8336  0045B2  EFDD  F022         	goto	u6371
  8337  0045B6  EFDF  F022         	goto	u6370
  8338  0045BA                     u6371:
  8339  0045BA  EFF6  F022         	goto	l5101
  8340  0045BE                     u6370:
  8341  0045BE  C512  F51A         	movff	___fldiv@b,??___fldiv
  8342  0045C2  C513  F51B         	movff	___fldiv@b+1,??___fldiv+1
  8343  0045C6  C514  F51C         	movff	___fldiv@b+2,??___fldiv+2
  8344  0045CA  C515  F51D         	movff	___fldiv@b+3,??___fldiv+3
  8345  0045CE  341D               	rlcf	(??___fldiv+3)^(0+1280),w,c
  8346  0045D0  321D               	rrcf	(??___fldiv+3)^(0+1280),f,c
  8347  0045D2  321C               	rrcf	(??___fldiv+2)^(0+1280),f,c
  8348  0045D4  321B               	rrcf	(??___fldiv+1)^(0+1280),f,c
  8349  0045D6  321A               	rrcf	??___fldiv^(0+1280),f,c
  8350  0045D8  C51A  F512         	movff	??___fldiv,___fldiv@b
  8351  0045DC  C51B  F513         	movff	??___fldiv+1,___fldiv@b+1
  8352  0045E0  C51C  F514         	movff	??___fldiv+2,___fldiv@b+2
  8353  0045E4  C51D  F515         	movff	??___fldiv+3,___fldiv@b+3
  8354  0045E8  4A23               	infsnz	___fldiv@new_exp^(0+1280),f,c
  8355  0045EA  2A24               	incf	(___fldiv@new_exp+1)^(0+1280),f,c
  8356  0045EC                     l5101:
  8357  0045EC  BE24               	btfsc	(___fldiv@new_exp+1)^(0+1280),7,c
  8358  0045EE  EF01  F023         	goto	u6381
  8359  0045F2  5024               	movf	(___fldiv@new_exp+1)^(0+1280),w,c
  8360  0045F4  E108               	bnz	u6380
  8361  0045F6  2823               	incf	___fldiv@new_exp^(0+1280),w,c
  8362  0045F8  A0D8               	btfss	status,0,c
  8363  0045FA  EF01  F023         	goto	u6381
  8364  0045FE  EF03  F023         	goto	u6380
  8365  004602                     u6381:
  8366  004602  EF0E  F023         	goto	l5105
  8367  004606                     u6380:
  8368  004606  0E00               	movlw	0
  8369  004608  6E24               	movwf	(___fldiv@new_exp+1)^(0+1280),c
  8370  00460A  6823               	setf	___fldiv@new_exp^(0+1280),c
  8371  00460C  0E00               	movlw	0
  8372  00460E  6E12               	movwf	___fldiv@b^(0+1280),c
  8373  004610  0E00               	movlw	0
  8374  004612  6E13               	movwf	(___fldiv@b+1)^(0+1280),c
  8375  004614  0E00               	movlw	0
  8376  004616  6E14               	movwf	(___fldiv@b+2)^(0+1280),c
  8377  004618  0E00               	movlw	0
  8378  00461A  6E15               	movwf	(___fldiv@b+3)^(0+1280),c
  8379  00461C                     l5105:
  8380  00461C  BE24               	btfsc	(___fldiv@new_exp+1)^(0+1280),7,c
  8381  00461E  EF1B  F023         	goto	u6390
  8382  004622  5024               	movf	(___fldiv@new_exp+1)^(0+1280),w,c
  8383  004624  E106               	bnz	u6391
  8384  004626  0423               	decf	___fldiv@new_exp^(0+1280),w,c
  8385  004628  B0D8               	btfsc	status,0,c
  8386  00462A  EF19  F023         	goto	u6391
  8387  00462E  EF1B  F023         	goto	u6390
  8388  004632                     u6391:
  8389  004632  EF29  F023         	goto	l5109
  8390  004636                     u6390:
  8391  004636  0E00               	movlw	0
  8392  004638  6E24               	movwf	(___fldiv@new_exp+1)^(0+1280),c
  8393  00463A  0E00               	movlw	0
  8394  00463C  6E23               	movwf	___fldiv@new_exp^(0+1280),c
  8395  00463E  0E00               	movlw	0
  8396  004640  6E12               	movwf	___fldiv@b^(0+1280),c
  8397  004642  0E00               	movlw	0
  8398  004644  6E13               	movwf	(___fldiv@b+1)^(0+1280),c
  8399  004646  0E00               	movlw	0
  8400  004648  6E14               	movwf	(___fldiv@b+2)^(0+1280),c
  8401  00464A  0E00               	movlw	0
  8402  00464C  6E15               	movwf	(___fldiv@b+3)^(0+1280),c
  8403  00464E  0E00               	movlw	0
  8404  004650  6E22               	movwf	___fldiv@sign^(0+1280),c
  8405  004652                     l5109:
  8406  004652  C523  F529         	movff	___fldiv@new_exp,___fldiv@bexp
  8407  004656  A029               	btfss	___fldiv@bexp^(0+1280),0,c
  8408  004658  EF30  F023         	goto	u6401
  8409  00465C  EF32  F023         	goto	u6400
  8410  004660                     u6401:
  8411  004660  EF35  F023         	goto	l5115
  8412  004664                     u6400:
  8413  004664  8E14               	bsf	(___fldiv@b+2)^(0+1280),7,c
  8414  004666  EF36  F023         	goto	l5117
  8415  00466A                     l5115:
  8416  00466A  9E14               	bcf	(___fldiv@b+2)^(0+1280),7,c
  8417  00466C                     l5117:
  8418  00466C  90D8               	bcf	status,0,c
  8419  00466E  3029               	rrcf	___fldiv@bexp^(0+1280),w,c
  8420  004670  6E15               	movwf	(___fldiv@b+3)^(0+1280),c
  8421  004672  EFEC  F021         	goto	l5031
  8422  004676                     l777:
  8423  004676  0012               	return		;funcret
  8424  004678                     __end_of___fldiv:
  8425                           	callstack 0
  8426                           
  8427 ;; *************** function ___awmod *****************
  8428 ;; Defined at:
  8429 ;;		line 7 in file "C:\Program Files\Microchip\xc8\v2.32\pic\sources\c99\common\awmod.c"
  8430 ;; Parameters:    Size  Location     Type
  8431 ;;  dividend        2    3[COMRAM] int 
  8432 ;;  divisor         2    5[COMRAM] int 
  8433 ;; Auto vars:     Size  Location     Type
  8434 ;;  sign            1    8[COMRAM] unsigned char 
  8435 ;;  counter         1    7[COMRAM] unsigned char 
  8436 ;; Return value:  Size  Location     Type
  8437 ;;                  2    3[COMRAM] int 
  8438 ;; Registers used:
  8439 ;;		wreg, status,2, status,0
  8440 ;; Tracked objects:
  8441 ;;		On entry : 0/0
  8442 ;;		On exit  : 0/0
  8443 ;;		Unchanged: 0/0
  8444 ;; Data sizes:     COMRAM   BANK5   BANK6   BANK7   BANK8   BANK9  BANK10  BANK11  BANK12  BANK13  BANK14  BANK15  BANK1
      +6  BANK17  BANK18  BANK19  BANK20  BANK21  BANK22  BANK23  BANK24  BANK25  BANK26  BANK27  BANK28  BANK29  BANK30  BANK3
      +1  BANK32  BANK33  BANK34  BANK35  BANK36
  8445 ;;      Params:         4       0       0       0       0       0       0       0       0       0       0       0       
      +0       0       0       0       0       0       0       0       0       0       0       0       0       0       0       
      +0       0       0       0       0       0
  8446 ;;      Locals:         2       0       0       0       0       0       0       0       0       0       0       0       
      +0       0       0       0       0       0       0       0       0       0       0       0       0       0       0       
      +0       0       0       0       0       0
  8447 ;;      Temps:          0       0       0       0       0       0       0       0       0       0       0       0       
      +0       0       0       0       0       0       0       0       0       0       0       0       0       0       0       
      +0       0       0       0       0       0
  8448 ;;      Totals:         6       0       0       0       0       0       0       0       0       0       0       0       
      +0       0       0       0       0       0       0       0       0       0       0       0       0       0       0       
      +0       0       0       0       0       0
  8449 ;;Total ram usage:        6 bytes
  8450 ;; Hardware stack levels used: 1
  8451 ;; Hardware stack levels required when called: 2
  8452 ;; This function calls:
  8453 ;;		Nothing
  8454 ;; This function is called by:
  8455 ;;		_efgtoa
  8456 ;; This function uses a non-reentrant model
  8457 ;;
  8458                           
  8459                           	psect	text27
  8460  0059B8                     __ptext27:
  8461                           	callstack 0
  8462  0059B8                     ___awmod:
  8463                           	callstack 120
  8464  0059B8  0E00               	movlw	0
  8465  0059BA  6E09               	movwf	___awmod@sign^(0+1280),c
  8466  0059BC  BE05               	btfsc	(___awmod@dividend+1)^(0+1280),7,c
  8467  0059BE  EFE5  F02C         	goto	u6660
  8468  0059C2  EFE3  F02C         	goto	u6661
  8469  0059C6                     u6661:
  8470  0059C6  EFEB  F02C         	goto	l5313
  8471  0059CA                     u6660:
  8472  0059CA  6C04               	negf	___awmod@dividend^(0+1280),c
  8473  0059CC  1E05               	comf	(___awmod@dividend+1)^(0+1280),f,c
  8474  0059CE  B0D8               	btfsc	status,0,c
  8475  0059D0  2A05               	incf	(___awmod@dividend+1)^(0+1280),f,c
  8476  0059D2  0E01               	movlw	1
  8477  0059D4  6E09               	movwf	___awmod@sign^(0+1280),c
  8478  0059D6                     l5313:
  8479  0059D6  BE07               	btfsc	(___awmod@divisor+1)^(0+1280),7,c
  8480  0059D8  EFF2  F02C         	goto	u6670
  8481  0059DC  EFF0  F02C         	goto	u6671
  8482  0059E0                     u6671:
  8483  0059E0  EFF6  F02C         	goto	l5317
  8484  0059E4                     u6670:
  8485  0059E4  6C06               	negf	___awmod@divisor^(0+1280),c
  8486  0059E6  1E07               	comf	(___awmod@divisor+1)^(0+1280),f,c
  8487  0059E8  B0D8               	btfsc	status,0,c
  8488  0059EA  2A07               	incf	(___awmod@divisor+1)^(0+1280),f,c
  8489  0059EC                     l5317:
  8490  0059EC  5006               	movf	___awmod@divisor^(0+1280),w,c
  8491  0059EE  1007               	iorwf	(___awmod@divisor+1)^(0+1280),w,c
  8492  0059F0  B4D8               	btfsc	status,2,c
  8493  0059F2  EFFD  F02C         	goto	u6681
  8494  0059F6  EFFF  F02C         	goto	u6680
  8495  0059FA                     u6681:
  8496  0059FA  EF23  F02D         	goto	l5333
  8497  0059FE                     u6680:
  8498  0059FE  0E01               	movlw	1
  8499  005A00  6E08               	movwf	___awmod@counter^(0+1280),c
  8500  005A02  EF07  F02D         	goto	l5323
  8501  005A06                     l5321:
  8502  005A06  90D8               	bcf	status,0,c
  8503  005A08  3606               	rlcf	___awmod@divisor^(0+1280),f,c
  8504  005A0A  3607               	rlcf	(___awmod@divisor+1)^(0+1280),f,c
  8505  005A0C  2A08               	incf	___awmod@counter^(0+1280),f,c
  8506  005A0E                     l5323:
  8507  005A0E  AE07               	btfss	(___awmod@divisor+1)^(0+1280),7,c
  8508  005A10  EF0C  F02D         	goto	u6691
  8509  005A14  EF0E  F02D         	goto	u6690
  8510  005A18                     u6691:
  8511  005A18  EF03  F02D         	goto	l5321
  8512  005A1C                     u6690:
  8513  005A1C                     l5325:
  8514  005A1C  5006               	movf	___awmod@divisor^(0+1280),w,c
  8515  005A1E  5C04               	subwf	___awmod@dividend^(0+1280),w,c
  8516  005A20  5007               	movf	(___awmod@divisor+1)^(0+1280),w,c
  8517  005A22  5805               	subwfb	(___awmod@dividend+1)^(0+1280),w,c
  8518  005A24  A0D8               	btfss	status,0,c
  8519  005A26  EF17  F02D         	goto	u6701
  8520  005A2A  EF19  F02D         	goto	u6700
  8521  005A2E                     u6701:
  8522  005A2E  EF1D  F02D         	goto	l5329
  8523  005A32                     u6700:
  8524  005A32  5006               	movf	___awmod@divisor^(0+1280),w,c
  8525  005A34  5E04               	subwf	___awmod@dividend^(0+1280),f,c
  8526  005A36  5007               	movf	(___awmod@divisor+1)^(0+1280),w,c
  8527  005A38  5A05               	subwfb	(___awmod@dividend+1)^(0+1280),f,c
  8528  005A3A                     l5329:
  8529  005A3A  90D8               	bcf	status,0,c
  8530  005A3C  3207               	rrcf	(___awmod@divisor+1)^(0+1280),f,c
  8531  005A3E  3206               	rrcf	___awmod@divisor^(0+1280),f,c
  8532  005A40  2E08               	decfsz	___awmod@counter^(0+1280),f,c
  8533  005A42  EF0E  F02D         	goto	l5325
  8534  005A46                     l5333:
  8535  005A46  5009               	movf	___awmod@sign^(0+1280),w,c
  8536  005A48  B4D8               	btfsc	status,2,c
  8537  005A4A  EF29  F02D         	goto	u6711
  8538  005A4E  EF2B  F02D         	goto	u6710
  8539  005A52                     u6711:
  8540  005A52  EF2F  F02D         	goto	l5337
  8541  005A56                     u6710:
  8542  005A56  6C04               	negf	___awmod@dividend^(0+1280),c
  8543  005A58  1E05               	comf	(___awmod@dividend+1)^(0+1280),f,c
  8544  005A5A  B0D8               	btfsc	status,0,c
  8545  005A5C  2A05               	incf	(___awmod@dividend+1)^(0+1280),f,c
  8546  005A5E                     l5337:
  8547  005A5E  C504  F504         	movff	___awmod@dividend,?___awmod
  8548  005A62  C505  F505         	movff	___awmod@dividend+1,?___awmod+1
  8549  005A66  0012               	return		;funcret
  8550  005A68                     __end_of___awmod:
  8551                           	callstack 0
  8552                           
  8553 ;; *************** function ___awdiv *****************
  8554 ;; Defined at:
  8555 ;;		line 7 in file "C:\Program Files\Microchip\xc8\v2.32\pic\sources\c99\common\awdiv.c"
  8556 ;; Parameters:    Size  Location     Type
  8557 ;;  dividend        2    3[COMRAM] int 
  8558 ;;  divisor         2    5[COMRAM] int 
  8559 ;; Auto vars:     Size  Location     Type
  8560 ;;  quotient        2    9[COMRAM] int 
  8561 ;;  sign            1    8[COMRAM] unsigned char 
  8562 ;;  counter         1    7[COMRAM] unsigned char 
  8563 ;; Return value:  Size  Location     Type
  8564 ;;                  2    3[COMRAM] int 
  8565 ;; Registers used:
  8566 ;;		wreg, status,2, status,0
  8567 ;; Tracked objects:
  8568 ;;		On entry : 0/0
  8569 ;;		On exit  : 0/0
  8570 ;;		Unchanged: 0/0
  8571 ;; Data sizes:     COMRAM   BANK5   BANK6   BANK7   BANK8   BANK9  BANK10  BANK11  BANK12  BANK13  BANK14  BANK15  BANK1
      +6  BANK17  BANK18  BANK19  BANK20  BANK21  BANK22  BANK23  BANK24  BANK25  BANK26  BANK27  BANK28  BANK29  BANK30  BANK3
      +1  BANK32  BANK33  BANK34  BANK35  BANK36
  8572 ;;      Params:         4       0       0       0       0       0       0       0       0       0       0       0       
      +0       0       0       0       0       0       0       0       0       0       0       0       0       0       0       
      +0       0       0       0       0       0
  8573 ;;      Locals:         4       0       0       0       0       0       0       0       0       0       0       0       
      +0       0       0       0       0       0       0       0       0       0       0       0       0       0       0       
      +0       0       0       0       0       0
  8574 ;;      Temps:          0       0       0       0       0       0       0       0       0       0       0       0       
      +0       0       0       0       0       0       0       0       0       0       0       0       0       0       0       
      +0       0       0       0       0       0
  8575 ;;      Totals:         8       0       0       0       0       0       0       0       0       0       0       0       
      +0       0       0       0       0       0       0       0       0       0       0       0       0       0       0       
      +0       0       0       0       0       0
  8576 ;;Total ram usage:        8 bytes
  8577 ;; Hardware stack levels used: 1
  8578 ;; Hardware stack levels required when called: 2
  8579 ;; This function calls:
  8580 ;;		Nothing
  8581 ;; This function is called by:
  8582 ;;		_efgtoa
  8583 ;; This function uses a non-reentrant model
  8584 ;;
  8585                           
  8586                           	psect	text28
  8587  005832                     __ptext28:
  8588                           	callstack 0
  8589  005832                     ___awdiv:
  8590                           	callstack 120
  8591  005832  0E00               	movlw	0
  8592  005834  6E09               	movwf	___awdiv@sign^(0+1280),c
  8593  005836  BE07               	btfsc	(___awdiv@divisor+1)^(0+1280),7,c
  8594  005838  EF22  F02C         	goto	u6600
  8595  00583C  EF20  F02C         	goto	u6601
  8596  005840                     u6601:
  8597  005840  EF28  F02C         	goto	l5269
  8598  005844                     u6600:
  8599  005844  6C06               	negf	___awdiv@divisor^(0+1280),c
  8600  005846  1E07               	comf	(___awdiv@divisor+1)^(0+1280),f,c
  8601  005848  B0D8               	btfsc	status,0,c
  8602  00584A  2A07               	incf	(___awdiv@divisor+1)^(0+1280),f,c
  8603  00584C  0E01               	movlw	1
  8604  00584E  6E09               	movwf	___awdiv@sign^(0+1280),c
  8605  005850                     l5269:
  8606  005850  BE05               	btfsc	(___awdiv@dividend+1)^(0+1280),7,c
  8607  005852  EF2F  F02C         	goto	u6610
  8608  005856  EF2D  F02C         	goto	u6611
  8609  00585A                     u6611:
  8610  00585A  EF35  F02C         	goto	l5275
  8611  00585E                     u6610:
  8612  00585E  6C04               	negf	___awdiv@dividend^(0+1280),c
  8613  005860  1E05               	comf	(___awdiv@dividend+1)^(0+1280),f,c
  8614  005862  B0D8               	btfsc	status,0,c
  8615  005864  2A05               	incf	(___awdiv@dividend+1)^(0+1280),f,c
  8616  005866  0E01               	movlw	1
  8617  005868  1A09               	xorwf	___awdiv@sign^(0+1280),f,c
  8618  00586A                     l5275:
  8619  00586A  0E00               	movlw	0
  8620  00586C  6E0B               	movwf	(___awdiv@quotient+1)^(0+1280),c
  8621  00586E  0E00               	movlw	0
  8622  005870  6E0A               	movwf	___awdiv@quotient^(0+1280),c
  8623  005872  5006               	movf	___awdiv@divisor^(0+1280),w,c
  8624  005874  1007               	iorwf	(___awdiv@divisor+1)^(0+1280),w,c
  8625  005876  B4D8               	btfsc	status,2,c
  8626  005878  EF40  F02C         	goto	u6621
  8627  00587C  EF42  F02C         	goto	u6620
  8628  005880                     u6621:
  8629  005880  EF6A  F02C         	goto	l5297
  8630  005884                     u6620:
  8631  005884  0E01               	movlw	1
  8632  005886  6E08               	movwf	___awdiv@counter^(0+1280),c
  8633  005888  EF4A  F02C         	goto	l5283
  8634  00588C                     l5281:
  8635  00588C  90D8               	bcf	status,0,c
  8636  00588E  3606               	rlcf	___awdiv@divisor^(0+1280),f,c
  8637  005890  3607               	rlcf	(___awdiv@divisor+1)^(0+1280),f,c
  8638  005892  2A08               	incf	___awdiv@counter^(0+1280),f,c
  8639  005894                     l5283:
  8640  005894  AE07               	btfss	(___awdiv@divisor+1)^(0+1280),7,c
  8641  005896  EF4F  F02C         	goto	u6631
  8642  00589A  EF51  F02C         	goto	u6630
  8643  00589E                     u6631:
  8644  00589E  EF46  F02C         	goto	l5281
  8645  0058A2                     u6630:
  8646  0058A2                     l5285:
  8647  0058A2  90D8               	bcf	status,0,c
  8648  0058A4  360A               	rlcf	___awdiv@quotient^(0+1280),f,c
  8649  0058A6  360B               	rlcf	(___awdiv@quotient+1)^(0+1280),f,c
  8650  0058A8  5006               	movf	___awdiv@divisor^(0+1280),w,c
  8651  0058AA  5C04               	subwf	___awdiv@dividend^(0+1280),w,c
  8652  0058AC  5007               	movf	(___awdiv@divisor+1)^(0+1280),w,c
  8653  0058AE  5805               	subwfb	(___awdiv@dividend+1)^(0+1280),w,c
  8654  0058B0  A0D8               	btfss	status,0,c
  8655  0058B2  EF5D  F02C         	goto	u6641
  8656  0058B6  EF5F  F02C         	goto	u6640
  8657  0058BA                     u6641:
  8658  0058BA  EF64  F02C         	goto	l5293
  8659  0058BE                     u6640:
  8660  0058BE  5006               	movf	___awdiv@divisor^(0+1280),w,c
  8661  0058C0  5E04               	subwf	___awdiv@dividend^(0+1280),f,c
  8662  0058C2  5007               	movf	(___awdiv@divisor+1)^(0+1280),w,c
  8663  0058C4  5A05               	subwfb	(___awdiv@dividend+1)^(0+1280),f,c
  8664  0058C6  800A               	bsf	___awdiv@quotient^(0+1280),0,c
  8665  0058C8                     l5293:
  8666  0058C8  90D8               	bcf	status,0,c
  8667  0058CA  3207               	rrcf	(___awdiv@divisor+1)^(0+1280),f,c
  8668  0058CC  3206               	rrcf	___awdiv@divisor^(0+1280),f,c
  8669  0058CE  2E08               	decfsz	___awdiv@counter^(0+1280),f,c
  8670  0058D0  EF51  F02C         	goto	l5285
  8671  0058D4                     l5297:
  8672  0058D4  5009               	movf	___awdiv@sign^(0+1280),w,c
  8673  0058D6  B4D8               	btfsc	status,2,c
  8674  0058D8  EF70  F02C         	goto	u6651
  8675  0058DC  EF72  F02C         	goto	u6650
  8676  0058E0                     u6651:
  8677  0058E0  EF76  F02C         	goto	l5301
  8678  0058E4                     u6650:
  8679  0058E4  6C0A               	negf	___awdiv@quotient^(0+1280),c
  8680  0058E6  1E0B               	comf	(___awdiv@quotient+1)^(0+1280),f,c
  8681  0058E8  B0D8               	btfsc	status,0,c
  8682  0058EA  2A0B               	incf	(___awdiv@quotient+1)^(0+1280),f,c
  8683  0058EC                     l5301:
  8684  0058EC  C50A  F504         	movff	___awdiv@quotient,?___awdiv
  8685  0058F0  C50B  F505         	movff	___awdiv@quotient+1,?___awdiv+1
  8686  0058F4  0012               	return		;funcret
  8687  0058F6                     __end_of___awdiv:
  8688                           	callstack 0
  8689                           
  8690 ;; *************** function _atoi *****************
  8691 ;; Defined at:
  8692 ;;		line 4 in file "C:\Program Files\Microchip\xc8\v2.32\pic\sources\c99\common\atoi.c"
  8693 ;; Parameters:    Size  Location     Type
  8694 ;;  s               2   10[COMRAM] PTR const unsigned char 
  8695 ;;		 -> STR_4(16), 
  8696 ;; Auto vars:     Size  Location     Type
  8697 ;;  n               2   23[COMRAM] int 
  8698 ;;  neg             2   16[COMRAM] int 
  8699 ;; Return value:  Size  Location     Type
  8700 ;;                  2   10[COMRAM] int 
  8701 ;; Registers used:
  8702 ;;		wreg, status,2, status,0, tblptrl, tblptrh, tblptru, prodl, prodh, cstack
  8703 ;; Tracked objects:
  8704 ;;		On entry : 0/0
  8705 ;;		On exit  : 0/0
  8706 ;;		Unchanged: 0/0
  8707 ;; Data sizes:     COMRAM   BANK5   BANK6   BANK7   BANK8   BANK9  BANK10  BANK11  BANK12  BANK13  BANK14  BANK15  BANK1
      +6  BANK17  BANK18  BANK19  BANK20  BANK21  BANK22  BANK23  BANK24  BANK25  BANK26  BANK27  BANK28  BANK29  BANK30  BANK3
      +1  BANK32  BANK33  BANK34  BANK35  BANK36
  8708 ;;      Params:         2       0       0       0       0       0       0       0       0       0       0       0       
      +0       0       0       0       0       0       0       0       0       0       0       0       0       0       0       
      +0       0       0       0       0       0
  8709 ;;      Locals:         9       0       0       0       0       0       0       0       0       0       0       0       
      +0       0       0       0       0       0       0       0       0       0       0       0       0       0       0       
      +0       0       0       0       0       0
  8710 ;;      Temps:          4       0       0       0       0       0       0       0       0       0       0       0       
      +0       0       0       0       0       0       0       0       0       0       0       0       0       0       0       
      +0       0       0       0       0       0
  8711 ;;      Totals:        15       0       0       0       0       0       0       0       0       0       0       0       
      +0       0       0       0       0       0       0       0       0       0       0       0       0       0       0       
      +0       0       0       0       0       0
  8712 ;;Total ram usage:       15 bytes
  8713 ;; Hardware stack levels used: 1
  8714 ;; Hardware stack levels required when called: 3
  8715 ;; This function calls:
  8716 ;;		___wmul
  8717 ;;		_isdigit
  8718 ;;		_isspace
  8719 ;; This function is called by:
  8720 ;;		_vfpfcnvrt
  8721 ;; This function uses a non-reentrant model
  8722 ;;
  8723                           
  8724                           	psect	text29
  8725  004D00                     __ptext29:
  8726                           	callstack 0
  8727  004D00                     _atoi:
  8728                           	callstack 120
  8729  004D00  0E00               	movlw	0
  8730  004D02  6E19               	movwf	(atoi@n+1)^(0+1280),c
  8731  004D04  0E00               	movlw	0
  8732  004D06  6E18               	movwf	atoi@n^(0+1280),c
  8733  004D08  0E00               	movlw	0
  8734  004D0A  6E12               	movwf	(atoi@neg+1)^(0+1280),c
  8735  004D0C  0E00               	movlw	0
  8736  004D0E  6E11               	movwf	atoi@neg^(0+1280),c
  8737  004D10  EF8C  F026         	goto	l5937
  8738  004D14                     l5935:
  8739  004D14  4A0B               	infsnz	atoi@s^(0+1280),f,c
  8740  004D16  2A0C               	incf	(atoi@s+1)^(0+1280),f,c
  8741  004D18                     l5937:
  8742  004D18  0E01               	movlw	1
  8743  004D1A  6E17               	movwf	_atoi$955^(0+1280),c
  8744  004D1C  0061  F42C  F4F6   	movff	atoi@s,tblptrl
  8745  004D22  0061  F430  F4F7   	movff	atoi@s+1,tblptrh
  8746  004D28                     	if	0	;tblptru may be non-zero
  8747  004D28                     	endif
  8748  004D28                     	if	1	;Program memory is > 0xFFFF, there are 3 active tblptr bytes
  8749  004D28  0E00               	movlw	low (__mediumconst shr (0+16))
  8750  004D2A  6EF8               	movwf	tblptru,c
  8751  004D2C                     	endif
  8752  004D2C  0008               	tblrd		*
  8753  004D2E  50F5               	movf	tablat,w,c
  8754  004D30  0A20               	xorlw	32
  8755  004D32  B4D8               	btfsc	status,2,c
  8756  004D34  EF9E  F026         	goto	u7861
  8757  004D38  EFA0  F026         	goto	u7860
  8758  004D3C                     u7861:
  8759  004D3C  EFC1  F026         	goto	l5945
  8760  004D40                     u7860:
  8761  004D40  0EF7               	movlw	247
  8762  004D42  6E0D               	movwf	??_atoi^(0+1280),c
  8763  004D44  0EFF               	movlw	255
  8764  004D46  6E0E               	movwf	(??_atoi+1)^(0+1280),c
  8765  004D48  0061  F42C  F4F6   	movff	atoi@s,tblptrl
  8766  004D4E  0061  F430  F4F7   	movff	atoi@s+1,tblptrh
  8767  004D54                     	if	0	;tblptru may be non-zero
  8768  004D54                     	endif
  8769  004D54                     	if	1	;Program memory is > 0xFFFF, there are 3 active tblptr bytes
  8770  004D54  0E00               	movlw	low (__mediumconst shr (0+16))
  8771  004D56  6EF8               	movwf	tblptru,c
  8772  004D58                     	endif
  8773  004D58  0008               	tblrd		*
  8774  004D5A  50F5               	movf	tablat,w,c
  8775  004D5C  6E0F               	movwf	(??_atoi+2)^(0+1280),c
  8776  004D5E  6A10               	clrf	(??_atoi+3)^(0+1280),c
  8777  004D60  500D               	movf	??_atoi^(0+1280),w,c
  8778  004D62  260F               	addwf	(??_atoi+2)^(0+1280),f,c
  8779  004D64  500E               	movf	(??_atoi+1)^(0+1280),w,c
  8780  004D66  2210               	addwfc	(??_atoi+3)^(0+1280),f,c
  8781  004D68  5010               	movf	(??_atoi+3)^(0+1280),w,c
  8782  004D6A  E109               	bnz	u7870
  8783  004D6C  0E05               	movlw	5
  8784  004D6E  5C0F               	subwf	(??_atoi+2)^(0+1280),w,c
  8785  004D70  A0D8               	btfss	status,0,c
  8786  004D72  EFBD  F026         	goto	u7871
  8787  004D76  EFBF  F026         	goto	u7870
  8788  004D7A                     u7871:
  8789  004D7A  EFC1  F026         	goto	l5945
  8790  004D7E                     u7870:
  8791  004D7E  0E00               	movlw	0
  8792  004D80  6E17               	movwf	_atoi$955^(0+1280),c
  8793  004D82                     l5945:
  8794  004D82  C517  F513         	movff	_atoi$955,_atoi$954
  8795  004D86  6A14               	clrf	(_atoi$954+1)^(0+1280),c
  8796  004D88  5013               	movf	_atoi$954^(0+1280),w,c
  8797  004D8A  1014               	iorwf	(_atoi$954+1)^(0+1280),w,c
  8798  004D8C  A4D8               	btfss	status,2,c
  8799  004D8E  EFCB  F026         	goto	u7881
  8800  004D92  EFCD  F026         	goto	u7880
  8801  004D96                     u7881:
  8802  004D96  EF8A  F026         	goto	l5935
  8803  004D9A                     u7880:
  8804  004D9A  EFD7  F026         	goto	l5955
  8805  004D9E                     l5951:
  8806  004D9E  0E00               	movlw	0
  8807  004DA0  6E12               	movwf	(atoi@neg+1)^(0+1280),c
  8808  004DA2  0E01               	movlw	1
  8809  004DA4  6E11               	movwf	atoi@neg^(0+1280),c
  8810  004DA6                     l5953:
  8811  004DA6  4A0B               	infsnz	atoi@s^(0+1280),f,c
  8812  004DA8  2A0C               	incf	(atoi@s+1)^(0+1280),f,c
  8813  004DAA  EF14  F027         	goto	l5961
  8814  004DAE                     l5955:
  8815  004DAE  0061  F42C  F4F6   	movff	atoi@s,tblptrl
  8816  004DB4  0061  F430  F4F7   	movff	atoi@s+1,tblptrh
  8817  004DBA                     	if	0	;tblptru may be non-zero
  8818  004DBA                     	endif
  8819  004DBA                     	if	1	;Program memory is > 0xFFFF, there are 3 active tblptr bytes
  8820  004DBA  0E00               	movlw	low (__mediumconst shr (0+16))
  8821  004DBC  6EF8               	movwf	tblptru,c
  8822  004DBE                     	endif
  8823  004DBE  0008               	tblrd		*
  8824  004DC0  50F5               	movf	tablat,w,c
  8825  004DC2  6E0D               	movwf	??_atoi^(0+1280),c
  8826  004DC4  6A0E               	clrf	(??_atoi+1)^(0+1280),c
  8827                           
  8828                           ; Switch on 2 bytes has been partitioned into a top level switch of size 1, and 1 sub-sw
      +                          itches
  8829                           ; Switch size 1, requested type "simple"
  8830                           ; Number of cases is 1, Range of values is 0 to 0
  8831                           ; switch strategies available:
  8832                           ; Name         Instructions Cycles
  8833                           ; simple_byte            4     3 (average)
  8834                           ;	Chosen strategy is simple_byte
  8835  004DC6  500E               	movf	(??_atoi+1)^(0+1280),w,c
  8836  004DC8  0A00               	xorlw	0	; case 0
  8837  004DCA  B4D8               	btfsc	status,2,c
  8838  004DCC  EFEA  F026         	goto	l6463
  8839  004DD0  EF14  F027         	goto	l5961
  8840  004DD4                     l6463:
  8841                           
  8842                           ; Switch size 1, requested type "simple"
  8843                           ; Number of cases is 2, Range of values is 43 to 45
  8844                           ; switch strategies available:
  8845                           ; Name         Instructions Cycles
  8846                           ; simple_byte            7     4 (average)
  8847                           ;	Chosen strategy is simple_byte
  8848  004DD4  500D               	movf	??_atoi^(0+1280),w,c
  8849  004DD6  0A2B               	xorlw	43	; case 43
  8850  004DD8  B4D8               	btfsc	status,2,c
  8851  004DDA  EFD3  F026         	goto	l5953
  8852  004DDE  0A06               	xorlw	6	; case 45
  8853  004DE0  B4D8               	btfsc	status,2,c
  8854  004DE2  EFCF  F026         	goto	l5951
  8855  004DE6  EF14  F027         	goto	l5961
  8856  004DEA                     l5957:
  8857  004DEA  C518  F504         	movff	atoi@n,___wmul@multiplier
  8858  004DEE  C519  F505         	movff	atoi@n+1,___wmul@multiplier+1
  8859  004DF2  0E00               	movlw	0
  8860  004DF4  6E07               	movwf	(___wmul@multiplicand+1)^(0+1280),c
  8861  004DF6  0E0A               	movlw	10
  8862  004DF8  6E06               	movwf	___wmul@multiplicand^(0+1280),c
  8863  004DFA  EC7D  F030         	call	___wmul	;wreg free
  8864  004DFE  0061  F42C  F4F6   	movff	atoi@s,tblptrl
  8865  004E04  0061  F430  F4F7   	movff	atoi@s+1,tblptrh
  8866  004E0A                     	if	0	;tblptru may be non-zero
  8867  004E0A                     	endif
  8868  004E0A                     	if	1	;Program memory is > 0xFFFF, there are 3 active tblptr bytes
  8869  004E0A  0E00               	movlw	low (__mediumconst shr (0+16))
  8870  004E0C  6EF8               	movwf	tblptru,c
  8871  004E0E                     	endif
  8872  004E0E  0008               	tblrd		*
  8873  004E10  50F5               	movf	tablat,w,c
  8874  004E12  5E04               	subwf	?___wmul^(0+1280),f,c
  8875  004E14  0E00               	movlw	0
  8876  004E16  5A05               	subwfb	(?___wmul+1)^(0+1280),f,c
  8877  004E18  0E30               	movlw	48
  8878  004E1A  2404               	addwf	?___wmul^(0+1280),w,c
  8879  004E1C  6E18               	movwf	atoi@n^(0+1280),c
  8880  004E1E  0E00               	movlw	0
  8881  004E20  2005               	addwfc	(?___wmul+1)^(0+1280),w,c
  8882  004E22  6E19               	movwf	(atoi@n+1)^(0+1280),c
  8883  004E24  EFD3  F026         	goto	l5953
  8884  004E28                     l5961:
  8885  004E28  0ED0               	movlw	208
  8886  004E2A  6E0D               	movwf	??_atoi^(0+1280),c
  8887  004E2C  0EFF               	movlw	255
  8888  004E2E  6E0E               	movwf	(??_atoi+1)^(0+1280),c
  8889  004E30  0061  F42C  F4F6   	movff	atoi@s,tblptrl
  8890  004E36  0061  F430  F4F7   	movff	atoi@s+1,tblptrh
  8891  004E3C                     	if	0	;tblptru may be non-zero
  8892  004E3C                     	endif
  8893  004E3C                     	if	1	;Program memory is > 0xFFFF, there are 3 active tblptr bytes
  8894  004E3C  0E00               	movlw	low (__mediumconst shr (0+16))
  8895  004E3E  6EF8               	movwf	tblptru,c
  8896  004E40                     	endif
  8897  004E40  0008               	tblrd		*
  8898  004E42  50F5               	movf	tablat,w,c
  8899  004E44  6E0F               	movwf	(??_atoi+2)^(0+1280),c
  8900  004E46  6A10               	clrf	(??_atoi+3)^(0+1280),c
  8901  004E48  500D               	movf	??_atoi^(0+1280),w,c
  8902  004E4A  260F               	addwf	(??_atoi+2)^(0+1280),f,c
  8903  004E4C  500E               	movf	(??_atoi+1)^(0+1280),w,c
  8904  004E4E  2210               	addwfc	(??_atoi+3)^(0+1280),f,c
  8905  004E50  5010               	movf	(??_atoi+3)^(0+1280),w,c
  8906  004E52  E10A               	bnz	u7890
  8907  004E54  0E0A               	movlw	10
  8908  004E56  5C0F               	subwf	(??_atoi+2)^(0+1280),w,c
  8909  004E58  A0D8               	btfss	status,0,c
  8910  004E5A  EF31  F027         	goto	u7891
  8911  004E5E  EF34  F027         	goto	u7890
  8912  004E62                     u7891:
  8913  004E62  0E01               	movlw	1
  8914  004E64  EF35  F027         	goto	u7900
  8915  004E68                     u7890:
  8916  004E68  0E00               	movlw	0
  8917  004E6A                     u7900:
  8918  004E6A  6E15               	movwf	_atoi$956^(0+1280),c
  8919  004E6C  6A16               	clrf	(_atoi$956+1)^(0+1280),c
  8920  004E6E  5015               	movf	_atoi$956^(0+1280),w,c
  8921  004E70  1016               	iorwf	(_atoi$956+1)^(0+1280),w,c
  8922  004E72  A4D8               	btfss	status,2,c
  8923  004E74  EF3E  F027         	goto	u7911
  8924  004E78  EF40  F027         	goto	u7910
  8925  004E7C                     u7911:
  8926  004E7C  EFF5  F026         	goto	l5957
  8927  004E80                     u7910:
  8928  004E80  5011               	movf	atoi@neg^(0+1280),w,c
  8929  004E82  1012               	iorwf	(atoi@neg+1)^(0+1280),w,c
  8930  004E84  A4D8               	btfss	status,2,c
  8931  004E86  EF47  F027         	goto	u7921
  8932  004E8A  EF49  F027         	goto	u7920
  8933  004E8E                     u7921:
  8934  004E8E  EF57  F027         	goto	l1120
  8935  004E92                     u7920:
  8936  004E92  C518  F50D         	movff	atoi@n,??_atoi
  8937  004E96  C519  F50E         	movff	atoi@n+1,??_atoi+1
  8938  004E9A  1E0D               	comf	??_atoi^(0+1280),f,c
  8939  004E9C  1E0E               	comf	(??_atoi+1)^(0+1280),f,c
  8940  004E9E  4A0D               	infsnz	??_atoi^(0+1280),f,c
  8941  004EA0  2A0E               	incf	(??_atoi+1)^(0+1280),f,c
  8942  004EA2  C50D  F50B         	movff	??_atoi,?_atoi
  8943  004EA6  C50E  F50C         	movff	??_atoi+1,?_atoi+1
  8944  004EAA  EF5B  F027         	goto	l1123
  8945  004EAE                     l1120:
  8946  004EAE  C518  F50B         	movff	atoi@n,?_atoi
  8947  004EB2  C519  F50C         	movff	atoi@n+1,?_atoi+1
  8948  004EB6                     l1123:
  8949  004EB6  0012               	return		;funcret
  8950  004EB8                     __end_of_atoi:
  8951                           	callstack 0
  8952                           
  8953 ;; *************** function _isspace *****************
  8954 ;; Defined at:
  8955 ;;		line 5 in file "C:\Program Files\Microchip\xc8\v2.32\pic\sources\c99\common\isspace.c"
  8956 ;; Parameters:    Size  Location     Type
  8957 ;;  c               2    3[COMRAM] int 
  8958 ;; Auto vars:     Size  Location     Type
  8959 ;;		None
  8960 ;; Return value:  Size  Location     Type
  8961 ;;                  2    3[COMRAM] int 
  8962 ;; Registers used:
  8963 ;;		wreg, status,2, status,0
  8964 ;; Tracked objects:
  8965 ;;		On entry : 0/0
  8966 ;;		On exit  : 0/0
  8967 ;;		Unchanged: 0/0
  8968 ;; Data sizes:     COMRAM   BANK5   BANK6   BANK7   BANK8   BANK9  BANK10  BANK11  BANK12  BANK13  BANK14  BANK15  BANK1
      +6  BANK17  BANK18  BANK19  BANK20  BANK21  BANK22  BANK23  BANK24  BANK25  BANK26  BANK27  BANK28  BANK29  BANK30  BANK3
      +1  BANK32  BANK33  BANK34  BANK35  BANK36
  8969 ;;      Params:         2       0       0       0       0       0       0       0       0       0       0       0       
      +0       0       0       0       0       0       0       0       0       0       0       0       0       0       0       
      +0       0       0       0       0       0
  8970 ;;      Locals:         1       0       0       0       0       0       0       0       0       0       0       0       
      +0       0       0       0       0       0       0       0       0       0       0       0       0       0       0       
      +0       0       0       0       0       0
  8971 ;;      Temps:          4       0       0       0       0       0       0       0       0       0       0       0       
      +0       0       0       0       0       0       0       0       0       0       0       0       0       0       0       
      +0       0       0       0       0       0
  8972 ;;      Totals:         7       0       0       0       0       0       0       0       0       0       0       0       
      +0       0       0       0       0       0       0       0       0       0       0       0       0       0       0       
      +0       0       0       0       0       0
  8973 ;;Total ram usage:        7 bytes
  8974 ;; Hardware stack levels used: 1
  8975 ;; Hardware stack levels required when called: 2
  8976 ;; This function calls:
  8977 ;;		Nothing
  8978 ;; This function is called by:
  8979 ;;		_atoi
  8980 ;; This function uses a non-reentrant model
  8981 ;;
  8982                           
  8983                           	psect	text30
  8984  005DEC                     __ptext30:
  8985                           	callstack 0
  8986  005DEC                     _isspace:
  8987                           	callstack 120
  8988  005DEC  0E01               	movlw	1
  8989  005DEE  6E0A               	movwf	_isspace$985^(0+1280),c
  8990  005DF0  0E20               	movlw	32
  8991  005DF2  1804               	xorwf	isspace@c^(0+1280),w,c
  8992  005DF4  1005               	iorwf	(isspace@c+1)^(0+1280),w,c
  8993  005DF6  B4D8               	btfsc	status,2,c
  8994  005DF8  EF00  F02F         	goto	u7231
  8995  005DFC  EF02  F02F         	goto	u7230
  8996  005E00                     u7231:
  8997  005E00  EF1B  F02F         	goto	l5567
  8998  005E04                     u7230:
  8999  005E04  0EF7               	movlw	247
  9000  005E06  6E06               	movwf	??_isspace^(0+1280),c
  9001  005E08  0EFF               	movlw	255
  9002  005E0A  6E07               	movwf	(??_isspace+1)^(0+1280),c
  9003  005E0C  C504  F508         	movff	isspace@c,??_isspace+2
  9004  005E10  C505  F509         	movff	isspace@c+1,??_isspace+3
  9005  005E14  5006               	movf	??_isspace^(0+1280),w,c
  9006  005E16  2608               	addwf	(??_isspace+2)^(0+1280),f,c
  9007  005E18  5007               	movf	(??_isspace+1)^(0+1280),w,c
  9008  005E1A  2209               	addwfc	(??_isspace+3)^(0+1280),f,c
  9009  005E1C  5009               	movf	(??_isspace+3)^(0+1280),w,c
  9010  005E1E  E109               	bnz	u7240
  9011  005E20  0E05               	movlw	5
  9012  005E22  5C08               	subwf	(??_isspace+2)^(0+1280),w,c
  9013  005E24  A0D8               	btfss	status,0,c
  9014  005E26  EF17  F02F         	goto	u7241
  9015  005E2A  EF19  F02F         	goto	u7240
  9016  005E2E                     u7241:
  9017  005E2E  EF1B  F02F         	goto	l5567
  9018  005E32                     u7240:
  9019  005E32  0E00               	movlw	0
  9020  005E34  6E0A               	movwf	_isspace$985^(0+1280),c
  9021  005E36                     l5567:
  9022  005E36  C50A  F504         	movff	_isspace$985,?_isspace
  9023  005E3A  6A05               	clrf	(?_isspace+1)^(0+1280),c
  9024  005E3C  0012               	return		;funcret
  9025  005E3E                     __end_of_isspace:
  9026                           	callstack 0
  9027                           
  9028 ;; *************** function _isdigit *****************
  9029 ;; Defined at:
  9030 ;;		line 5 in file "C:\Program Files\Microchip\xc8\v2.32\pic\sources\c99\common\isdigit.c"
  9031 ;; Parameters:    Size  Location     Type
  9032 ;;  c               2    3[COMRAM] int 
  9033 ;; Auto vars:     Size  Location     Type
  9034 ;;		None
  9035 ;; Return value:  Size  Location     Type
  9036 ;;                  2    3[COMRAM] int 
  9037 ;; Registers used:
  9038 ;;		wreg, status,2, status,0
  9039 ;; Tracked objects:
  9040 ;;		On entry : 0/0
  9041 ;;		On exit  : 0/0
  9042 ;;		Unchanged: 0/0
  9043 ;; Data sizes:     COMRAM   BANK5   BANK6   BANK7   BANK8   BANK9  BANK10  BANK11  BANK12  BANK13  BANK14  BANK15  BANK1
      +6  BANK17  BANK18  BANK19  BANK20  BANK21  BANK22  BANK23  BANK24  BANK25  BANK26  BANK27  BANK28  BANK29  BANK30  BANK3
      +1  BANK32  BANK33  BANK34  BANK35  BANK36
  9044 ;;      Params:         2       0       0       0       0       0       0       0       0       0       0       0       
      +0       0       0       0       0       0       0       0       0       0       0       0       0       0       0       
      +0       0       0       0       0       0
  9045 ;;      Locals:         0       0       0       0       0       0       0       0       0       0       0       0       
      +0       0       0       0       0       0       0       0       0       0       0       0       0       0       0       
      +0       0       0       0       0       0
  9046 ;;      Temps:          4       0       0       0       0       0       0       0       0       0       0       0       
      +0       0       0       0       0       0       0       0       0       0       0       0       0       0       0       
      +0       0       0       0       0       0
  9047 ;;      Totals:         6       0       0       0       0       0       0       0       0       0       0       0       
      +0       0       0       0       0       0       0       0       0       0       0       0       0       0       0       
      +0       0       0       0       0       0
  9048 ;;Total ram usage:        6 bytes
  9049 ;; Hardware stack levels used: 1
  9050 ;; Hardware stack levels required when called: 2
  9051 ;; This function calls:
  9052 ;;		Nothing
  9053 ;; This function is called by:
  9054 ;;		_vfpfcnvrt
  9055 ;;		_atoi
  9056 ;; This function uses a non-reentrant model
  9057 ;;
  9058                           
  9059                           	psect	text31
  9060  0060C2                     __ptext31:
  9061                           	callstack 0
  9062  0060C2                     _isdigit:
  9063                           	callstack 121
  9064  0060C2  0ED0               	movlw	208
  9065  0060C4  6E06               	movwf	??_isdigit^(0+1280),c
  9066  0060C6  0EFF               	movlw	255
  9067  0060C8  6E07               	movwf	(??_isdigit+1)^(0+1280),c
  9068  0060CA  C504  F508         	movff	isdigit@c,??_isdigit+2
  9069  0060CE  C505  F509         	movff	isdigit@c+1,??_isdigit+3
  9070  0060D2  5006               	movf	??_isdigit^(0+1280),w,c
  9071  0060D4  2608               	addwf	(??_isdigit+2)^(0+1280),f,c
  9072  0060D6  5007               	movf	(??_isdigit+1)^(0+1280),w,c
  9073  0060D8  2209               	addwfc	(??_isdigit+3)^(0+1280),f,c
  9074  0060DA  5009               	movf	(??_isdigit+3)^(0+1280),w,c
  9075  0060DC  E10A               	bnz	u7210
  9076  0060DE  0E0A               	movlw	10
  9077  0060E0  5C08               	subwf	(??_isdigit+2)^(0+1280),w,c
  9078  0060E2  A0D8               	btfss	status,0,c
  9079  0060E4  EF76  F030         	goto	u7211
  9080  0060E8  EF79  F030         	goto	u7210
  9081  0060EC                     u7211:
  9082  0060EC  0E01               	movlw	1
  9083  0060EE  EF7A  F030         	goto	u7220
  9084  0060F2                     u7210:
  9085  0060F2  0E00               	movlw	0
  9086  0060F4                     u7220:
  9087  0060F4  6E04               	movwf	?_isdigit^(0+1280),c
  9088  0060F6  6A05               	clrf	(?_isdigit+1)^(0+1280),c
  9089  0060F8  0012               	return		;funcret
  9090  0060FA                     __end_of_isdigit:
  9091                           	callstack 0
  9092                           
  9093 ;; *************** function ___wmul *****************
  9094 ;; Defined at:
  9095 ;;		line 15 in file "C:\Program Files\Microchip\xc8\v2.32\pic\sources\c99\common\Umul16.c"
  9096 ;; Parameters:    Size  Location     Type
  9097 ;;  multiplier      2    3[COMRAM] unsigned int 
  9098 ;;  multiplicand    2    5[COMRAM] unsigned int 
  9099 ;; Auto vars:     Size  Location     Type
  9100 ;;  product         2    7[COMRAM] unsigned int 
  9101 ;; Return value:  Size  Location     Type
  9102 ;;                  2    3[COMRAM] unsigned int 
  9103 ;; Registers used:
  9104 ;;		wreg, status,2, status,0, prodl, prodh
  9105 ;; Tracked objects:
  9106 ;;		On entry : 0/0
  9107 ;;		On exit  : 0/0
  9108 ;;		Unchanged: 0/0
  9109 ;; Data sizes:     COMRAM   BANK5   BANK6   BANK7   BANK8   BANK9  BANK10  BANK11  BANK12  BANK13  BANK14  BANK15  BANK1
      +6  BANK17  BANK18  BANK19  BANK20  BANK21  BANK22  BANK23  BANK24  BANK25  BANK26  BANK27  BANK28  BANK29  BANK30  BANK3
      +1  BANK32  BANK33  BANK34  BANK35  BANK36
  9110 ;;      Params:         4       0       0       0       0       0       0       0       0       0       0       0       
      +0       0       0       0       0       0       0       0       0       0       0       0       0       0       0       
      +0       0       0       0       0       0
  9111 ;;      Locals:         2       0       0       0       0       0       0       0       0       0       0       0       
      +0       0       0       0       0       0       0       0       0       0       0       0       0       0       0       
      +0       0       0       0       0       0
  9112 ;;      Temps:          0       0       0       0       0       0       0       0       0       0       0       0       
      +0       0       0       0       0       0       0       0       0       0       0       0       0       0       0       
      +0       0       0       0       0       0
  9113 ;;      Totals:         6       0       0       0       0       0       0       0       0       0       0       0       
      +0       0       0       0       0       0       0       0       0       0       0       0       0       0       0       
      +0       0       0       0       0       0
  9114 ;;Total ram usage:        6 bytes
  9115 ;; Hardware stack levels used: 1
  9116 ;; Hardware stack levels required when called: 2
  9117 ;; This function calls:
  9118 ;;		Nothing
  9119 ;; This function is called by:
  9120 ;;		_atoi
  9121 ;; This function uses a non-reentrant model
  9122 ;;
  9123                           
  9124                           	psect	text32
  9125  0060FA                     __ptext32:
  9126                           	callstack 0
  9127  0060FA                     ___wmul:
  9128                           	callstack 120
  9129  0060FA  5004               	movf	___wmul@multiplier^(0+1280),w,c
  9130  0060FC  0206               	mulwf	___wmul@multiplicand^(0+1280),c
  9131  0060FE  0061 F3CC  F508    	movff	prodl,___wmul@product
  9132  006104  0061 F3D0  F509    	movff	prodh,___wmul@product+1
  9133  00610A  5004               	movf	___wmul@multiplier^(0+1280),w,c
  9134  00610C  0207               	mulwf	(___wmul@multiplicand+1)^(0+1280),c
  9135  00610E  50F3               	movf	243,w,c
  9136  006110  2609               	addwf	(___wmul@product+1)^(0+1280),f,c
  9137  006112  5005               	movf	(___wmul@multiplier+1)^(0+1280),w,c
  9138  006114  0206               	mulwf	___wmul@multiplicand^(0+1280),c
  9139  006116  50F3               	movf	243,w,c
  9140  006118  2609               	addwf	(___wmul@product+1)^(0+1280),f,c
  9141  00611A  C508  F504         	movff	___wmul@product,?___wmul
  9142  00611E  C509  F505         	movff	___wmul@product+1,?___wmul+1
  9143  006122  0012               	return		;funcret
  9144  006124                     __end_of___wmul:
  9145                           	callstack 0
  9146                           
  9147 ;; *************** function ___xxtofl *****************
  9148 ;; Defined at:
  9149 ;;		line 10 in file "C:\Program Files\Microchip\xc8\v2.32\pic\sources\c99\common\xxtofl.c"
  9150 ;; Parameters:    Size  Location     Type
  9151 ;;  sign            1    wreg     unsigned char 
  9152 ;;  val             4    3[COMRAM] long 
  9153 ;; Auto vars:     Size  Location     Type
  9154 ;;  sign            1   11[COMRAM] unsigned char 
  9155 ;;  arg             4   13[COMRAM] unsigned long 
  9156 ;;  exp             1   12[COMRAM] unsigned char 
  9157 ;; Return value:  Size  Location     Type
  9158 ;;                  4    3[COMRAM] unsigned char 
  9159 ;; Registers used:
  9160 ;;		wreg, status,2, status,0
  9161 ;; Tracked objects:
  9162 ;;		On entry : 0/0
  9163 ;;		On exit  : 0/0
  9164 ;;		Unchanged: 0/0
  9165 ;; Data sizes:     COMRAM   BANK5   BANK6   BANK7   BANK8   BANK9  BANK10  BANK11  BANK12  BANK13  BANK14  BANK15  BANK1
      +6  BANK17  BANK18  BANK19  BANK20  BANK21  BANK22  BANK23  BANK24  BANK25  BANK26  BANK27  BANK28  BANK29  BANK30  BANK3
      +1  BANK32  BANK33  BANK34  BANK35  BANK36
  9166 ;;      Params:         4       0       0       0       0       0       0       0       0       0       0       0       
      +0       0       0       0       0       0       0       0       0       0       0       0       0       0       0       
      +0       0       0       0       0       0
  9167 ;;      Locals:         6       0       0       0       0       0       0       0       0       0       0       0       
      +0       0       0       0       0       0       0       0       0       0       0       0       0       0       0       
      +0       0       0       0       0       0
  9168 ;;      Temps:          4       0       0       0       0       0       0       0       0       0       0       0       
      +0       0       0       0       0       0       0       0       0       0       0       0       0       0       0       
      +0       0       0       0       0       0
  9169 ;;      Totals:        14       0       0       0       0       0       0       0       0       0       0       0       
      +0       0       0       0       0       0       0       0       0       0       0       0       0       0       0       
      +0       0       0       0       0       0
  9170 ;;Total ram usage:       14 bytes
  9171 ;; Hardware stack levels used: 1
  9172 ;; Hardware stack levels required when called: 2
  9173 ;; This function calls:
  9174 ;;		Nothing
  9175 ;; This function is called by:
  9176 ;;		_main
  9177 ;; This function uses a non-reentrant model
  9178 ;;
  9179                           
  9180                           	psect	text33
  9181  004EB8                     __ptext33:
  9182                           	callstack 0
  9183  004EB8                     ___xxtofl:
  9184                           	callstack 124
  9185                           
  9186                           ;incstack = 0
  9187                           ;___xxtofl@sign stored from wreg
  9188  004EB8  6E0C               	movwf	___xxtofl@sign^(0+1280),c
  9189  004EBA  500C               	movf	___xxtofl@sign^(0+1280),w,c
  9190  004EBC  B4D8               	btfsc	status,2,c
  9191  004EBE  EF63  F027         	goto	u8261
  9192  004EC2  EF65  F027         	goto	u8260
  9193  004EC6                     u8261:
  9194  004EC6  EF87  F027         	goto	l850
  9195  004ECA                     u8260:
  9196  004ECA  BE07               	btfsc	(___xxtofl@val+3)^(0+1280),7,c
  9197  004ECC  EF6C  F027         	goto	u8270
  9198  004ED0  EF6A  F027         	goto	u8271
  9199  004ED4                     u8271:
  9200  004ED4  EF87  F027         	goto	l850
  9201  004ED8                     u8270:
  9202  004ED8  C504  F508         	movff	___xxtofl@val,??___xxtofl
  9203  004EDC  C505  F509         	movff	___xxtofl@val+1,??___xxtofl+1
  9204  004EE0  C506  F50A         	movff	___xxtofl@val+2,??___xxtofl+2
  9205  004EE4  C507  F50B         	movff	___xxtofl@val+3,??___xxtofl+3
  9206  004EE8  1E08               	comf	??___xxtofl^(0+1280),f,c
  9207  004EEA  1E09               	comf	(??___xxtofl+1)^(0+1280),f,c
  9208  004EEC  1E0A               	comf	(??___xxtofl+2)^(0+1280),f,c
  9209  004EEE  1E0B               	comf	(??___xxtofl+3)^(0+1280),f,c
  9210  004EF0  2A08               	incf	??___xxtofl^(0+1280),f,c
  9211  004EF2  0E00               	movlw	0
  9212  004EF4  2209               	addwfc	(??___xxtofl+1)^(0+1280),f,c
  9213  004EF6  220A               	addwfc	(??___xxtofl+2)^(0+1280),f,c
  9214  004EF8  220B               	addwfc	(??___xxtofl+3)^(0+1280),f,c
  9215  004EFA  C508  F50E         	movff	??___xxtofl,___xxtofl@arg
  9216  004EFE  C509  F50F         	movff	??___xxtofl+1,___xxtofl@arg+1
  9217  004F02  C50A  F510         	movff	??___xxtofl+2,___xxtofl@arg+2
  9218  004F06  C50B  F511         	movff	??___xxtofl+3,___xxtofl@arg+3
  9219  004F0A  EF8F  F027         	goto	l6309
  9220  004F0E                     l850:
  9221  004F0E  C504  F50E         	movff	___xxtofl@val,___xxtofl@arg
  9222  004F12  C505  F50F         	movff	___xxtofl@val+1,___xxtofl@arg+1
  9223  004F16  C506  F510         	movff	___xxtofl@val+2,___xxtofl@arg+2
  9224  004F1A  C507  F511         	movff	___xxtofl@val+3,___xxtofl@arg+3
  9225  004F1E                     l6309:
  9226  004F1E  5004               	movf	___xxtofl@val^(0+1280),w,c
  9227  004F20  1005               	iorwf	(___xxtofl@val+1)^(0+1280),w,c
  9228  004F22  1006               	iorwf	(___xxtofl@val+2)^(0+1280),w,c
  9229  004F24  1007               	iorwf	(___xxtofl@val+3)^(0+1280),w,c
  9230  004F26  A4D8               	btfss	status,2,c
  9231  004F28  EF98  F027         	goto	u8281
  9232  004F2C  EF9A  F027         	goto	u8280
  9233  004F30                     u8281:
  9234  004F30  EFA4  F027         	goto	l6315
  9235  004F34                     u8280:
  9236  004F34  0E00               	movlw	0
  9237  004F36  6E04               	movwf	?___xxtofl^(0+1280),c
  9238  004F38  0E00               	movlw	0
  9239  004F3A  6E05               	movwf	(?___xxtofl+1)^(0+1280),c
  9240  004F3C  0E00               	movlw	0
  9241  004F3E  6E06               	movwf	(?___xxtofl+2)^(0+1280),c
  9242  004F40  0E00               	movlw	0
  9243  004F42  6E07               	movwf	(?___xxtofl+3)^(0+1280),c
  9244  004F44  EF35  F028         	goto	l853
  9245  004F48                     l6315:
  9246  004F48  0E96               	movlw	150
  9247  004F4A  6E0D               	movwf	___xxtofl@exp^(0+1280),c
  9248  004F4C  EFAE  F027         	goto	l6319
  9249  004F50                     l6317:
  9250  004F50  2A0D               	incf	___xxtofl@exp^(0+1280),f,c
  9251  004F52  90D8               	bcf	status,0,c
  9252  004F54  3211               	rrcf	(___xxtofl@arg+3)^(0+1280),f,c
  9253  004F56  3210               	rrcf	(___xxtofl@arg+2)^(0+1280),f,c
  9254  004F58  320F               	rrcf	(___xxtofl@arg+1)^(0+1280),f,c
  9255  004F5A  320E               	rrcf	___xxtofl@arg^(0+1280),f,c
  9256  004F5C                     l6319:
  9257  004F5C  0E00               	movlw	0
  9258  004F5E  140E               	andwf	___xxtofl@arg^(0+1280),w,c
  9259  004F60  6E08               	movwf	??___xxtofl^(0+1280),c
  9260  004F62  0E00               	movlw	0
  9261  004F64  140F               	andwf	(___xxtofl@arg+1)^(0+1280),w,c
  9262  004F66  6E09               	movwf	(??___xxtofl+1)^(0+1280),c
  9263  004F68  0E00               	movlw	0
  9264  004F6A  1410               	andwf	(___xxtofl@arg+2)^(0+1280),w,c
  9265  004F6C  6E0A               	movwf	(??___xxtofl+2)^(0+1280),c
  9266  004F6E  0EFE               	movlw	254
  9267  004F70  1411               	andwf	(___xxtofl@arg+3)^(0+1280),w,c
  9268  004F72  6E0B               	movwf	(??___xxtofl+3)^(0+1280),c
  9269  004F74  5008               	movf	??___xxtofl^(0+1280),w,c
  9270  004F76  1009               	iorwf	(??___xxtofl+1)^(0+1280),w,c
  9271  004F78  100A               	iorwf	(??___xxtofl+2)^(0+1280),w,c
  9272  004F7A  100B               	iorwf	(??___xxtofl+3)^(0+1280),w,c
  9273  004F7C  A4D8               	btfss	status,2,c
  9274  004F7E  EFC3  F027         	goto	u8291
  9275  004F82  EFC5  F027         	goto	u8290
  9276  004F86                     u8291:
  9277  004F86  EFA8  F027         	goto	l6317
  9278  004F8A                     u8290:
  9279  004F8A  EFD3  F027         	goto	l857
  9280  004F8E                     l6321:
  9281  004F8E  2A0D               	incf	___xxtofl@exp^(0+1280),f,c
  9282  004F90  0E01               	movlw	1
  9283  004F92  260E               	addwf	___xxtofl@arg^(0+1280),f,c
  9284  004F94  0E00               	movlw	0
  9285  004F96  220F               	addwfc	(___xxtofl@arg+1)^(0+1280),f,c
  9286  004F98  2210               	addwfc	(___xxtofl@arg+2)^(0+1280),f,c
  9287  004F9A  2211               	addwfc	(___xxtofl@arg+3)^(0+1280),f,c
  9288  004F9C  90D8               	bcf	status,0,c
  9289  004F9E  3211               	rrcf	(___xxtofl@arg+3)^(0+1280),f,c
  9290  004FA0  3210               	rrcf	(___xxtofl@arg+2)^(0+1280),f,c
  9291  004FA2  320F               	rrcf	(___xxtofl@arg+1)^(0+1280),f,c
  9292  004FA4  320E               	rrcf	___xxtofl@arg^(0+1280),f,c
  9293  004FA6                     l857:
  9294  004FA6  0E00               	movlw	0
  9295  004FA8  140E               	andwf	___xxtofl@arg^(0+1280),w,c
  9296  004FAA  6E08               	movwf	??___xxtofl^(0+1280),c
  9297  004FAC  0E00               	movlw	0
  9298  004FAE  140F               	andwf	(___xxtofl@arg+1)^(0+1280),w,c
  9299  004FB0  6E09               	movwf	(??___xxtofl+1)^(0+1280),c
  9300  004FB2  0E00               	movlw	0
  9301  004FB4  1410               	andwf	(___xxtofl@arg+2)^(0+1280),w,c
  9302  004FB6  6E0A               	movwf	(??___xxtofl+2)^(0+1280),c
  9303  004FB8  0EFF               	movlw	255
  9304  004FBA  1411               	andwf	(___xxtofl@arg+3)^(0+1280),w,c
  9305  004FBC  6E0B               	movwf	(??___xxtofl+3)^(0+1280),c
  9306  004FBE  5008               	movf	??___xxtofl^(0+1280),w,c
  9307  004FC0  1009               	iorwf	(??___xxtofl+1)^(0+1280),w,c
  9308  004FC2  100A               	iorwf	(??___xxtofl+2)^(0+1280),w,c
  9309  004FC4  100B               	iorwf	(??___xxtofl+3)^(0+1280),w,c
  9310  004FC6  A4D8               	btfss	status,2,c
  9311  004FC8  EFE8  F027         	goto	u8301
  9312  004FCC  EFEA  F027         	goto	u8300
  9313  004FD0                     u8301:
  9314  004FD0  EFC7  F027         	goto	l6321
  9315  004FD4                     u8300:
  9316  004FD4  EFF2  F027         	goto	l6329
  9317  004FD8                     l6327:
  9318  004FD8  060D               	decf	___xxtofl@exp^(0+1280),f,c
  9319  004FDA  90D8               	bcf	status,0,c
  9320  004FDC  360E               	rlcf	___xxtofl@arg^(0+1280),f,c
  9321  004FDE  360F               	rlcf	(___xxtofl@arg+1)^(0+1280),f,c
  9322  004FE0  3610               	rlcf	(___xxtofl@arg+2)^(0+1280),f,c
  9323  004FE2  3611               	rlcf	(___xxtofl@arg+3)^(0+1280),f,c
  9324  004FE4                     l6329:
  9325  004FE4  BE10               	btfsc	(___xxtofl@arg+2)^(0+1280),7,c
  9326  004FE6  EFF7  F027         	goto	u8311
  9327  004FEA  EFF9  F027         	goto	u8310
  9328  004FEE                     u8311:
  9329  004FEE  EF01  F028         	goto	l864
  9330  004FF2                     u8310:
  9331  004FF2  0E02               	movlw	2
  9332  004FF4  600D               	cpfslt	___xxtofl@exp^(0+1280),c
  9333  004FF6  EFFF  F027         	goto	u8321
  9334  004FFA  EF01  F028         	goto	u8320
  9335  004FFE                     u8321:
  9336  004FFE  EFEC  F027         	goto	l6327
  9337  005002                     u8320:
  9338  005002                     l864:
  9339  005002  B00D               	btfsc	___xxtofl@exp^(0+1280),0,c
  9340  005004  EF06  F028         	goto	u8331
  9341  005008  EF08  F028         	goto	u8330
  9342  00500C                     u8331:
  9343  00500C  EF09  F028         	goto	l6335
  9344  005010                     u8330:
  9345  005010  9E10               	bcf	(___xxtofl@arg+2)^(0+1280),7,c
  9346  005012                     l6335:
  9347  005012  90D8               	bcf	status,0,c
  9348  005014  320D               	rrcf	___xxtofl@exp^(0+1280),f,c
  9349  005016  C50D  F508         	movff	___xxtofl@exp,??___xxtofl
  9350  00501A  6A09               	clrf	(??___xxtofl+1)^(0+1280),c
  9351  00501C  6A0A               	clrf	(??___xxtofl+2)^(0+1280),c
  9352  00501E  6A0B               	clrf	(??___xxtofl+3)^(0+1280),c
  9353  005020  C508  F50B         	movff	??___xxtofl,??___xxtofl+3
  9354  005024  6A0A               	clrf	(??___xxtofl+2)^(0+1280),c
  9355  005026  6A09               	clrf	(??___xxtofl+1)^(0+1280),c
  9356  005028  6A08               	clrf	??___xxtofl^(0+1280),c
  9357  00502A  5008               	movf	??___xxtofl^(0+1280),w,c
  9358  00502C  120E               	iorwf	___xxtofl@arg^(0+1280),f,c
  9359  00502E  5009               	movf	(??___xxtofl+1)^(0+1280),w,c
  9360  005030  120F               	iorwf	(___xxtofl@arg+1)^(0+1280),f,c
  9361  005032  500A               	movf	(??___xxtofl+2)^(0+1280),w,c
  9362  005034  1210               	iorwf	(___xxtofl@arg+2)^(0+1280),f,c
  9363  005036  500B               	movf	(??___xxtofl+3)^(0+1280),w,c
  9364  005038  1211               	iorwf	(___xxtofl@arg+3)^(0+1280),f,c
  9365  00503A  500C               	movf	___xxtofl@sign^(0+1280),w,c
  9366  00503C  B4D8               	btfsc	status,2,c
  9367  00503E  EF23  F028         	goto	u8341
  9368  005042  EF25  F028         	goto	u8340
  9369  005046                     u8341:
  9370  005046  EF2D  F028         	goto	l6345
  9371  00504A                     u8340:
  9372  00504A  BE07               	btfsc	(___xxtofl@val+3)^(0+1280),7,c
  9373  00504C  EF2C  F028         	goto	u8350
  9374  005050  EF2A  F028         	goto	u8351
  9375  005054                     u8351:
  9376  005054  EF2D  F028         	goto	l6345
  9377  005058                     u8350:
  9378  005058  8E11               	bsf	(___xxtofl@arg+3)^(0+1280),7,c
  9379  00505A                     l6345:
  9380  00505A  C50E  F504         	movff	___xxtofl@arg,?___xxtofl
  9381  00505E  C50F  F505         	movff	___xxtofl@arg+1,?___xxtofl+1
  9382  005062  C510  F506         	movff	___xxtofl@arg+2,?___xxtofl+2
  9383  005066  C511  F507         	movff	___xxtofl@arg+3,?___xxtofl+3
  9384  00506A                     l853:
  9385  00506A  0012               	return		;funcret
  9386  00506C                     __end_of___xxtofl:
  9387                           	callstack 0
  9388                           
  9389 ;; *************** function _System_Init *****************
  9390 ;; Defined at:
  9391 ;;		line 172 in file "main.c"
  9392 ;; Parameters:    Size  Location     Type
  9393 ;;		None
  9394 ;; Auto vars:     Size  Location     Type
  9395 ;;		None
  9396 ;; Return value:  Size  Location     Type
  9397 ;;                  1    wreg      void 
  9398 ;; Registers used:
  9399 ;;		wreg, fsr2l, fsr2h, status,2, status,0, cstack
  9400 ;; Tracked objects:
  9401 ;;		On entry : 0/0
  9402 ;;		On exit  : 0/0
  9403 ;;		Unchanged: 0/0
  9404 ;; Data sizes:     COMRAM   BANK5   BANK6   BANK7   BANK8   BANK9  BANK10  BANK11  BANK12  BANK13  BANK14  BANK15  BANK1
      +6  BANK17  BANK18  BANK19  BANK20  BANK21  BANK22  BANK23  BANK24  BANK25  BANK26  BANK27  BANK28  BANK29  BANK30  BANK3
      +1  BANK32  BANK33  BANK34  BANK35  BANK36
  9405 ;;      Params:         0       0       0       0       0       0       0       0       0       0       0       0       
      +0       0       0       0       0       0       0       0       0       0       0       0       0       0       0       
      +0       0       0       0       0       0
  9406 ;;      Locals:         0       0       0       0       0       0       0       0       0       0       0       0       
      +0       0       0       0       0       0       0       0       0       0       0       0       0       0       0       
      +0       0       0       0       0       0
  9407 ;;      Temps:          0       0       0       0       0       0       0       0       0       0       0       0       
      +0       0       0       0       0       0       0       0       0       0       0       0       0       0       0       
      +0       0       0       0       0       0
  9408 ;;      Totals:         0       0       0       0       0       0       0       0       0       0       0       0       
      +0       0       0       0       0       0       0       0       0       0       0       0       0       0       0       
      +0       0       0       0       0       0
  9409 ;;Total ram usage:        0 bytes
  9410 ;; Hardware stack levels used: 1
  9411 ;; Hardware stack levels required when called: 5
  9412 ;; This function calls:
  9413 ;;		_FM_Lcd_Easy_Init
  9414 ;;		_Init_ADCC_Module
  9415 ;;		_Init_Gpio_System
  9416 ;;		_Init_Internal_Oscillator
  9417 ;;		_Init_Interrupts
  9418 ;;		_Init_Timer0_As_Timer
  9419 ;; This function is called by:
  9420 ;;		_main
  9421 ;; This function uses a non-reentrant model
  9422 ;;
  9423                           
  9424                           	psect	text34
  9425  006142                     __ptext34:
  9426                           	callstack 0
  9427  006142                     _System_Init:
  9428                           	callstack 121
  9429  006142                     
  9430                           ;main.c: 174:     Init_Internal_Oscillator();
  9431  006142  ECAE  F030         	call	_Init_Internal_Oscillator	;wreg free
  9432  006146                     
  9433                           ;main.c: 176:     Init_Interrupts();
  9434  006146  ECC2  F030         	call	_Init_Interrupts	;wreg free
  9435  00614A                     
  9436                           ;main.c: 178:     Init_Timer0_As_Timer();
  9437  00614A  EC92  F030         	call	_Init_Timer0_As_Timer	;wreg free
  9438  00614E                     
  9439                           ;main.c: 180:     Init_ADCC_Module();
  9440  00614E  ECAA  F02F         	call	_Init_ADCC_Module	;wreg free
  9441  006152                     
  9442                           ;main.c: 182:     Init_Gpio_System();
  9443  006152  ECB9  F030         	call	_Init_Gpio_System	;wreg free
  9444  006156                     
  9445                           ;main.c: 184:     FM_Lcd_Easy_Init();
  9446  006156  ECCB  F02F         	call	_FM_Lcd_Easy_Init	;wreg free
  9447  00615A  0012               	return		;funcret
  9448  00615C                     __end_of_System_Init:
  9449                           	callstack 0
  9450                           
  9451 ;; *************** function _Init_Timer0_As_Timer *****************
  9452 ;; Defined at:
  9453 ;;		line 187 in file "main.c"
  9454 ;; Parameters:    Size  Location     Type
  9455 ;;		None
  9456 ;; Auto vars:     Size  Location     Type
  9457 ;;		None
  9458 ;; Return value:  Size  Location     Type
  9459 ;;                  1    wreg      void 
  9460 ;; Registers used:
  9461 ;;		wreg, status,2, status,0
  9462 ;; Tracked objects:
  9463 ;;		On entry : 0/0
  9464 ;;		On exit  : 0/0
  9465 ;;		Unchanged: 0/0
  9466 ;; Data sizes:     COMRAM   BANK5   BANK6   BANK7   BANK8   BANK9  BANK10  BANK11  BANK12  BANK13  BANK14  BANK15  BANK1
      +6  BANK17  BANK18  BANK19  BANK20  BANK21  BANK22  BANK23  BANK24  BANK25  BANK26  BANK27  BANK28  BANK29  BANK30  BANK3
      +1  BANK32  BANK33  BANK34  BANK35  BANK36
  9467 ;;      Params:         0       0       0       0       0       0       0       0       0       0       0       0       
      +0       0       0       0       0       0       0       0       0       0       0       0       0       0       0       
      +0       0       0       0       0       0
  9468 ;;      Locals:         0       0       0       0       0       0       0       0       0       0       0       0       
      +0       0       0       0       0       0       0       0       0       0       0       0       0       0       0       
      +0       0       0       0       0       0
  9469 ;;      Temps:          0       0       0       0       0       0       0       0       0       0       0       0       
      +0       0       0       0       0       0       0       0       0       0       0       0       0       0       0       
      +0       0       0       0       0       0
  9470 ;;      Totals:         0       0       0       0       0       0       0       0       0       0       0       0       
      +0       0       0       0       0       0       0       0       0       0       0       0       0       0       0       
      +0       0       0       0       0       0
  9471 ;;Total ram usage:        0 bytes
  9472 ;; Hardware stack levels used: 1
  9473 ;; Hardware stack levels required when called: 2
  9474 ;; This function calls:
  9475 ;;		Nothing
  9476 ;; This function is called by:
  9477 ;;		_System_Init
  9478 ;; This function uses a non-reentrant model
  9479 ;;
  9480                           
  9481                           	psect	text35
  9482  006124                     __ptext35:
  9483                           	callstack 0
  9484  006124                     _Init_Timer0_As_Timer:
  9485                           	callstack 123
  9486  006124                     
  9487                           ;main.c: 189:     T0CON0 = 0x00;
  9488  006124  0E00               	movlw	0
  9489  006126  0103               	movlb	3	; () banked
  9490  006128  6F1A               	movwf	26,b	;volatile
  9491                           
  9492                           ;main.c: 190:     T0CON1 = 0x00;
  9493  00612A  0E00               	movlw	0
  9494  00612C  6F1B               	movwf	27,b	;volatile
  9495  00612E                     
  9496                           ; BSR set to: 3
  9497                           ;main.c: 193:     T0CON0 &= ~(1 << 0x7);
  9498  00612E  9F1A               	bcf	26,7,b	;volatile
  9499  006130                     
  9500                           ; BSR set to: 3
  9501                           ;main.c: 194:     T0CON0 &= ~(1 << 0x4);
  9502  006130  991A               	bcf	26,4,b	;volatile
  9503  006132                     
  9504                           ; BSR set to: 3
  9505                           ;main.c: 195:     T0CON0 |= (0b0000 << 0x0);
  9506  006132  511A               	movf	26,w,b	;volatile
  9507  006134                     
  9508                           ; BSR set to: 3
  9509                           ;main.c: 197:     T0CON1 |= (0b010 << 0x5);
  9510  006134  8D1B               	bsf	27,6,b	;volatile
  9511  006136                     
  9512                           ; BSR set to: 3
  9513                           ;main.c: 198:     T0CON1 |= (1 << 0x4);
  9514  006136  891B               	bsf	27,4,b	;volatile
  9515  006138                     
  9516                           ; BSR set to: 3
  9517                           ;main.c: 199:     T0CON1 |= (0b0100 << 0x0);
  9518  006138  851B               	bsf	27,2,b	;volatile
  9519  00613A                     
  9520                           ; BSR set to: 3
  9521                           ;main.c: 217:     TMR0 = 6;
  9522  00613A  0E06               	movlw	6
  9523  00613C  6F18               	movwf	24,b	;volatile
  9524  00613E                     
  9525                           ; BSR set to: 3
  9526                           ;main.c: 220:     T0CON0 |= (1 << 0x7);
  9527  00613E  8F1A               	bsf	26,7,b	;volatile
  9528  006140                     
  9529                           ; BSR set to: 3
  9530  006140  0012               	return		;funcret
  9531  006142                     __end_of_Init_Timer0_As_Timer:
  9532                           	callstack 0
  9533                           
  9534 ;; *************** function _Init_Interrupts *****************
  9535 ;; Defined at:
  9536 ;;		line 223 in file "main.c"
  9537 ;; Parameters:    Size  Location     Type
  9538 ;;		None
  9539 ;; Auto vars:     Size  Location     Type
  9540 ;;		None
  9541 ;; Return value:  Size  Location     Type
  9542 ;;                  1    wreg      void 
  9543 ;; Registers used:
  9544 ;;		wreg, status,2, status,0
  9545 ;; Tracked objects:
  9546 ;;		On entry : 0/0
  9547 ;;		On exit  : 0/0
  9548 ;;		Unchanged: 0/0
  9549 ;; Data sizes:     COMRAM   BANK5   BANK6   BANK7   BANK8   BANK9  BANK10  BANK11  BANK12  BANK13  BANK14  BANK15  BANK1
      +6  BANK17  BANK18  BANK19  BANK20  BANK21  BANK22  BANK23  BANK24  BANK25  BANK26  BANK27  BANK28  BANK29  BANK30  BANK3
      +1  BANK32  BANK33  BANK34  BANK35  BANK36
  9550 ;;      Params:         0       0       0       0       0       0       0       0       0       0       0       0       
      +0       0       0       0       0       0       0       0       0       0       0       0       0       0       0       
      +0       0       0       0       0       0
  9551 ;;      Locals:         0       0       0       0       0       0       0       0       0       0       0       0       
      +0       0       0       0       0       0       0       0       0       0       0       0       0       0       0       
      +0       0       0       0       0       0
  9552 ;;      Temps:          0       0       0       0       0       0       0       0       0       0       0       0       
      +0       0       0       0       0       0       0       0       0       0       0       0       0       0       0       
      +0       0       0       0       0       0
  9553 ;;      Totals:         0       0       0       0       0       0       0       0       0       0       0       0       
      +0       0       0       0       0       0       0       0       0       0       0       0       0       0       0       
      +0       0       0       0       0       0
  9554 ;;Total ram usage:        0 bytes
  9555 ;; Hardware stack levels used: 1
  9556 ;; Hardware stack levels required when called: 2
  9557 ;; This function calls:
  9558 ;;		Nothing
  9559 ;; This function is called by:
  9560 ;;		_System_Init
  9561 ;; This function uses a non-reentrant model
  9562 ;;
  9563                           
  9564                           	psect	text36
  9565  006184                     __ptext36:
  9566                           	callstack 0
  9567  006184                     _Init_Interrupts:
  9568                           	callstack 123
  9569  006184                     
  9570                           ;main.c: 225:     INTCON0 = 0x00;
  9571  006184  0E00               	movlw	0
  9572  006186  6ED6               	movwf	214,c	;volatile
  9573  006188                     
  9574                           ;main.c: 228:     INTCON0 |= (1 << 0x7);
  9575  006188  8ED6               	bsf	214,7,c	;volatile
  9576  00618A                     
  9577                           ;main.c: 229:     INTCON0 &= ~(1 << 0x5);
  9578  00618A  9AD6               	bcf	214,5,c	;volatile
  9579  00618C                     
  9580                           ;main.c: 237:     PIR3 &= ~(1 << 0x7);
  9581  00618C  9EB1               	bcf	177,7,c	;volatile
  9582  00618E                     
  9583                           ;main.c: 238:     PIE3 |= (1 << 0x7);
  9584  00618E  8EA1               	bsf	161,7,c	;volatile
  9585  006190  0012               	return		;funcret
  9586  006192                     __end_of_Init_Interrupts:
  9587                           	callstack 0
  9588                           
  9589 ;; *************** function _Init_Internal_Oscillator *****************
  9590 ;; Defined at:
  9591 ;;		line 320 in file "main.c"
  9592 ;; Parameters:    Size  Location     Type
  9593 ;;		None
  9594 ;; Auto vars:     Size  Location     Type
  9595 ;;  my_clock        2    6[COMRAM] struct .
  9596 ;; Return value:  Size  Location     Type
  9597 ;;                  1    wreg      void 
  9598 ;; Registers used:
  9599 ;;		wreg, fsr2l, fsr2h, status,2, status,0, cstack
  9600 ;; Tracked objects:
  9601 ;;		On entry : 0/0
  9602 ;;		On exit  : 0/0
  9603 ;;		Unchanged: 0/0
  9604 ;; Data sizes:     COMRAM   BANK5   BANK6   BANK7   BANK8   BANK9  BANK10  BANK11  BANK12  BANK13  BANK14  BANK15  BANK1
      +6  BANK17  BANK18  BANK19  BANK20  BANK21  BANK22  BANK23  BANK24  BANK25  BANK26  BANK27  BANK28  BANK29  BANK30  BANK3
      +1  BANK32  BANK33  BANK34  BANK35  BANK36
  9605 ;;      Params:         0       0       0       0       0       0       0       0       0       0       0       0       
      +0       0       0       0       0       0       0       0       0       0       0       0       0       0       0       
      +0       0       0       0       0       0
  9606 ;;      Locals:         2       0       0       0       0       0       0       0       0       0       0       0       
      +0       0       0       0       0       0       0       0       0       0       0       0       0       0       0       
      +0       0       0       0       0       0
  9607 ;;      Temps:          0       0       0       0       0       0       0       0       0       0       0       0       
      +0       0       0       0       0       0       0       0       0       0       0       0       0       0       0       
      +0       0       0       0       0       0
  9608 ;;      Totals:         2       0       0       0       0       0       0       0       0       0       0       0       
      +0       0       0       0       0       0       0       0       0       0       0       0       0       0       0       
      +0       0       0       0       0       0
  9609 ;;Total ram usage:        2 bytes
  9610 ;; Hardware stack levels used: 1
  9611 ;; Hardware stack levels required when called: 3
  9612 ;; This function calls:
  9613 ;;		_FM_Hfintosc_Init
  9614 ;; This function is called by:
  9615 ;;		_System_Init
  9616 ;; This function uses a non-reentrant model
  9617 ;;
  9618                           
  9619                           	psect	text37
  9620  00615C                     __ptext37:
  9621                           	callstack 0
  9622  00615C                     _Init_Internal_Oscillator:
  9623                           	callstack 122
  9624  00615C                     
  9625                           ;main.c: 322:     _clock_hfintosc_params_t my_clock;;main.c: 323:     my_clock.frecuenci
      +                          a_clock = freq_clk_16MHZ;
  9626  00615C  0E05               	movlw	5
  9627  00615E  6E08               	movwf	(Init_Internal_Oscillator@my_clock+1)^(0+1280),c
  9628                           
  9629                           ;main.c: 324:     my_clock.divisor_clock = clock_div_1;
  9630  006160  0E00               	movlw	0
  9631  006162  6E07               	movwf	Init_Internal_Oscillator@my_clock^(0+1280),c
  9632  006164                     
  9633                           ;main.c: 325:     FM_Hfintosc_Init(&my_clock);
  9634  006164  0E07               	movlw	low Init_Internal_Oscillator@my_clock
  9635  006166  6E04               	movwf	FM_Hfintosc_Init@clock_params^(0+1280),c
  9636  006168  0E05               	movlw	high Init_Internal_Oscillator@my_clock
  9637  00616A  6E05               	movwf	(FM_Hfintosc_Init@clock_params+1)^(0+1280),c
  9638  00616C  ECEC  F02F         	call	_FM_Hfintosc_Init	;wreg free
  9639  006170  0012               	return		;funcret
  9640  006172                     __end_of_Init_Internal_Oscillator:
  9641                           	callstack 0
  9642                           
  9643 ;; *************** function _FM_Hfintosc_Init *****************
  9644 ;; Defined at:
  9645 ;;		line 8 in file "system_config.c"
  9646 ;; Parameters:    Size  Location     Type
  9647 ;;  clock_params    2    3[COMRAM] PTR struct .
  9648 ;;		 -> Init_Internal_Oscillator@my_clock(2), 
  9649 ;; Auto vars:     Size  Location     Type
  9650 ;;		None
  9651 ;; Return value:  Size  Location     Type
  9652 ;;                  1    wreg      void 
  9653 ;; Registers used:
  9654 ;;		wreg, fsr2l, fsr2h, status,2, status,0
  9655 ;; Tracked objects:
  9656 ;;		On entry : 0/0
  9657 ;;		On exit  : 0/0
  9658 ;;		Unchanged: 0/0
  9659 ;; Data sizes:     COMRAM   BANK5   BANK6   BANK7   BANK8   BANK9  BANK10  BANK11  BANK12  BANK13  BANK14  BANK15  BANK1
      +6  BANK17  BANK18  BANK19  BANK20  BANK21  BANK22  BANK23  BANK24  BANK25  BANK26  BANK27  BANK28  BANK29  BANK30  BANK3
      +1  BANK32  BANK33  BANK34  BANK35  BANK36
  9660 ;;      Params:         2       0       0       0       0       0       0       0       0       0       0       0       
      +0       0       0       0       0       0       0       0       0       0       0       0       0       0       0       
      +0       0       0       0       0       0
  9661 ;;      Locals:         0       0       0       0       0       0       0       0       0       0       0       0       
      +0       0       0       0       0       0       0       0       0       0       0       0       0       0       0       
      +0       0       0       0       0       0
  9662 ;;      Temps:          1       0       0       0       0       0       0       0       0       0       0       0       
      +0       0       0       0       0       0       0       0       0       0       0       0       0       0       0       
      +0       0       0       0       0       0
  9663 ;;      Totals:         3       0       0       0       0       0       0       0       0       0       0       0       
      +0       0       0       0       0       0       0       0       0       0       0       0       0       0       0       
      +0       0       0       0       0       0
  9664 ;;Total ram usage:        3 bytes
  9665 ;; Hardware stack levels used: 1
  9666 ;; Hardware stack levels required when called: 2
  9667 ;; This function calls:
  9668 ;;		Nothing
  9669 ;; This function is called by:
  9670 ;;		_Init_Internal_Oscillator
  9671 ;; This function uses a non-reentrant model
  9672 ;;
  9673                           
  9674                           	psect	text38
  9675  005FD8                     __ptext38:
  9676                           	callstack 0
  9677  005FD8                     _FM_Hfintosc_Init:
  9678                           	callstack 122
  9679  005FD8                     
  9680                           ;system_config.c: 8: void FM_Hfintosc_Init (_clock_hfintosc_params_t *clock_params);syst
      +                          em_config.c: 9: {;system_config.c: 10:     OSCCON1bits.NOSC = 0b110;
  9681  005FD8  0100               	movlb	0	; () banked
  9682  005FDA  51AD               	movf	173,w,b	;volatile
  9683  005FDC  0B8F               	andlw	-113
  9684  005FDE  0960               	iorlw	96
  9685  005FE0  6FAD               	movwf	173,b	;volatile
  9686  005FE2                     
  9687                           ; BSR set to: 0
  9688                           ;system_config.c: 11:     OSCCON1bits.NDIV = clock_params->divisor_clock;
  9689  005FE2  0061  F410  F4D9   	movff	FM_Hfintosc_Init@clock_params,fsr2l
  9690  005FE8  0061  F414  F4DA   	movff	FM_Hfintosc_Init@clock_params+1,fsr2h
  9691  005FEE  50DF               	movf	indf2,w,c
  9692  005FF0  6E06               	movwf	??_FM_Hfintosc_Init^(0+1280),c
  9693  005FF2  51AD               	movf	173,w,b	;volatile
  9694  005FF4  1806               	xorwf	??_FM_Hfintosc_Init^(0+1280),w,c
  9695  005FF6  0BF0               	andlw	-16
  9696  005FF8  1806               	xorwf	??_FM_Hfintosc_Init^(0+1280),w,c
  9697  005FFA  6FAD               	movwf	173,b	;volatile
  9698  005FFC                     
  9699                           ; BSR set to: 0
  9700                           ;system_config.c: 12:     OSCFRQbits.HFFRQ = clock_params->frecuencia_clock;
  9701  005FFC  EE20 F001          	lfsr	2,1
  9702  006000  5004               	movf	FM_Hfintosc_Init@clock_params^(0+1280),w,c
  9703  006002  26D9               	addwf	fsr2l,f,c
  9704  006004  5005               	movf	(FM_Hfintosc_Init@clock_params+1)^(0+1280),w,c
  9705  006006  22DA               	addwfc	fsr2h,f,c
  9706  006008  50DF               	movf	indf2,w,c
  9707  00600A  6E06               	movwf	??_FM_Hfintosc_Init^(0+1280),c
  9708  00600C  51B1               	movf	177,w,b	;volatile
  9709  00600E  1806               	xorwf	??_FM_Hfintosc_Init^(0+1280),w,c
  9710  006010  0BF0               	andlw	-16
  9711  006012  1806               	xorwf	??_FM_Hfintosc_Init^(0+1280),w,c
  9712  006014  6FB1               	movwf	177,b	;volatile
  9713  006016                     
  9714                           ; BSR set to: 0
  9715  006016  0012               	return		;funcret
  9716  006018                     __end_of_FM_Hfintosc_Init:
  9717                           	callstack 0
  9718                           
  9719 ;; *************** function _Init_Gpio_System *****************
  9720 ;; Defined at:
  9721 ;;		line 304 in file "main.c"
  9722 ;; Parameters:    Size  Location     Type
  9723 ;;		None
  9724 ;; Auto vars:     Size  Location     Type
  9725 ;;		None
  9726 ;; Return value:  Size  Location     Type
  9727 ;;                  1    wreg      void 
  9728 ;; Registers used:
  9729 ;;		status,2, status,0
  9730 ;; Tracked objects:
  9731 ;;		On entry : 0/0
  9732 ;;		On exit  : 0/0
  9733 ;;		Unchanged: 0/0
  9734 ;; Data sizes:     COMRAM   BANK5   BANK6   BANK7   BANK8   BANK9  BANK10  BANK11  BANK12  BANK13  BANK14  BANK15  BANK1
      +6  BANK17  BANK18  BANK19  BANK20  BANK21  BANK22  BANK23  BANK24  BANK25  BANK26  BANK27  BANK28  BANK29  BANK30  BANK3
      +1  BANK32  BANK33  BANK34  BANK35  BANK36
  9735 ;;      Params:         0       0       0       0       0       0       0       0       0       0       0       0       
      +0       0       0       0       0       0       0       0       0       0       0       0       0       0       0       
      +0       0       0       0       0       0
  9736 ;;      Locals:         0       0       0       0       0       0       0       0       0       0       0       0       
      +0       0       0       0       0       0       0       0       0       0       0       0       0       0       0       
      +0       0       0       0       0       0
  9737 ;;      Temps:          0       0       0       0       0       0       0       0       0       0       0       0       
      +0       0       0       0       0       0       0       0       0       0       0       0       0       0       0       
      +0       0       0       0       0       0
  9738 ;;      Totals:         0       0       0       0       0       0       0       0       0       0       0       0       
      +0       0       0       0       0       0       0       0       0       0       0       0       0       0       0       
      +0       0       0       0       0       0
  9739 ;;Total ram usage:        0 bytes
  9740 ;; Hardware stack levels used: 1
  9741 ;; Hardware stack levels required when called: 2
  9742 ;; This function calls:
  9743 ;;		Nothing
  9744 ;; This function is called by:
  9745 ;;		_System_Init
  9746 ;; This function uses a non-reentrant model
  9747 ;;
  9748                           
  9749                           	psect	text39
  9750  006172                     __ptext39:
  9751                           	callstack 0
  9752  006172                     _Init_Gpio_System:
  9753                           	callstack 123
  9754  006172                     
  9755                           ;main.c: 307:     TRISF &= ~(1 << 3);
  9756  006172  96CB               	bcf	203,3,c	;volatile
  9757                           
  9758                           ;main.c: 308:     ANSELF &= ~(1 << 3);
  9759  006174  0104               	movlb	4	; () banked
  9760  006176  9728               	bcf	40,3,b	;volatile
  9761                           
  9762                           ;main.c: 309:     LATF &= ~(1 << 3);
  9763  006178  96C3               	bcf	195,3,c	;volatile
  9764                           
  9765                           ;main.c: 312:     TRISA |= (1 << 2);
  9766  00617A  84C6               	bsf	198,2,c	;volatile
  9767                           
  9768                           ;main.c: 313:     ANSELA &= ~(1 << 2);
  9769  00617C  9500               	bcf	0,2,b	;volatile
  9770                           
  9771                           ;main.c: 316:     ANSELB &= ~(1 << 0);
  9772  00617E  9108               	bcf	8,0,b	;volatile
  9773                           
  9774                           ;main.c: 317:     TRISB |= (1 << 0);
  9775  006180  80C7               	bsf	199,0,c	;volatile
  9776  006182                     
  9777                           ; BSR set to: 4
  9778  006182  0012               	return		;funcret
  9779  006184                     __end_of_Init_Gpio_System:
  9780                           	callstack 0
  9781                           
  9782 ;; *************** function _Init_ADCC_Module *****************
  9783 ;; Defined at:
  9784 ;;		line 241 in file "main.c"
  9785 ;; Parameters:    Size  Location     Type
  9786 ;;		None
  9787 ;; Auto vars:     Size  Location     Type
  9788 ;;		None
  9789 ;; Return value:  Size  Location     Type
  9790 ;;                  1    wreg      void 
  9791 ;; Registers used:
  9792 ;;		wreg, status,2, status,0
  9793 ;; Tracked objects:
  9794 ;;		On entry : 0/0
  9795 ;;		On exit  : 0/0
  9796 ;;		Unchanged: 0/0
  9797 ;; Data sizes:     COMRAM   BANK5   BANK6   BANK7   BANK8   BANK9  BANK10  BANK11  BANK12  BANK13  BANK14  BANK15  BANK1
      +6  BANK17  BANK18  BANK19  BANK20  BANK21  BANK22  BANK23  BANK24  BANK25  BANK26  BANK27  BANK28  BANK29  BANK30  BANK3
      +1  BANK32  BANK33  BANK34  BANK35  BANK36
  9798 ;;      Params:         0       0       0       0       0       0       0       0       0       0       0       0       
      +0       0       0       0       0       0       0       0       0       0       0       0       0       0       0       
      +0       0       0       0       0       0
  9799 ;;      Locals:         0       0       0       0       0       0       0       0       0       0       0       0       
      +0       0       0       0       0       0       0       0       0       0       0       0       0       0       0       
      +0       0       0       0       0       0
  9800 ;;      Temps:          0       0       0       0       0       0       0       0       0       0       0       0       
      +0       0       0       0       0       0       0       0       0       0       0       0       0       0       0       
      +0       0       0       0       0       0
  9801 ;;      Totals:         0       0       0       0       0       0       0       0       0       0       0       0       
      +0       0       0       0       0       0       0       0       0       0       0       0       0       0       0       
      +0       0       0       0       0       0
  9802 ;;Total ram usage:        0 bytes
  9803 ;; Hardware stack levels used: 1
  9804 ;; Hardware stack levels required when called: 2
  9805 ;; This function calls:
  9806 ;;		Nothing
  9807 ;; This function is called by:
  9808 ;;		_System_Init
  9809 ;; This function uses a non-reentrant model
  9810 ;;
  9811                           
  9812                           	psect	text40
  9813  005F54                     __ptext40:
  9814                           	callstack 0
  9815  005F54                     _Init_ADCC_Module:
  9816                           	callstack 123
  9817  005F54                     
  9818                           ;main.c: 243:     ADCON0 = 0x00;
  9819  005F54  0E00               	movlw	0
  9820  005F56  0103               	movlb	3	; () banked
  9821  005F58  6FF3               	movwf	243,b	;volatile
  9822                           
  9823                           ;main.c: 244:     ADCON1 = 0x00;
  9824  005F5A  0E00               	movlw	0
  9825  005F5C  6FF4               	movwf	244,b	;volatile
  9826                           
  9827                           ;main.c: 245:     ADCON2 = 0x00;
  9828  005F5E  0E00               	movlw	0
  9829  005F60  6FF5               	movwf	245,b	;volatile
  9830  005F62                     
  9831                           ; BSR set to: 3
  9832                           ;main.c: 248:     ADCON0 &= ~(1 << 0x7);
  9833  005F62  9FF3               	bcf	243,7,b	;volatile
  9834  005F64                     
  9835                           ; BSR set to: 3
  9836                           ;main.c: 249:     ADCON0 &= ~(1 << 0x6);
  9837  005F64  9DF3               	bcf	243,6,b	;volatile
  9838  005F66                     
  9839                           ; BSR set to: 3
  9840                           ;main.c: 250:     ADCON0 &= ~(1 << 0x4);
  9841  005F66  99F3               	bcf	243,4,b	;volatile
  9842  005F68                     
  9843                           ; BSR set to: 3
  9844                           ;main.c: 251:     ADCON0 &= ~(1 << 0x0);
  9845  005F68  91F3               	bcf	243,0,b	;volatile
  9846                           
  9847                           ;main.c: 253:     ADCLK = 0x01;
  9848  005F6A  0E01               	movlw	1
  9849  005F6C  6FFA               	movwf	250,b	;volatile
  9850  005F6E                     
  9851                           ; BSR set to: 3
  9852                           ;main.c: 276:     ADCON0 |= (1 << 0x2);
  9853  005F6E  85F3               	bsf	243,2,b	;volatile
  9854  005F70                     
  9855                           ; BSR set to: 3
  9856                           ;main.c: 283:     ADREF &= ~(1 << 0x4);
  9857  005F70  99F8               	bcf	248,4,b	;volatile
  9858  005F72                     
  9859                           ; BSR set to: 3
  9860                           ;main.c: 284:     ADREF &= ~(0b11 << 0x0);
  9861  005F72  0EFC               	movlw	252
  9862  005F74  17F8               	andwf	248,f,b	;volatile
  9863  005F76                     
  9864                           ; BSR set to: 3
  9865                           ;main.c: 287:     ADPCH = 0x00;
  9866  005F76  0E00               	movlw	0
  9867  005F78  6FEC               	movwf	236,b	;volatile
  9868  005F7A                     
  9869                           ; BSR set to: 3
  9870                           ;main.c: 290:     TRISA |= (1 << 0x0);
  9871  005F7A  80C6               	bsf	198,0,c	;volatile
  9872  005F7C                     
  9873                           ; BSR set to: 3
  9874                           ;main.c: 291:     ANSELA |= (1 << 0x0);
  9875  005F7C  0104               	movlb	4	; () banked
  9876  005F7E  8100               	bsf	0,0,b	;volatile
  9877  005F80                     
  9878                           ; BSR set to: 4
  9879                           ;main.c: 297:     ADPRE = 0x00;
  9880  005F80  0E00               	movlw	0
  9881  005F82  0103               	movlb	3	; () banked
  9882  005F84  6FF2               	movwf	242,b	;volatile
  9883  005F86  0E00               	movlw	0
  9884  005F88  6FF1               	movwf	241,b	;volatile
  9885  005F8A                     
  9886                           ; BSR set to: 3
  9887                           ;main.c: 298:     ADACQ = 0x00;
  9888  005F8A  0E00               	movlw	0
  9889  005F8C  6FEF               	movwf	239,b	;volatile
  9890  005F8E  0E00               	movlw	0
  9891  005F90  6FEE               	movwf	238,b	;volatile
  9892  005F92                     
  9893                           ; BSR set to: 3
  9894                           ;main.c: 301:     ADCON0 |= (1 << 0x7);
  9895  005F92  8FF3               	bsf	243,7,b	;volatile
  9896  005F94                     
  9897                           ; BSR set to: 3
  9898  005F94  0012               	return		;funcret
  9899  005F96                     __end_of_Init_ADCC_Module:
  9900                           	callstack 0
  9901                           
  9902 ;; *************** function _FM_Lcd_Easy_Init *****************
  9903 ;; Defined at:
  9904 ;;		line 88 in file "FM_Lcd_Easy.c"
  9905 ;; Parameters:    Size  Location     Type
  9906 ;;		None
  9907 ;; Auto vars:     Size  Location     Type
  9908 ;;		None
  9909 ;; Return value:  Size  Location     Type
  9910 ;;                  1    wreg      void 
  9911 ;; Registers used:
  9912 ;;		wreg, status,2, status,0, cstack
  9913 ;; Tracked objects:
  9914 ;;		On entry : 0/0
  9915 ;;		On exit  : 0/0
  9916 ;;		Unchanged: 0/0
  9917 ;; Data sizes:     COMRAM   BANK5   BANK6   BANK7   BANK8   BANK9  BANK10  BANK11  BANK12  BANK13  BANK14  BANK15  BANK1
      +6  BANK17  BANK18  BANK19  BANK20  BANK21  BANK22  BANK23  BANK24  BANK25  BANK26  BANK27  BANK28  BANK29  BANK30  BANK3
      +1  BANK32  BANK33  BANK34  BANK35  BANK36
  9918 ;;      Params:         0       0       0       0       0       0       0       0       0       0       0       0       
      +0       0       0       0       0       0       0       0       0       0       0       0       0       0       0       
      +0       0       0       0       0       0
  9919 ;;      Locals:         0       0       0       0       0       0       0       0       0       0       0       0       
      +0       0       0       0       0       0       0       0       0       0       0       0       0       0       0       
      +0       0       0       0       0       0
  9920 ;;      Temps:          2       0       0       0       0       0       0       0       0       0       0       0       
      +0       0       0       0       0       0       0       0       0       0       0       0       0       0       0       
      +0       0       0       0       0       0
  9921 ;;      Totals:         2       0       0       0       0       0       0       0       0       0       0       0       
      +0       0       0       0       0       0       0       0       0       0       0       0       0       0       0       
      +0       0       0       0       0       0
  9922 ;;Total ram usage:        2 bytes
  9923 ;; Hardware stack levels used: 1
  9924 ;; Hardware stack levels required when called: 4
  9925 ;; This function calls:
  9926 ;;		_FM_Lcd_Easy_Gpio_Init
  9927 ;;		_FM_Lcd_Send_Command
  9928 ;; This function is called by:
  9929 ;;		_System_Init
  9930 ;; This function uses a non-reentrant model
  9931 ;;
  9932                           
  9933                           	psect	text41
  9934  005F96                     __ptext41:
  9935                           	callstack 0
  9936  005F96                     _FM_Lcd_Easy_Init:
  9937                           	callstack 121
  9938  005F96                     
  9939                           ;FM_Lcd_Easy.c: 90:     FM_Lcd_Easy_Gpio_Init();
  9940  005F96  ECC9  F030         	call	_FM_Lcd_Easy_Gpio_Init	;wreg free
  9941  005F9A                     
  9942                           ;FM_Lcd_Easy.c: 91:     _delay((unsigned long)((50)*(16000000UL/4000.0)));
  9943  005F9A  0E02               	movlw	2
  9944  005F9C  6E0A               	movwf	(??_FM_Lcd_Easy_Init+1)^(0+1280),c
  9945  005F9E  0E04               	movlw	4
  9946  005FA0  6E09               	movwf	??_FM_Lcd_Easy_Init^(0+1280),c
  9947  005FA2  0EBA               	movlw	186
  9948  005FA4                     u8417:
  9949  005FA4  2EE8               	decfsz	wreg,f,c
  9950  005FA6  D7FE               	bra	u8417
  9951  005FA8  2E09               	decfsz	??_FM_Lcd_Easy_Init^(0+1280),f,c
  9952  005FAA  D7FC               	bra	u8417
  9953  005FAC  2E0A               	decfsz	(??_FM_Lcd_Easy_Init+1)^(0+1280),f,c
  9954  005FAE  D7FA               	bra	u8417
  9955  005FB0  D000               	nop2	
  9956  005FB2                     
  9957                           ;FM_Lcd_Easy.c: 93:     FM_Lcd_Send_Command(0x01);
  9958  005FB2  0E01               	movlw	1
  9959  005FB4  ECD0  F030         	call	_FM_Lcd_Send_Command
  9960  005FB8                     
  9961                           ;FM_Lcd_Easy.c: 94:     FM_Lcd_Send_Command(0x02);
  9962  005FB8  0E02               	movlw	2
  9963  005FBA  ECD0  F030         	call	_FM_Lcd_Send_Command
  9964  005FBE                     
  9965                           ;FM_Lcd_Easy.c: 95:     FM_Lcd_Send_Command(0x06);
  9966  005FBE  0E06               	movlw	6
  9967  005FC0  ECD0  F030         	call	_FM_Lcd_Send_Command
  9968  005FC4                     
  9969                           ;FM_Lcd_Easy.c: 96:     FM_Lcd_Send_Command(0x0C);
  9970  005FC4  0E0C               	movlw	12
  9971  005FC6  ECD0  F030         	call	_FM_Lcd_Send_Command
  9972  005FCA                     
  9973                           ;FM_Lcd_Easy.c: 97:     FM_Lcd_Send_Command(0x10);
  9974  005FCA  0E10               	movlw	16
  9975  005FCC  ECD0  F030         	call	_FM_Lcd_Send_Command
  9976  005FD0                     
  9977                           ;FM_Lcd_Easy.c: 98:     FM_Lcd_Send_Command(0x2C);
  9978  005FD0  0E2C               	movlw	44
  9979  005FD2  ECD0  F030         	call	_FM_Lcd_Send_Command
  9980  005FD6  0012               	return		;funcret
  9981  005FD8                     __end_of_FM_Lcd_Easy_Init:
  9982                           	callstack 0
  9983                           
  9984 ;; *************** function _FM_Lcd_Easy_Gpio_Init *****************
  9985 ;; Defined at:
  9986 ;;		line 11 in file "FM_Lcd_Easy.c"
  9987 ;; Parameters:    Size  Location     Type
  9988 ;;		None
  9989 ;; Auto vars:     Size  Location     Type
  9990 ;;  bits_data       1    0        unsigned char 
  9991 ;; Return value:  Size  Location     Type
  9992 ;;                  1    wreg      void 
  9993 ;; Registers used:
  9994 ;;		wreg, status,2, status,0
  9995 ;; Tracked objects:
  9996 ;;		On entry : 0/0
  9997 ;;		On exit  : 0/0
  9998 ;;		Unchanged: 0/0
  9999 ;; Data sizes:     COMRAM   BANK5   BANK6   BANK7   BANK8   BANK9  BANK10  BANK11  BANK12  BANK13  BANK14  BANK15  BANK1
      +6  BANK17  BANK18  BANK19  BANK20  BANK21  BANK22  BANK23  BANK24  BANK25  BANK26  BANK27  BANK28  BANK29  BANK30  BANK3
      +1  BANK32  BANK33  BANK34  BANK35  BANK36
 10000 ;;      Params:         0       0       0       0       0       0       0       0       0       0       0       0       
      +0       0       0       0       0       0       0       0       0       0       0       0       0       0       0       
      +0       0       0       0       0       0
 10001 ;;      Locals:         0       0       0       0       0       0       0       0       0       0       0       0       
      +0       0       0       0       0       0       0       0       0       0       0       0       0       0       0       
      +0       0       0       0       0       0
 10002 ;;      Temps:          0       0       0       0       0       0       0       0       0       0       0       0       
      +0       0       0       0       0       0       0       0       0       0       0       0       0       0       0       
      +0       0       0       0       0       0
 10003 ;;      Totals:         0       0       0       0       0       0       0       0       0       0       0       0       
      +0       0       0       0       0       0       0       0       0       0       0       0       0       0       0       
      +0       0       0       0       0       0
 10004 ;;Total ram usage:        0 bytes
 10005 ;; Hardware stack levels used: 1
 10006 ;; Hardware stack levels required when called: 2
 10007 ;; This function calls:
 10008 ;;		Nothing
 10009 ;; This function is called by:
 10010 ;;		_FM_Lcd_Easy_Init
 10011 ;; This function uses a non-reentrant model
 10012 ;;
 10013                           
 10014                           	psect	text42
 10015  006192                     __ptext42:
 10016                           	callstack 0
 10017  006192                     _FM_Lcd_Easy_Gpio_Init:
 10018                           	callstack 122
 10019  006192                     
 10020                           ;FM_Lcd_Easy.c: 19:     TRISF = 0x00;
 10021  006192  0E00               	movlw	0
 10022  006194  6ECB               	movwf	203,c	;volatile
 10023                           
 10024                           ;FM_Lcd_Easy.c: 20:     ANSELF = 0x00;
 10025  006196  0E00               	movlw	0
 10026  006198  0104               	movlb	4	; () banked
 10027  00619A  6F28               	movwf	40,b	;volatile
 10028  00619C                     
 10029                           ; BSR set to: 4
 10030                           ;FM_Lcd_Easy.c: 21:     LATF &= ~(1 << 1);
 10031  00619C  92C3               	bcf	195,1,c	;volatile
 10032  00619E                     
 10033                           ; BSR set to: 4
 10034  00619E  0012               	return		;funcret
 10035  0061A0                     __end_of_FM_Lcd_Easy_Gpio_Init:
 10036                           	callstack 0
 10037                           
 10038 ;; *************** function _FM_Lcd_Set_Cursor *****************
 10039 ;; Defined at:
 10040 ;;		line 56 in file "FM_Lcd_Easy.c"
 10041 ;; Parameters:    Size  Location     Type
 10042 ;;  filas           1    wreg     enum E16680
 10043 ;;  columna         1    8[COMRAM] enum E16684
 10044 ;; Auto vars:     Size  Location     Type
 10045 ;;  filas           1    9[COMRAM] enum E16680
 10046 ;;  base_pos        1   10[COMRAM] unsigned char 
 10047 ;; Return value:  Size  Location     Type
 10048 ;;                  1    wreg      void 
 10049 ;; Registers used:
 10050 ;;		wreg, status,2, status,0, cstack
 10051 ;; Tracked objects:
 10052 ;;		On entry : 0/0
 10053 ;;		On exit  : 0/0
 10054 ;;		Unchanged: 0/0
 10055 ;; Data sizes:     COMRAM   BANK5   BANK6   BANK7   BANK8   BANK9  BANK10  BANK11  BANK12  BANK13  BANK14  BANK15  BANK1
      +6  BANK17  BANK18  BANK19  BANK20  BANK21  BANK22  BANK23  BANK24  BANK25  BANK26  BANK27  BANK28  BANK29  BANK30  BANK3
      +1  BANK32  BANK33  BANK34  BANK35  BANK36
 10056 ;;      Params:         1       0       0       0       0       0       0       0       0       0       0       0       
      +0       0       0       0       0       0       0       0       0       0       0       0       0       0       0       
      +0       0       0       0       0       0
 10057 ;;      Locals:         2       0       0       0       0       0       0       0       0       0       0       0       
      +0       0       0       0       0       0       0       0       0       0       0       0       0       0       0       
      +0       0       0       0       0       0
 10058 ;;      Temps:          0       0       0       0       0       0       0       0       0       0       0       0       
      +0       0       0       0       0       0       0       0       0       0       0       0       0       0       0       
      +0       0       0       0       0       0
 10059 ;;      Totals:         3       0       0       0       0       0       0       0       0       0       0       0       
      +0       0       0       0       0       0       0       0       0       0       0       0       0       0       0       
      +0       0       0       0       0       0
 10060 ;;Total ram usage:        3 bytes
 10061 ;; Hardware stack levels used: 1
 10062 ;; Hardware stack levels required when called: 4
 10063 ;; This function calls:
 10064 ;;		_FM_Lcd_Send_Command
 10065 ;; This function is called by:
 10066 ;;		_main
 10067 ;; This function uses a non-reentrant model
 10068 ;;
 10069                           
 10070                           	psect	text43
 10071  005F10                     __ptext43:
 10072                           	callstack 0
 10073  005F10                     _FM_Lcd_Set_Cursor:
 10074                           	callstack 122
 10075                           
 10076                           ; BSR set to: 4
 10077                           ;incstack = 0
 10078                           ;FM_Lcd_Set_Cursor@filas stored from wreg
 10079  005F10  6E0A               	movwf	FM_Lcd_Set_Cursor@filas^(0+1280),c
 10080  005F12                     
 10081                           ;FM_Lcd_Easy.c: 56: void FM_Lcd_Set_Cursor (_row_lcd_t filas, _column_lcd_t columna);FM_
      +                          Lcd_Easy.c: 57: {;FM_Lcd_Easy.c: 58:     char base_pos = 0x00;
 10082  005F12  0E00               	movlw	0
 10083  005F14  6E0B               	movwf	FM_Lcd_Set_Cursor@base_pos^(0+1280),c
 10084  005F16                     
 10085                           ;FM_Lcd_Easy.c: 59:     if(filas == ROW_1)
 10086  005F16  500A               	movf	FM_Lcd_Set_Cursor@filas^(0+1280),w,c
 10087  005F18  A4D8               	btfss	status,2,c
 10088  005F1A  EF91  F02F         	goto	u8211
 10089  005F1E  EF93  F02F         	goto	u8210
 10090  005F22                     u8211:
 10091  005F22  EF97  F02F         	goto	l6273
 10092  005F26                     u8210:
 10093  005F26                     
 10094                           ;FM_Lcd_Easy.c: 60:     {;FM_Lcd_Easy.c: 61:         base_pos = 0x80;
 10095  005F26  0E80               	movlw	128
 10096  005F28  6E0B               	movwf	FM_Lcd_Set_Cursor@base_pos^(0+1280),c
 10097                           
 10098                           ;FM_Lcd_Easy.c: 62:     }
 10099  005F2A  EFA4  F02F         	goto	l6277
 10100  005F2E                     l6273:
 10101  005F2E  040A               	decf	FM_Lcd_Set_Cursor@filas^(0+1280),w,c
 10102  005F30  A4D8               	btfss	status,2,c
 10103  005F32  EF9D  F02F         	goto	u8221
 10104  005F36  EF9F  F02F         	goto	u8220
 10105  005F3A                     u8221:
 10106  005F3A  EFA3  F02F         	goto	l181
 10107  005F3E                     u8220:
 10108  005F3E                     
 10109                           ;FM_Lcd_Easy.c: 64:     {;FM_Lcd_Easy.c: 65:         base_pos = 0xC0;
 10110  005F3E  0EC0               	movlw	192
 10111  005F40  6E0B               	movwf	FM_Lcd_Set_Cursor@base_pos^(0+1280),c
 10112                           
 10113                           ;FM_Lcd_Easy.c: 66:     }
 10114  005F42  EFA4  F02F         	goto	l6277
 10115  005F46                     l181:
 10116                           
 10117                           ;FM_Lcd_Easy.c: 68:     {;FM_Lcd_Easy.c: 69:         __nop();
 10118  005F46  F000               	nop	
 10119  005F48                     l6277:
 10120                           
 10121                           ;FM_Lcd_Easy.c: 73:     base_pos += columna;
 10122  005F48  5009               	movf	FM_Lcd_Set_Cursor@columna^(0+1280),w,c
 10123  005F4A  260B               	addwf	FM_Lcd_Set_Cursor@base_pos^(0+1280),f,c
 10124  005F4C                     
 10125                           ;FM_Lcd_Easy.c: 74:     FM_Lcd_Send_Command(base_pos);
 10126  005F4C  500B               	movf	FM_Lcd_Set_Cursor@base_pos^(0+1280),w,c
 10127  005F4E  ECD0  F030         	call	_FM_Lcd_Send_Command
 10128  005F52  0012               	return		;funcret
 10129  005F54                     __end_of_FM_Lcd_Set_Cursor:
 10130                           	callstack 0
 10131                           
 10132 ;; *************** function _FM_Lcd_Send_Command *****************
 10133 ;; Defined at:
 10134 ;;		line 44 in file "FM_Lcd_Easy.c"
 10135 ;; Parameters:    Size  Location     Type
 10136 ;;  command_to_s    1    wreg     unsigned char 
 10137 ;; Auto vars:     Size  Location     Type
 10138 ;;  command_to_s    1    7[COMRAM] unsigned char 
 10139 ;; Return value:  Size  Location     Type
 10140 ;;                  1    wreg      void 
 10141 ;; Registers used:
 10142 ;;		wreg, status,2, status,0, cstack
 10143 ;; Tracked objects:
 10144 ;;		On entry : 0/0
 10145 ;;		On exit  : 0/0
 10146 ;;		Unchanged: 0/0
 10147 ;; Data sizes:     COMRAM   BANK5   BANK6   BANK7   BANK8   BANK9  BANK10  BANK11  BANK12  BANK13  BANK14  BANK15  BANK1
      +6  BANK17  BANK18  BANK19  BANK20  BANK21  BANK22  BANK23  BANK24  BANK25  BANK26  BANK27  BANK28  BANK29  BANK30  BANK3
      +1  BANK32  BANK33  BANK34  BANK35  BANK36
 10148 ;;      Params:         0       0       0       0       0       0       0       0       0       0       0       0       
      +0       0       0       0       0       0       0       0       0       0       0       0       0       0       0       
      +0       0       0       0       0       0
 10149 ;;      Locals:         1       0       0       0       0       0       0       0       0       0       0       0       
      +0       0       0       0       0       0       0       0       0       0       0       0       0       0       0       
      +0       0       0       0       0       0
 10150 ;;      Temps:          0       0       0       0       0       0       0       0       0       0       0       0       
      +0       0       0       0       0       0       0       0       0       0       0       0       0       0       0       
      +0       0       0       0       0       0
 10151 ;;      Totals:         1       0       0       0       0       0       0       0       0       0       0       0       
      +0       0       0       0       0       0       0       0       0       0       0       0       0       0       0       
      +0       0       0       0       0       0
 10152 ;;Total ram usage:        1 bytes
 10153 ;; Hardware stack levels used: 1
 10154 ;; Hardware stack levels required when called: 3
 10155 ;; This function calls:
 10156 ;;		_FM_Lcd_Send_Nibble
 10157 ;; This function is called by:
 10158 ;;		_main
 10159 ;;		_FM_Lcd_Set_Cursor
 10160 ;;		_FM_Lcd_Easy_Init
 10161 ;; This function uses a non-reentrant model
 10162 ;;
 10163                           
 10164                           	psect	text44
 10165  0061A0                     __ptext44:
 10166                           	callstack 0
 10167  0061A0                     _FM_Lcd_Send_Command:
 10168                           	callstack 121
 10169                           
 10170                           ;incstack = 0
 10171                           ;FM_Lcd_Send_Command@command_to_send stored from wreg
 10172  0061A0  6E08               	movwf	FM_Lcd_Send_Command@command_to_send^(0+1280),c
 10173  0061A2                     
 10174                           ;FM_Lcd_Easy.c: 44: void FM_Lcd_Send_Command (char command_to_send);FM_Lcd_Easy.c: 45: {
      +                          ;FM_Lcd_Easy.c: 46:     LATF &= ~(1 << 0);;
 10175  0061A2  90C3               	bcf	195,0,c	;volatile
 10176  0061A4                     
 10177                           ;FM_Lcd_Easy.c: 47:     FM_Lcd_Send_Nibble(command_to_send);
 10178  0061A4  5008               	movf	FM_Lcd_Send_Command@command_to_send^(0+1280),w,c
 10179  0061A6  ECCB  F02D         	call	_FM_Lcd_Send_Nibble
 10180  0061AA  0012               	return		;funcret
 10181  0061AC                     __end_of_FM_Lcd_Send_Command:
 10182                           	callstack 0
 10183                           
 10184 ;; *************** function _FM_Lcd_Send_String *****************
 10185 ;; Defined at:
 10186 ;;		line 78 in file "FM_Lcd_Easy.c"
 10187 ;; Parameters:    Size  Location     Type
 10188 ;;  cadena          2    8[COMRAM] PTR unsigned char 
 10189 ;;		 -> msj(16), STR_3(21), STR_2(17), STR_1(13), 
 10190 ;; Auto vars:     Size  Location     Type
 10191 ;;  index           1   12[COMRAM] unsigned char 
 10192 ;; Return value:  Size  Location     Type
 10193 ;;                  1    wreg      void 
 10194 ;; Registers used:
 10195 ;;		wreg, fsr1l, fsr1h, status,2, status,0, tblptrl, tblptrh, tblptru, cstack
 10196 ;; Tracked objects:
 10197 ;;		On entry : 0/0
 10198 ;;		On exit  : 0/0
 10199 ;;		Unchanged: 0/0
 10200 ;; Data sizes:     COMRAM   BANK5   BANK6   BANK7   BANK8   BANK9  BANK10  BANK11  BANK12  BANK13  BANK14  BANK15  BANK1
      +6  BANK17  BANK18  BANK19  BANK20  BANK21  BANK22  BANK23  BANK24  BANK25  BANK26  BANK27  BANK28  BANK29  BANK30  BANK3
      +1  BANK32  BANK33  BANK34  BANK35  BANK36
 10201 ;;      Params:         2       0       0       0       0       0       0       0       0       0       0       0       
      +0       0       0       0       0       0       0       0       0       0       0       0       0       0       0       
      +0       0       0       0       0       0
 10202 ;;      Locals:         1       0       0       0       0       0       0       0       0       0       0       0       
      +0       0       0       0       0       0       0       0       0       0       0       0       0       0       0       
      +0       0       0       0       0       0
 10203 ;;      Temps:          2       0       0       0       0       0       0       0       0       0       0       0       
      +0       0       0       0       0       0       0       0       0       0       0       0       0       0       0       
      +0       0       0       0       0       0
 10204 ;;      Totals:         5       0       0       0       0       0       0       0       0       0       0       0       
      +0       0       0       0       0       0       0       0       0       0       0       0       0       0       0       
      +0       0       0       0       0       0
 10205 ;;Total ram usage:        5 bytes
 10206 ;; Hardware stack levels used: 1
 10207 ;; Hardware stack levels required when called: 4
 10208 ;; This function calls:
 10209 ;;		_FM_Lcd_Send_Character
 10210 ;; This function is called by:
 10211 ;;		_main
 10212 ;; This function uses a non-reentrant model
 10213 ;;
 10214                           
 10215                           	psect	text45
 10216  005B12                     __ptext45:
 10217                           	callstack 0
 10218  005B12                     _FM_Lcd_Send_String:
 10219                           	callstack 122
 10220  005B12                     
 10221                           ;FM_Lcd_Easy.c: 78: void FM_Lcd_Send_String (char *cadena);FM_Lcd_Easy.c: 79: {;FM_Lcd_E
      +                          asy.c: 80:     uint8_t index = 0;
 10222  005B12  0E00               	movlw	0
 10223  005B14  6E0D               	movwf	FM_Lcd_Send_String@index^(0+1280),c
 10224                           
 10225                           ;FM_Lcd_Easy.c: 81:     while(cadena[index] != '\0')
 10226  005B16  EFA9  F02D         	goto	l6289
 10227  005B1A                     l6285:
 10228                           
 10229                           ;FM_Lcd_Easy.c: 82:     {;FM_Lcd_Easy.c: 83:         FM_Lcd_Send_Character(cadena[index]
      +                          );
 10230  005B1A  500D               	movf	FM_Lcd_Send_String@index^(0+1280),w,c
 10231  005B1C  2409               	addwf	FM_Lcd_Send_String@cadena^(0+1280),w,c
 10232  005B1E  6E0B               	movwf	??_FM_Lcd_Send_String^(0+1280),c
 10233  005B20  0E00               	movlw	0
 10234  005B22  200A               	addwfc	(FM_Lcd_Send_String@cadena+1)^(0+1280),w,c
 10235  005B24  6E0C               	movwf	(??_FM_Lcd_Send_String+1)^(0+1280),c
 10236  005B26  0061  F42C  F4F6   	movff	??_FM_Lcd_Send_String,tblptrl
 10237  005B2C  0061  F430  F4F7   	movff	??_FM_Lcd_Send_String+1,tblptrh
 10238  005B32  0E00               	movlw	low (__smallconst shr (0+16))
 10239  005B34  6EF8               	movwf	tblptru,c
 10240  005B36  0E24               	movlw	(high __ramtop+-1)
 10241  005B38  64F7               	cpfsgt	tblptrh,c
 10242  005B3A  D003               	bra	u8237
 10243  005B3C  0008               	tblrd		*
 10244  005B3E  50F5               	movf	tablat,w,c
 10245  005B40  D005               	bra	u8230
 10246  005B42                     u8237:
 10247  005B42  C4F6 F4E1          	movff	tblptrl,fsr1l
 10248  005B46  C4F7 F4E2          	movff	tblptrh,fsr1h
 10249  005B4A  50E7               	movf	indf1,w,c
 10250  005B4C                     u8230:
 10251  005B4C  ECD6  F030         	call	_FM_Lcd_Send_Character
 10252  005B50                     
 10253                           ;FM_Lcd_Easy.c: 84:         index++;
 10254  005B50  2A0D               	incf	FM_Lcd_Send_String@index^(0+1280),f,c
 10255  005B52                     l6289:
 10256                           
 10257                           ;FM_Lcd_Easy.c: 81:     while(cadena[index] != '\0')
 10258  005B52  500D               	movf	FM_Lcd_Send_String@index^(0+1280),w,c
 10259  005B54  2409               	addwf	FM_Lcd_Send_String@cadena^(0+1280),w,c
 10260  005B56  6E0B               	movwf	??_FM_Lcd_Send_String^(0+1280),c
 10261  005B58  0E00               	movlw	0
 10262  005B5A  200A               	addwfc	(FM_Lcd_Send_String@cadena+1)^(0+1280),w,c
 10263  005B5C  6E0C               	movwf	(??_FM_Lcd_Send_String+1)^(0+1280),c
 10264  005B5E  0061  F42C  F4F6   	movff	??_FM_Lcd_Send_String,tblptrl
 10265  005B64  0061  F430  F4F7   	movff	??_FM_Lcd_Send_String+1,tblptrh
 10266  005B6A  0E00               	movlw	low (__smallconst shr (0+16))
 10267  005B6C  6EF8               	movwf	tblptru,c
 10268  005B6E  0E24               	movlw	(high __ramtop+-1)
 10269  005B70  64F7               	cpfsgt	tblptrh,c
 10270  005B72  D003               	bra	u8247
 10271  005B74  0008               	tblrd		*
 10272  005B76  50F5               	movf	tablat,w,c
 10273  005B78  D005               	bra	u8240
 10274  005B7A                     u8247:
 10275  005B7A  C4F6 F4E1          	movff	tblptrl,fsr1l
 10276  005B7E  C4F7 F4E2          	movff	tblptrh,fsr1h
 10277  005B82  50E7               	movf	indf1,w,c
 10278  005B84                     u8240:
 10279  005B84  0900               	iorlw	0
 10280  005B86  A4D8               	btfss	status,2,c
 10281  005B88  EFC8  F02D         	goto	u8251
 10282  005B8C  EFCA  F02D         	goto	u8250
 10283  005B90                     u8251:
 10284  005B90  EF8D  F02D         	goto	l6285
 10285  005B94                     u8250:
 10286  005B94  0012               	return		;funcret
 10287  005B96                     __end_of_FM_Lcd_Send_String:
 10288                           	callstack 0
 10289                           
 10290 ;; *************** function _FM_Lcd_Send_Character *****************
 10291 ;; Defined at:
 10292 ;;		line 50 in file "FM_Lcd_Easy.c"
 10293 ;; Parameters:    Size  Location     Type
 10294 ;;  character_to    1    wreg     unsigned char 
 10295 ;; Auto vars:     Size  Location     Type
 10296 ;;  character_to    1    7[COMRAM] unsigned char 
 10297 ;; Return value:  Size  Location     Type
 10298 ;;                  1    wreg      void 
 10299 ;; Registers used:
 10300 ;;		wreg, status,2, status,0, cstack
 10301 ;; Tracked objects:
 10302 ;;		On entry : 0/0
 10303 ;;		On exit  : 0/0
 10304 ;;		Unchanged: 0/0
 10305 ;; Data sizes:     COMRAM   BANK5   BANK6   BANK7   BANK8   BANK9  BANK10  BANK11  BANK12  BANK13  BANK14  BANK15  BANK1
      +6  BANK17  BANK18  BANK19  BANK20  BANK21  BANK22  BANK23  BANK24  BANK25  BANK26  BANK27  BANK28  BANK29  BANK30  BANK3
      +1  BANK32  BANK33  BANK34  BANK35  BANK36
 10306 ;;      Params:         0       0       0       0       0       0       0       0       0       0       0       0       
      +0       0       0       0       0       0       0       0       0       0       0       0       0       0       0       
      +0       0       0       0       0       0
 10307 ;;      Locals:         1       0       0       0       0       0       0       0       0       0       0       0       
      +0       0       0       0       0       0       0       0       0       0       0       0       0       0       0       
      +0       0       0       0       0       0
 10308 ;;      Temps:          0       0       0       0       0       0       0       0       0       0       0       0       
      +0       0       0       0       0       0       0       0       0       0       0       0       0       0       0       
      +0       0       0       0       0       0
 10309 ;;      Totals:         1       0       0       0       0       0       0       0       0       0       0       0       
      +0       0       0       0       0       0       0       0       0       0       0       0       0       0       0       
      +0       0       0       0       0       0
 10310 ;;Total ram usage:        1 bytes
 10311 ;; Hardware stack levels used: 1
 10312 ;; Hardware stack levels required when called: 3
 10313 ;; This function calls:
 10314 ;;		_FM_Lcd_Send_Nibble
 10315 ;; This function is called by:
 10316 ;;		_FM_Lcd_Send_String
 10317 ;; This function uses a non-reentrant model
 10318 ;;
 10319                           
 10320                           	psect	text46
 10321  0061AC                     __ptext46:
 10322                           	callstack 0
 10323  0061AC                     _FM_Lcd_Send_Character:
 10324                           	callstack 122
 10325                           
 10326                           ;incstack = 0
 10327                           ;FM_Lcd_Send_Character@character_to_send stored from wreg
 10328  0061AC  6E08               	movwf	FM_Lcd_Send_Character@character_to_send^(0+1280),c
 10329  0061AE                     
 10330                           ;FM_Lcd_Easy.c: 50: void FM_Lcd_Send_Character (char character_to_send);FM_Lcd_Easy.c: 5
      +                          1: {;FM_Lcd_Easy.c: 52:     LATF |= (1 << 0);;
 10331  0061AE  80C3               	bsf	195,0,c	;volatile
 10332  0061B0                     
 10333                           ;FM_Lcd_Easy.c: 53:     FM_Lcd_Send_Nibble(character_to_send);
 10334  0061B0  5008               	movf	FM_Lcd_Send_Character@character_to_send^(0+1280),w,c
 10335  0061B2  ECCB  F02D         	call	_FM_Lcd_Send_Nibble
 10336  0061B6  0012               	return		;funcret
 10337  0061B8                     __end_of_FM_Lcd_Send_Character:
 10338                           	callstack 0
 10339                           
 10340 ;; *************** function _FM_Lcd_Send_Nibble *****************
 10341 ;; Defined at:
 10342 ;;		line 24 in file "FM_Lcd_Easy.c"
 10343 ;; Parameters:    Size  Location     Type
 10344 ;;  byte_to_send    1    wreg     unsigned char 
 10345 ;; Auto vars:     Size  Location     Type
 10346 ;;  byte_to_send    1    4[COMRAM] unsigned char 
 10347 ;;  lower_bits      1    6[COMRAM] unsigned char 
 10348 ;;  upper_bits      1    5[COMRAM] unsigned char 
 10349 ;; Return value:  Size  Location     Type
 10350 ;;                  1    wreg      void 
 10351 ;; Registers used:
 10352 ;;		wreg, status,2, status,0
 10353 ;; Tracked objects:
 10354 ;;		On entry : 0/0
 10355 ;;		On exit  : 0/0
 10356 ;;		Unchanged: 0/0
 10357 ;; Data sizes:     COMRAM   BANK5   BANK6   BANK7   BANK8   BANK9  BANK10  BANK11  BANK12  BANK13  BANK14  BANK15  BANK1
      +6  BANK17  BANK18  BANK19  BANK20  BANK21  BANK22  BANK23  BANK24  BANK25  BANK26  BANK27  BANK28  BANK29  BANK30  BANK3
      +1  BANK32  BANK33  BANK34  BANK35  BANK36
 10358 ;;      Params:         0       0       0       0       0       0       0       0       0       0       0       0       
      +0       0       0       0       0       0       0       0       0       0       0       0       0       0       0       
      +0       0       0       0       0       0
 10359 ;;      Locals:         3       0       0       0       0       0       0       0       0       0       0       0       
      +0       0       0       0       0       0       0       0       0       0       0       0       0       0       0       
      +0       0       0       0       0       0
 10360 ;;      Temps:          1       0       0       0       0       0       0       0       0       0       0       0       
      +0       0       0       0       0       0       0       0       0       0       0       0       0       0       0       
      +0       0       0       0       0       0
 10361 ;;      Totals:         4       0       0       0       0       0       0       0       0       0       0       0       
      +0       0       0       0       0       0       0       0       0       0       0       0       0       0       0       
      +0       0       0       0       0       0
 10362 ;;Total ram usage:        4 bytes
 10363 ;; Hardware stack levels used: 1
 10364 ;; Hardware stack levels required when called: 2
 10365 ;; This function calls:
 10366 ;;		Nothing
 10367 ;; This function is called by:
 10368 ;;		_FM_Lcd_Send_Command
 10369 ;;		_FM_Lcd_Send_Character
 10370 ;; This function uses a non-reentrant model
 10371 ;;
 10372                           
 10373                           	psect	text47
 10374  005B96                     __ptext47:
 10375                           	callstack 0
 10376  005B96                     _FM_Lcd_Send_Nibble:
 10377                           	callstack 121
 10378                           
 10379                           ;incstack = 0
 10380                           ;FM_Lcd_Send_Nibble@byte_to_send stored from wreg
 10381  005B96  6E05               	movwf	FM_Lcd_Send_Nibble@byte_to_send^(0+1280),c
 10382  005B98                     
 10383                           ;FM_Lcd_Easy.c: 24: void FM_Lcd_Send_Nibble (char byte_to_send);FM_Lcd_Easy.c: 25: {;FM_
      +                          Lcd_Easy.c: 26:     uint8_t upper_bits, lower_bits;;FM_Lcd_Easy.c: 28:     upper_bits = 
      +                          (byte_to_send & 0xF0);
 10384  005B98  5005               	movf	FM_Lcd_Send_Nibble@byte_to_send^(0+1280),w,c
 10385  005B9A  0BF0               	andlw	240
 10386  005B9C  6E06               	movwf	FM_Lcd_Send_Nibble@upper_bits^(0+1280),c
 10387                           
 10388                           ;FM_Lcd_Easy.c: 29:     lower_bits = (byte_to_send & 0x0F) << 4;
 10389  005B9E  C505  F504         	movff	FM_Lcd_Send_Nibble@byte_to_send,??_FM_Lcd_Send_Nibble
 10390  005BA2  0E0F               	movlw	15
 10391  005BA4  1604               	andwf	??_FM_Lcd_Send_Nibble^(0+1280),f,c
 10392  005BA6  3804               	swapf	??_FM_Lcd_Send_Nibble^(0+1280),w,c
 10393  005BA8  0BF0               	andlw	240
 10394  005BAA  6E07               	movwf	FM_Lcd_Send_Nibble@lower_bits^(0+1280),c
 10395                           
 10396                           ;FM_Lcd_Easy.c: 35:     LATF |= upper_bits;
 10397  005BAC  5006               	movf	FM_Lcd_Send_Nibble@upper_bits^(0+1280),w,c	;volatile
 10398  005BAE  12C3               	iorwf	195,f,c	;volatile
 10399  005BB0                     
 10400                           ;FM_Lcd_Easy.c: 36:     LATF |= (1 << 2);; _delay((unsigned long)((1)*(16000000UL/4000.0
      +                          ))); LATF &= ~(1 << 2);_delay((unsigned long)((1)*(16000000UL/4000.0)));;
 10401  005BB0  84C3               	bsf	195,2,c	;volatile
 10402  005BB2  0E06               	movlw	6
 10403  005BB4  6E04               	movwf	??_FM_Lcd_Send_Nibble^(0+1280),c
 10404  005BB6  0E30               	movlw	48
 10405  005BB8                     u8427:
 10406  005BB8  2EE8               	decfsz	wreg,f,c
 10407  005BBA  D7FE               	bra	u8427
 10408  005BBC  2E04               	decfsz	??_FM_Lcd_Send_Nibble^(0+1280),f,c
 10409  005BBE  D7FC               	bra	u8427
 10410  005BC0  D000               	nop2	
 10411  005BC2  94C3               	bcf	195,2,c	;volatile
 10412  005BC4  0E06               	movlw	6
 10413  005BC6  6E04               	movwf	??_FM_Lcd_Send_Nibble^(0+1280),c
 10414  005BC8  0E30               	movlw	48
 10415  005BCA                     u8437:
 10416  005BCA  2EE8               	decfsz	wreg,f,c
 10417  005BCC  D7FE               	bra	u8437
 10418  005BCE  2E04               	decfsz	??_FM_Lcd_Send_Nibble^(0+1280),f,c
 10419  005BD0  D7FC               	bra	u8437
 10420  005BD2  D000               	nop2	
 10421  005BD4                     
 10422                           ;FM_Lcd_Easy.c: 37:     LATF &= ~upper_bits;
 10423  005BD4  5006               	movf	FM_Lcd_Send_Nibble@upper_bits^(0+1280),w,c	;volatile
 10424  005BD6  0AFF               	xorlw	255
 10425  005BD8  16C3               	andwf	195,f,c	;volatile
 10426  005BDA                     
 10427                           ;FM_Lcd_Easy.c: 38:     LATF |= lower_bits;
 10428  005BDA  5007               	movf	FM_Lcd_Send_Nibble@lower_bits^(0+1280),w,c	;volatile
 10429  005BDC  12C3               	iorwf	195,f,c	;volatile
 10430                           
 10431                           ;FM_Lcd_Easy.c: 39:     LATF |= (1 << 2);; _delay((unsigned long)((1)*(16000000UL/4000.0
      +                          ))); LATF &= ~(1 << 2);_delay((unsigned long)((1)*(16000000UL/4000.0)));;
 10432  005BDE  84C3               	bsf	195,2,c	;volatile
 10433  005BE0  0E06               	movlw	6
 10434  005BE2  6E04               	movwf	??_FM_Lcd_Send_Nibble^(0+1280),c
 10435  005BE4  0E30               	movlw	48
 10436  005BE6                     u8447:
 10437  005BE6  2EE8               	decfsz	wreg,f,c
 10438  005BE8  D7FE               	bra	u8447
 10439  005BEA  2E04               	decfsz	??_FM_Lcd_Send_Nibble^(0+1280),f,c
 10440  005BEC  D7FC               	bra	u8447
 10441  005BEE  D000               	nop2	
 10442  005BF0  94C3               	bcf	195,2,c	;volatile
 10443  005BF2  0E06               	movlw	6
 10444  005BF4  6E04               	movwf	??_FM_Lcd_Send_Nibble^(0+1280),c
 10445  005BF6  0E30               	movlw	48
 10446  005BF8                     u8457:
 10447  005BF8  2EE8               	decfsz	wreg,f,c
 10448  005BFA  D7FE               	bra	u8457
 10449  005BFC  2E04               	decfsz	??_FM_Lcd_Send_Nibble^(0+1280),f,c
 10450  005BFE  D7FC               	bra	u8457
 10451  005C00  D000               	nop2	
 10452  005C02                     
 10453                           ;FM_Lcd_Easy.c: 40:     LATF &= ~lower_bits;
 10454  005C02  5007               	movf	FM_Lcd_Send_Nibble@lower_bits^(0+1280),w,c	;volatile
 10455  005C04  0AFF               	xorlw	255
 10456  005C06  16C3               	andwf	195,f,c	;volatile
 10457  005C08  0012               	return		;funcret
 10458  005C0A                     __end_of_FM_Lcd_Send_Nibble:
 10459                           	callstack 0
 10460                           
 10461 ;; *************** function _ISR *****************
 10462 ;; Defined at:
 10463 ;;		line 58 in file "main.c"
 10464 ;; Parameters:    Size  Location     Type
 10465 ;;		None
 10466 ;; Auto vars:     Size  Location     Type
 10467 ;;		None
 10468 ;; Return value:  Size  Location     Type
 10469 ;;                  1    wreg      void 
 10470 ;; Registers used:
 10471 ;;		wreg, fsr2l, fsr2h, status,2, status,0, cstack
 10472 ;; Tracked objects:
 10473 ;;		On entry : 0/0
 10474 ;;		On exit  : 0/0
 10475 ;;		Unchanged: 0/0
 10476 ;; Data sizes:     COMRAM   BANK5   BANK6   BANK7   BANK8   BANK9  BANK10  BANK11  BANK12  BANK13  BANK14  BANK15  BANK1
      +6  BANK17  BANK18  BANK19  BANK20  BANK21  BANK22  BANK23  BANK24  BANK25  BANK26  BANK27  BANK28  BANK29  BANK30  BANK3
      +1  BANK32  BANK33  BANK34  BANK35  BANK36
 10477 ;;      Params:         0       0       0       0       0       0       0       0       0       0       0       0       
      +0       0       0       0       0       0       0       0       0       0       0       0       0       0       0       
      +0       0       0       0       0       0
 10478 ;;      Locals:         0       0       0       0       0       0       0       0       0       0       0       0       
      +0       0       0       0       0       0       0       0       0       0       0       0       0       0       0       
      +0       0       0       0       0       0
 10479 ;;      Temps:          0       0       0       0       0       0       0       0       0       0       0       0       
      +0       0       0       0       0       0       0       0       0       0       0       0       0       0       0       
      +0       0       0       0       0       0
 10480 ;;      Totals:         0       0       0       0       0       0       0       0       0       0       0       0       
      +0       0       0       0       0       0       0       0       0       0       0       0       0       0       0       
      +0       0       0       0       0       0
 10481 ;;Total ram usage:        0 bytes
 10482 ;; Hardware stack levels used: 1
 10483 ;; Hardware stack levels required when called: 1
 10484 ;; This function calls:
 10485 ;;		_Detect_Falling_Edge
 10486 ;; This function is called by:
 10487 ;;		Interrupt level 2
 10488 ;; This function uses a non-reentrant model
 10489 ;;
 10490                           
 10491                           	psect	text48
 10492  00506C                     __ptext48:
 10493                           	callstack 0
 10494  00506C                     _ISR:
 10495                           	callstack 117
 10496  00506C                     
 10497                           ;main.c: 61:     if (PIR3 & (1 << 0x7))
 10498  00506C  AEB1               	btfss	177,7,c	;volatile
 10499  00506E  EF3B  F028         	goto	i2u557_41
 10500  005072  EF3D  F028         	goto	i2u557_40
 10501  005076                     i2u557_41:
 10502  005076  EFCB  F028         	goto	i2l105
 10503  00507A                     i2u557_40:
 10504  00507A                     
 10505                           ;main.c: 62:     {;main.c: 64:         led_counter++;
 10506  00507A  0E01               	movlw	1
 10507  00507C  0106               	movlb	6	; () banked
 10508  00507E  2700               	addwf	_led_counter& (0+255),f,b
 10509  005080  0E00               	movlw	0
 10510  005082  2301               	addwfc	(_led_counter+1)& (0+255),f,b
 10511  005084  2302               	addwfc	(_led_counter+2)& (0+255),f,b
 10512  005086  2303               	addwfc	(_led_counter+3)& (0+255),f,b
 10513  005088  2304               	addwfc	(_led_counter+4)& (0+255),f,b
 10514  00508A  2305               	addwfc	(_led_counter+5)& (0+255),f,b
 10515  00508C  2306               	addwfc	(_led_counter+6)& (0+255),f,b
 10516  00508E  2307               	addwfc	(_led_counter+7)& (0+255),f,b
 10517                           
 10518                           ;main.c: 65:         rpm_counter++;
 10519  005090  0E01               	movlw	1
 10520  005092  0105               	movlb	5	; () banked
 10521  005094  27D9               	addwf	_rpm_counter& (0+255),f,b
 10522  005096  0E00               	movlw	0
 10523  005098  23DA               	addwfc	(_rpm_counter+1)& (0+255),f,b
 10524  00509A  23DB               	addwfc	(_rpm_counter+2)& (0+255),f,b
 10525  00509C  23DC               	addwfc	(_rpm_counter+3)& (0+255),f,b
 10526  00509E  23DD               	addwfc	(_rpm_counter+4)& (0+255),f,b
 10527  0050A0  23DE               	addwfc	(_rpm_counter+5)& (0+255),f,b
 10528  0050A2  23DF               	addwfc	(_rpm_counter+6)& (0+255),f,b
 10529  0050A4  23E0               	addwfc	(_rpm_counter+7)& (0+255),f,b
 10530  0050A6                     
 10531                           ; BSR set to: 5
 10532                           ;main.c: 66:         print_counter++;
 10533  0050A6  4BEF               	infsnz	_print_counter& (0+255),f,b
 10534  0050A8  2BF0               	incf	(_print_counter+1)& (0+255),f,b
 10535  0050AA                     
 10536                           ; BSR set to: 5
 10537                           ;main.c: 68:         if(print_counter >= 50)
 10538  0050AA  51F0               	movf	(_print_counter+1)& (0+255),w,b
 10539  0050AC  E109               	bnz	i2u558_40
 10540  0050AE  0E32               	movlw	50
 10541  0050B0  5DEF               	subwf	_print_counter& (0+255),w,b
 10542  0050B2  A0D8               	btfss	status,0,c
 10543  0050B4  EF5E  F028         	goto	i2u558_41
 10544  0050B8  EF60  F028         	goto	i2u558_40
 10545  0050BC                     i2u558_41:
 10546  0050BC  EF6F  F028         	goto	i2l4611
 10547  0050C0                     i2u558_40:
 10548  0050C0                     
 10549                           ; BSR set to: 5
 10550                           ;main.c: 69:         {;main.c: 70:             print_flag = !print_flag;
 10551  0050C0  51F2               	movf	_print_flag& (0+255),w,b
 10552  0050C2  B4D8               	btfsc	status,2,c
 10553  0050C4  EF66  F028         	goto	i2u559_41
 10554  0050C8  EF69  F028         	goto	i2u559_40
 10555  0050CC                     i2u559_41:
 10556  0050CC  0E01               	movlw	1
 10557  0050CE  EF6A  F028         	goto	i2u560_40
 10558  0050D2                     i2u559_40:
 10559  0050D2  0E00               	movlw	0
 10560  0050D4                     i2u560_40:
 10561  0050D4  6FF2               	movwf	_print_flag& (0+255),b
 10562                           
 10563                           ;main.c: 71:             print_counter = 0;
 10564  0050D6  0E00               	movlw	0
 10565  0050D8  6FF0               	movwf	(_print_counter+1)& (0+255),b
 10566  0050DA  0E00               	movlw	0
 10567  0050DC  6FEF               	movwf	_print_counter& (0+255),b
 10568  0050DE                     i2l4611:
 10569                           
 10570                           ; BSR set to: 5
 10571                           ;main.c: 73:         if (led_counter >= 500) {
 10572  0050DE  0106               	movlb	6	; () banked
 10573  0050E0  5107               	movf	(_led_counter+7)& (0+255),w,b
 10574  0050E2  1106               	iorwf	(_led_counter+6)& (0+255),w,b
 10575  0050E4  1105               	iorwf	(_led_counter+5)& (0+255),w,b
 10576  0050E6  1104               	iorwf	(_led_counter+4)& (0+255),w,b
 10577  0050E8  1103               	iorwf	(_led_counter+3)& (0+255),w,b
 10578  0050EA  1102               	iorwf	(_led_counter+2)& (0+255),w,b
 10579  0050EC  E10B               	bnz	i2u561_40
 10580  0050EE  0EF4               	movlw	244
 10581  0050F0  5D00               	subwf	_led_counter& (0+255),w,b
 10582  0050F2  0E01               	movlw	1
 10583  0050F4  5901               	subwfb	(_led_counter+1)& (0+255),w,b
 10584  0050F6  A0D8               	btfss	status,0,c
 10585  0050F8  EF80  F028         	goto	i2u561_41
 10586  0050FC  EF82  F028         	goto	i2u561_40
 10587  005100                     i2u561_41:
 10588  005100  EF8A  F028         	goto	i2l4617
 10589  005104                     i2u561_40:
 10590  005104                     
 10591                           ; BSR set to: 6
 10592                           ;main.c: 74:             LATF ^= (1 << 3);
 10593  005104  0E08               	movlw	8
 10594  005106  1AC3               	xorwf	195,f,c	;volatile
 10595  005108                     
 10596                           ; BSR set to: 6
 10597                           ;main.c: 75:             led_counter = 0;
 10598  005108  EE21  F200         	lfsr	2,_led_counter
 10599  00510C  0E07               	movlw	7
 10600  00510E                     i2u562_41:
 10601  00510E  6ADE               	clrf	postinc2,c
 10602  005110  06E8               	decf	wreg,f,c
 10603  005112  E2FD               	bc	i2u562_41
 10604  005114                     i2l4617:
 10605                           
 10606                           ; BSR set to: 6
 10607                           ;main.c: 78:         if(Detect_Falling_Edge())
 10608  005114  EC9D  F02E         	call	_Detect_Falling_Edge	;wreg free
 10609  005118  0900               	iorlw	0
 10610  00511A  B4D8               	btfsc	status,2,c
 10611  00511C  EF92  F028         	goto	i2u563_41
 10612  005120  EF94  F028         	goto	i2u563_40
 10613  005124                     i2u563_41:
 10614  005124  EFA0  F028         	goto	i2l4623
 10615  005128                     i2u563_40:
 10616  005128                     
 10617                           ;main.c: 79:         {;main.c: 81:             contador_ms = rpm_counter;
 10618  005128  C5D9  F5ED         	movff	_rpm_counter,_contador_ms	;volatile
 10619  00512C  C5DA  F5EE         	movff	_rpm_counter+1,_contador_ms+1	;volatile
 10620  005130                     
 10621                           ;main.c: 82:             rpm_counter = 0;
 10622  005130  EE21  F1D9         	lfsr	2,_rpm_counter
 10623  005134  0E07               	movlw	7
 10624  005136                     i2u564_41:
 10625  005136  6ADE               	clrf	postinc2,c
 10626  005138  06E8               	decf	wreg,f,c
 10627  00513A  E2FD               	bc	i2u564_41
 10628                           
 10629                           ;main.c: 83:         }
 10630  00513C  EFC7  F028         	goto	i2l103
 10631  005140                     i2l4623:
 10632                           
 10633                           ;main.c: 85:         {;main.c: 86:             if(rpm_counter >= 5000)
 10634  005140  0105               	movlb	5	; () banked
 10635  005142  51E0               	movf	(_rpm_counter+7)& (0+255),w,b
 10636  005144  11DF               	iorwf	(_rpm_counter+6)& (0+255),w,b
 10637  005146  11DE               	iorwf	(_rpm_counter+5)& (0+255),w,b
 10638  005148  11DD               	iorwf	(_rpm_counter+4)& (0+255),w,b
 10639  00514A  11DC               	iorwf	(_rpm_counter+3)& (0+255),w,b
 10640  00514C  11DB               	iorwf	(_rpm_counter+2)& (0+255),w,b
 10641  00514E  E10B               	bnz	i2u565_40
 10642  005150  0E88               	movlw	136
 10643  005152  5DD9               	subwf	_rpm_counter& (0+255),w,b
 10644  005154  0E13               	movlw	19
 10645  005156  59DA               	subwfb	(_rpm_counter+1)& (0+255),w,b
 10646  005158  A0D8               	btfss	status,0,c
 10647  00515A  EFB1  F028         	goto	i2u565_41
 10648  00515E  EFB3  F028         	goto	i2u565_40
 10649  005162                     i2u565_41:
 10650  005162  EFC7  F028         	goto	i2l103
 10651  005166                     i2u565_40:
 10652  005166                     
 10653                           ; BSR set to: 5
 10654                           ;main.c: 87:             {;main.c: 88:                 rpm_counter = 5000;
 10655  005166  0E88               	movlw	136
 10656  005168  6FD9               	movwf	_rpm_counter& (0+255),b
 10657  00516A  0E13               	movlw	19
 10658  00516C  6FDA               	movwf	(_rpm_counter+1)& (0+255),b
 10659  00516E  0E00               	movlw	0
 10660  005170  6FDB               	movwf	(_rpm_counter+2)& (0+255),b
 10661  005172  0E00               	movlw	0
 10662  005174  6FDC               	movwf	(_rpm_counter+3)& (0+255),b
 10663  005176  0E00               	movlw	0
 10664  005178  6FDD               	movwf	(_rpm_counter+4)& (0+255),b
 10665  00517A  0E00               	movlw	0
 10666  00517C  6FDE               	movwf	(_rpm_counter+5)& (0+255),b
 10667  00517E  0E00               	movlw	0
 10668  005180  6FDF               	movwf	(_rpm_counter+6)& (0+255),b
 10669  005182  0E00               	movlw	0
 10670  005184  6FE0               	movwf	(_rpm_counter+7)& (0+255),b
 10671  005186                     
 10672                           ; BSR set to: 5
 10673                           ;main.c: 89:                 indicador_ms = rpm_counter;
 10674  005186  C5D9  F5F3         	movff	_rpm_counter,_indicador_ms	;volatile
 10675  00518A  C5DA  F5F4         	movff	_rpm_counter+1,_indicador_ms+1	;volatile
 10676  00518E                     i2l103:
 10677                           
 10678                           ;main.c: 94:         TMR0 = 6;
 10679  00518E  0E06               	movlw	6
 10680  005190  0103               	movlb	3	; () banked
 10681  005192  6F18               	movwf	24,b	;volatile
 10682  005194                     
 10683                           ; BSR set to: 3
 10684                           ;main.c: 96:         PIR3 &= ~(1 << 0x7);
 10685  005194  9EB1               	bcf	177,7,c	;volatile
 10686  005196                     i2l105:
 10687  005196  0011               	retfie		f
 10688  005198                     __end_of_ISR:
 10689                           	callstack 0
 10690                           
 10691 ;; *************** function _Detect_Falling_Edge *****************
 10692 ;; Defined at:
 10693 ;;		line 160 in file "main.c"
 10694 ;; Parameters:    Size  Location     Type
 10695 ;;		None
 10696 ;; Auto vars:     Size  Location     Type
 10697 ;;  current_valu    1    2[COMRAM] _Bool 
 10698 ;;  falling_edge    1    0[COMRAM] _Bool 
 10699 ;; Return value:  Size  Location     Type
 10700 ;;                  1    wreg      _Bool 
 10701 ;; Registers used:
 10702 ;;		wreg, status,2
 10703 ;; Tracked objects:
 10704 ;;		On entry : 0/0
 10705 ;;		On exit  : 0/0
 10706 ;;		Unchanged: 0/0
 10707 ;; Data sizes:     COMRAM   BANK5   BANK6   BANK7   BANK8   BANK9  BANK10  BANK11  BANK12  BANK13  BANK14  BANK15  BANK1
      +6  BANK17  BANK18  BANK19  BANK20  BANK21  BANK22  BANK23  BANK24  BANK25  BANK26  BANK27  BANK28  BANK29  BANK30  BANK3
      +1  BANK32  BANK33  BANK34  BANK35  BANK36
 10708 ;;      Params:         0       0       0       0       0       0       0       0       0       0       0       0       
      +0       0       0       0       0       0       0       0       0       0       0       0       0       0       0       
      +0       0       0       0       0       0
 10709 ;;      Locals:         3       0       0       0       0       0       0       0       0       0       0       0       
      +0       0       0       0       0       0       0       0       0       0       0       0       0       0       0       
      +0       0       0       0       0       0
 10710 ;;      Temps:          0       0       0       0       0       0       0       0       0       0       0       0       
      +0       0       0       0       0       0       0       0       0       0       0       0       0       0       0       
      +0       0       0       0       0       0
 10711 ;;      Totals:         3       0       0       0       0       0       0       0       0       0       0       0       
      +0       0       0       0       0       0       0       0       0       0       0       0       0       0       0       
      +0       0       0       0       0       0
 10712 ;;Total ram usage:        3 bytes
 10713 ;; Hardware stack levels used: 1
 10714 ;; This function calls:
 10715 ;;		Nothing
 10716 ;; This function is called by:
 10717 ;;		_ISR
 10718 ;; This function uses a non-reentrant model
 10719 ;;
 10720                           
 10721                           	psect	text49
 10722  005D3A                     __ptext49:
 10723                           	callstack 0
 10724  005D3A                     _Detect_Falling_Edge:
 10725                           	callstack 117
 10726  005D3A                     
 10727                           ;main.c: 162:     static _Bool past_value = 1;;main.c: 163:     _Bool current_value = 0;
 10728  005D3A  0E00               	movlw	0
 10729  005D3C  6E03               	movwf	Detect_Falling_Edge@current_value^(0+1280),c
 10730                           
 10731                           ;main.c: 166:     current_value = !!(PORTB & (1 << 0));
 10732  005D3E  B0CF               	btfsc	207,0,c	;volatile
 10733  005D40  EFA4  F02E         	goto	i2u536_41
 10734  005D44  EFA7  F02E         	goto	i2u536_40
 10735  005D48                     i2u536_41:
 10736  005D48  0E01               	movlw	1
 10737  005D4A  EFA8  F02E         	goto	i2u537_40
 10738  005D4E                     i2u536_40:
 10739  005D4E  0E00               	movlw	0
 10740  005D50                     i2u537_40:
 10741  005D50  6E03               	movwf	Detect_Falling_Edge@current_value^(0+1280),c
 10742                           
 10743                           ;main.c: 167:     falling_edge_detected = past_value && !current_value;
 10744  005D52  0E00               	movlw	0
 10745  005D54  6E02               	movwf	_Detect_Falling_Edge$181^(0+1280),c
 10746  005D56  0105               	movlb	5	; () banked
 10747  005D58  51F5               	movf	Detect_Falling_Edge@past_value& (0+255),w,b
 10748  005D5A  B4D8               	btfsc	status,2,c
 10749  005D5C  EFB2  F02E         	goto	i2u538_41
 10750  005D60  EFB4  F02E         	goto	i2u538_40
 10751  005D64                     i2u538_41:
 10752  005D64  EFBE  F02E         	goto	i2l128
 10753  005D68                     i2u538_40:
 10754  005D68                     
 10755                           ; BSR set to: 5
 10756  005D68  5003               	movf	Detect_Falling_Edge@current_value^(0+1280),w,c
 10757  005D6A  A4D8               	btfss	status,2,c
 10758  005D6C  EFBA  F02E         	goto	i2u539_41
 10759  005D70  EFBC  F02E         	goto	i2u539_40
 10760  005D74                     i2u539_41:
 10761  005D74  EFBE  F02E         	goto	i2l128
 10762  005D78                     i2u539_40:
 10763  005D78                     
 10764                           ; BSR set to: 5
 10765  005D78  0E01               	movlw	1
 10766  005D7A  6E02               	movwf	_Detect_Falling_Edge$181^(0+1280),c
 10767  005D7C                     i2l128:
 10768                           
 10769                           ; BSR set to: 5
 10770  005D7C  5002               	movf	_Detect_Falling_Edge$181^(0+1280),w,c
 10771  005D7E  A4D8               	btfss	status,2,c
 10772  005D80  EFC4  F02E         	goto	i2u540_41
 10773  005D84  EFC7  F02E         	goto	i2u540_40
 10774  005D88                     i2u540_41:
 10775  005D88  0E01               	movlw	1
 10776  005D8A  EFC8  F02E         	goto	i2u541_40
 10777  005D8E                     i2u540_40:
 10778  005D8E  0E00               	movlw	0
 10779  005D90                     i2u541_40:
 10780  005D90  6E01               	movwf	Detect_Falling_Edge@falling_edge_detected^(0+1280),c
 10781  005D92                     
 10782                           ; BSR set to: 5
 10783                           ;main.c: 168:     past_value = current_value;
 10784  005D92  C503  F5F5         	movff	Detect_Falling_Edge@current_value,Detect_Falling_Edge@past_value
 10785                           
 10786                           ;main.c: 169:     return falling_edge_detected;
 10787  005D96  5001               	movf	Detect_Falling_Edge@falling_edge_detected^(0+1280),w,c
 10788  005D98                     
 10789                           ; BSR set to: 5
 10790  005D98  0012               	return		;funcret
 10791  005D9A                     __end_of_Detect_Falling_Edge:
 10792                           	callstack 0
 10793                           
 10794                           ;
 10795                           ; Interrupt Vector Table @ 0x8
 10796                           ;
 10797                           
 10798                           	psect	ivt0x8
 10799  000008                     __pivt0x8:
 10800                           	callstack 0
 10801  000008                     ivt0x8_base:
 10802                           	callstack 0
 10803                           
 10804                           ; high-priority vector
 10805  000008  EF36  F028         	goto	_ISR
 10806  000018                     	org	16
 10807                           
 10808                           ; low-priority vector
 10809  000018  00FF               	reset	
 10810                           
 10811                           	psect	rparam
 10812  0000                     
 10813                           	psect	idloc
 10814                           
 10815                           ;Config register IDLOC0 @ 0x200000
 10816                           ;	unspecified, using default values
 10817  200000                     	org	2097152
 10818  200000  0FFF               	dw	4095
 10819                           
 10820                           ;Config register IDLOC1 @ 0x200002
 10821                           ;	unspecified, using default values
 10822  200002                     	org	2097154
 10823  200002  0FFF               	dw	4095
 10824                           
 10825                           ;Config register IDLOC2 @ 0x200004
 10826                           ;	unspecified, using default values
 10827  200004                     	org	2097156
 10828  200004  0FFF               	dw	4095
 10829                           
 10830                           ;Config register IDLOC3 @ 0x200006
 10831                           ;	unspecified, using default values
 10832  200006                     	org	2097158
 10833  200006  0FFF               	dw	4095
 10834                           
 10835                           ;Config register IDLOC4 @ 0x200008
 10836                           ;	unspecified, using default values
 10837  200008                     	org	2097160
 10838  200008  0FFF               	dw	4095
 10839                           
 10840                           ;Config register IDLOC5 @ 0x20000A
 10841                           ;	unspecified, using default values
 10842  20000A                     	org	2097162
 10843  20000A  0FFF               	dw	4095
 10844                           
 10845                           ;Config register IDLOC6 @ 0x20000C
 10846                           ;	unspecified, using default values
 10847  20000C                     	org	2097164
 10848  20000C  0FFF               	dw	4095
 10849                           
 10850                           ;Config register IDLOC7 @ 0x20000E
 10851                           ;	unspecified, using default values
 10852  20000E                     	org	2097166
 10853  20000E  0FFF               	dw	4095
 10854                           
 10855                           ;Config register IDLOC8 @ 0x200010
 10856                           ;	unspecified, using default values
 10857  200010                     	org	2097168
 10858  200010  0FFF               	dw	4095
 10859                           
 10860                           ;Config register IDLOC9 @ 0x200012
 10861                           ;	unspecified, using default values
 10862  200012                     	org	2097170
 10863  200012  0FFF               	dw	4095
 10864                           
 10865                           ;Config register IDLOC10 @ 0x200014
 10866                           ;	unspecified, using default values
 10867  200014                     	org	2097172
 10868  200014  0FFF               	dw	4095
 10869                           
 10870                           ;Config register IDLOC11 @ 0x200016
 10871                           ;	unspecified, using default values
 10872  200016                     	org	2097174
 10873  200016  0FFF               	dw	4095
 10874                           
 10875                           ;Config register IDLOC12 @ 0x200018
 10876                           ;	unspecified, using default values
 10877  200018                     	org	2097176
 10878  200018  0FFF               	dw	4095
 10879                           
 10880                           ;Config register IDLOC13 @ 0x20001A
 10881                           ;	unspecified, using default values
 10882  20001A                     	org	2097178
 10883  20001A  0FFF               	dw	4095
 10884                           
 10885                           ;Config register IDLOC14 @ 0x20001C
 10886                           ;	unspecified, using default values
 10887  20001C                     	org	2097180
 10888  20001C  0FFF               	dw	4095
 10889                           
 10890                           ;Config register IDLOC15 @ 0x20001E
 10891                           ;	unspecified, using default values
 10892  20001E                     	org	2097182
 10893  20001E  0FFF               	dw	4095
 10894                           
 10895                           ;Config register IDLOC16 @ 0x200020
 10896                           ;	unspecified, using default values
 10897  200020                     	org	2097184
 10898  200020  0FFF               	dw	4095
 10899                           
 10900                           ;Config register IDLOC17 @ 0x200022
 10901                           ;	unspecified, using default values
 10902  200022                     	org	2097186
 10903  200022  0FFF               	dw	4095
 10904                           
 10905                           ;Config register IDLOC18 @ 0x200024
 10906                           ;	unspecified, using default values
 10907  200024                     	org	2097188
 10908  200024  0FFF               	dw	4095
 10909                           
 10910                           ;Config register IDLOC19 @ 0x200026
 10911                           ;	unspecified, using default values
 10912  200026                     	org	2097190
 10913  200026  0FFF               	dw	4095
 10914                           
 10915                           ;Config register IDLOC20 @ 0x200028
 10916                           ;	unspecified, using default values
 10917  200028                     	org	2097192
 10918  200028  0FFF               	dw	4095
 10919                           
 10920                           ;Config register IDLOC21 @ 0x20002A
 10921                           ;	unspecified, using default values
 10922  20002A                     	org	2097194
 10923  20002A  0FFF               	dw	4095
 10924                           
 10925                           ;Config register IDLOC22 @ 0x20002C
 10926                           ;	unspecified, using default values
 10927  20002C                     	org	2097196
 10928  20002C  0FFF               	dw	4095
 10929                           
 10930                           ;Config register IDLOC23 @ 0x20002E
 10931                           ;	unspecified, using default values
 10932  20002E                     	org	2097198
 10933  20002E  0FFF               	dw	4095
 10934                           
 10935                           ;Config register IDLOC24 @ 0x200030
 10936                           ;	unspecified, using default values
 10937  200030                     	org	2097200
 10938  200030  0FFF               	dw	4095
 10939                           
 10940                           ;Config register IDLOC25 @ 0x200032
 10941                           ;	unspecified, using default values
 10942  200032                     	org	2097202
 10943  200032  0FFF               	dw	4095
 10944                           
 10945                           ;Config register IDLOC26 @ 0x200034
 10946                           ;	unspecified, using default values
 10947  200034                     	org	2097204
 10948  200034  0FFF               	dw	4095
 10949                           
 10950                           ;Config register IDLOC27 @ 0x200036
 10951                           ;	unspecified, using default values
 10952  200036                     	org	2097206
 10953  200036  0FFF               	dw	4095
 10954                           
 10955                           ;Config register IDLOC28 @ 0x200038
 10956                           ;	unspecified, using default values
 10957  200038                     	org	2097208
 10958  200038  0FFF               	dw	4095
 10959                           
 10960                           ;Config register IDLOC29 @ 0x20003A
 10961                           ;	unspecified, using default values
 10962  20003A                     	org	2097210
 10963  20003A  0FFF               	dw	4095
 10964                           
 10965                           ;Config register IDLOC30 @ 0x20003C
 10966                           ;	unspecified, using default values
 10967  20003C                     	org	2097212
 10968  20003C  0FFF               	dw	4095
 10969                           
 10970                           ;Config register IDLOC31 @ 0x20003E
 10971                           ;	unspecified, using default values
 10972  20003E                     	org	2097214
 10973  20003E  0FFF               	dw	4095
 10974                           
 10975                           	psect	config
 10976                           
 10977                           ;Config register CONFIG1 @ 0x300000
 10978                           ;	External Oscillator Selection
 10979                           ;	FEXTOSC = OFF, Oscillator not enabled
 10980                           ;	Reset Oscillator Selection
 10981                           ;	RSTOSC = HFINTOSC_64MHZ, HFINTOSC with HFFRQ = 64 MHz and CDIV = 1:1
 10982  300000                     	org	3145728
 10983  300000  8C                 	db	140
 10984                           
 10985                           ;Config register CONFIG2 @ 0x300001
 10986                           ;	Clock out Enable bit
 10987                           ;	CLKOUTEN = OFF, CLKOUT function is disabled
 10988                           ;	PRLOCKED One-Way Set Enable bit
 10989                           ;	PR1WAY = OFF, PRLOCKED bit can be set and cleared repeatedly
 10990                           ;	Clock Switch Enable bit
 10991                           ;	CSWEN = OFF, The NOSC and NDIV bits cannot be changed by user software
 10992                           ;	Fail-Safe Clock Monitor Enable bit
 10993                           ;	FCMEN = OFF, Fail-Safe Clock Monitor disabled
 10994  300001                     	org	3145729
 10995  300001  D5                 	db	213
 10996                           
 10997                           ;Config register CONFIG3 @ 0x300002
 10998                           ;	MCLR Enable bit
 10999                           ;	MCLRE = EXTMCLR, If LVP = 0, MCLR pin is MCLR; If LVP = 1, RE3 pin function is MCLR
 11000                           ;	Power-up timer selection bits
 11001                           ;	PWRTS = PWRT_OFF, PWRT is disabled
 11002                           ;	Multi-vector enable bit
 11003                           ;	MVECEN = OFF, Interrupt contoller does not use vector table to prioritze interrupts
 11004                           ;	IVTLOCK bit One-way set enable bit
 11005                           ;	IVT1WAY = OFF, IVTLOCKED bit can be cleared and set repeatedly
 11006                           ;	Low Power BOR Enable bit
 11007                           ;	LPBOREN = OFF, Low-Power BOR disabled
 11008                           ;	Brown-out Reset Enable bits
 11009                           ;	BOREN = SBORDIS, Brown-out Reset enabled , SBOREN bit is ignored
 11010  300002                     	org	3145730
 11011  300002  E7                 	db	231
 11012                           
 11013                           ;Config register CONFIG4 @ 0x300003
 11014                           ;	Brown-out Reset Voltage Selection bits
 11015                           ;	BORV = VBOR_1P9, Brown-out Reset Voltage (VBOR) set to 1.9V
 11016                           ;	ZCD Disable bit
 11017                           ;	ZCD = OFF, ZCD module is disabled. ZCD can be enabled by setting the ZCDSEN bit of ZCD
      +                          CON
 11018                           ;	PPSLOCK bit One-Way Set Enable bit
 11019                           ;	PPS1WAY = OFF, PPSLOCKED bit can be set and cleared repeatedly (subject to the unlock 
      +                          sequence)
 11020                           ;	Stack Full/Underflow Reset Enable bit
 11021                           ;	STVREN = OFF, Stack full/underflow will not cause Reset
 11022                           ;	Low Voltage Programming Enable bit
 11023                           ;	LVP = OFF, HV on MCLR/VPP must be used for programming
 11024                           ;	Extended Instruction Set Enable bit
 11025                           ;	XINST = OFF, Extended Instruction Set and Indexed Addressing Mode disabled
 11026  300003                     	org	3145731
 11027  300003  C7                 	db	199
 11028                           
 11029                           ;Config register CONFIG5 @ 0x300004
 11030                           ;	WDT Period selection bits
 11031                           ;	WDTCPS = WDTCPS_31, Divider ratio 1:65536; software control of WDTPS
 11032                           ;	WDT operating mode
 11033                           ;	WDTE = OFF, WDT Disabled; SWDTEN is ignored
 11034  300004                     	org	3145732
 11035  300004  9F                 	db	159
 11036                           
 11037                           ;Config register CONFIG6 @ 0x300005
 11038                           ;	WDT Window Select bits
 11039                           ;	WDTCWS = WDTCWS_7, window always open (100%); software control; keyed access not requi
      +                          red
 11040                           ;	WDT input clock selector
 11041                           ;	WDTCCS = SC, Software Control
 11042  300005                     	org	3145733
 11043  300005  FF                 	db	255
 11044                           
 11045                           ;Config register CONFIG7 @ 0x300006
 11046                           ;	Boot Block Size selection bits
 11047                           ;	BBSIZE = BBSIZE_512, Boot Block size is 512 words
 11048                           ;	Boot Block enable bit
 11049                           ;	BBEN = OFF, Boot block disabled
 11050                           ;	Storage Area Flash enable bit
 11051                           ;	SAFEN = OFF, SAF disabled
 11052                           ;	Background Debugger
 11053                           ;	DEBUG = OFF, Background Debugger disabled
 11054  300006                     	org	3145734
 11055  300006  FF                 	db	255
 11056                           
 11057                           ;Config register CONFIG8 @ 0x300007
 11058                           ;	Boot Block Write Protection bit
 11059                           ;	WRTB = OFF, Boot Block not Write protected
 11060                           ;	Configuration Register Write Protection bit
 11061                           ;	WRTC = OFF, Configuration registers not Write protected
 11062                           ;	Data EEPROM Write Protection bit
 11063                           ;	WRTD = OFF, Data EEPROM not Write protected
 11064                           ;	SAF Write protection bit
 11065                           ;	WRTSAF = OFF, SAF not Write Protected
 11066                           ;	Application Block write protection bit
 11067                           ;	WRTAPP = OFF, Application Block not write protected
 11068  300007                     	org	3145735
 11069  300007  FF                 	db	255
 11070                           
 11071                           ; Padding undefined space
 11072  300008                     	org	3145736
 11073  300008  FF                 	db	255
 11074                           
 11075                           ;Config register CONFIG10 @ 0x300009
 11076                           ;	PFM and Data EEPROM Code Protection bit
 11077                           ;	CP = OFF, PFM and Data EEPROM code protection disabled
 11078  300009                     	org	3145737
 11079  300009  FF                 	db	255
 11080                           tosu	equ	0x4FF
 11081                           tosh	equ	0x4FE
 11082                           tosl	equ	0x4FD
 11083                           stkptr	equ	0x4FC
 11084                           pclatu	equ	0x4FB
 11085                           pclath	equ	0x4FA
 11086                           pcl	equ	0x4F9
 11087                           tblptru	equ	0x4F8
 11088                           tblptrh	equ	0x4F7
 11089                           tblptrl	equ	0x4F6
 11090                           tablat	equ	0x4F5
 11091                           prodh	equ	0x4F4
 11092                           prodl	equ	0x4F3
 11093                           indf0	equ	0x4EF
 11094                           postinc0	equ	0x4EE
 11095                           postdec0	equ	0x4ED
 11096                           preinc0	equ	0x4EC
 11097                           plusw0	equ	0x4EB
 11098                           fsr0h	equ	0x4EA
 11099                           fsr0l	equ	0x4E9
 11100                           wreg	equ	0x4E8
 11101                           indf1	equ	0x4E7
 11102                           postinc1	equ	0x4E6
 11103                           postdec1	equ	0x4E5
 11104                           preinc1	equ	0x4E4
 11105                           plusw1	equ	0x4E3
 11106                           fsr1h	equ	0x4E2
 11107                           fsr1l	equ	0x4E1
 11108                           bsr	equ	0x4E0
 11109                           indf2	equ	0x4DF
 11110                           postinc2	equ	0x4DE
 11111                           postdec2	equ	0x4DD
 11112                           preinc2	equ	0x4DC
 11113                           plusw2	equ	0x4DB
 11114                           fsr2h	equ	0x4DA
 11115                           fsr2l	equ	0x4D9
 11116                           status	equ	0x4D8

Data Sizes:
    Strings     86
    Constant    0
    Data        1
    BSS         140
    Persistent  0
    Stack       0

Auto Spaces:
    Space          Size  Autos    Used
    COMRAM           95     88      92
    BANK5           160    121     150
    BANK6           256     11     119
    BANK7           256      0       0
    BANK8           256      0       0
    BANK9           256      0       0
    BANK10          256      0       0
    BANK11          256      0       0
    BANK12          256      0       0
    BANK13          256      0       0
    BANK14          256      0       0
    BANK15          256      0       0
    BANK16          256      0       0
    BANK17          256      0       0
    BANK18          256      0       0
    BANK19          256      0       0
    BANK20          256      0       0
    BANK21          256      0       0
    BANK22          256      0       0
    BANK23          256      0       0
    BANK24          256      0       0
    BANK25          256      0       0
    BANK26          256      0       0
    BANK27          256      0       0
    BANK28          256      0       0
    BANK29          256      0       0
    BANK30          256      0       0
    BANK31          256      0       0
    BANK32          256      0       0
    BANK33          256      0       0
    BANK34          256      0       0
    BANK35          256      0       0
    BANK36          256      0       0

Pointer List with Targets:

    strncmp@_r	PTR const unsigned char  size(2) Largest target is 3
		 -> STR_15(CODE[3]), 

    strncmp@r	PTR const unsigned char  size(2) Largest target is 3
		 -> STR_15(CODE[3]), 

    strncmp@_l	PTR const unsigned char  size(2) Largest target is 3
		 -> vfpfcnvrt@ct(BANK5[3]), 

    strncmp@l	PTR const unsigned char  size(2) Largest target is 3
		 -> vfpfcnvrt@ct(BANK5[3]), 

    strlen@s	PTR const unsigned char  size(2) Largest target is 80
		 -> dbuf(BANK6[80]), 

    strlen@a	PTR const unsigned char  size(2) Largest target is 80
		 -> dbuf(BANK6[80]), 

    strcpy@dest	PTR unsigned char  size(2) Largest target is 80
		 -> dbuf(BANK6[80]), 

    strcpy@d	PTR unsigned char  size(2) Largest target is 80
		 -> dbuf(BANK6[80]), 

    strcpy@src	PTR const unsigned char  size(2) Largest target is 80
		 -> STR_10(CODE[4]), STR_9(CODE[4]), STR_6(CODE[4]), STR_5(CODE[4]), 
		 -> dbuf(BANK6[80]), 

    strcpy@s	PTR const unsigned char  size(2) Largest target is 80
		 -> STR_10(CODE[4]), STR_9(CODE[4]), STR_6(CODE[4]), STR_5(CODE[4]), 
		 -> dbuf(BANK6[80]), 

    fputs@s	PTR const unsigned char  size(2) Largest target is 80
		 -> dbuf(BANK6[80]), 

    fputs@fp	PTR struct _IO_FILE size(2) Largest target is 7
		 -> sprintf@f(BANK5[6]), 

    fputc@fp.buffer	PTR unsigned char  size(2) Largest target is 16
		 -> msj(BANK6[16]), 

    fputc@fp	PTR struct _IO_FILE size(2) Largest target is 7
		 -> sprintf@f(BANK5[6]), 

    atoi@s	PTR const unsigned char  size(2) Largest target is 16
		 -> STR_4(CODE[16]), 

    vfprintf@ap	PTR PTR void  size(2) Largest target is 2
		 -> sprintf@ap(BANK5[2]), 

    vfprintf@fp	PTR struct _IO_FILE size(2) Largest target is 7
		 -> sprintf@f(BANK5[6]), 

    vfprintf@fmt	PTR const unsigned char  size(2) Largest target is 16
		 -> STR_4(CODE[16]), 

    vfprintf@cfmt	PTR unsigned char  size(2) Largest target is 16
		 -> STR_4(CODE[16]), 

    vfpfcnvrt@fp	PTR struct _IO_FILE size(2) Largest target is 7
		 -> sprintf@f(BANK5[6]), 

    vfpfcnvrt@ap	PTR PTR void  size(2) Largest target is 2
		 -> sprintf@ap(BANK5[2]), 

    vfpfcnvrt@fmt	PTR PTR unsigned char  size(2) Largest target is 2
		 -> vfprintf@cfmt(COMRAM[2]), 

    utoa@fp	PTR struct _IO_FILE size(2) Largest target is 7
		 -> sprintf@f(BANK5[6]), 

    efgtoa@fp	PTR struct _IO_FILE size(2) Largest target is 7
		 -> sprintf@f(BANK5[6]), 

    sp__strcpy	PTR unsigned char  size(2) Largest target is 80
		 -> dbuf(BANK6[80]), 

    pad@fp	PTR struct _IO_FILE size(2) Largest target is 7
		 -> sprintf@f(BANK5[6]), 

    pad@buf	PTR unsigned char  size(2) Largest target is 80
		 -> dbuf(BANK6[80]), 

    sprintf@fmt	PTR const unsigned char  size(2) Largest target is 16
		 -> STR_4(CODE[16]), 

    sprintf@s	PTR unsigned char  size(2) Largest target is 16
		 -> msj(BANK6[16]), 

    sprintf@ap	PTR void [1] size(2) Largest target is 2
		 -> ?_sprintf(BANK5[2]), 

    S756_IO_FILE$buffer	PTR unsigned char  size(2) Largest target is 16
		 -> msj(BANK6[16]), 

    f.buffer	PTR unsigned char  size(2) Largest target is 16
		 -> msj(BANK6[16]), 

    FM_Lcd_Send_String@cadena	PTR unsigned char  size(2) Largest target is 21
		 -> msj(BANK6[16]), STR_3(CODE[21]), STR_2(CODE[17]), STR_1(CODE[13]), 

    FM_Hfintosc_Init@clock_params	PTR struct . size(2) Largest target is 2
		 -> Init_Internal_Oscillator@my_clock(COMRAM[2]), 


Critical Paths under _main in COMRAM

    _sprintf->_vfprintf
    _vfpfcnvrt->_efgtoa
    _utoa->_pad
    _efgtoa->___flge
    _tolower->_isupper
    _pad->_fputs
    _fputs->_fputc
    _floorf->___fldiv
    ___fltol->___flmul
    ___flsub->___flmul
    ___flmul->___fldiv
    ___flge->___flmul
    ___fldiv->___xxtofl
    _atoi->_isspace
    _System_Init->_FM_Lcd_Easy_Init
    _Init_Internal_Oscillator->_FM_Hfintosc_Init
    _FM_Lcd_Easy_Init->_FM_Lcd_Send_Command
    _FM_Lcd_Set_Cursor->_FM_Lcd_Send_Command
    _FM_Lcd_Send_Command->_FM_Lcd_Send_Nibble
    _FM_Lcd_Send_String->_FM_Lcd_Send_Character
    _FM_Lcd_Send_Character->_FM_Lcd_Send_Nibble

Critical Paths under _ISR in COMRAM

    _ISR->_Detect_Falling_Edge

Critical Paths under _main in BANK5

    _main->_sprintf
    _sprintf->_vfprintf
    _vfprintf->_vfpfcnvrt
    _vfpfcnvrt->_efgtoa

Critical Paths under _ISR in BANK5

    None.

Critical Paths under _main in BANK6

    None.

Critical Paths under _ISR in BANK6

    None.

Critical Paths under _main in BANK7

    None.

Critical Paths under _ISR in BANK7

    None.

Critical Paths under _main in BANK8

    None.

Critical Paths under _ISR in BANK8

    None.

Critical Paths under _main in BANK9

    None.

Critical Paths under _ISR in BANK9

    None.

Critical Paths under _main in BANK10

    None.

Critical Paths under _ISR in BANK10

    None.

Critical Paths under _main in BANK11

    None.

Critical Paths under _ISR in BANK11

    None.

Critical Paths under _main in BANK12

    None.

Critical Paths under _ISR in BANK12

    None.

Critical Paths under _main in BANK13

    None.

Critical Paths under _ISR in BANK13

    None.

Critical Paths under _main in BANK14

    None.

Critical Paths under _ISR in BANK14

    None.

Critical Paths under _main in BANK15

    None.

Critical Paths under _ISR in BANK15

    None.

Critical Paths under _main in BANK16

    None.

Critical Paths under _ISR in BANK16

    None.

Critical Paths under _main in BANK17

    None.

Critical Paths under _ISR in BANK17

    None.

Critical Paths under _main in BANK18

    None.

Critical Paths under _ISR in BANK18

    None.

Critical Paths under _main in BANK19

    None.

Critical Paths under _ISR in BANK19

    None.

Critical Paths under _main in BANK20

    None.

Critical Paths under _ISR in BANK20

    None.

Critical Paths under _main in BANK21

    None.

Critical Paths under _ISR in BANK21

    None.

Critical Paths under _main in BANK22

    None.

Critical Paths under _ISR in BANK22

    None.

Critical Paths under _main in BANK23

    None.

Critical Paths under _ISR in BANK23

    None.

Critical Paths under _main in BANK24

    None.

Critical Paths under _ISR in BANK24

    None.

Critical Paths under _main in BANK25

    None.

Critical Paths under _ISR in BANK25

    None.

Critical Paths under _main in BANK26

    None.

Critical Paths under _ISR in BANK26

    None.

Critical Paths under _main in BANK27

    None.

Critical Paths under _ISR in BANK27

    None.

Critical Paths under _main in BANK28

    None.

Critical Paths under _ISR in BANK28

    None.

Critical Paths under _main in BANK29

    None.

Critical Paths under _ISR in BANK29

    None.

Critical Paths under _main in BANK30

    None.

Critical Paths under _ISR in BANK30

    None.

Critical Paths under _main in BANK31

    None.

Critical Paths under _ISR in BANK31

    None.

Critical Paths under _main in BANK32

    None.

Critical Paths under _ISR in BANK32

    None.

Critical Paths under _main in BANK33

    None.

Critical Paths under _ISR in BANK33

    None.

Critical Paths under _main in BANK34

    None.

Critical Paths under _ISR in BANK34

    None.

Critical Paths under _main in BANK35

    None.

Critical Paths under _ISR in BANK35

    None.

Critical Paths under _main in BANK36

    None.

Critical Paths under _ISR in BANK36

    None.

Call Graph Tables:

 ---------------------------------------------------------------------------------
 (Depth) Function   	        Calls       Base Space   Used Autos Params    Refs
 ---------------------------------------------------------------------------------
 (0) _main                                                13    13      0   56040
                                            119 BANK5      2     2      0
                                              0 BANK6     11    11      0
                _FM_Lcd_Send_Command
                 _FM_Lcd_Send_String
                  _FM_Lcd_Set_Cursor
                        _System_Init
                            ___fldiv
                            ___flmul
                            ___fltol
                           ___xxtofl
                            _sprintf
 ---------------------------------------------------------------------------------
 (1) _sprintf                                             20    10     10   45312
                                            101 BANK5     18     8     10
                           _vfprintf
 ---------------------------------------------------------------------------------
 (2) _vfprintf                                             8     2      6   44796
                                             86 COMRAM     2     2      0
                                             95 BANK5      6     0      6
                          _vfpfcnvrt
 ---------------------------------------------------------------------------------
 (3) _vfpfcnvrt                                           50    44      6   44203
                                             61 BANK5     34    28      6
                               _atoi
                             _efgtoa
                              _fputc
                            _isdigit
                            _isupper
                            _strncmp
                            _tolower
                               _utoa
 ---------------------------------------------------------------------------------
 (4) _utoa                                                32    22     10    5639
                                             30 COMRAM    32    22     10
                            ___lodiv
                            ___lomod
                                _pad
 ---------------------------------------------------------------------------------
 (5) ___lomod                                             17     1     16     412
                                              3 COMRAM    17     1     16
 ---------------------------------------------------------------------------------
 (5) ___lodiv                                             25     9     16     421
                                              3 COMRAM    25     9     16
 ---------------------------------------------------------------------------------
 (4) _strncmp                                             11     5      6     595
                                              3 COMRAM    11     5      6
 ---------------------------------------------------------------------------------
 (4) _efgtoa                                              68    61      7   30800
                                             79 COMRAM     7     0      7
                                              0 BANK5     61    61      0
                            ___awdiv
                            ___awmod
                            ___fladd
                            ___fldiv
                             ___fleq
                             ___flge
                            ___flmul
                            ___flneg
                            ___flsub
                            ___fltol
                      ___fpclassifyf
                             _floorf
                            _isupper
                                _pad
                             _strcpy
                            _tolower
 ---------------------------------------------------------------------------------
 (4) _tolower                                              8     6      2    1142
                                              9 COMRAM     8     6      2
                            _isupper
 ---------------------------------------------------------------------------------
 (5) _isupper                                              6     4      2     551
                                              3 COMRAM     6     4      2
 ---------------------------------------------------------------------------------
 (5) _strcpy                                              10     6      4    1037
                                              3 COMRAM    10     6      4
 ---------------------------------------------------------------------------------
 (5) _pad                                                 11     5      6    4227
                                             19 COMRAM    11     5      6
                              _fputc
                              _fputs
                             _strlen
 ---------------------------------------------------------------------------------
 (6) _strlen                                               4     2      2     220
                                              3 COMRAM     4     2      2
 ---------------------------------------------------------------------------------
 (6) _fputs                                                7     3      4    1537
                                             12 COMRAM     7     3      4
                              _fputc
 ---------------------------------------------------------------------------------
 (7) _fputc                                                9     5      4    1037
                                              3 COMRAM     9     5      4
                              _putch
 ---------------------------------------------------------------------------------
 (8) _putch                                                1     1      0       0
 ---------------------------------------------------------------------------------
 (5) _floorf                                              20    16      4     669
                                             42 COMRAM    20    16      4
                            ___fldiv (ARG)
 ---------------------------------------------------------------------------------
 (5) ___fpclassifyf                                       14    10      4     375
                                              3 COMRAM    14    10      4
 ---------------------------------------------------------------------------------
 (5) ___fltol                                             10     6      4     607
                                             67 COMRAM    10     6      4
                            ___fldiv (ARG)
                            ___flmul (ARG)
                           ___xxtofl (ARG)
 ---------------------------------------------------------------------------------
 (5) ___flsub                                              8     0      8    4007
                                             67 COMRAM     8     0      8
                            ___fladd
                            ___flmul (ARG)
 ---------------------------------------------------------------------------------
 (6) ___fladd                                             16     8      8    3442
                                              3 COMRAM    16     8      8
 ---------------------------------------------------------------------------------
 (5) ___flneg                                              4     0      4     155
                                              3 COMRAM     4     0      4
 ---------------------------------------------------------------------------------
 (5) ___flmul                                             25    17      8    4133
                                             42 COMRAM    25    17      8
                            ___fldiv (ARG)
                           ___xxtofl (ARG)
 ---------------------------------------------------------------------------------
 (5) ___flge                                              12     4      8     986
                                             67 COMRAM    12     4      8
                            ___flmul (ARG)
 ---------------------------------------------------------------------------------
 (5) ___fleq                                              12     4      8     770
                                              3 COMRAM    12     4      8
 ---------------------------------------------------------------------------------
 (5) ___fldiv                                             25    17      8    3083
                                             17 COMRAM    25    17      8
                           ___xxtofl (ARG)
 ---------------------------------------------------------------------------------
 (5) ___awmod                                              6     2      4     613
                                              3 COMRAM     6     2      4
 ---------------------------------------------------------------------------------
 (5) ___awdiv                                              8     4      4     625
                                              3 COMRAM     8     4      4
 ---------------------------------------------------------------------------------
 (4) _atoi                                                15    13      2    1745
                                             10 COMRAM    15    13      2
                             ___wmul
                            _isdigit
                            _isspace
 ---------------------------------------------------------------------------------
 (5) _isspace                                              7     5      2     259
                                              3 COMRAM     7     5      2
 ---------------------------------------------------------------------------------
 (4) _isdigit                                              6     4      2     371
                                              3 COMRAM     6     4      2
 ---------------------------------------------------------------------------------
 (5) ___wmul                                               6     2      4     462
                                              3 COMRAM     6     2      4
 ---------------------------------------------------------------------------------
 (1) ___xxtofl                                            14    10      4     656
                                              3 COMRAM    14    10      4
 ---------------------------------------------------------------------------------
 (1) _System_Init                                          0     0      0     455
                   _FM_Lcd_Easy_Init
                   _Init_ADCC_Module
                   _Init_Gpio_System
           _Init_Internal_Oscillator
                    _Init_Interrupts
               _Init_Timer0_As_Timer
 ---------------------------------------------------------------------------------
 (2) _Init_Timer0_As_Timer                                 0     0      0       0
 ---------------------------------------------------------------------------------
 (2) _Init_Interrupts                                      0     0      0       0
 ---------------------------------------------------------------------------------
 (2) _Init_Internal_Oscillator                             2     2      0     229
                                              6 COMRAM     2     2      0
                   _FM_Hfintosc_Init
 ---------------------------------------------------------------------------------
 (3) _FM_Hfintosc_Init                                     3     1      2     152
                                              3 COMRAM     3     1      2
 ---------------------------------------------------------------------------------
 (2) _Init_Gpio_System                                     0     0      0       0
 ---------------------------------------------------------------------------------
 (2) _Init_ADCC_Module                                     0     0      0       0
 ---------------------------------------------------------------------------------
 (2) _FM_Lcd_Easy_Init                                     2     2      0     226
                                              8 COMRAM     2     2      0
              _FM_Lcd_Easy_Gpio_Init
                _FM_Lcd_Send_Command
 ---------------------------------------------------------------------------------
 (3) _FM_Lcd_Easy_Gpio_Init                                1     1      0       3
 ---------------------------------------------------------------------------------
 (1) _FM_Lcd_Set_Cursor                                    3     2      1     722
                                              8 COMRAM     3     2      1
                _FM_Lcd_Send_Command
 ---------------------------------------------------------------------------------
 (3) _FM_Lcd_Send_Command                                  1     1      0     223
                                              7 COMRAM     1     1      0
                 _FM_Lcd_Send_Nibble
 ---------------------------------------------------------------------------------
 (1) _FM_Lcd_Send_String                                   5     3      2     713
                                              8 COMRAM     5     3      2
              _FM_Lcd_Send_Character
 ---------------------------------------------------------------------------------
 (2) _FM_Lcd_Send_Character                                1     1      0     223
                                              7 COMRAM     1     1      0
                 _FM_Lcd_Send_Nibble
 ---------------------------------------------------------------------------------
 (4) _FM_Lcd_Send_Nibble                                   4     4      0     192
                                              3 COMRAM     4     4      0
 ---------------------------------------------------------------------------------
 Estimated maximum stack depth 8
 ---------------------------------------------------------------------------------
 (Depth) Function   	        Calls       Base Space   Used Autos Params    Refs
 ---------------------------------------------------------------------------------
 (9) _ISR                                                  0     0      0      94
                _Detect_Falling_Edge
 ---------------------------------------------------------------------------------
 (10) _Detect_Falling_Edge                                 3     3      0      94
                                              0 COMRAM     3     3      0
 ---------------------------------------------------------------------------------
 Estimated maximum stack depth 10
 ---------------------------------------------------------------------------------

 Call Graph Graphs:

 _main (ROOT)
   _FM_Lcd_Send_Command
     _FM_Lcd_Send_Nibble
   _FM_Lcd_Send_String
     _FM_Lcd_Send_Character
       _FM_Lcd_Send_Nibble
   _FM_Lcd_Set_Cursor
     _FM_Lcd_Send_Command
   _System_Init
     _FM_Lcd_Easy_Init
       _FM_Lcd_Easy_Gpio_Init
       _FM_Lcd_Send_Command
     _Init_ADCC_Module
     _Init_Gpio_System
     _Init_Internal_Oscillator
       _FM_Hfintosc_Init
     _Init_Interrupts
     _Init_Timer0_As_Timer
   ___fldiv
     ___xxtofl (ARG)
   ___flmul
     ___fldiv (ARG)
     ___xxtofl (ARG)
   ___fltol
     ___fldiv (ARG)
     ___flmul (ARG)
     ___xxtofl (ARG)
   ___xxtofl
   _sprintf
     _vfprintf
       _vfpfcnvrt
         _atoi
           ___wmul
           _isdigit
           _isspace
         _efgtoa
           ___awdiv
           ___awmod
           ___fladd
           ___fldiv
           ___fleq
           ___flge
             ___flmul (ARG)
           ___flmul
           ___flneg
           ___flsub
             ___fladd
             ___flmul (ARG)
           ___fltol
           ___fpclassifyf
           _floorf
             ___fldiv (ARG)
           _isupper
           _pad
             _fputc
               _putch
             _fputs
               _fputc
             _strlen
           _strcpy
           _tolower
             _isupper
         _fputc
         _isdigit
         _isupper
         _strncmp
         _tolower
         _utoa
           ___lodiv
           ___lomod
           _pad

 _ISR (ROOT)
   _Detect_Falling_Edge

 Address spaces:
Name               Size   Autos  Total    Cost      Usage
BIGRAM            1FFF      0       0      69        0.0%
EEDATA             400      0       0       0        0.0%
BITBANK36          100      0       0      66        0.0%
BANK36             100      0       0      67        0.0%
BITBANK35          100      0       0      64        0.0%
BANK35             100      0       0      65        0.0%
BITBANK34          100      0       0      62        0.0%
BANK34             100      0       0      63        0.0%
BITBANK33          100      0       0      60        0.0%
BANK33             100      0       0      61        0.0%
BITBANK32          100      0       0      58        0.0%
BANK32             100      0       0      59        0.0%
BITBANK31          100      0       0      56        0.0%
BANK31             100      0       0      57        0.0%
BITBANK30          100      0       0      54        0.0%
BANK30             100      0       0      55        0.0%
BITBANK29          100      0       0      52        0.0%
BANK29             100      0       0      53        0.0%
BITBANK28          100      0       0      50        0.0%
BANK28             100      0       0      51        0.0%
BITBANK27          100      0       0      48        0.0%
BANK27             100      0       0      49        0.0%
BITBANK26          100      0       0      46        0.0%
BANK26             100      0       0      47        0.0%
BITBANK25          100      0       0      44        0.0%
BANK25             100      0       0      45        0.0%
BITBANK24          100      0       0      42        0.0%
BANK24             100      0       0      43        0.0%
BITBANK23          100      0       0      40        0.0%
BANK23             100      0       0      41        0.0%
BITBANK22          100      0       0      38        0.0%
BANK22             100      0       0      39        0.0%
BITBANK21          100      0       0      36        0.0%
BANK21             100      0       0      37        0.0%
BITBANK20          100      0       0      34        0.0%
BANK20             100      0       0      35        0.0%
BITBANK19          100      0       0      32        0.0%
BANK19             100      0       0      33        0.0%
BITBANK18          100      0       0      30        0.0%
BANK18             100      0       0      31        0.0%
BITBANK17          100      0       0      28        0.0%
BANK17             100      0       0      29        0.0%
BITBANK16          100      0       0      26        0.0%
BANK16             100      0       0      27        0.0%
BITBANK15          100      0       0      24        0.0%
BANK15             100      0       0      25        0.0%
BITBANK14          100      0       0      22        0.0%
BANK14             100      0       0      23        0.0%
BITBANK13          100      0       0      20        0.0%
BANK13             100      0       0      21        0.0%
BITBANK12          100      0       0      18        0.0%
BANK12             100      0       0      19        0.0%
BITBANK11          100      0       0      16        0.0%
BANK11             100      0       0      17        0.0%
BITBANK10          100      0       0      14        0.0%
BANK10             100      0       0      15        0.0%
BITBANK9           100      0       0      12        0.0%
BANK9              100      0       0      13        0.0%
BITBANK8           100      0       0      10        0.0%
BANK8              100      0       0      11        0.0%
BITBANK7           100      0       0       8        0.0%
BANK7              100      0       0       9        0.0%
BITBANK6           100      0       0       6        0.0%
BANK6              100      B      77       7       46.5%
BITBANK5            A0      0       0       4        0.0%
BANK5               A0     79      96       5       93.8%
BITCOMRAM           5F      0       0       0        0.0%
COMRAM              5F     58      5C       1       96.8%
BITSFR_6             0      0       0     200        0.0%
SFR_6                0      0       0     200        0.0%
BITSFR_5             0      0       0     200        0.0%
SFR_5                0      0       0     200        0.0%
BITSFR_4             0      0       0     200        0.0%
SFR_4                0      0       0     200        0.0%
BITSFR_3             0      0       0     200        0.0%
SFR_3                0      0       0     200        0.0%
BITSFR_2             0      0       0     200        0.0%
SFR_2                0      0       0     200        0.0%
BITSFR_1             0      0       0     200        0.0%
SFR_1                0      0       0     200        0.0%
BITSFR               0      0       0     200        0.0%
SFR                  0      0       0     200        0.0%
STACK                0      0       0       2        0.0%
NULL                 0      0       0       0        0.0%
ABS                  0      0     169      68        0.0%
DATA                 0      0     169       3        0.0%
CODE                 0      0       0       0        0.0%


Microchip Technology PIC18 Macro Assembler V2.32 build 20210201212658 
Symbol Table                                                                                   Sun Jul 02 19:43:00 2023

                            ___fldiv@aexp 052A                              ___fldiv@bexp 0529  
                            ___fldiv@sign 0522                              ___awdiv@sign 0509  
                     ___wmul@multiplicand 0506                                       l111 469C  
                                     l132 615A                                       l141 5F94  
                                     l135 6140                                       l144 6182  
                                     l170 5C08                                       l154 6016  
                                     l138 6190                                       l147 6170  
                                     l173 61AA                                       l181 5F46  
                                     l183 5F52                                       l167 619E  
                                     l176 61B6                                       l192 5FD6  
                                     l426 58F4                                       l195 6122  
                                     l460 535A                                       l189 5B94  
                                     l454 5B10                                       l439 5A66  
                                     l640 5688                                       l465 53A0  
                                     l633 5668                                       l650 5830  
                                     l723 3BBE                                       l643 5810  
                                     l740 3CD8                                       l732 3E8E  
                                     l724 3BAC                                       l492 529C  
                                     l813 42DC                                       l469 60C0  
                                     l725 3B72                                       l750 3D96  
                                     l816 416E                                       l809 3F54  
                                     l850 4F0E                                       l826 429E  
                                     l818 41E6                                       l914 593A  
                                     l819 41D4                                       l853 506A  
                                     l749 3DA8                                       l765 5ECA  
                                     l917 597C                                       l790 4594  
                                     l782 449A                                       l791 4582  
                                     l919 59B6                                       l864 5002  
                                     l857 4FA6                                       l777 4676  
                                     l937 31B4                                       l873 5DEA  
                                     l779 44D6                                       l955 2944  
                                     l788 451C                                       l983 2D84  
                                     _ISR 506C                                       _pad 58F6  
                                     _msj 065C                              ___awmod@sign 0509  
                                     wreg 0004E8                               main@adc_val 0674  
                     _Detect_Falling_Edge 5D3A                              ___flmul@aexp 0538  
                            ___flmul@bexp 053D                              ___flmul@sign 0537  
                            ___flmul@temp 0542                              ___flmul@prod 053E  
                                    ?_ISR 0501                              ___fltol@exp1 054D  
                                    l1120 4EAE                                      l1017 4B36  
                                    l1041 32C0                                      l1210 5D38  
                                    l1123 4EB6                                      l1027 4CFE  
                                    l1019 4B3E                                      l1132 4A42  
                                    l1205 5D30                                      l1080 5C6A  
                                    l1129 4AFE                                      l1153 6088  
                                    l1073 3830                                      l1081 5C72  
                                    l1066 39CE                                      l1139 60F8  
                                    l1147 5E3C                                      l1091 549E  
                                    l1191 6050                                      l1168 5760  
                                    l1176 5F0E                                      l1185 5CD8  
                                    l1179 61B8                                      l1195 5598  
                                    l5001 432C                                      l5011 435E  
                                    l5003 4334                                      l5101 45EC  
                                    l5021 4392                                      l5013 4360  
                                    l5005 4344                                      l5111 4656  
                                    l5103 4606                                      l5031 43D8  
                                    l5015 4370                                      l5023 439A  
                                    l5007 434A                                      l6001 5FE2  
                                    l5113 4664                                      l5105 461C  
                                    l5041 4400                                      l5033 43DC  
                                    l5025 43AA                                      l5017 4380  
                                    l5009 4350                                      l5201 40F2  
                                    l6003 5FFC                                      l5115 466A  
                                    l5107 4636                                      l5051 444E  
                                    l5027 43C0                                      l5019 4390  
                                    l5211 416C                                      l5203 4128  
                                    l5131 3EAC                                      l6011 31E2  
                                    l6005 6192                                      l5301 58EC  
                                    l5117 466C                                      l5109 4652  
                                    l5061 4498                                      l5053 445E  
                                    l5045 4414                                      l5029 43D0  
                                    l5037 43F0                                      l5221 41CC  
                                    l5213 417E                                      l5205 4136  
                                    l5141 3EF2                                      l5133 3EBC  
                                    l5125 3E90                                      l6101 365A  
                                    l6021 3218                                      l6013 31F4  
                                    l6007 619C                                      l5311 59D2  
                                    l5071 44E6                                      l5063 44A4  
                                    l5055 4466                                      l5047 442E  
                                    l5039 4400                                      l5231 423A  
                                    l5215 418C                                      l5207 4154  
                                    l5151 3F1E                                      l5143 3EF8  
                                    l5135 3ECC                                      l5127 3E9C  
                                    l6111 370A                                      l6103 366C  
                                    l6031 323A                                      l6023 322E  
                                    l6015 3206                                      l6201 5F64  
                                    l5321 5A06                                      l5313 59D6  
                                    l5305 59B8                                      l5073 44FC  
                                    l5081 452C                                      l5065 44C2  
                                    l5057 4476                                      l5049 443E  
                                    l5241 42A2                                      l5225 41F6  
                                    l5233 423E                                      l5217 4190  
                                    l5209 415E                                      l5161 3F74  
                                    l5153 3F2E                                      l5145 3EFE  
                                    l5137 3EDC                                      l5129 3EAA  
                                    l5401 5202                                      l6105 36B0  
                                    l6017 320A                                      l6009 31B6  
                                    l6211 5F72                                      l6203 5F66  
                                    l5331 5A40                                      l5323 5A0E  
                                    l5315 59E4                                      l5307 59BC  
                                    l5083 453A                                      l5075 4502  
                                    l5067 44C4                                      l5059 448A  
                                    l5251 42CC                                      l5243 42B2  
                                    l5235 4258                                      l5227 4202  
                                    l5219 419E                                      l5171 3FBC  
                                    l5155 3F3E                                      l5147 3F0C  
                                    l5139 3EE2                                      l5411 5232  
                                    l5403 5210                                      l6115 3792  
                                    l6051 32FC                                      l6043 3252  
                                    l6035 3240                                      l6027 3234  
                                    l6019 3216                                      l6221 5F8A  
                                    l6213 5F76                                      l6205 5F68  
                                    l5261 5832                                      l5325 5A1C  
                                    l5333 5A46                                      l5317 59EC  
                                    l5309 59CA                                      l5093 45A4  
                                    l5085 453E                                      l5077 450C  
                                    l5069 44D4                                      l5341 5A68  
                                    l5245 42C0                                      l5237 426C  
                                    l5229 4210                                      l5181 400A  
                                    l5173 3FC8                                      l5165 3F88  
                                    l5157 3F44                                      l5149 3F0E  
                                    l5421 525C                                      l5413 523C  
                                    l6133 390C                                      l6117 37A4  
                                    l6125 3848                                      l6109 36DC  
                                    l6061 339C                                      l6053 3346  
                                    l6045 32AE                                      ?_pad 0514  
                                    l6231 5FB2                                      l6223 5F92  
                                    l6215 5F7A                                      l6207 5F6E  
                                    l6311 4F34                                      l6303 4EBA  
                                    l5271 585E                                      l5263 5836  
                                    l5335 5A56                                      l5327 5A32  
                                    l5319 59FE                                      l5095 45B0  
                                    l5087 454C                                      l5079 451A  
                                    l5351 5B08                                      l5343 5A96  
                                    l5247 42C2                                      l5239 4286  
                                    l5191 4068                                      l5183 401A  
                                    l5175 3FE4                                      l5167 3F98  
                                    l5159 3F64                                      l5255 5E86  
                                    l5423 526C                                      l5503 5440  
                                    l5431 559A                                      l6151 39B8  
                                    l6135 3938                                      l6143 396C  
                                    l6127 3874                                      l6119 37EC  
                                    l6071 3432                                      l6055 3354  
                                    l6047 32CE                                      l6039 3246  
                                    l6241 5FD0                                      l6233 5FB8  
                                    l6217 5F7C                                      l6209 5F70  
                                    l6225 6172                                      l6321 4F8E  
                                    l6305 4ECA                                      l5281 588C  
                                    l5273 5866                                      l5265 5844  
                                    l5337 5A5E                                      l5329 5A3A  
                                    l5097 45BE                                      l5089 457A  
                                    l5353 5B0E                                      l5345 5AA6  
                                    l5361 52DC                                      l5249 42C8  
                                    l5193 4078                                      l5185 402A  
                                    l5177 3FF0                                      l5169 3FA2  
                                    l4801 3AC2                                      l5257 5E96  
                                    l5425 527C                                      l5409 5228  
                                    l5505 5452                                      l5513 5C74  
                                    l5521 5D10                                      l5601 25B6  
                                    l5441 55EE                                      l5433 55A6  
                                    l6145 397E                                      l6137 394A  
                                    l6129 38D4                                      l6081 34F8  
                                    l6073 3444                                      l6065 33EC  
                                    l6057 3362                                      l6049 32D0  
                                    l6243 61AE                                      l6235 5FBE  
                                    l6227 5F96                                      l6219 5F80  
                                    l6171 6188                                      l6331 4FF2  
                                    l6323 4F90                                      l6315 4F48  
                                    l6307 4ED8                                      l5291 58C6  
                                    l5283 5894                                      l5275 586A  
                                    l5267 584C                                      l5099 45E8  
                                    l5347 5AD4                                      l5371 5348  
                                    l5363 530A                                      l5195 4098  
                                    l5187 403A                                      l5179 3FFC  
                                    l4811 3AE0                                      l4803 3AD0  
                                    l5427 528C                                      l5419 5250  
                                    l5531 4964                                      l5515 5C84  
                                    l5523 5D22                                      l5611 25FC  
                                    l5603 25BE                                      l5451 5662  
                                    l5443 5600                                      l5435 55C4  
                                    l6139 395E                                      l6091 3594  
                                    l6075 3470                                      l6059 338A  
                                    l6067 33FE                                      l6251 5C20  
                                    l6245 61B0                                      l6237 5FC4  
                                    l6229 5F9A                                      l6165 615C  
                                    l6173 618A                                      l6181 612E  
                                    l6261 614E                                      l6341 504A  
                                    l6333 5010                                      l6325 4F9C  
                                    l6317 4F50                                      l6309 4F1E  
                                    l5293 58C8                                      l5285 58A2  
                                    l5277 5872                                      l5269 5850  
                                    l5349 5AE4                                      l5373 5398  
                                    l5365 531A                                      l5357 529E  
                                    l5197 40A8                                      l5189 404A  
                                    l5381 60A0                                      l4901 3D1C  
                                    l4821 3AF4                                      l4813 3AE4  
                                    l4805 3AD4                                      l5509 5496  
                                    l5541 4A32                                      l5533 4978  
                                    l5517 5CDA                                      l5701 29CE  
                                    l5621 2638                                      l5613 2604  
                                    l5605 25D0                                      l5445 562E  
                                    l5437 55CC                                      l5461 57AA  
                                    l5453 5762                                      l6093 35D6  
                                    l6085 3548                                      l6077 34BE  
                                    l6069 342A                                      l6149 398C  
                                    l6253 5C46                                      l6271 5F26  
                                    l6239 5FCA                                      l6167 6164  
                                    l6175 618C                                      l6191 6138  
                                    l6183 6130                                      l6263 6152  
                                    l6255 6142                                      l6343 5058  
                                    l6335 5012                                      l6327 4FD8  
                                    l6319 4F5C                                      l5295 58CE  
                                    l5287 58A8                                      l5279 5884  
                                    l5375 539E                                      l5367 5328  
                                    l5359 52CC                                      l5199 40C8  
                                    l5383 60B0                                      l4911 3D46  
                                    l4903 3D2A                                      l4831 3B08  
                                    l4823 3AF8                                      l4815 3AE8  
                                    l4807 3AD8                                      l5551 4AEE  
                                    l5535 4986                                      l5543 4A66  
                                    l5527 48EE                                      l4751 56D6  
                                    l4743 568A                                      l5471 5904  
                                    l5711 2A0C                                      l5703 29D2  
                                    l5631 26B4                                      l5615 2608  
                                    l5607 25DE                                      l5447 564E  
                                    l5439 55E0                                      l5463 57D8  
                                    l5455 5780                                      l6095 35E6  
                                    l6079 34E6                                      l6087 355A  
                                    l6247 5C0A                                      l6351 467C  
                                    l6281 5F52                                      l6273 5F2E  
                                    l6177 618E                                      l6169 6184  
                                    l6193 613A                                      l6185 6132  
                                    l6265 6156                                      l6257 6146  
                                    l6345 505A                                      l6337 5016  
                                    l6329 4FE4                                      l5561 5DF0  
                                    l5289 58BE                                      l5297 58D4  
                                    l5369 533A                                      l4921 3D78  
                                    l4913 3D56                                      l4905 3D2C  
                                    l4841 3B5A                                      l4833 3B0C  
                                    l4825 3AFC                                      l4817 3AEC  
                                    l4809 3ADC                                      l4761 39EA  
                                    l5393 51C2                                      l5545 4AA2  
                                    l5529 490E                                      l4753 570C  
                                    l4745 569C                                      l5481 595A  
                                    l5473 5918                                      l5801 2EB0  
                                    l5721 2A5A                                      l5713 2A10  
                                    l5705 29DA                                      l5633 26BE  
                                    l5625 266E                                      l5617 260C  
                                    l5609 25F0                                      l5449 5650  
                                    l5465 57F8                                      l5457 5788  
                                    l6097 3628                                      l6089 3584  
                                    l6249 5C12                                      l6361 46CA  
                                    l6353 4682                                      l5571 5B98  
                                    l6283 5B12                                      l6275 5F3E  
                                    l6267 5F12                                      l6195 613E  
                                    l6187 6134                                      l6179 6124  
                                    l6259 614A                                      l6339 503A  
                                    l5555 60C2                                      l5563 5E04  
                                    l5299 58E4                                      l5379 608A  
                                    l4931 3DD2                                      l4923 3D8E  
                                    l4907 3D3A                                      l4915 3D58  
                                    l4851 3B9E                                      l4843 3B6A  
                                    l4827 3B00                                      l4819 3AF0  
                                    l4835 3B10                                      l4771 3A1E  
                                    l4763 39EC                                      l5395 51EC  
                                    l5387 5198                                      l5491 53A2  
                                    l5547 4AB6                                      l5539 49F6  
                                    l4747 56AE                                      l5483 595E  
                                    l5475 5926                                      l5803 2EB6  
                                    l5811 2EE4                                      l5731 2AF2  
                                    l5715 2A22                                      l5723 2A62  
                                    l5707 29EC                                      l5643 2742  
                                    l5627 2680                                      l5619 2612  
                                    l5467 580A                                      l5459 579C  
                                    l6099 363A                                      l6291 5D9A  
                                    l6371 4750                                      l6363 473E  
                                    l6355 468C                                      l5581 5BDA  
                                    l5573 5BB0                                      l6285 5B1A  
                                    l6277 5F48                                      l6269 5F16  
                                    l6197 5F54                                      l6189 6136  
                                    l5565 5E32                                      l4941 3E4E  
                                    l4933 3E0C                                      l4909 3D42  
                                    l4917 3D66                                      l4853 3BA0  
                                    l4845 3B80                                      l4837 3B14  
                                    l4829 3B04                                      l4781 3A50  
                                    l4765 39FC                                      l4773 3A26  
                                    l4757 39D0                                      l5397 51EE  
                                    l5389 51AE                                      l5493 53C2  
                                    l5549 4ADE                                      l4749 56B8  
                                    l5485 598A                                      l5477 5932  
                                    l5469 58F6                                      l5821 2F9A  
                                    l5813 2F3C                                      l5805 2EC8  
                                    l5741 2BD6                                      l5733 2B4A  
                                    l5725 2A6A                                      l5717 2A30  
                                    l5709 29FE                                      l5661 27DC  
                                    l5645 2754                                      l5629 269C  
                                    l5637 26E6                                      l5901 4B10  
                                    l6461 3280                                      l6293 5DAC  
                                    l6381 47A6                                      l6373 4766  
                                    l6365 4740                                      l6357 4698  
                                    l6349 4678                                      l5583 5BE0  
                                    l5575 5BC2                                      l6287 5B50  
                                    l6279 5F4C                                      l6199 5F62  
                                    l5567 5E36                                      l5559 5DEC  
                                    l6463 4DD4                                      l4951 3E6E  
                                    l4943 3E52                                      l4927 3DB8  
                                    l4935 3E0E                                      l4919 3D6A  
                                    l4871 3C28                                      l4863 3BF0  
                                    l4855 3BAA                                      l4847 3B8C  
                                    l4839 3B3E                                      l4791 3A86  
                                    l4783 3A56                                      l4775 3A36  
                                    l4767 3A0C                                      l4759 39DC  
                                    l5399 51FE                                      l5495 5400  
                                    l5487 599E                                      l5479 5946  
                                    l5831 2FEA                                      l5823 2FB6  
                                    l5815 2F70                                      l5807 2EDA  
                                    l5751 2C70                                      l5743 2C08  
                                    l5735 2B7E                                      l5727 2A7A  
                                    l5719 2A48                                      l5671 28AC  
                                    l5663 2810                                      l5647 2770  
                                    l5639 270C                                      l5655 278C  
                                    l5591 2562                                      l5911 4B7E  
                                    l5903 4B2A                                      l6295 5DB4  
                                    l6391 47F6                                      l6383 47BC  
                                    l6375 4786                                      l6367 474A  
                                    l6359 46AA                                      l5585 5BF0  
                                    l5577 5BC4                                      l6289 5B52  
                                    l4953 3E7C                                      l4945 3E60  
                                    l4937 3E1E                                      l4929 3DC4  
                                    l4873 3C2C                                      l4865 3C00  
                                    l4857 3BCC                                      l4881 3C4C  
                                    l4849 3B90                                      l4793 3A96  
                                    l4785 3A64                                      l4777 3A3C  
                                    l4769 3A1C                                      l5497 5428  
                                    l4961 5ED8                                      l5841 302C  
                                    l5833 2FFA                                      l5825 2FC8  
                                    l5817 2F78                                      l5809 2EDE  
                                    l5761 2D48                                      l5753 2CA4  
                                    l5745 2C1E                                      l5729 2A8E  
                                    l5737 2B84                                      l5681 2916  
                                    l5665 2816                                      l5673 28DE  
                                    l5657 27A6                                      l5593 2572  
                                    l5921 4C76                                      l5913 4BF4  
                                    l5905 4B66                                      l6297 5DBC  
                                    l6393 4806                                      l6385 47C6  
                                    l6377 478E                                      l6369 474E  
                                    l5587 5C02                                      l5579 5BD4  
                                    l4955 3E7E                                      l4947 3E66  
                                    l4939 3E2E                                      l4883 3C72  
                                    l4891 3CC8                                      l4875 3C3A  
                                    l4867 3C0E                                      l4859 3BDC  
                                    l4795 3A98                                      l4787 3A66  
                                    l4779 3A4E                                      l5499 5434  
                                    l4963 5EEA                                      l4971 6028  
                                    l5851 305C                                      l5843 303A  
                                    l5835 300C                                      l5827 2FD6  
                                    l5771 2DA0                                      l5819 2F7C  
                                    l5755 2CFA                                      l5763 2D4C  
                                    l5747 2C50                                      l5739 2BA2  
                                    l5683 291E                                      l5675 28EE  
                                    l5667 2870                                      l5595 2580  
                                    l5923 4C94                                      l5915 4BFA  
                                    l5907 4B6E                                      l6299 5DD8  
                                    l6395 48A4                                      l6387 47D6  
                                    l6379 4796                                      l4981 60FA  
                                    l5941 4D40                                      l5933 4D00  
                                    l4949 3E68                                      l4893 3CEE  
                                    l4885 3CA6                                      l4877 3C3C  
                                    l4869 3C1C                                      l4789 3A76  
                                    l4797 3AA0                                      l4965 5EEE  
                                    l4973 6044                                      l5861 30BE  
                                    l5853 3082                                      l5845 3042  
                                    l5837 3014                                      l5829 2FE6  
                                    l5781 2E46                                      l5773 2E04  
                                    l5765 2D5C                                      l5757 2D00  
                                    l5749 2C60                                      l5693 2962  
                                    l5685 2938                                      l5677 28F2  
                                    l5669 28A4                                      l5597 2588  
                                    l5589 2558                                      l5925 4CAE  
                                    l5917 4C00                                      l5909 4B78  
                                    l6397 48D0                                      l6389 47EC  
                                    l4983 611A                                      l5951 4D9E  
                                    l5943 4D7E                                      l5935 4D14  
                                    l4991 42F8                                      l4895 3CFE  
                                    l4887 3CA8                                      l4879 3C46  
                                    l4799 3AB0                                      l4959 5ECC  
                                    l4967 6018                                      l5871 3104  
                                    l5863 30D8                                      l5855 309E  
                                    l5847 304A                                      l5839 3024  
                                    l5791 2E84                                      l5775 2E12  
                                    l5783 2E4E                                      l5767 2D70  
                                    l5759 2D34                                      l5695 2974  
                                    l5679 2904                                      l5687 2950  
                                    l5599 25AC                                      l5927 4CC8  
                                    l5919 4C64                                      l6399 48DA  
                                    l5961 4E28                                      l5953 4DA6  
                                    l5945 4D82                                      l5937 4D18  
                                    l4993 42FA                                      l4889 3CB8  
                                    l4969 6024                                      l4977 6052  
                                    l5881 3156                                      l5873 3116  
                                    l5865 30DE                                      l5857 30A6  
                                    l5849 3056                                      l5793 2E8A  
                                    l5785 2E62                                      l5777 2E26  
                                    l5769 2D7C                                      l5697 2990  
                                    l5929 4CD6                                      l5955 4DAE  
                                    l5939 4D1C                                      l4995 430A  
                                    l4987 42DE                                      l4899 3D12  
                                    l5891 3194                                      l5883 3168  
                                    l5875 311C                                      l5867 30F0  
                                    l5859 30AC                                      l5795 2E96  
                                    l5787 2E70                                      l5779 2E38  
                                    l5699 29C6                                      l5965 4E6E  
                                    l5957 4DEA                                      l5949 4D88  
                                    l4997 431A                                      l4989 42EA  
                                    l5885 3174                                      l5877 3122  
                                    l5869 30FC                                      l5797 2EA6  
                                    l5789 2E80                                      l5981 54D6  
                                    l5967 4E80                                      l4999 432A  
                                    l5887 317C                                      l5799 2EAA  
                                    l5991 556A                                      l5983 54E4  
                                    l5975 54A0                                      l5969 4E92  
                                    l5889 318E                                      l5985 5500  
                                    l5977 54CA                                      l5897 4B00  
                                    l5995 61A2                                      l5987 5524  
                                    l5899 4B0E                                      l5997 61A4  
                                    l5989 5536                                      l5999 5FD8  
                                    STR_1 2537                                      STR_2 2516  
                                    STR_3 2501                                      STR_4 2527  
                                    STR_5 2544                                      STR_6 254C  
                                    STR_9 2548                                      _LATF 0004C3  
                                    u6000 3D3A                                      u6001 3D36  
                                    _PIE3 0004A1                                      u6010 3D56  
                                    u6011 3D52                                      u6100 3E2E  
                                    u6020 3D66                                      u6101 3E2A  
                                    u6021 3D62                                      u6110 3E4E  
                                    u6030 3D78                                      u6111 3E4A  
                                    u6031 3D74                                      u6200 431A  
                                    u6120 3E60                                      u6040 3D8E  
                                    u7000 5400                                      u6201 4316  
                                    u6121 3E5C                                      u6041 3D8A  
                                    u7001 53FC                                      u6210 435E  
                                    u6130 3E7C                                      u6050 3DA4  
                                    u7010 5428                                      u6211 435A  
                                    u6131 3E78                                      u6051 3DA0  
                                    u7011 5424                                      u6300 44FC  
                                    u6220 4370                                      u6060 3DB8  
                                    u7020 5452                                      u6140 5F0E  
                                    u7100 5D22                                      u6301 44F8  
                                    u6221 436C                                      u6061 3DB4  
                                    u7021 544E                                      u6141 5F0A  
                                    u7101 5D1E                                      u6310 451A  
                                    u6230 4380                                      u6070 3DD2  
                                    u7110 4936                                      u6150 6044  
                                    u6311 4516                                      u6231 437C  
                                    u6071 3DCE                                      u6151 6040  
                                    u6400 4664                                      u6320 453A  
                                    u6240 43C0                                      u6080 3E0C  
                                    u7040 548C                                      u7200 4ADE  
                                    u7120 4964                                      u6160 6082  
                                    u8000 32CE                                      u6401 4660  
                                    u6321 4536                                      u6241 43BC  
                                    u6081 3E08                                      u7041 5486  
                                    u7201 4ADA                                      u7121 4960  
                                    u6161 607C                                      u8001 32CA  
                                    u7210 60F2                                      u6330 454C  
                                    u6250 4400                                      u6410 3EAA  
                                    u6090 3E1E                                      u7050 548E  
                                    u7130 4986                                      u6170 6084  
                                    u8010 32FC                                      u7211 60EC  
                                    u6331 4548                                      u6251 43FC  
                                    u6411 3EA6                                      u6091 3E1A  
                                    u7035 5464                                      u7131 4982  
                                    u7115 492C                                      u8011 32F8  
                                    u7220 60F4                                      u6340 457A  
                                    u6260 4476                                      u6180 42F8  
                                    u6500 416C                                      u6420 3EBC  
                                    u7060 5CC6                                      u7300 2668  
                                    u8100 355A                                      u8020 3354  
                                    u6341 4576                                      u6261 4472  
                                    u6181 42F4                                      u6501 4168  
                                    u6421 3EB8                                      u7301 2662  
                                    u8101 3556                                      u8021 3350  
                                    u7230 5E04                                      u6350 4590  
                                    u6270 4498                                      u6190 430A  
                                    u6510 418C                                      u6430 3ECC  
                                    u7150 49F2                                      u5710 569C  
                                    u7070 5CD8                                      u7310 266A  
                                    u8110 3594                                      u8030 33E6  
                                    u7231 5E00                                      u6351 458C  
                                    u6271 4494                                      u6191 4306  
                                    u6511 4188                                      u6431 3EC8  
                                    u7151 49EE                                      u5711 5698  
                                    u7071 5CD4                                      u8111 3590  
                                    u8031 33E0                                      u7240 5E32  
                                    u6600 5844                                      u6360 45A4  
                                    u6280 44C2                                      u6520 419E  
                                    u6440 3F0C                                      u5800 3A76  
                                    u7160 4A16                                      u5720 56AE  
                                    u7080 5D0A                                      u7400 2904  
                                    u7320 2680                                      u8120 35E6  
                                    u8040 33E8                                      u8200 5C6A  
                                    u7241 5E2E                                      u6601 5840  
                                    u6361 45A0                                      u6281 44BE  
                                    u6521 419A                                      u6441 3F08  
                                    u5801 3A72                                      u7145 499A  
                                    u5721 56AA                                      u7081 5D04  
                                    u7401 2900                                      u7321 267C  
                                    u8121 35E2                                      u8201 5C66  
                                    u8210 5F26                                      u6610 585E  
                                    u6370 45BE                                      u6290 44E6  
                                    u6530 41CC                                      u6450 3F1E  
                                    u5810 3A86                                      u7170 4A32  
                                    u7146 49A4                                      u5730 56D6  
                                    u7090 5D0C                                      u7410 2916  
                                    u7330 270C                                      u7250 2580  
                                    u8130 363A                                      u8050 33FE  
                                    u8211 5F22                                      u6611 585A  
                                    u6371 45BA                                      u6291 44E2  
                                    u6531 41C8                                      u6451 3F1A  
                                    u5811 3A82                                      u7171 4A2E  
                                    u7147 49B4                                      u5731 56D2  
                                    u7067 5CBC                                      u7411 2912  
                                    u7331 2708                                      u7251 257C  
                                    u8131 3636                                      u8051 33FA  
                                    _PIR3 0004B1                                      u8220 5F3E  
                                    u8300 4FD4                                      u6620 5884  
                                    u6700 5A32                                      u6380 4606  
                                    u6540 41E2                                      u6460 3F2E  
                                    u5900 3BCC                                      u5820 3AC2  
                                    u7180 4A86                                      u5740 570C  
                                    u7500 2A22                                      u7420 2938  
                                    u7340 273C                                      u7260 25D0  
                                    u8140 370A                                      u8060 342A  
                                    u8221 5F3A                                      u8301 4FD0  
                                    u6621 5880                                      u6701 5A2E  
                                    u6381 4602                                      u6541 41DE  
                                    u6461 3F2A                                      u5901 3BC8  
                                    u5821 3ABE                                      u7165 4A0C  
                                    u5741 5708                                      u7501 2A1E  
                                    u7421 2934                                      u7341 2736  
                                    u7261 25CC                                      u8141 3706  
                                    u8061 3426                                      u8230 5B4C  
                                    u8310 4FF2                                      u6630 58A2  
                                    u6710 5A56                                      u6390 4636  
                                    u6550 41F6                                      u6470 3F64  
                                    u5910 3BDC                                      u5830 3AD0  
                                    u5750 39EA                                      u7190 4AA2  
                                    u7510 2A30                                      u7430 295E  
                                    u7350 273E                                      u7270 25DE  
                                    u8150 378C                                      u8070 3470  
                                    u8311 4FEE                                      u6631 589E  
                                    u6711 5A52                                      u6391 4632  
                                    u6551 41F2                                      u6471 3F60  
                                    u5911 3BD8                                      u5831 3ACC  
                                    u5751 39E6                                      u7191 4A9E  
                                    u7511 2A2C                                      u7431 295A  
                                    u7271 25DA                                      u8151 3786  
                                    u8071 346C                                      u8240 5B84  
                                    u8320 5002                                      u6640 58BE  
                                    u6720 5A96                                      u6560 4210  
                                    u6480 3F74                                      u6800 60A0  
                                    u5920 3C0E                                      u5840 3B3E  
                                    u5760 39FC                                      u7600 2E12  
                                    u7520 2A5A                                      u7440 2974  
                                    u7360 2754                                      u7280 25F0  
                                    u8160 378E                                      u8080 3542  
                                    u8400 47EC                                      u8321 4FFE  
                                    u6641 58BA                                      u6721 5A92  
                                    u6561 420C                                      u6481 3F70  
                                    u6801 609C                                      u5921 3C0A  
                                    u5841 3B3A                                      u5761 39F8  
                                    u7185 4A7C                                      u7601 2E0E  
                                    u7521 2A56                                      u7441 2970  
                                    u7361 2750                                      u7281 25EC  
                                    u8081 353C                                      u8401 47E8  
                                    u8250 5B94                                      u8330 5010  
                                    u6650 58E4                                      u6730 5AD4  
                                    u6570 4258                                      u6490 4112  
                                    u5930 3C1C                                      u5850 3B56  
                                    u5770 3A0C                                      u6810 51AE  
                                    u7610 2E26                                      u7530 2BA2  
                                    u7450 2990                                      u7370 27D8  
                                    u7290 2638                                      u8170 37A4  
                                    u8090 3544                                      u8251 5B90  
                                    u8331 500C                                      u6651 58E0  
                                    u6731 5AD0                                      u6571 4254  
                                    u5931 3C18                                      u5851 3B50  
                                    u5771 3A08                                      u6811 51AA  
                                    u7611 2E22                                      u7531 2B9E  
                                    u7451 298C                                      u7371 27D4  
                                    u7291 2634                                      u8171 37A0  
                                    u8340 504A                                      u8260 4ECA  
                                    u6660 59CA                                      u6740 5B08  
                                    u6580 4286                                      u5940 3C3A  
                                    u5860 3B58                                      u5780 3A4E  
                                    u6820 51E2                                      u7700 2FD6  
                                    u7620 2E38                                      u7540 2C08  
                                    u7460 29C6                                      u7380 286C  
                                    u6900 55EE                                      u8180 3874  
                                    u8237 5B42                                      u8341 5046  
                                    u8261 4EC6                                      u6661 59C6  
                                    u6741 5B04                                      u6581 4282  
                                    u5941 3C36                                      u5781 3A4A  
                                    u7701 2FD2                                      u7621 2E34  
                                    u7541 2C04                                      u7461 29C2  
                                    u7381 2868                                      u6901 55EA  
                                    u8181 3870                                      u8350 5058  
                                    u8270 4ED8                                      u6670 59E4  
                                    u6750 52CC                                      u6590 42C0  
                                    u5950 3C72                                      u5870 3B80  
                                    u5790 3A64                                      u6830 5210  
                                    u7710 300C                                      u7630 2E46  
                                    u7550 2C50                                      u7470 29EC  
                                    u7390 28DE                                      u6910 562E  
                                    u8190 3938                                      u8247 5B7A  
                                    u8351 5054                                      u8271 4ED4  
                                    u6671 59E0                                      u6751 52C8  
                                    u6591 42BC                                      u6495 4108  
                                    u5951 3C6E                                      u5871 3B7C  
                                    u5791 3A60                                      u6831 520C  
                                    u7711 3008                                      u7631 2E42  
                                    u7551 2C4C                                      u7471 29E8  
                                    u7391 28DA                                      u6911 562A  
                                    u8191 3934                                      u8280 4F34  
                                    u6680 59FE                                      u6760 530A  
                                    u5960 3CB8                                      u5880 3B9E  
                                    u6840 5224                                      u7720 303A  
                                    u7640 2E62                                      u7560 2C60  
                                    u7480 29FE                                      u6920 5780  
                                    u7800 4B2A                                      u8360 46AA  
                                    u8417 5FA4                                      u8281 4F30  
                                    u6681 59FA                                      u6761 5306  
                                    u5961 3CB4                                      u5881 3B9A  
                                    u6841 5220                                      u6825 51D8  
                                    u7721 3036                                      u7641 2E5E  
                                    u7561 2C5C                                      u7481 29FA  
                                    u6921 577C                                      u7801 4B26  
                                    u8361 46A6                                      u8290 4F8A  
                                    u6690 5A1C                                      u6770 5328  
                                    u5970 3CEE                                      u5890 3BBE  
                                    u6850 524C                                      u7730 30BE  
                                    u7650 2E70                                      u7570 2CFA  
                                    u7490 2A0C                                      u6930 57AA  
                                    u7810 4C76                                      u8370 4766  
                                    u8427 5BB8                                      u8291 4F86  
                                    u6691 5A18                                      u6771 5324  
                                    u5971 3CEA                                      u5891 3BBA  
                                    u6851 5248                                      u7731 30BA  
                                    u7651 2E6C                                      u7571 2CF6  
                                    u7491 2A08                                      u6931 57A6  
                                    u7811 4C72                                      u8371 4762  
                                    u7900 4E6A                                      u6780 5348  
                                    u5980 3CFE                                      u6860 526C  
                                    u7740 30D8                                      u7660 2EC8  
                                    u7580 2D48                                      u6940 57D8  
                                    u7820 4C94                                      u8380 47A6  
                                    u8437 5BCA                                      u6781 5344  
                                    u5981 3CFA                                      u6861 5268  
                                    u7741 30D4                                      u7661 2EC4  
                                    u7581 2D44                                      u6941 57D4  
                                    u7821 4C90                                      u8381 47A2  
                                    u7910 4E80                                      u6790 5398  
                                    u5990 3D2A                                      u6870 527C  
                                    u6950 5904                                      u7750 30F0  
                                    u7670 2F9A                                      u7590 2D70  
                                    u7830 4CAE                                      u8390 47BC  
                                    u8447 5BE6                                      u7911 4E7C  
                                    u6791 5394                                      u5991 3D26  
                                    u6871 5278                                      u6951 5900  
                                    u7751 30EC                                      u7671 2F96  
                                    u7591 2D6C                                      u7831 4CAA  
                                    u8391 47B8                                      u7920 4E92  
                                    u6960 5926                                      u7760 3150  
                                    u7680 2FB6                                      u7840 4CC8  
                                    u8457 5BF8                                      u7921 4E8E  
                                    u6961 5922                                      u7761 314A  
                                    u7681 2FB2                                      u6881 55A0  
                                    u7841 4CC4                                      u6970 597C  
                                    u7770 3152                                      u7690 2FC8  
                                    u7930 54CA                                      u6890 55C4  
                                    u7850 4CD6                                      u6971 5978  
                                    u7691 2FC4                                      u7931 54C6  
                                    u6891 55C0                                      u7851 4CD2  
                                    u7860 4D40                                      u6980 598A  
                                    u7780 3168                                      u7940 5500  
                                    u7861 4D3C                                      u6981 5986  
                                    u7781 3164                                      u7941 54FC  
                                    u7870 4D7E                                      u6990 53E2  
                                    u7950 5524                                      u7790 4B0E  
                                    u7871 4D7A                                      u7951 5520  
                                    u7791 4B0A                                      u7880 4D9A  
                                    u7960 5536                                      u7881 4D96  
                                    u7961 5532                                      u7890 4E68  
                                    u7970 556A                                      u7891 4E62  
                                    u6995 53D8                                      u7971 5566  
                                    u7980 31E2                                      u7981 31DE  
                                    u7990 32C0                                      u7991 32BC  
                                    _TMR0 000318                __end_of_FM_Lcd_Send_Nibble 5C0A  
                       ?_FM_Hfintosc_Init 0504                                      _dbuf 060C  
                                    _atoi 4D00                                      _main 4678  
            FM_Lcd_Send_Nibble@upper_bits 0506                                      _prec 0559  
                                    _nout 05E5                                      pad@i 051B  
                                    pad@p 0518                                      fsr1h 0004E2  
                                    fsr2h 0004DA                                      indf1 0004E7  
                                    indf2 0004DF                                      fsr1l 0004E1  
                                    pad@w 051D                                      fsr2l 0004D9  
                      ??_FM_Hfintosc_Init 0506                __end_of_FM_Lcd_Send_String 5B96  
                                    _utoa 4B00                   ??_FM_Lcd_Send_Character 0508  
                           ___fpclassifyf 53A2                                      prodh 0004F4  
                                    prodl 0004F3                                      start 001A  
  FM_Lcd_Send_Character@character_to_send 0508                           ___fldiv@new_exp 0523  
                    ?_Detect_Falling_Edge 0501                              _tolower$1049 0510  
                    __size_of_System_Init 001A                     _FM_Lcd_Easy_Gpio_Init 6192  
                            ___param_bank 000000                                     ??_ISR 0504  
                                   ??_pad 051A                  __end_of_Init_ADCC_Module 5F96  
                       ?_Init_Gpio_System 0501                 __size_of_FM_Lcd_Easy_Init 0042  
                       ??_Init_Interrupts 0504                             ___fltol@sign1 054C  
                                   _ADACQ 0003EE                                     ?_atoi 050B  
                         __end_of___fladd 3E90                                     ?_main 0501  
                                   _ADCLK 0003FA                                     _ADPCH 0003EC  
                         __end_of___fldiv 4678                                     _ADREF 0003F8  
                         __end_of___awdiv 58F6                           __end_of___flneg 60C2  
                                   _ADPRE 0003F1                                     STR_10 2550  
                                   STR_13 2554                                     STR_15 2554  
                         __end_of___awmod 5A68                           __end_of___flmul 42DE  
                         __end_of___flsub 5ECC                           __end_of___fltol 529E  
                                   ?_utoa 051F               __end_of_FM_Lcd_Send_Command 61AC  
                         __end_of___lodiv 568A                           ___awdiv@divisor 0506  
                         __end_of___lomod 5832                                     i2l103 518E  
                                   i2l105 5196                                     i2l128 5D7C  
                                   i2l129 5D98                           ___awdiv@counter 0508  
                      ??_Init_Gpio_System 0504                              vfpfcnvrt@fmt 059F  
                            vfpfcnvrt@llu 05A7                                     _PORTB 0004CF  
                                   _TRISA 0004C6                                     _TRISB 0004C7  
                                   _TRISF 0004CB          Init_Internal_Oscillator@my_clock 0507  
                                   _flags 055B                                     _fputc 568A  
                                   _fputs 5ECC                           __end_of_isdigit 60FA  
                                   atoi@n 0518                                     pad@fp 0514  
                                   atoi@s 050B                                     _width 05E7  
                                   _putch 61B8                           __end_of_isspace 5E3E  
                         __end_of_isupper 608A  Detect_Falling_Edge@falling_edge_detected 0501  
                                   tablat 0004F5             __size_of_Init_Timer0_As_Timer 001E  
                                   utoa@d 0521                                     utoa@i 053D  
                                   utoa@n 0535                                     utoa@p 0531  
                                   utoa@w 0533                                     status 0004D8  
                         __end_of_sprintf 5DEC                            ?___fpclassifyf 0504  
                         __end_of_tolower 5D3A                           __end_of_strncmp 559A  
                        ___lodiv@dividend 0504                     ??_Detect_Falling_Edge 0501  
                         __initialization 5E3E                              __end_of_atoi 4EB8  
                            __end_of_main 48EE                              __end_of_utoa 4D00  
           Detect_Falling_Edge@past_value 05F5                                    ??_atoi 050D  
                                  ??_main 05D7                                    ??_utoa 0529  
                           __activetblptr 000003                          ___lodiv@quotient 0514  
                                  _ADCON0 0003F3                                    _ADCON1 0003F4  
                                  _ADCON2 0003F5                                    ?_fputc 0504  
                                  ?_fputs 050D                                    _ADRESH 0003EB  
                                  _ADRESL 0003EA                          ___awdiv@dividend 0504  
                                  _ANSELA 000400                                    ?_putch 0501  
                                  _ANSELB 000408                                    _ANSELF 000428  
                                  _T0CON0 00031A                                    _T0CON1 00031B  
                                  i2l4501 5D78                                    i2l4503 5D92  
                                  i2l4601 506C                                    i2l4611 50DE  
                                  i2l4603 507A                                    i2l4621 5130  
                                  i2l4613 5104                                    i2l4605 50A6  
                                  i2l4623 5140                                    i2l4615 5108  
                                  i2l4607 50AA                                    i2l4625 5166  
                                  i2l4617 5114                                    i2l4609 50C0  
                                  i2l4627 5186                                    i2l4619 5128  
                                  i2l4629 5194                                    i2l4497 5D3A  
                                  i2l4499 5D68                             vfpfcnvrt@done 05AF  
                        __end_of___xxtofl 506C                    ?_FM_Lcd_Easy_Gpio_Init 0501  
                            vfprintf@cfmt 0557                                    ___flge 529E  
                                  ___fleq 5A68                                 ??___fladd 050C  
                                  ___wmul 60FA                                 ??___fldiv 051A  
                               ??___awdiv 0508                                 ??___flneg 0508  
                               ??___awmod 0508                                 ??___flmul 0533  
                               ??___flsub 054C                                 ??___fltol 0548  
                               ??___lodiv 0514                                 ??___lomod 0514  
                                  _efgtoa 2558                                    _floorf 48EE  
                                  clear_0 5E58                                    clear_1 5E64  
                        ___awdiv@quotient 050A                           ___awmod@divisor 0506  
                                  isa$std 000001                           ___awmod@counter 0508  
                                  pad@buf 0516                                    _strcpy 5C74  
                                  _strlen 6018                            _sample_counter 05EB  
                                  fputc@c 0504                                    fputs@c 0511  
                                  fputs@i 0512                                    fputs@s 050D  
                               ??_isdigit 0506                           ___fpclassifyf@e 050C  
                         ___fpclassifyf@u 050E                           ___fpclassifyf@x 0504  
                            __mediumconst 0000                                 ??_isspace 0506  
                                  tblptrh 0004F7                                 ??_isupper 0506  
                                  tblptrl 0004F6                                    tblptru 0004F8  
                                  putch@c 0501                          __end_of_vfprintf 5C74  
                                  utoa@fp 051F                                 ??_sprintf 0559  
                               ??_tolower 050C                                 ??_strncmp 050A  
                              ___flge@ff1 0544                                ___flge@ff2 0548  
                         ??___fpclassifyf 0508                              ___xxtofl@arg 050E  
                            ___xxtofl@exp 050D                              ___xxtofl@val 0504  
                              ___fleq@ff1 0504                                ___fleq@ff2 0508  
                              __accesstop 0560                   __end_of__initialization 5E80  
                              ___flneg@f1 0504                             ___rparam_used 000001  
                              ___fltol@f1 0544                            __pcstackCOMRAM 0501  
                            __pidataBANK5 61BA                             __end_of_fputc 5762  
                           __end_of_fputs 5F10                             __end_of_putch 61BA  
                        _FM_Lcd_Easy_Init 5F96              FM_Hfintosc_Init@clock_params 0504  
                                 ??_fputc 0508                                   ??_fputs 0511  
                                 ??_putch 0504                                __pbssBANK5 05D9  
                              __pbssBANK6 0600                                   IVTBASEH 00045E  
                                 IVTBASEL 00045D                                   IVTBASEU 00045F  
          __size_of_FM_Lcd_Send_Character 000C                           _Init_Interrupts 6184  
           __end_of_FM_Lcd_Send_Character 61B8                                _efgtoa$881 0565  
                              _efgtoa$882 0567                                _efgtoa$891 056B  
                              _efgtoa$892 056D                                _efgtoa$893 056F  
                              _efgtoa$887 0569                                   ?___flge 0544  
                                 ?___fleq 0504                        _FM_Lcd_Send_Nibble 5B96  
                                 ?___wmul 0504                                   ?_efgtoa 0550  
               __size_of_FM_Hfintosc_Init 0040                                   ?_floorf 052B  
       __size_of_Init_Internal_Oscillator 0016                        _FM_Lcd_Send_String 5B12  
               ?_Init_Internal_Oscillator 0501                         ?_Init_ADCC_Module 0501  
        Detect_Falling_Edge@current_value 0503                                   ?_strcpy 0504  
                                 ?_strlen 0504                       ?_FM_Lcd_Send_Nibble 0501  
                      ??_Init_ADCC_Module 0504                                   _INTCON0 0004D6  
                               ?___xxtofl 0504                       ?_FM_Lcd_Send_String 0509  
                      __size_of_vfpfcnvrt 081A                                _average_ms 05E9  
                        ___lomod@dividend 0504                 __size_of_Init_Gpio_System 0012  
                    ??_FM_Lcd_Send_Nibble 0504                             ??_System_Init 050B  
                    ??_FM_Lcd_Send_String 050B                                   __Hparam 0000  
                                 __Lparam 0000                           __size_of___flge 0104  
                         __size_of___fleq 00AA                                   ___fladd 39D0  
                                 ___fldiv 42DE                                   ___awdiv 5832  
                                 ___flneg 608A                                   ___awmod 59B8  
                                 ___flmul 3E90                                   ___flsub 5E86  
                                 ___fltol 5198                           __size_of___wmul 002A  
                                 ___lodiv 559A                                   ___lomod 5762  
                               ?_vfprintf 05BF                              __psmallconst 2500  
                         __size_of_efgtoa 0C5E              __end_of_Init_Timer0_As_Timer 6142  
                         __size_of_floorf 0212                                   __pcinit 5E3E  
                                 __ramtop 2500                                   __ptext0 4678  
                                 __ptext1 5D9A                                   __ptext2 5C0A  
                                 __ptext3 31B6                                   __ptext4 4B00  
                                 __ptext5 5762                                   __ptext6 559A  
                                 __ptext7 54A0                                   __ptext8 2558  
                                 __ptext9 5CDA                           __size_of_strcpy 0066  
                         __size_of_strlen 003A                              __size_of_ISR 012C  
                            __size_of_pad 00C2                                   _isdigit 60C2  
                              ??___xxtofl 0508                          ___awmod@dividend 0504  
                                 _isspace 5DEC                                   _isupper 6052  
                                 efgtoa@c 0556                                   efgtoa@d 057D  
                                 efgtoa@e 0595                                   efgtoa@f 0552  
                                 efgtoa@g 0591                                   efgtoa@h 0587  
                                 efgtoa@i 058F                                   efgtoa@l 058B  
                                 efgtoa@m 0577                                   efgtoa@n 0597  
                                 efgtoa@p 0581                                   efgtoa@t 0571  
                                 efgtoa@u 0599                                   efgtoa@w 0583  
                                 atoi@neg 0511                                   _sprintf 5D9A  
                                 _tolower 5CDA              __size_of_FM_Lcd_Send_Command 000C  
                                 main@rpm 066C                                   _strncmp 54A0  
                    end_of_initialization 5E80               __end_of_Detect_Falling_Edge 5D9A  
                                 floorf@e 0539                                   floorf@m 0535  
                                 floorf@u 053B                                   floorf@x 052B  
                 __end_of_Init_Interrupts 6192                   ??_FM_Lcd_Easy_Gpio_Init 0504  
                                 fputc@fp 0506                                   fputs@fp 050F  
                       __end_of_vfpfcnvrt 39D0                                efgtoa@mode 0586  
                              efgtoa@sign 057F                                   postdec2 0004DD  
                                 postinc0 0004EE                                   postinc1 0004E6  
                                 postinc2 0004DE                       __end_of_System_Init 615C  
                              ??_vfprintf 0557                   _Detect_Falling_Edge$181 0502  
                                 strcpy@d 050C                                   strlen@a 0506  
                                 strcpy@s 050A                                   strlen@s 0504  
                              _print_flag 05F2                    FM_Lcd_Set_Cursor@filas 050A  
                             ___fladd@grs 0513                             ___xxtofl@sign 050C  
                             ___fldiv@grs 0525                               ___fldiv@rem 051E  
                             ___flmul@grs 0539                  __end_of_FM_Lcd_Easy_Init 5FD8  
               FM_Lcd_Set_Cursor@base_pos 050B                          _FM_Hfintosc_Init 5FD8  
                          __end_of___flge 53A2                            __end_of___fleq 5B12  
                             vfpfcnvrt@ap 05A1                               vfpfcnvrt@ct 05BB  
                             vfpfcnvrt@fp 059D                            __end_of___wmul 6124  
                          __end_of_efgtoa 31B6                            __end_of_floorf 4B00  
                              floorf@F527 0608                            __end_of_strcpy 5CDA  
                          __end_of_strlen 6052                       start_initialization 5E3E  
                         ___lodiv@divisor 050C                              _indicador_ms 05F3  
                         ___lodiv@counter 051C                               __end_of_ISR 5198  
                             __end_of_pad 59B8                                ivt0x8_base 0008  
                        _Init_Gpio_System 6172                          ?_Init_Interrupts 0501  
                    _Init_Timer0_As_Timer 6124                  FM_Lcd_Send_String@cadena 0509  
                   __end_of___fpclassifyf 54A0          __end_of_Init_Internal_Oscillator 6172  
                             _System_Init 6142                               vfprintf@fmt 05C1  
                                ??___flge 054C                                  ??___fleq 050C  
                                ??___wmul 0508                                  ??_efgtoa 0560  
                             __pdataBANK5 05F5                                  ??_floorf 052F  
                                ??_strcpy 0508                                  ??_strlen 0506  
                               ___fladd@a 0508                                 ___fladd@b 0504  
                               ___fldiv@a 0516                                 ___fldiv@b 0512  
                               ___flmul@a 052F                                 ___flmul@b 052B  
                             __pbssCOMRAM 0559                                 ___flsub@a 0548  
                               ___flsub@b 0544                             __pcstackBANK5 0560  
                           __pcstackBANK6 066C                         __size_of___xxtofl 01B4  
               __size_of_Init_ADCC_Module 0042                     ?_Init_Timer0_As_Timer 0501  
                               _main$1251 0670                     _FM_Lcd_Send_Character 61AC  
                                ?___fladd 0504                                  ?___fldiv 0512  
                                ?___awdiv 0504                                  ?___flneg 0504  
                                ?___awmod 0504                                  ?___flmul 052B  
                     _FM_Lcd_Send_Command 61A0                                  ?___flsub 0544  
                                ?___fltol 0544                                  ?___lodiv 0504  
                       _FM_Lcd_Set_Cursor 5F10                                  ?___lomod 0504  
                      ?_FM_Lcd_Set_Cursor 0509                         __size_of_vfprintf 006A  
      FM_Lcd_Send_Command@command_to_send 0508                           ___lomod@divisor 050C  
                             __smallconst 2500                           ___lomod@counter 0514  
                                ?_isdigit 0504                                  ?_isspace 0504  
                     ??_FM_Lcd_Set_Cursor 050A                                  ?_isupper 0504  
                    ?_FM_Lcd_Send_Command 0501                                  ?_sprintf 05C5  
                                ?_tolower 050A                            __size_of_fputc 00D8  
                          __size_of_fputs 0044                                  ?_strncmp 0504  
                          __size_of_putch 0002                            ___wmul@product 0508  
             __size_of_FM_Lcd_Send_Nibble 0074            __size_of_FM_Lcd_Easy_Gpio_Init 000E  
           __end_of_FM_Lcd_Easy_Gpio_Init 61A0               __size_of_FM_Lcd_Send_String 0084  
                                i2u540_40 5D8E                                  i2u540_41 5D88  
                                i2u541_40 5D90                                  i2u536_40 5D4E  
                                i2u560_40 50D4                                  i2u536_41 5D48  
                                i2u537_40 5D50                                  i2u561_40 5104  
                                i2u561_41 5100                                  i2u538_40 5D68  
                                i2u538_41 5D64                                  i2u562_41 510E  
                                i2u539_40 5D78                                  i2u563_40 5128  
                                i2u539_41 5D74                                  i2u563_41 5124  
                                i2u564_41 5136                                  i2u565_40 5166  
                                i2u557_40 507A                                  i2u565_41 5162  
                                i2u557_41 5076                                  i2u558_40 50C0  
                                i2u558_41 50BC                 __end_of_FM_Lcd_Set_Cursor 5F54  
                                i2u559_40 50D2                                  i2u559_41 50CC  
                _Init_Internal_Oscillator 615C                               _led_counter 0600  
                               _vfpfcnvrt 31B6                         ___wmul@multiplier 0504  
                             _contador_ms 05ED                     ??_FM_Lcd_Send_Command 0508  
                              vfpfcnvrt@c 05BE                                vfpfcnvrt@f 05B7  
                  ??_Init_Timer0_As_Timer 0504                  __end_of_FM_Hfintosc_Init 6018  
                       ?_FM_Lcd_Easy_Init 0501                              _refresh_flag 05F1  
                      ??_FM_Lcd_Easy_Init 0509                   FM_Lcd_Send_String@index 050D  
                                __Hrparam 0000              __size_of_Detect_Falling_Edge 0060  
                  ?_FM_Lcd_Send_Character 0501                                vfprintf@ap 05C3  
                                __Lrparam 0000                                vfprintf@fp 05BF  
                        __size_of___fladd 04C0                          __size_of___fldiv 039A  
                        __size_of___awdiv 00C4                          __size_of___flneg 0038  
                        __size_of___awmod 00B0                          __size_of___flmul 044E  
                        __size_of___flsub 0046                          __size_of___fltol 0106  
                        __size_of___lodiv 00F0                          __size_of___lomod 00D0  
                              ?_vfpfcnvrt 059D                  __end_of_Init_Gpio_System 6184  
                      ___fpclassifyf@F465 05E1                                sprintf@fmt 05C7  
                                ___xxtofl 4EB8                                  _atoi$954 0513  
                                _atoi$955 0517                                  _atoi$956 0515  
                        __size_of_isdigit 0038                                  __pivt0x8 0008  
                        __size_of_isspace 0052                                  __ptext10 6052  
                                __ptext11 5C74                                  __ptext20 5E86  
                                __ptext12 58F6                                  __ptext21 39D0  
                                __ptext13 6018                                  __ptext30 5DEC  
                                __ptext22 608A                                  __ptext14 5ECC  
                                __ptext31 60C2                                  __ptext23 3E90  
                                __ptext15 568A                                  __ptext40 5F54  
                                __ptext32 60FA                                  __ptext24 529E  
                                __ptext16 61B8                                  __ptext41 5F96  
                                __ptext33 4EB8                                  __ptext25 5A68  
                                __ptext17 48EE                                  __ptext42 6192  
                                __ptext34 6142                                  __ptext26 42DE  
                                __ptext18 53A2                                  __ptext43 5F10  
                                __ptext35 6124                                  __ptext27 59B8  
                                __ptext19 5198                                  __ptext44 61A0  
                                __ptext36 6184                                  __ptext28 5832  
                                __ptext45 5B12                                  __ptext37 615C  
                                __ptext29 4D00                                  __ptext46 61AC  
                                __ptext38 5FD8                                  __ptext47 5B96  
                                __ptext39 6172                                  __ptext48 506C  
                                __ptext49 5D3A                          __size_of_isupper 0038  
                        _Init_ADCC_Module 5F54                          __size_of_sprintf 0052  
                        __size_of_tolower 0060                               _OSCCON1bits 0000AD  
                              strcpy@dest 0504                          __size_of_strncmp 00FA  
                           __size_of_atoi 01B8                             __size_of_main 0276  
                         main@val_percent 0676                             __size_of_utoa 0200  
                            ?_System_Init 0501                                  efgtoa@fp 0550  
                                efgtoa@ne 0575                __size_of_FM_Lcd_Set_Cursor 0044  
                                efgtoa@pp 0573                                  efgtoa@ou 0579  
                                isa$xinst 000000                                  _vfprintf 5C0A  
                             _isspace$985 050A                                  isdigit@c 0504  
                                intlevel2 0000                                 sprintf@ap 05CF  
                                isspace@c 0504            FM_Lcd_Send_Nibble@byte_to_send 0505  
                               strcpy@src 0506                                  isupper@c 0504  
                               strncmp@_l 0504                                 strncmp@_r 0506  
                           _print_counter 05EF                  __size_of_Init_Interrupts 000E  
                              _OSCFRQbits 0000B1                               efgtoa@nmode 0585  
                             ??_vfpfcnvrt 05A3                             _vfpfcnvrt$914 05B1  
                           _vfpfcnvrt$915 05B3                             _vfpfcnvrt$919 05B5  
                                sprintf@f 05D1                                  tolower@c 050A  
                                sprintf@s 05C5                    __size_of___fpclassifyf 00FE  
                                strncmp@l 050B                                  strncmp@n 0508  
                                strncmp@r 050D                             ___fladd@signs 0510  
                FM_Lcd_Set_Cursor@columna 0509                               _rpm_counter 05D9  
              ??_Init_Internal_Oscillator 0507                              ___fladd@aexp 0511  
                            ___fladd@bexp 0512              FM_Lcd_Send_Nibble@lower_bits 0507  
