

Microchip MPLAB XC8 Assembler V2.41 build 20230208172133 
                                                                                               Wed Jun 28 21:01:52 2023

Microchip MPLAB XC8 C Compiler v2.41 (Free license) build 20230208172133 Og1 
     1                           	processor	18F57Q43
     2                           	fnconf	rparam,??,?,0
     3                           	pagewidth 120
     4                           	opt	flic
     5                           	psect	smallconst,global,reloc=2,class=SMALLCONST,delta=1,noexec
     6                           	psect	cinit,global,reloc=2,class=CODE,delta=1
     7                           	psect	bssCOMRAM,global,class=COMRAM,space=1,delta=1,lowdata,noexec
     8                           	psect	bssBANK5,global,class=BANK5,space=1,delta=1,lowdata,noexec
     9                           	psect	cstackCOMRAM,global,class=COMRAM,space=1,delta=1,lowdata,noexec
    10                           	psect	text0,global,reloc=2,class=CODE,delta=1
    11                           	psect	text1,global,reloc=2,class=CODE,delta=1,group=3
    12                           	psect	text2,global,reloc=2,class=CODE,delta=1,group=1
    13                           	psect	text3,global,reloc=2,class=CODE,delta=1,group=1
    14                           	psect	text4,global,reloc=2,class=CODE,delta=1,group=1
    15                           	psect	text5,global,reloc=2,class=CODE,delta=1,group=1
    16                           	psect	text6,global,reloc=2,class=CODE,delta=1,group=3
    17                           	psect	text7,global,reloc=2,class=CODE,delta=1,group=3
    18                           	psect	text8,global,reloc=2,class=CODE,delta=1,group=3
    19                           	psect	text9,global,reloc=2,class=CODE,delta=1,group=2
    20                           	psect	text10,global,reloc=2,class=CODE,delta=1,group=2
    21                           	psect	text11,global,reloc=2,class=CODE,delta=1,group=1
    22                           	psect	text12,global,reloc=2,class=CODE,delta=1,group=2
    23                           	psect	text13,global,reloc=2,class=CODE,delta=1,group=2
    24                           	psect	text14,global,reloc=2,class=CODE,delta=1,group=2
    25                           	psect	text15,global,reloc=2,class=CODE,delta=1,group=2
    26                           	psect	text16,global,reloc=2,class=CODE,delta=1,group=2
    27                           	psect	text17,global,reloc=2,class=CODE,delta=1
    28                           	psect	text18,global,reloc=2,class=CODE,delta=1
    29                           	psect	text19,global,reloc=2,class=CODE,delta=1
    30                           	psect	text20,global,reloc=2,class=CODE,delta=1
    31                           	psect	text21,global,reloc=2,class=CODE,delta=1
    32                           	psect	text22,global,reloc=2,class=CODE,delta=1
    33                           	psect	text23,global,reloc=2,class=CODE,delta=1
    34                           	psect	text24,global,reloc=2,class=CODE,delta=1
    35                           	psect	text25,global,reloc=2,class=CODE,delta=1
    36                           	psect	text26,global,reloc=2,class=CODE,delta=1
    37                           	psect	text27,global,reloc=2,class=CODE,delta=1
    38                           	psect	intsave_regs,global,class=BIGRAM,space=1,delta=1,noexec
    39                           	psect	rparam,global,class=COMRAM,space=1,delta=1,noexec
    40                           	psect	idloc,global,abs,ovrld,class=IDLOC,space=5,delta=1,noexec
    41                           	psect	config,global,abs,ovrld,class=CONFIG,space=4,delta=1,noexec
    42   000000                     
    43                           ; Generated 17/06/2022 GMT
    44                           ; 
    45                           ; Copyright © 2022, Microchip Technology Inc. and its subsidiaries ("Microchip")
    46                           ; All rights reserved.
    47                           ; 
    48                           ; This software is developed by Microchip Technology Inc. and its subsidiaries ("Microch
      +                          ip").
    49                           ; 
    50                           ; Redistribution and use in source and binary forms, with or without modification, are
    51                           ; permitted provided that the following conditions are met:
    52                           ; 
    53                           ;     1. Redistributions of source code must retain the above copyright notice, this lis
      +                          t of
    54                           ;        conditions and the following disclaimer.
    55                           ; 
    56                           ;     2. Redistributions in binary form must reproduce the above copyright notice, this 
      +                          list
    57                           ;        of conditions and the following disclaimer in the documentation and/or other
    58                           ;        materials provided with the distribution. Publication is not required when
    59                           ;        this file is used in an embedded application.
    60                           ; 
    61                           ;     3. Microchip's name may not be used to endorse or promote products derived from th
      +                          is
    62                           ;        software without specific prior written permission.
    63                           ; 
    64                           ; THIS SOFTWARE IS PROVIDED BY MICROCHIP "AS IS" AND ANY EXPRESS OR IMPLIED WARRANTIES,
    65                           ; INCLUDING, BUT NOT LIMITED TO, THE IMPLIED WARRANTIES OF MERCHANTABILITY AND FITNESS F
      +                          OR
    66                           ; PURPOSE ARE DISCLAIMED.  IN NO EVENT SHALL MICROCHIP BE LIABLE FOR ANY DIRECT, INDIREC
      +                          T,
    67                           ; INCIDENTAL, SPECIAL, EXEMPLARY, OR CONSEQUENTIAL DAMAGES (INCLUDING BUT NOT LIMITED TO
    68                           ; PROCUREMENT OF SUBSTITUTE GOODS OR SERVICES; LOSS OF USE, DATA OR PROFITS; OR BUSINESS
    69                           ; INTERRUPTION) HOWSOEVER CAUSED AND ON ANY THEORY OF LIABILITY, WHETHER IN CONTRACT, ST
      +                          RICT
    70                           ; LIABILITY, OR TORT (INCLUDING NEGLIGENCE OR OTHERWISE) ARISING IN ANY WAY OUT OF THE U
      +                          SE OF
    71                           ; THIS SOFTWARE, EVEN IF ADVISED OF THE POSSIBILITY OF SUCH DAMAGE.
    72                           ; 
    73                           ; 
    74                           ; Code-generator required, PIC18F57Q43 Definitions
    75                           ; 
    76                           ; SFR Addresses
    77   000000                     _OSCCON1bits	set	173
    78   000000                     _ADRESL	set	1002
    79   000000                     _ADRESH	set	1003
    80   000000                     _ADCON0	set	1011
    81   000000                     _ADREF	set	1016
    82   000000                     _ADCLK	set	1018
    83   000000                     _ADCON2	set	1013
    84   000000                     _ADCON1	set	1012
    85   000000                     _LATF	set	1219
    86   000000                     _ADACQ	set	1006
    87   000000                     _ADPRE	set	1009
    88   000000                     _ADPCH	set	1004
    89   000000                     _TRISA	set	1222
    90   000000                     _ANSELA	set	1024
    91   000000                     _TRISF	set	1227
    92   000000                     _ANSELF	set	1064
    93   000000                     _OSCFRQbits	set	177
    94                           
    95                           	psect	smallconst
    96   002600                     __psmallconst:
    97                           	callstack 0
    98   002600  00                 	db	0
    99   002601                     STR_1:
   100                           
   101                           ; BSR set to: 4
   102   002601  50                 	db	80	;'P'
   103   002602  46                 	db	70	;'F'
   104   002603  20                 	db	32
   105   002604  4D                 	db	77	;'M'
   106   002605  4F                 	db	79	;'O'
   107   002606  54                 	db	84	;'T'
   108   002607  4F                 	db	79	;'O'
   109   002608  52                 	db	82	;'R'
   110   002609  20                 	db	32
   111   00260A  52                 	db	82	;'R'
   112   00260B  50                 	db	80	;'P'
   113   00260C  4D                 	db	77	;'M'
   114   00260D  00                 	db	0
   115   00260E                     STR_2:
   116                           
   117                           ; BSR set to: 4
   118   00260E  56                 	db	86	;'V'
   119   00260F  3D                 	db	61	;'='
   120   002610  25                 	db	37
   121   002611  2D                 	db	45
   122   002612  33                 	db	51	;'3'
   123   002613  75                 	db	117	;'u'
   124   002614  25                 	db	37
   125   002615  25                 	db	37
   126   002616  00                 	db	0
   127   002617  00                 	db	0	; dummy byte at the end
   128   000000                     
   129                           ; #config settings
   130                           
   131                           	psect	cinit
   132   003AEE                     __pcinit:
   133                           	callstack 0
   134   003AEE                     start_initialization:
   135                           	callstack 0
   136   003AEE                     __initialization:
   137                           	callstack 0
   138                           
   139                           ; Clear objects allocated to BANK5 (48 bytes)
   140   003AEE  EE01  F160         	lfsr	0,__pbssBANK5
   141   003AF2  0E30               	movlw	48
   142   003AF4                     clear_0:
   143   003AF4  6AEE               	clrf	postinc0,c
   144   003AF6  06E8               	decf	wreg,f,c
   145   003AF8  E1FD               	bnz	clear_0
   146                           
   147                           ; Clear objects allocated to COMRAM (5 bytes)
   148   003AFA  6A5B               	clrf	(__pbssCOMRAM+4)& (0+255),c
   149   003AFC  6A5A               	clrf	(__pbssCOMRAM+3)& (0+255),c
   150   003AFE  6A59               	clrf	(__pbssCOMRAM+2)& (0+255),c
   151   003B00  6A58               	clrf	(__pbssCOMRAM+1)& (0+255),c
   152   003B02  6A57               	clrf	__pbssCOMRAM& (0+255),c
   153   003B04                     end_of_initialization:
   154                           	callstack 0
   155   003B04                     __end_of__initialization:
   156                           	callstack 0
   157   003B04  0100               	movlb	0
   158   003B06  EFE7  F018         	goto	_main	;jump to C main() function
   159                           
   160                           	psect	bssCOMRAM
   161   000557                     __pbssCOMRAM:
   162                           	callstack 0
   163   000557                     _width:
   164                           	callstack 0
   165   000557                     	ds	2
   166   000559                     _prec:
   167                           	callstack 0
   168   000559                     	ds	2
   169   00055B                     _flags:
   170                           	callstack 0
   171   00055B                     	ds	1
   172                           
   173                           	psect	bssBANK5
   174   000560                     __pbssBANK5:
   175                           	callstack 0
   176   000560                     _dbuf:
   177                           	callstack 0
   178   000560                     	ds	32
   179   000580                     _msj:
   180                           	callstack 0
   181   000580                     	ds	16
   182                           
   183                           	psect	cstackCOMRAM
   184   000501                     __pcstackCOMRAM:
   185                           	callstack 0
   186   000501                     ??_FM_Lcd_Send_Nibble:
   187   000501                     ?___wmul:
   188                           	callstack 0
   189   000501                     ?___lwdiv:
   190                           	callstack 0
   191   000501                     ?___lwmod:
   192                           	callstack 0
   193   000501                     ?___xxtofl:
   194                           	callstack 0
   195   000501                     FM_Hfintosc_Init@clock_params:
   196                           	callstack 0
   197   000501                     ___wmul@multiplier:
   198                           	callstack 0
   199   000501                     ___lwdiv@dividend:
   200                           	callstack 0
   201   000501                     ___lwmod@dividend:
   202                           	callstack 0
   203   000501                     fputc@c:
   204                           	callstack 0
   205   000501                     ___xxtofl@val:
   206                           	callstack 0
   207                           
   208                           ; 4 bytes @ 0x0
   209   000501                     	ds	1
   210   000502                     FM_Lcd_Send_Nibble@byte_to_send:
   211                           	callstack 0
   212                           
   213                           ; 1 bytes @ 0x1
   214   000502                     	ds	1
   215   000503                     ??_FM_Hfintosc_Init:
   216   000503                     FM_Lcd_Send_Nibble@upper_bits:
   217                           	callstack 0
   218   000503                     ___wmul@multiplicand:
   219                           	callstack 0
   220   000503                     ___lwdiv@divisor:
   221                           	callstack 0
   222   000503                     ___lwmod@divisor:
   223                           	callstack 0
   224   000503                     fputc@fp:
   225                           	callstack 0
   226                           
   227                           ; 2 bytes @ 0x2
   228   000503                     	ds	1
   229   000504                     FM_Lcd_Send_Nibble@lower_bits:
   230                           	callstack 0
   231   000504                     Init_Internal_Oscillator@my_clock:
   232                           	callstack 0
   233                           
   234                           ; 2 bytes @ 0x3
   235   000504                     	ds	1
   236   000505                     ??_fputc:
   237   000505                     ??___xxtofl:
   238   000505                     FM_Lcd_Send_Command@command_to_send:
   239                           	callstack 0
   240   000505                     FM_Lcd_Send_Character@character_to_send:
   241                           	callstack 0
   242   000505                     ___lwmod@counter:
   243                           	callstack 0
   244   000505                     ___wmul@product:
   245                           	callstack 0
   246   000505                     ___lwdiv@quotient:
   247                           	callstack 0
   248                           
   249                           ; 2 bytes @ 0x4
   250   000505                     	ds	1
   251   000506                     ??_FM_Lcd_Easy_Init:
   252   000506                     FM_Lcd_Set_Cursor@columna:
   253                           	callstack 0
   254   000506                     FM_Lcd_Send_String@cadena:
   255                           	callstack 0
   256                           
   257                           ; 2 bytes @ 0x5
   258   000506                     	ds	1
   259   000507                     ?_read_prec_or_width:
   260                           	callstack 0
   261   000507                     FM_Lcd_Set_Cursor@filas:
   262                           	callstack 0
   263   000507                     ___lwdiv@counter:
   264                           	callstack 0
   265   000507                     read_prec_or_width@fmt:
   266                           	callstack 0
   267                           
   268                           ; 2 bytes @ 0x6
   269   000507                     	ds	1
   270   000508                     ??_FM_Lcd_Send_String:
   271   000508                     FM_Lcd_Set_Cursor@base_pos:
   272                           	callstack 0
   273                           
   274                           ; 1 bytes @ 0x7
   275   000508                     	ds	1
   276   000509                     ___xxtofl@sign:
   277                           	callstack 0
   278   000509                     read_prec_or_width@ap:
   279                           	callstack 0
   280                           
   281                           ; 2 bytes @ 0x8
   282   000509                     	ds	1
   283   00050A                     FM_Lcd_Send_String@index:
   284                           	callstack 0
   285   00050A                     ___xxtofl@exp:
   286                           	callstack 0
   287   00050A                     fputs@s:
   288                           	callstack 0
   289                           
   290                           ; 2 bytes @ 0x9
   291   00050A                     	ds	1
   292   00050B                     ??_read_prec_or_width:
   293   00050B                     ___xxtofl@arg:
   294                           	callstack 0
   295                           
   296                           ; 4 bytes @ 0xA
   297   00050B                     	ds	1
   298   00050C                     fputs@fp:
   299                           	callstack 0
   300                           
   301                           ; 2 bytes @ 0xB
   302   00050C                     	ds	1
   303   00050D                     read_prec_or_width@c:
   304                           	callstack 0
   305                           
   306                           ; 1 bytes @ 0xC
   307   00050D                     	ds	1
   308   00050E                     fputs@c:
   309                           	callstack 0
   310   00050E                     read_prec_or_width@n:
   311                           	callstack 0
   312                           
   313                           ; 2 bytes @ 0xD
   314   00050E                     	ds	1
   315   00050F                     ?___fldiv:
   316                           	callstack 0
   317   00050F                     fputs@i:
   318                           	callstack 0
   319   00050F                     ___fldiv@b:
   320                           	callstack 0
   321                           
   322                           ; 4 bytes @ 0xE
   323   00050F                     	ds	2
   324   000511                     pad@fp:
   325                           	callstack 0
   326                           
   327                           ; 2 bytes @ 0x10
   328   000511                     	ds	2
   329   000513                     pad@buf:
   330                           	callstack 0
   331   000513                     ___fldiv@a:
   332                           	callstack 0
   333                           
   334                           ; 4 bytes @ 0x12
   335   000513                     	ds	2
   336   000515                     pad@p:
   337                           	callstack 0
   338                           
   339                           ; 2 bytes @ 0x14
   340   000515                     	ds	2
   341   000517                     ??___fldiv:
   342   000517                     ??_pad:
   343                           
   344                           ; 1 bytes @ 0x16
   345   000517                     	ds	1
   346   000518                     pad@i:
   347                           	callstack 0
   348                           
   349                           ; 2 bytes @ 0x17
   350   000518                     	ds	2
   351   00051A                     pad@w:
   352                           	callstack 0
   353                           
   354                           ; 2 bytes @ 0x19
   355   00051A                     	ds	1
   356   00051B                     ___fldiv@rem:
   357                           	callstack 0
   358                           
   359                           ; 4 bytes @ 0x1A
   360   00051B                     	ds	1
   361   00051C                     utoa@fp:
   362                           	callstack 0
   363                           
   364                           ; 2 bytes @ 0x1B
   365   00051C                     	ds	2
   366   00051E                     utoa@d:
   367                           	callstack 0
   368                           
   369                           ; 2 bytes @ 0x1D
   370   00051E                     	ds	1
   371   00051F                     ___fldiv@sign:
   372                           	callstack 0
   373                           
   374                           ; 1 bytes @ 0x1E
   375   00051F                     	ds	1
   376   000520                     ___fldiv@new_exp:
   377                           	callstack 0
   378   000520                     utoa@w:
   379                           	callstack 0
   380                           
   381                           ; 2 bytes @ 0x1F
   382   000520                     	ds	2
   383   000522                     utoa@p:
   384                           	callstack 0
   385   000522                     ___fldiv@grs:
   386                           	callstack 0
   387                           
   388                           ; 4 bytes @ 0x21
   389   000522                     	ds	2
   390   000524                     utoa@i:
   391                           	callstack 0
   392                           
   393                           ; 2 bytes @ 0x23
   394   000524                     	ds	2
   395   000526                     ___fldiv@bexp:
   396                           	callstack 0
   397   000526                     vfpfcnvrt@fp:
   398                           	callstack 0
   399                           
   400                           ; 2 bytes @ 0x25
   401   000526                     	ds	1
   402   000527                     ___fldiv@aexp:
   403                           	callstack 0
   404                           
   405                           ; 1 bytes @ 0x26
   406   000527                     	ds	1
   407   000528                     ?___flmul:
   408                           	callstack 0
   409   000528                     vfpfcnvrt@fmt:
   410                           	callstack 0
   411   000528                     ___flmul@b:
   412                           	callstack 0
   413                           
   414                           ; 4 bytes @ 0x27
   415   000528                     	ds	2
   416   00052A                     vfpfcnvrt@ap:
   417                           	callstack 0
   418                           
   419                           ; 2 bytes @ 0x29
   420   00052A                     	ds	2
   421   00052C                     ??_vfpfcnvrt:
   422   00052C                     ___flmul@a:
   423                           	callstack 0
   424                           
   425                           ; 4 bytes @ 0x2B
   426   00052C                     	ds	2
   427   00052E                     vfpfcnvrt@convarg:
   428                           	callstack 0
   429                           
   430                           ; 4 bytes @ 0x2D
   431   00052E                     	ds	2
   432   000530                     ??___flmul:
   433                           
   434                           ; 1 bytes @ 0x2F
   435   000530                     	ds	2
   436   000532                     vfpfcnvrt@done:
   437                           	callstack 0
   438                           
   439                           ; 2 bytes @ 0x31
   440   000532                     	ds	2
   441   000534                     ___flmul@sign:
   442                           	callstack 0
   443   000534                     vfpfcnvrt@cp:
   444                           	callstack 0
   445                           
   446                           ; 2 bytes @ 0x33
   447   000534                     	ds	1
   448   000535                     ___flmul@grs:
   449                           	callstack 0
   450                           
   451                           ; 4 bytes @ 0x34
   452   000535                     	ds	1
   453   000536                     ?_vfprintf:
   454                           	callstack 0
   455   000536                     vfprintf@fp:
   456                           	callstack 0
   457                           
   458                           ; 2 bytes @ 0x35
   459   000536                     	ds	2
   460   000538                     vfprintf@fmt:
   461                           	callstack 0
   462                           
   463                           ; 2 bytes @ 0x37
   464   000538                     	ds	1
   465   000539                     ___flmul@aexp:
   466                           	callstack 0
   467                           
   468                           ; 1 bytes @ 0x38
   469   000539                     	ds	1
   470   00053A                     ___flmul@bexp:
   471                           	callstack 0
   472   00053A                     vfprintf@ap:
   473                           	callstack 0
   474                           
   475                           ; 2 bytes @ 0x39
   476   00053A                     	ds	1
   477   00053B                     ___flmul@prod:
   478                           	callstack 0
   479                           
   480                           ; 4 bytes @ 0x3A
   481   00053B                     	ds	1
   482   00053C                     vfprintf@cfmt:
   483                           	callstack 0
   484                           
   485                           ; 2 bytes @ 0x3B
   486   00053C                     	ds	2
   487   00053E                     ?_sprintf:
   488                           	callstack 0
   489   00053E                     sprintf@s:
   490                           	callstack 0
   491                           
   492                           ; 2 bytes @ 0x3D
   493   00053E                     	ds	1
   494   00053F                     ___flmul@temp:
   495                           	callstack 0
   496                           
   497                           ; 2 bytes @ 0x3E
   498   00053F                     	ds	1
   499   000540                     sprintf@fmt:
   500                           	callstack 0
   501                           
   502                           ; 2 bytes @ 0x3F
   503   000540                     	ds	1
   504   000541                     ?___fltol:
   505                           	callstack 0
   506   000541                     ___fltol@f1:
   507                           	callstack 0
   508                           
   509                           ; 4 bytes @ 0x40
   510   000541                     	ds	3
   511   000544                     sprintf@ap:
   512                           	callstack 0
   513                           
   514                           ; 2 bytes @ 0x43
   515   000544                     	ds	1
   516   000545                     ??___fltol:
   517                           
   518                           ; 1 bytes @ 0x44
   519   000545                     	ds	1
   520   000546                     sprintf@f:
   521                           	callstack 0
   522                           
   523                           ; 12 bytes @ 0x45
   524   000546                     	ds	3
   525   000549                     ___fltol@sign1:
   526                           	callstack 0
   527                           
   528                           ; 1 bytes @ 0x48
   529   000549                     	ds	1
   530   00054A                     ___fltol@exp1:
   531                           	callstack 0
   532                           
   533                           ; 1 bytes @ 0x49
   534   00054A                     	ds	8
   535   000552                     ??_main:
   536                           
   537                           ; 1 bytes @ 0x51
   538   000552                     	ds	2
   539   000554                     main@adc_val:
   540                           	callstack 0
   541                           
   542                           ; 2 bytes @ 0x53
   543   000554                     	ds	2
   544   000556                     main@val_percent:
   545                           	callstack 0
   546                           
   547                           ; 1 bytes @ 0x55
   548   000556                     	ds	1
   549                           
   550 ;;
   551 ;;Main: autosize = 0, tempsize = 2, incstack = 0, save=0
   552 ;;
   553 ;; *************** function _main *****************
   554 ;; Defined at:
   555 ;;		line 42 in file "main.c"
   556 ;; Parameters:    Size  Location     Type
   557 ;;		None
   558 ;; Auto vars:     Size  Location     Type
   559 ;;  adc_val         2   83[COMRAM] unsigned short 
   560 ;;  val_percent     1   85[COMRAM] unsigned char 
   561 ;; Return value:  Size  Location     Type
   562 ;;                  2   54[None  ] int 
   563 ;; Registers used:
   564 ;;		wreg, fsr1l, fsr1h, fsr2l, fsr2h, status,2, status,0, tblptrl, tblptrh, tblptru, prodl, prodh, cstack
   565 ;; Tracked objects:
   566 ;;		On entry : 0/0
   567 ;;		On exit  : 0/0
   568 ;;		Unchanged: 0/0
   569 ;; Data sizes:     COMRAM   BANK5   BANK6   BANK7   BANK8   BANK9  BANK10  BANK11  BANK12  BANK13  BANK14  BANK15  BANK1
      +6  BANK17  BANK18  BANK19  BANK20  BANK21  BANK22  BANK23  BANK24  BANK25  BANK26  BANK27  BANK28  BANK29  BANK30  BANK3
      +1  BANK32  BANK33  BANK34  BANK35  BANK36
   570 ;;      Params:         0       0       0       0       0       0       0       0       0       0       0       0       
      +0       0       0       0       0       0       0       0       0       0       0       0       0       0       0       
      +0       0       0       0       0       0
   571 ;;      Locals:         3       0       0       0       0       0       0       0       0       0       0       0       
      +0       0       0       0       0       0       0       0       0       0       0       0       0       0       0       
      +0       0       0       0       0       0
   572 ;;      Temps:          2       0       0       0       0       0       0       0       0       0       0       0       
      +0       0       0       0       0       0       0       0       0       0       0       0       0       0       0       
      +0       0       0       0       0       0
   573 ;;      Totals:         5       0       0       0       0       0       0       0       0       0       0       0       
      +0       0       0       0       0       0       0       0       0       0       0       0       0       0       0       
      +0       0       0       0       0       0
   574 ;;Total ram usage:        5 bytes
   575 ;; Hardware stack levels required when called: 8
   576 ;; This function calls:
   577 ;;		_FM_Lcd_Easy_Init
   578 ;;		_FM_Lcd_Send_String
   579 ;;		_FM_Lcd_Set_Cursor
   580 ;;		_Init_ADCC_Module
   581 ;;		_Init_Gpio_System
   582 ;;		_Init_Internal_Oscillator
   583 ;;		___fldiv
   584 ;;		___flmul
   585 ;;		___fltol
   586 ;;		___xxtofl
   587 ;;		_sprintf
   588 ;; This function is called by:
   589 ;;		Startup code after reset
   590 ;; This function uses a non-reentrant model
   591 ;;
   592                           
   593                           	psect	text0
   594   0031CE                     __ptext0:
   595                           	callstack 0
   596   0031CE                     _main:
   597                           	callstack 119
   598   0031CE                     
   599                           ;main.c: 44:     Init_Internal_Oscillator();
   600   0031CE  EC85  F01D         	call	_Init_Internal_Oscillator	;wreg free
   601   0031D2                     
   602                           ;main.c: 46:     Init_ADCC_Module();
   603   0031D2  EC04  F01D         	call	_Init_ADCC_Module	;wreg free
   604   0031D6                     
   605                           ;main.c: 48:     Init_Gpio_System();
   606   0031D6  ECA3  F01D         	call	_Init_Gpio_System	;wreg free
   607   0031DA                     
   608                           ;main.c: 50:     FM_Lcd_Easy_Init();
   609   0031DA  EC25  F01D         	call	_FM_Lcd_Easy_Init	;wreg free
   610   0031DE                     
   611                           ;main.c: 52:     FM_Lcd_Set_Cursor(ROW_1, COL_3);
   612   0031DE  0E02               	movlw	2
   613   0031E0  6E06               	movwf	FM_Lcd_Set_Cursor@columna^(0+1280),c
   614   0031E2  0E00               	movlw	0
   615   0031E4  ECE2  F01C         	call	_FM_Lcd_Set_Cursor
   616   0031E8                     
   617                           ;main.c: 53:     FM_Lcd_Send_String("PF MOTOR RPM");
   618   0031E8  0E01               	movlw	low STR_1
   619   0031EA  6E06               	movwf	FM_Lcd_Send_String@cadena^(0+1280),c
   620   0031EC  0E26               	movlw	high STR_1
   621   0031EE  6E07               	movwf	(FM_Lcd_Send_String@cadena+1)^(0+1280),c
   622   0031F0  EC8D  F01B         	call	_FM_Lcd_Send_String	;wreg free
   623   0031F4                     l2336:
   624                           
   625                           ;main.c: 56:     {;main.c: 58:         ADCON0 |= (1 << 0x0);
   626   0031F4  0103               	movlb	3	; () banked
   627   0031F6  81F3               	bsf	243,0,b	;volatile
   628   0031F8                     l56:
   629                           
   630                           ; BSR set to: 3
   631   0031F8  B1F3               	btfsc	243,0,b	;volatile
   632   0031FA  EF01  F019         	goto	u1841
   633   0031FE  EF03  F019         	goto	u1840
   634   003202                     u1841:
   635   003202  EFFC  F018         	goto	l56
   636   003206                     u1840:
   637   003206                     
   638                           ; BSR set to: 3
   639                           ;main.c: 61:         uint16_t adc_val = (ADRESH << 8) | ADRESL;
   640   003206  51EA               	movf	234,w,b	;volatile
   641   003208  C3EB F552          	movff	1003,??_main	;volatile
   642   00320C  6A53               	clrf	(??_main+1)^(0+1280),c
   643   00320E  C552  F553         	movff	??_main,??_main+1
   644   003212  6A52               	clrf	??_main^(0+1280),c
   645   003214  1052               	iorwf	??_main^(0+1280),w,c
   646   003216  6E54               	movwf	main@adc_val^(0+1280),c
   647   003218  5053               	movf	(??_main+1)^(0+1280),w,c
   648   00321A  6E55               	movwf	(main@adc_val+1)^(0+1280),c
   649   00321C                     
   650                           ; BSR set to: 3
   651                           ;main.c: 62:         uint8_t val_percent = ((float)adc_val / 4095.0) * 100.0;
   652   00321C  0E00               	movlw	0
   653   00321E  6E2C               	movwf	___flmul@a^(0+1280),c
   654   003220  0E00               	movlw	0
   655   003222  6E2D               	movwf	(___flmul@a+1)^(0+1280),c
   656   003224  0EC8               	movlw	200
   657   003226  6E2E               	movwf	(___flmul@a+2)^(0+1280),c
   658   003228  0E42               	movlw	66
   659   00322A  6E2F               	movwf	(___flmul@a+3)^(0+1280),c
   660   00322C  0E00               	movlw	0
   661   00322E  6E13               	movwf	___fldiv@a^(0+1280),c
   662   003230  0EF0               	movlw	240
   663   003232  6E14               	movwf	(___fldiv@a+1)^(0+1280),c
   664   003234  0E7F               	movlw	127
   665   003236  6E15               	movwf	(___fldiv@a+2)^(0+1280),c
   666   003238  0E45               	movlw	69
   667   00323A  6E16               	movwf	(___fldiv@a+3)^(0+1280),c
   668   00323C  C554  F501         	movff	main@adc_val,___xxtofl@val
   669   003240  C555  F502         	movff	main@adc_val+1,___xxtofl@val+1
   670   003244  6A03               	clrf	(___xxtofl@val+2)^(0+1280),c
   671   003246  6A04               	clrf	(___xxtofl@val+3)^(0+1280),c
   672   003248  0E00               	movlw	0
   673   00324A  EC0D  F018         	call	___xxtofl
   674   00324E  C501  F50F         	movff	?___xxtofl,___fldiv@b
   675   003252  C502  F510         	movff	?___xxtofl+1,___fldiv@b+1
   676   003256  C503  F511         	movff	?___xxtofl+2,___fldiv@b+2
   677   00325A  C504  F512         	movff	?___xxtofl+3,___fldiv@b+3
   678   00325E  EC21  F015         	call	___fldiv	;wreg free
   679   003262  C50F  F528         	movff	?___fldiv,___flmul@b
   680   003266  C510  F529         	movff	?___fldiv+1,___flmul@b+1
   681   00326A  C511  F52A         	movff	?___fldiv+2,___flmul@b+2
   682   00326E  C512  F52B         	movff	?___fldiv+3,___flmul@b+3
   683   003272  EC0C  F013         	call	___flmul	;wreg free
   684   003276  C528  F541         	movff	?___flmul,___fltol@f1
   685   00327A  C529  F542         	movff	?___flmul+1,___fltol@f1+1
   686   00327E  C52A  F543         	movff	?___flmul+2,___fltol@f1+2
   687   003282  C52B  F544         	movff	?___flmul+3,___fltol@f1+3
   688   003286  EC71  F019         	call	___fltol	;wreg free
   689   00328A  5041               	movf	?___fltol^(0+1280),w,c
   690   00328C  6E56               	movwf	main@val_percent^(0+1280),c
   691   00328E                     
   692                           ;main.c: 63:         sprintf(msj, "V=%-3u%%", val_percent);
   693   00328E  0E80               	movlw	low _msj
   694   003290  6E3E               	movwf	sprintf@s^(0+1280),c
   695   003292  0E05               	movlw	high _msj
   696   003294  6E3F               	movwf	(sprintf@s+1)^(0+1280),c
   697   003296  0E0E               	movlw	low STR_2
   698   003298  6E40               	movwf	sprintf@fmt^(0+1280),c
   699   00329A  0E26               	movlw	high STR_2
   700   00329C  6E41               	movwf	(sprintf@fmt+1)^(0+1280),c
   701   00329E  C556  F542         	movff	main@val_percent,?_sprintf+4
   702   0032A2  6A43               	clrf	(?_sprintf+5)^(0+1280),c
   703   0032A4  EC9A  F01C         	call	_sprintf	;wreg free
   704   0032A8                     
   705                           ;main.c: 64:         FM_Lcd_Set_Cursor(ROW_2, COL_1);
   706   0032A8  0E00               	movlw	0
   707   0032AA  6E06               	movwf	FM_Lcd_Set_Cursor@columna^(0+1280),c
   708   0032AC  0E01               	movlw	1
   709   0032AE  ECE2  F01C         	call	_FM_Lcd_Set_Cursor
   710   0032B2                     
   711                           ;main.c: 65:         FM_Lcd_Send_String(msj);
   712   0032B2  0E80               	movlw	low _msj
   713   0032B4  6E06               	movwf	FM_Lcd_Send_String@cadena^(0+1280),c
   714   0032B6  0E05               	movlw	high _msj
   715   0032B8  6E07               	movwf	(FM_Lcd_Send_String@cadena+1)^(0+1280),c
   716   0032BA  EC8D  F01B         	call	_FM_Lcd_Send_String	;wreg free
   717   0032BE                     
   718                           ;main.c: 66:         LATF ^= (1 << 3);
   719   0032BE  0E08               	movlw	8
   720   0032C0  1AC3               	xorwf	195,f,c	;volatile
   721   0032C2                     
   722                           ;main.c: 67:         _delay((unsigned long)((100)*(16000000UL/4000.0)));
   723   0032C2  0E03               	movlw	3
   724   0032C4  6E53               	movwf	(??_main+1)^(0+1280),c
   725   0032C6  0E08               	movlw	8
   726   0032C8  6E52               	movwf	??_main^(0+1280),c
   727   0032CA  0E77               	movlw	119
   728   0032CC                     u1857:
   729   0032CC  2EE8               	decfsz	wreg,f,c
   730   0032CE  D7FE               	bra	u1857
   731   0032D0  2E52               	decfsz	??_main^(0+1280),f,c
   732   0032D2  D7FC               	bra	u1857
   733   0032D4  2E53               	decfsz	(??_main+1)^(0+1280),f,c
   734   0032D6  D7FA               	bra	u1857
   735   0032D8  F000               	nop	
   736   0032DA  EFFA  F018         	goto	l2336
   737   0032DE  EFFE  F0FF         	goto	start
   738   0032E2                     __end_of_main:
   739                           	callstack 0
   740                           
   741 ;; *************** function _sprintf *****************
   742 ;; Defined at:
   743 ;;		line 9 in file "C:\Program Files\Microchip\xc8\v2.41\pic\sources\c99\common\nf_sprintf.c"
   744 ;; Parameters:    Size  Location     Type
   745 ;;  s               2   61[COMRAM] PTR unsigned char 
   746 ;;		 -> msj(16), 
   747 ;;  fmt             2   63[COMRAM] PTR const unsigned char 
   748 ;;		 -> STR_2(9), 
   749 ;; Auto vars:     Size  Location     Type
   750 ;;  f              12   69[COMRAM] struct _IO_FILE
   751 ;;  ap              2   67[COMRAM] PTR void [1]
   752 ;;		 -> ?_sprintf(2), 
   753 ;;  ret             2    0        int 
   754 ;; Return value:  Size  Location     Type
   755 ;;                  2   61[COMRAM] int 
   756 ;; Registers used:
   757 ;;		wreg, fsr1l, fsr1h, fsr2l, fsr2h, status,2, status,0, tblptrl, tblptrh, tblptru, prodl, prodh, cstack
   758 ;; Tracked objects:
   759 ;;		On entry : 0/0
   760 ;;		On exit  : 0/0
   761 ;;		Unchanged: 0/0
   762 ;; Data sizes:     COMRAM   BANK5   BANK6   BANK7   BANK8   BANK9  BANK10  BANK11  BANK12  BANK13  BANK14  BANK15  BANK1
      +6  BANK17  BANK18  BANK19  BANK20  BANK21  BANK22  BANK23  BANK24  BANK25  BANK26  BANK27  BANK28  BANK29  BANK30  BANK3
      +1  BANK32  BANK33  BANK34  BANK35  BANK36
   763 ;;      Params:         6       0       0       0       0       0       0       0       0       0       0       0       
      +0       0       0       0       0       0       0       0       0       0       0       0       0       0       0       
      +0       0       0       0       0       0
   764 ;;      Locals:        14       0       0       0       0       0       0       0       0       0       0       0       
      +0       0       0       0       0       0       0       0       0       0       0       0       0       0       0       
      +0       0       0       0       0       0
   765 ;;      Temps:          0       0       0       0       0       0       0       0       0       0       0       0       
      +0       0       0       0       0       0       0       0       0       0       0       0       0       0       0       
      +0       0       0       0       0       0
   766 ;;      Totals:        20       0       0       0       0       0       0       0       0       0       0       0       
      +0       0       0       0       0       0       0       0       0       0       0       0       0       0       0       
      +0       0       0       0       0       0
   767 ;;Total ram usage:       20 bytes
   768 ;; Hardware stack levels used: 1
   769 ;; Hardware stack levels required when called: 7
   770 ;; This function calls:
   771 ;;		_vfprintf
   772 ;; This function is called by:
   773 ;;		_main
   774 ;; This function uses a non-reentrant model
   775 ;;
   776                           
   777                           	psect	text1
   778   003934                     __ptext1:
   779                           	callstack 0
   780   003934                     _sprintf:
   781                           	callstack 119
   782   003934  0E42               	movlw	low (?_sprintf+4)
   783   003936  6E44               	movwf	sprintf@ap^(0+1280),c
   784   003938  0E05               	movlw	high (?_sprintf+4)
   785   00393A  6E45               	movwf	(sprintf@ap+1)^(0+1280),c
   786   00393C  C53E  F546         	movff	sprintf@s,sprintf@f
   787   003940  C53F  F547         	movff	sprintf@s+1,sprintf@f+1
   788   003944  0E00               	movlw	0
   789   003946  6E4A               	movwf	(sprintf@f+4)^(0+1280),c
   790   003948  0E00               	movlw	0
   791   00394A  6E49               	movwf	(sprintf@f+3)^(0+1280),c
   792   00394C  0E00               	movlw	0
   793   00394E  6E51               	movwf	(sprintf@f+11)^(0+1280),c
   794   003950  0E00               	movlw	0
   795   003952  6E50               	movwf	(sprintf@f+10)^(0+1280),c
   796   003954  0E46               	movlw	low sprintf@f
   797   003956  6E36               	movwf	vfprintf@fp^(0+1280),c
   798   003958  0E05               	movlw	high sprintf@f
   799   00395A  6E37               	movwf	(vfprintf@fp+1)^(0+1280),c
   800   00395C  C540  F538         	movff	sprintf@fmt,vfprintf@fmt
   801   003960  C541  F539         	movff	sprintf@fmt+1,vfprintf@fmt+1
   802   003964  0E44               	movlw	low sprintf@ap
   803   003966  6E3A               	movwf	vfprintf@ap^(0+1280),c
   804   003968  0E05               	movlw	high sprintf@ap
   805   00396A  6E3B               	movwf	(vfprintf@ap+1)^(0+1280),c
   806   00396C  EC71  F01C         	call	_vfprintf	;wreg free
   807   003970  5049               	movf	(sprintf@f+3)^(0+1280),w,c
   808   003972  243E               	addwf	sprintf@s^(0+1280),w,c
   809   003974  6ED9               	movwf	fsr2l,c
   810   003976  504A               	movf	(sprintf@f+4)^(0+1280),w,c
   811   003978  203F               	addwfc	(sprintf@s+1)^(0+1280),w,c
   812   00397A  6EDA               	movwf	fsr2h,c
   813   00397C  6ADF               	clrf	indf2,c
   814   00397E  0012               	return		;funcret
   815   003980                     __end_of_sprintf:
   816                           	callstack 0
   817                           
   818 ;; *************** function _vfprintf *****************
   819 ;; Defined at:
   820 ;;		line 1546 in file "C:\Program Files\Microchip\xc8\v2.41\pic\sources\c99\common\doprnt.c"
   821 ;; Parameters:    Size  Location     Type
   822 ;;  fp              2   53[COMRAM] PTR struct _IO_FILE
   823 ;;		 -> sprintf@f(12), 
   824 ;;  fmt             2   55[COMRAM] PTR const unsigned char 
   825 ;;		 -> STR_2(9), 
   826 ;;  ap              2   57[COMRAM] PTR PTR void 
   827 ;;		 -> sprintf@ap(2), 
   828 ;; Auto vars:     Size  Location     Type
   829 ;;  cfmt            2   59[COMRAM] PTR unsigned char 
   830 ;;		 -> STR_2(9), 
   831 ;; Return value:  Size  Location     Type
   832 ;;                  2   53[COMRAM] int 
   833 ;; Registers used:
   834 ;;		wreg, fsr1l, fsr1h, fsr2l, fsr2h, status,2, status,0, tblptrl, tblptrh, tblptru, prodl, prodh, cstack
   835 ;; Tracked objects:
   836 ;;		On entry : 0/0
   837 ;;		On exit  : 0/0
   838 ;;		Unchanged: 0/0
   839 ;; Data sizes:     COMRAM   BANK5   BANK6   BANK7   BANK8   BANK9  BANK10  BANK11  BANK12  BANK13  BANK14  BANK15  BANK1
      +6  BANK17  BANK18  BANK19  BANK20  BANK21  BANK22  BANK23  BANK24  BANK25  BANK26  BANK27  BANK28  BANK29  BANK30  BANK3
      +1  BANK32  BANK33  BANK34  BANK35  BANK36
   840 ;;      Params:         6       0       0       0       0       0       0       0       0       0       0       0       
      +0       0       0       0       0       0       0       0       0       0       0       0       0       0       0       
      +0       0       0       0       0       0
   841 ;;      Locals:         2       0       0       0       0       0       0       0       0       0       0       0       
      +0       0       0       0       0       0       0       0       0       0       0       0       0       0       0       
      +0       0       0       0       0       0
   842 ;;      Temps:          0       0       0       0       0       0       0       0       0       0       0       0       
      +0       0       0       0       0       0       0       0       0       0       0       0       0       0       0       
      +0       0       0       0       0       0
   843 ;;      Totals:         8       0       0       0       0       0       0       0       0       0       0       0       
      +0       0       0       0       0       0       0       0       0       0       0       0       0       0       0       
      +0       0       0       0       0       0
   844 ;;Total ram usage:        8 bytes
   845 ;; Hardware stack levels used: 1
   846 ;; Hardware stack levels required when called: 6
   847 ;; This function calls:
   848 ;;		_vfpfcnvrt
   849 ;; This function is called by:
   850 ;;		_sprintf
   851 ;; This function uses a non-reentrant model
   852 ;;
   853                           
   854                           	psect	text2
   855   0038E2                     __ptext2:
   856                           	callstack 0
   857   0038E2                     _vfprintf:
   858                           	callstack 119
   859   0038E2                     
   860                           ;C:\Program Files\Microchip\xc8\v2.41\pic\sources\c99\common\doprnt.c: 1546: int vfprint
      +                          f(FILE *fp, const char *fmt, va_list ap);C:\Program Files\Microchip\xc8\v2.41\pic\source
      +                          s\c99\common\doprnt.c: 1547: {;C:\Program Files\Microchip\xc8\v2.41\pic\sources\c99\comm
      +                          on\doprnt.c: 1549:     char *cfmt;;C:\Program Files\Microchip\xc8\v2.41\pic\sources\c99\
      +                          common\doprnt.c: 1551:     cfmt = (char *)fmt;
   861   0038E2  C538  F53C         	movff	vfprintf@fmt,vfprintf@cfmt
   862   0038E6  C539  F53D         	movff	vfprintf@fmt+1,vfprintf@cfmt+1
   863                           
   864                           ;C:\Program Files\Microchip\xc8\v2.41\pic\sources\c99\common\doprnt.c: 1555:     while (
      +                          *cfmt) {
   865   0038EA  EF85  F01C         	goto	l1874
   866   0038EE                     l1872:
   867                           
   868                           ;C:\Program Files\Microchip\xc8\v2.41\pic\sources\c99\common\doprnt.c: 1559:    vfpfcnvr
      +                          t(fp, &cfmt, ap);
   869   0038EE  C536  F526         	movff	vfprintf@fp,vfpfcnvrt@fp
   870   0038F2  C537  F527         	movff	vfprintf@fp+1,vfpfcnvrt@fp+1
   871   0038F6  0E3C               	movlw	low vfprintf@cfmt
   872   0038F8  6E28               	movwf	vfpfcnvrt@fmt^(0+1280),c
   873   0038FA  0E05               	movlw	high vfprintf@cfmt
   874   0038FC  6E29               	movwf	(vfpfcnvrt@fmt+1)^(0+1280),c
   875   0038FE  C53A  F52A         	movff	vfprintf@ap,vfpfcnvrt@ap
   876   003902  C53B  F52B         	movff	vfprintf@ap+1,vfpfcnvrt@ap+1
   877   003906  ECEE  F016         	call	_vfpfcnvrt	;wreg free
   878   00390A                     l1874:
   879                           
   880                           ;C:\Program Files\Microchip\xc8\v2.41\pic\sources\c99\common\doprnt.c: 1555:     while (
      +                          *cfmt) {
   881   00390A  C53C  F4F6         	movff	vfprintf@cfmt,tblptrl
   882   00390E  C53D  F4F7         	movff	vfprintf@cfmt+1,tblptrh
   883   003912                     	if	0	;tblptru may be non-zero
   884   003912                     	endif
   885   003912                     	if	1	;Program memory is > 0xFFFF, there are 3 active tblptr bytes
   886   003912  0E00               	movlw	low (__mediumconst shr (0+16))
   887   003914  6EF8               	movwf	tblptru,c
   888   003916                     	endif
   889   003916  0008               	tblrd		*
   890   003918  50F5               	movf	tablat,w,c
   891   00391A  0900               	iorlw	0
   892   00391C  A4D8               	btfss	status,2,c
   893   00391E  EF93  F01C         	goto	u1191
   894   003922  EF95  F01C         	goto	u1190
   895   003926                     u1191:
   896   003926  EF77  F01C         	goto	l1872
   897   00392A                     u1190:
   898   00392A                     
   899                           ;C:\Program Files\Microchip\xc8\v2.41\pic\sources\c99\common\doprnt.c: 1564:  return 0;
   900   00392A  0E00               	movlw	0
   901   00392C  6E37               	movwf	(?_vfprintf+1)^(0+1280),c
   902   00392E  0E00               	movlw	0
   903   003930  6E36               	movwf	?_vfprintf^(0+1280),c
   904   003932  0012               	return		;funcret
   905   003934                     __end_of_vfprintf:
   906                           	callstack 0
   907                           
   908 ;; *************** function _vfpfcnvrt *****************
   909 ;; Defined at:
   910 ;;		line 1048 in file "C:\Program Files\Microchip\xc8\v2.41\pic\sources\c99\common\doprnt.c"
   911 ;; Parameters:    Size  Location     Type
   912 ;;  fp              2   37[COMRAM] PTR struct _IO_FILE
   913 ;;		 -> sprintf@f(12), 
   914 ;;  fmt             2   39[COMRAM] PTR PTR unsigned char 
   915 ;;		 -> vfprintf@cfmt(2), 
   916 ;;  ap              2   41[COMRAM] PTR PTR void 
   917 ;;		 -> sprintf@ap(2), 
   918 ;; Auto vars:     Size  Location     Type
   919 ;;  convarg         4   45[COMRAM] struct .
   920 ;;  cp              2   51[COMRAM] PTR unsigned char 
   921 ;;		 -> STR_2(9), 
   922 ;;  done            2   49[COMRAM] int 
   923 ;;  i               2    0        int 
   924 ;;  c               1    0        unsigned char 
   925 ;; Return value:  Size  Location     Type
   926 ;;                  1    wreg      void 
   927 ;; Registers used:
   928 ;;		wreg, fsr1l, fsr1h, fsr2l, fsr2h, status,2, status,0, tblptrl, tblptrh, tblptru, prodl, prodh, cstack
   929 ;; Tracked objects:
   930 ;;		On entry : 0/0
   931 ;;		On exit  : 0/0
   932 ;;		Unchanged: 0/0
   933 ;; Data sizes:     COMRAM   BANK5   BANK6   BANK7   BANK8   BANK9  BANK10  BANK11  BANK12  BANK13  BANK14  BANK15  BANK1
      +6  BANK17  BANK18  BANK19  BANK20  BANK21  BANK22  BANK23  BANK24  BANK25  BANK26  BANK27  BANK28  BANK29  BANK30  BANK3
      +1  BANK32  BANK33  BANK34  BANK35  BANK36
   934 ;;      Params:         6       0       0       0       0       0       0       0       0       0       0       0       
      +0       0       0       0       0       0       0       0       0       0       0       0       0       0       0       
      +0       0       0       0       0       0
   935 ;;      Locals:         8       0       0       0       0       0       0       0       0       0       0       0       
      +0       0       0       0       0       0       0       0       0       0       0       0       0       0       0       
      +0       0       0       0       0       0
   936 ;;      Temps:          2       0       0       0       0       0       0       0       0       0       0       0       
      +0       0       0       0       0       0       0       0       0       0       0       0       0       0       0       
      +0       0       0       0       0       0
   937 ;;      Totals:        16       0       0       0       0       0       0       0       0       0       0       0       
      +0       0       0       0       0       0       0       0       0       0       0       0       0       0       0       
      +0       0       0       0       0       0
   938 ;;Total ram usage:       16 bytes
   939 ;; Hardware stack levels used: 1
   940 ;; Hardware stack levels required when called: 5
   941 ;; This function calls:
   942 ;;		_fputc
   943 ;;		_read_prec_or_width
   944 ;;		_utoa
   945 ;; This function is called by:
   946 ;;		_vfprintf
   947 ;; This function uses a non-reentrant model
   948 ;;
   949                           
   950                           	psect	text3
   951   002DDC                     __ptext3:
   952                           	callstack 0
   953   002DDC                     _vfpfcnvrt:
   954                           	callstack 119
   955   002DDC                     
   956                           ;C:\Program Files\Microchip\xc8\v2.41\pic\sources\c99\common\doprnt.c: 1048: vfpfcnvrt(F
      +                          ILE *fp, char *fmt[], va_list ap);C:\Program Files\Microchip\xc8\v2.41\pic\sources\c99\c
      +                          ommon\doprnt.c: 1049: {;C:\Program Files\Microchip\xc8\v2.41\pic\sources\c99\common\dopr
      +                          nt.c: 1050:     char c, *cp;;C:\Program Files\Microchip\xc8\v2.41\pic\sources\c99\common
      +                          \doprnt.c: 1051:     int done, i;;C:\Program Files\Microchip\xc8\v2.41\pic\sources\c99\c
      +                          ommon\doprnt.c: 1059:  } convarg;;C:\Program Files\Microchip\xc8\v2.41\pic\sources\c99\c
      +                          ommon\doprnt.c: 1062:     if ((*fmt)[0] == '%') {
   957   002DDC  C528  F4D9         	movff	vfpfcnvrt@fmt,fsr2l
   958   002DE0  C529  F4DA         	movff	vfpfcnvrt@fmt+1,fsr2h
   959   002DE4  C4DE F4F6          	movff	postinc2,tblptrl
   960   002DE8  C4DD F4F7          	movff	postdec2,tblptrh
   961   002DEC                     	if	0	;tblptru may be non-zero
   962   002DEC                     	endif
   963   002DEC                     	if	1	;Program memory is > 0xFFFF, there are 3 active tblptr bytes
   964   002DEC  0E00               	movlw	low (__mediumconst shr (0+16))
   965   002DEE  6EF8               	movwf	tblptru,c
   966   002DF0                     	endif
   967   002DF0  0008               	tblrd		*
   968   002DF2  50F5               	movf	tablat,w,c
   969   002DF4  0A25               	xorlw	37
   970   002DF6  A4D8               	btfss	status,2,c
   971   002DF8  EF00  F017         	goto	u1141
   972   002DFC  EF02  F017         	goto	u1140
   973   002E00                     u1141:
   974   002E00  EFF6  F017         	goto	l1838
   975   002E04                     u1140:
   976   002E04                     
   977                           ;C:\Program Files\Microchip\xc8\v2.41\pic\sources\c99\common\doprnt.c: 1063:         ++*
      +                          fmt;
   978   002E04  C528  F4D9         	movff	vfpfcnvrt@fmt,fsr2l
   979   002E08  C529  F4DA         	movff	vfpfcnvrt@fmt+1,fsr2h
   980   002E0C  2ADE               	incf	postinc2,f,c
   981   002E0E  0E00               	movlw	0
   982   002E10  22DD               	addwfc	postdec2,f,c
   983   002E12                     
   984                           ;C:\Program Files\Microchip\xc8\v2.41\pic\sources\c99\common\doprnt.c: 1065:         fla
      +                          gs = width = 0;
   985   002E12  0E00               	movlw	0
   986   002E14  6E58               	movwf	(_width+1)^(0+1280),c
   987   002E16  0E00               	movlw	0
   988   002E18  6E57               	movwf	_width^(0+1280),c
   989   002E1A  C557  F55B         	movff	_width,_flags
   990   002E1E                     
   991                           ;C:\Program Files\Microchip\xc8\v2.41\pic\sources\c99\common\doprnt.c: 1066:         pre
      +                          c = -1;
   992   002E1E  6859               	setf	_prec^(0+1280),c
   993   002E20  685A               	setf	(_prec+1)^(0+1280),c
   994   002E22                     
   995                           ;C:\Program Files\Microchip\xc8\v2.41\pic\sources\c99\common\doprnt.c: 1070:         don
      +                          e = 0;
   996   002E22  0E00               	movlw	0
   997   002E24  6E33               	movwf	(vfpfcnvrt@done+1)^(0+1280),c
   998   002E26  0E00               	movlw	0
   999   002E28  6E32               	movwf	vfpfcnvrt@done^(0+1280),c
  1000                           
  1001                           ;C:\Program Files\Microchip\xc8\v2.41\pic\sources\c99\common\doprnt.c: 1071:         whi
      +                          le (!done) {
  1002   002E2A  EF43  F017         	goto	l1804
  1003   002E2E                     l1794:
  1004                           
  1005                           ;C:\Program Files\Microchip\xc8\v2.41\pic\sources\c99\common\doprnt.c: 1075:            
      +                                   flags |= (1 << 0);
  1006   002E2E  805B               	bsf	_flags^(0+1280),0,c
  1007   002E30                     
  1008                           ;C:\Program Files\Microchip\xc8\v2.41\pic\sources\c99\common\doprnt.c: 1076:            
      +                                   ++*fmt;
  1009   002E30  C528  F4D9         	movff	vfpfcnvrt@fmt,fsr2l
  1010   002E34  C529  F4DA         	movff	vfpfcnvrt@fmt+1,fsr2h
  1011   002E38  2ADE               	incf	postinc2,f,c
  1012   002E3A  0E00               	movlw	0
  1013   002E3C  22DD               	addwfc	postdec2,f,c
  1014                           
  1015                           ;C:\Program Files\Microchip\xc8\v2.41\pic\sources\c99\common\doprnt.c: 1077:            
      +                                   break;
  1016   002E3E  EF43  F017         	goto	l1804
  1017   002E42                     l1798:
  1018                           
  1019                           ;C:\Program Files\Microchip\xc8\v2.41\pic\sources\c99\common\doprnt.c: 1104:            
      +                                   done = 1;
  1020   002E42  0E00               	movlw	0
  1021   002E44  6E33               	movwf	(vfpfcnvrt@done+1)^(0+1280),c
  1022   002E46  0E01               	movlw	1
  1023   002E48  6E32               	movwf	vfpfcnvrt@done^(0+1280),c
  1024                           
  1025                           ;C:\Program Files\Microchip\xc8\v2.41\pic\sources\c99\common\doprnt.c: 1105:            
      +                                   break;
  1026   002E4A  EF43  F017         	goto	l1804
  1027   002E4E                     l1802:
  1028   002E4E  C528  F4D9         	movff	vfpfcnvrt@fmt,fsr2l
  1029   002E52  C529  F4DA         	movff	vfpfcnvrt@fmt+1,fsr2h
  1030   002E56  C4DE F4F6          	movff	postinc2,tblptrl
  1031   002E5A  C4DD F4F7          	movff	postdec2,tblptrh
  1032   002E5E                     	if	0	;tblptru may be non-zero
  1033   002E5E                     	endif
  1034   002E5E                     	if	1	;Program memory is > 0xFFFF, there are 3 active tblptr bytes
  1035   002E5E  0E00               	movlw	low (__mediumconst shr (0+16))
  1036   002E60  6EF8               	movwf	tblptru,c
  1037   002E62                     	endif
  1038   002E62  0008               	tblrd		*
  1039   002E64  50F5               	movf	tablat,w,c
  1040   002E66  6E2C               	movwf	??_vfpfcnvrt^(0+1280),c
  1041   002E68  6A2D               	clrf	(??_vfpfcnvrt+1)^(0+1280),c
  1042                           
  1043                           ; Switch on 2 bytes has been partitioned into a top level switch of size 1, and 1 sub-sw
      +                          itches
  1044                           ; Switch size 1, requested type "simple"
  1045                           ; Number of cases is 1, Range of values is 0 to 0
  1046                           ; switch strategies available:
  1047                           ; Name         Instructions Cycles
  1048                           ; simple_byte            4     3 (average)
  1049                           ;	Chosen strategy is simple_byte
  1050   002E6A  502D               	movf	(??_vfpfcnvrt+1)^(0+1280),w,c
  1051   002E6C  0A00               	xorlw	0	; case 0
  1052   002E6E  B4D8               	btfsc	status,2,c
  1053   002E70  EF3C  F017         	goto	l2392
  1054   002E74  EF21  F017         	goto	l1798
  1055   002E78                     l2392:
  1056                           
  1057                           ; Switch size 1, requested type "simple"
  1058                           ; Number of cases is 1, Range of values is 45 to 45
  1059                           ; switch strategies available:
  1060                           ; Name         Instructions Cycles
  1061                           ; simple_byte            4     3 (average)
  1062                           ;	Chosen strategy is simple_byte
  1063   002E78  502C               	movf	??_vfpfcnvrt^(0+1280),w,c
  1064   002E7A  0A2D               	xorlw	45	; case 45
  1065   002E7C  B4D8               	btfsc	status,2,c
  1066   002E7E  EF17  F017         	goto	l1794
  1067   002E82  EF21  F017         	goto	l1798
  1068   002E86                     l1804:
  1069                           
  1070                           ;C:\Program Files\Microchip\xc8\v2.41\pic\sources\c99\common\doprnt.c: 1071:         whi
      +                          le (!done) {
  1071   002E86  5032               	movf	vfpfcnvrt@done^(0+1280),w,c
  1072   002E88  1033               	iorwf	(vfpfcnvrt@done+1)^(0+1280),w,c
  1073   002E8A  B4D8               	btfsc	status,2,c
  1074   002E8C  EF4A  F017         	goto	u1151
  1075   002E90  EF4C  F017         	goto	u1150
  1076   002E94                     u1151:
  1077   002E94  EF27  F017         	goto	l1802
  1078   002E98                     u1150:
  1079   002E98                     
  1080                           ;C:\Program Files\Microchip\xc8\v2.41\pic\sources\c99\common\doprnt.c: 1117:   width = r
      +                          ead_prec_or_width(fmt, ap);
  1081   002E98  C528  F507         	movff	vfpfcnvrt@fmt,read_prec_or_width@fmt
  1082   002E9C  C529  F508         	movff	vfpfcnvrt@fmt+1,read_prec_or_width@fmt+1
  1083   002EA0  C52A  F509         	movff	vfpfcnvrt@ap,read_prec_or_width@ap
  1084   002EA4  C52B  F50A         	movff	vfpfcnvrt@ap+1,read_prec_or_width@ap+1
  1085   002EA8  EC6C  F01A         	call	_read_prec_or_width	;wreg free
  1086   002EAC  C507  F557         	movff	?_read_prec_or_width,_width
  1087   002EB0  C508  F558         	movff	?_read_prec_or_width+1,_width+1
  1088   002EB4                     
  1089                           ;C:\Program Files\Microchip\xc8\v2.41\pic\sources\c99\common\doprnt.c: 1118:   if (width
      +                           < 0) {
  1090   002EB4  BE58               	btfsc	(_width+1)^(0+1280),7,c
  1091   002EB6  EF61  F017         	goto	u1160
  1092   002EBA  EF5F  F017         	goto	u1161
  1093   002EBE                     u1161:
  1094   002EBE  EF66  F017         	goto	l1812
  1095   002EC2                     u1160:
  1096   002EC2                     
  1097                           ;C:\Program Files\Microchip\xc8\v2.41\pic\sources\c99\common\doprnt.c: 1119:    flags |=
      +                           (1 << 0);
  1098   002EC2  805B               	bsf	_flags^(0+1280),0,c
  1099                           
  1100                           ;C:\Program Files\Microchip\xc8\v2.41\pic\sources\c99\common\doprnt.c: 1120:    width = 
      +                          -width;
  1101   002EC4  6C57               	negf	_width^(0+1280),c
  1102   002EC6  1E58               	comf	(_width+1)^(0+1280),f,c
  1103   002EC8  B0D8               	btfsc	status,0,c
  1104   002ECA  2A58               	incf	(_width+1)^(0+1280),f,c
  1105   002ECC                     l1812:
  1106                           
  1107                           ;C:\Program Files\Microchip\xc8\v2.41\pic\sources\c99\common\doprnt.c: 1265:   if (0
  1108   002ECC  C528  F4D9         	movff	vfpfcnvrt@fmt,fsr2l
  1109   002ED0  C529  F4DA         	movff	vfpfcnvrt@fmt+1,fsr2h
  1110   002ED4  C4DE F534          	movff	postinc2,vfpfcnvrt@cp
  1111   002ED8  C4DD F535          	movff	postdec2,vfpfcnvrt@cp+1
  1112   002EDC  C534  F4F6         	movff	vfpfcnvrt@cp,tblptrl
  1113   002EE0  C535  F4F7         	movff	vfpfcnvrt@cp+1,tblptrh
  1114   002EE4                     	if	0	;tblptru may be non-zero
  1115   002EE4                     	endif
  1116   002EE4                     	if	1	;Program memory is > 0xFFFF, there are 3 active tblptr bytes
  1117   002EE4  0E00               	movlw	low (__mediumconst shr (0+16))
  1118   002EE6  6EF8               	movwf	tblptru,c
  1119   002EE8                     	endif
  1120   002EE8  0008               	tblrd		*
  1121   002EEA  50F5               	movf	tablat,w,c
  1122   002EEC  0A75               	xorlw	117
  1123   002EEE  A4D8               	btfss	status,2,c
  1124   002EF0  EF7C  F017         	goto	u1171
  1125   002EF4  EF7E  F017         	goto	u1170
  1126   002EF8                     u1171:
  1127   002EF8  EFC6  F017         	goto	l1826
  1128   002EFC                     u1170:
  1129   002EFC                     
  1130                           ;C:\Program Files\Microchip\xc8\v2.41\pic\sources\c99\common\doprnt.c: 1278:     ) {;C:\
      +                          Program Files\Microchip\xc8\v2.41\pic\sources\c99\common\doprnt.c: 1321:    convarg.uint
      +                           = (vfpf_uint_t)(unsigned int)(*(unsigned int *)__va_arg(*(unsigned int **)ap, (unsigned
      +                           int)0));
  1131   002EFC  C52A  F4D9         	movff	vfpfcnvrt@ap,fsr2l
  1132   002F00  C52B  F4DA         	movff	vfpfcnvrt@ap+1,fsr2h
  1133   002F04  C4DF F52C          	movff	indf2,??_vfpfcnvrt
  1134   002F08  0E02               	movlw	2
  1135   002F0A  26DE               	addwf	postinc2,f,c
  1136   002F0C  C4DF F52D          	movff	indf2,??_vfpfcnvrt+1
  1137   002F10  0E00               	movlw	0
  1138   002F12  22DD               	addwfc	postdec2,f,c
  1139   002F14  C52C  F4D9         	movff	??_vfpfcnvrt,fsr2l
  1140   002F18  C52D  F4DA         	movff	??_vfpfcnvrt+1,fsr2h
  1141   002F1C  C4DE F52E          	movff	postinc2,vfpfcnvrt@convarg
  1142   002F20  C4DD F52F          	movff	postdec2,vfpfcnvrt@convarg+1
  1143                           
  1144                           ;C:\Program Files\Microchip\xc8\v2.41\pic\sources\c99\common\doprnt.c: 1323:    *fmt = c
      +                          p+1;
  1145   002F24  0E01               	movlw	1
  1146   002F26  2434               	addwf	vfpfcnvrt@cp^(0+1280),w,c
  1147   002F28  6E2C               	movwf	??_vfpfcnvrt^(0+1280),c
  1148   002F2A  0E00               	movlw	0
  1149   002F2C  2035               	addwfc	(vfpfcnvrt@cp+1)^(0+1280),w,c
  1150   002F2E  6E2D               	movwf	(??_vfpfcnvrt+1)^(0+1280),c
  1151   002F30  C528  F4D9         	movff	vfpfcnvrt@fmt,fsr2l
  1152   002F34  C529  F4DA         	movff	vfpfcnvrt@fmt+1,fsr2h
  1153   002F38  C52C  F4DE         	movff	??_vfpfcnvrt,postinc2
  1154   002F3C  C52D  F4DD         	movff	??_vfpfcnvrt+1,postdec2
  1155                           
  1156                           ;C:\Program Files\Microchip\xc8\v2.41\pic\sources\c99\common\doprnt.c: 1324:    switch (
      +                          *cp) {
  1157   002F40  EFAE  F017         	goto	l1824
  1158   002F44                     l1818:
  1159                           
  1160                           ;C:\Program Files\Microchip\xc8\v2.41\pic\sources\c99\common\doprnt.c: 1331:      return
      +                           (void) utoa(fp, convarg.uint);;	Return value of _vfpfcnvrt is never used
  1161   002F44  C526  F51C         	movff	vfpfcnvrt@fp,utoa@fp
  1162   002F48  C527  F51D         	movff	vfpfcnvrt@fp+1,utoa@fp+1
  1163   002F4C  C52E  F51E         	movff	vfpfcnvrt@convarg,utoa@d
  1164   002F50  C52F  F51F         	movff	vfpfcnvrt@convarg+1,utoa@d+1
  1165   002F54  ECF4  F019         	call	_utoa	;wreg free
  1166   002F58  EF0C  F018         	goto	l859
  1167   002F5C                     l1824:
  1168   002F5C  C534  F4F6         	movff	vfpfcnvrt@cp,tblptrl
  1169   002F60  C535  F4F7         	movff	vfpfcnvrt@cp+1,tblptrh
  1170   002F64                     	if	0	;tblptru may be non-zero
  1171   002F64                     	endif
  1172   002F64                     	if	1	;Program memory is > 0xFFFF, there are 3 active tblptr bytes
  1173   002F64  0E00               	movlw	low (__mediumconst shr (0+16))
  1174   002F66  6EF8               	movwf	tblptru,c
  1175   002F68                     	endif
  1176   002F68  0008               	tblrd		*
  1177   002F6A  50F5               	movf	tablat,w,c
  1178   002F6C  6E2C               	movwf	??_vfpfcnvrt^(0+1280),c
  1179   002F6E  6A2D               	clrf	(??_vfpfcnvrt+1)^(0+1280),c
  1180                           
  1181                           ; Switch on 2 bytes has been partitioned into a top level switch of size 1, and 1 sub-sw
      +                          itches
  1182                           ; Switch size 1, requested type "simple"
  1183                           ; Number of cases is 1, Range of values is 0 to 0
  1184                           ; switch strategies available:
  1185                           ; Name         Instructions Cycles
  1186                           ; simple_byte            4     3 (average)
  1187                           ;	Chosen strategy is simple_byte
  1188   002F70  502D               	movf	(??_vfpfcnvrt+1)^(0+1280),w,c
  1189   002F72  0A00               	xorlw	0	; case 0
  1190   002F74  B4D8               	btfsc	status,2,c
  1191   002F76  EFBF  F017         	goto	l2394
  1192   002F7A  EFC6  F017         	goto	l1826
  1193   002F7E                     l2394:
  1194                           
  1195                           ; Switch size 1, requested type "simple"
  1196                           ; Number of cases is 1, Range of values is 117 to 117
  1197                           ; switch strategies available:
  1198                           ; Name         Instructions Cycles
  1199                           ; simple_byte            4     3 (average)
  1200                           ;	Chosen strategy is simple_byte
  1201   002F7E  502C               	movf	??_vfpfcnvrt^(0+1280),w,c
  1202   002F80  0A75               	xorlw	117	; case 117
  1203   002F82  B4D8               	btfsc	status,2,c
  1204   002F84  EFA2  F017         	goto	l1818
  1205   002F88  EFC6  F017         	goto	l1826
  1206   002F8C                     l1826:
  1207                           
  1208                           ;C:\Program Files\Microchip\xc8\v2.41\pic\sources\c99\common\doprnt.c: 1527:         if 
      +                          ((*fmt)[0] == '%') {
  1209   002F8C  C528  F4D9         	movff	vfpfcnvrt@fmt,fsr2l
  1210   002F90  C529  F4DA         	movff	vfpfcnvrt@fmt+1,fsr2h
  1211   002F94  C4DE F4F6          	movff	postinc2,tblptrl
  1212   002F98  C4DD F4F7          	movff	postdec2,tblptrh
  1213   002F9C                     	if	0	;tblptru may be non-zero
  1214   002F9C                     	endif
  1215   002F9C                     	if	1	;Program memory is > 0xFFFF, there are 3 active tblptr bytes
  1216   002F9C  0E00               	movlw	low (__mediumconst shr (0+16))
  1217   002F9E  6EF8               	movwf	tblptru,c
  1218   002FA0                     	endif
  1219   002FA0  0008               	tblrd		*
  1220   002FA2  50F5               	movf	tablat,w,c
  1221   002FA4  0A25               	xorlw	37
  1222   002FA6  A4D8               	btfss	status,2,c
  1223   002FA8  EFD8  F017         	goto	u1181
  1224   002FAC  EFDA  F017         	goto	u1180
  1225   002FB0                     u1181:
  1226   002FB0  EFED  F017         	goto	l1834
  1227   002FB4                     u1180:
  1228   002FB4                     
  1229                           ;C:\Program Files\Microchip\xc8\v2.41\pic\sources\c99\common\doprnt.c: 1528:            
      +                           ++*fmt;
  1230   002FB4  C528  F4D9         	movff	vfpfcnvrt@fmt,fsr2l
  1231   002FB8  C529  F4DA         	movff	vfpfcnvrt@fmt+1,fsr2h
  1232   002FBC  2ADE               	incf	postinc2,f,c
  1233   002FBE  0E00               	movlw	0
  1234   002FC0  22DD               	addwfc	postdec2,f,c
  1235   002FC2                     
  1236                           ;C:\Program Files\Microchip\xc8\v2.41\pic\sources\c99\common\doprnt.c: 1529:            
      +                           fputc((int)'%', fp);
  1237   002FC2  0E00               	movlw	0
  1238   002FC4  6E02               	movwf	(fputc@c+1)^(0+1280),c
  1239   002FC6  0E25               	movlw	37
  1240   002FC8  6E01               	movwf	fputc@c^(0+1280),c
  1241   002FCA  C526  F503         	movff	vfpfcnvrt@fp,fputc@fp
  1242   002FCE  C527  F504         	movff	vfpfcnvrt@fp+1,fputc@fp+1
  1243   002FD2  ECD3  F01A         	call	_fputc	;wreg free
  1244   002FD6  EF0C  F018         	goto	l859
  1245   002FDA                     l1834:
  1246                           
  1247                           ;C:\Program Files\Microchip\xc8\v2.41\pic\sources\c99\common\doprnt.c: 1535:         ++*
      +                          fmt;
  1248   002FDA  C528  F4D9         	movff	vfpfcnvrt@fmt,fsr2l
  1249   002FDE  C529  F4DA         	movff	vfpfcnvrt@fmt+1,fsr2h
  1250   002FE2  2ADE               	incf	postinc2,f,c
  1251   002FE4  0E00               	movlw	0
  1252   002FE6  22DD               	addwfc	postdec2,f,c
  1253   002FE8  EF0C  F018         	goto	l859
  1254   002FEC                     l1838:
  1255                           
  1256                           ;C:\Program Files\Microchip\xc8\v2.41\pic\sources\c99\common\doprnt.c: 1540:     fputc((
      +                          int)(*fmt)[0], fp);
  1257   002FEC  C528  F4D9         	movff	vfpfcnvrt@fmt,fsr2l
  1258   002FF0  C529  F4DA         	movff	vfpfcnvrt@fmt+1,fsr2h
  1259   002FF4  C4DE F4F6          	movff	postinc2,tblptrl
  1260   002FF8  C4DD F4F7          	movff	postdec2,tblptrh
  1261   002FFC                     	if	0	;tblptru may be non-zero
  1262   002FFC                     	endif
  1263   002FFC                     	if	1	;Program memory is > 0xFFFF, there are 3 active tblptr bytes
  1264   002FFC  0E00               	movlw	low (__mediumconst shr (0+16))
  1265   002FFE  6EF8               	movwf	tblptru,c
  1266   003000                     	endif
  1267   003000  0008               	tblrd		*
  1268   003002  50F5               	movf	tablat,w,c
  1269   003004  6E01               	movwf	fputc@c^(0+1280),c
  1270   003006  6A02               	clrf	(fputc@c+1)^(0+1280),c
  1271   003008  C526  F503         	movff	vfpfcnvrt@fp,fputc@fp
  1272   00300C  C527  F504         	movff	vfpfcnvrt@fp+1,fputc@fp+1
  1273   003010  ECD3  F01A         	call	_fputc	;wreg free
  1274   003014  EFED  F017         	goto	l1834
  1275   003018                     l859:
  1276   003018  0012               	return		;funcret
  1277   00301A                     __end_of_vfpfcnvrt:
  1278                           	callstack 0
  1279                           
  1280 ;; *************** function _utoa *****************
  1281 ;; Defined at:
  1282 ;;		line 917 in file "C:\Program Files\Microchip\xc8\v2.41\pic\sources\c99\common\doprnt.c"
  1283 ;; Parameters:    Size  Location     Type
  1284 ;;  fp              2   27[COMRAM] PTR struct _IO_FILE
  1285 ;;		 -> sprintf@f(12), 
  1286 ;;  d               2   29[COMRAM] unsigned int 
  1287 ;; Auto vars:     Size  Location     Type
  1288 ;;  i               2   35[COMRAM] int 
  1289 ;;  p               2   33[COMRAM] int 
  1290 ;;  w               2   31[COMRAM] int 
  1291 ;; Return value:  Size  Location     Type
  1292 ;;                  1    wreg      void 
  1293 ;; Registers used:
  1294 ;;		wreg, fsr1l, fsr1h, fsr2l, fsr2h, status,2, status,0, cstack
  1295 ;; Tracked objects:
  1296 ;;		On entry : 0/0
  1297 ;;		On exit  : 0/0
  1298 ;;		Unchanged: 0/0
  1299 ;; Data sizes:     COMRAM   BANK5   BANK6   BANK7   BANK8   BANK9  BANK10  BANK11  BANK12  BANK13  BANK14  BANK15  BANK1
      +6  BANK17  BANK18  BANK19  BANK20  BANK21  BANK22  BANK23  BANK24  BANK25  BANK26  BANK27  BANK28  BANK29  BANK30  BANK3
      +1  BANK32  BANK33  BANK34  BANK35  BANK36
  1300 ;;      Params:         4       0       0       0       0       0       0       0       0       0       0       0       
      +0       0       0       0       0       0       0       0       0       0       0       0       0       0       0       
      +0       0       0       0       0       0
  1301 ;;      Locals:         6       0       0       0       0       0       0       0       0       0       0       0       
      +0       0       0       0       0       0       0       0       0       0       0       0       0       0       0       
      +0       0       0       0       0       0
  1302 ;;      Temps:          0       0       0       0       0       0       0       0       0       0       0       0       
      +0       0       0       0       0       0       0       0       0       0       0       0       0       0       0       
      +0       0       0       0       0       0
  1303 ;;      Totals:        10       0       0       0       0       0       0       0       0       0       0       0       
      +0       0       0       0       0       0       0       0       0       0       0       0       0       0       0       
      +0       0       0       0       0       0
  1304 ;;Total ram usage:       10 bytes
  1305 ;; Hardware stack levels used: 1
  1306 ;; Hardware stack levels required when called: 4
  1307 ;; This function calls:
  1308 ;;		___lwdiv
  1309 ;;		___lwmod
  1310 ;;		_pad
  1311 ;; This function is called by:
  1312 ;;		_vfpfcnvrt
  1313 ;; This function uses a non-reentrant model
  1314 ;;
  1315                           
  1316                           	psect	text4
  1317   0033E8                     __ptext4:
  1318                           	callstack 0
  1319   0033E8                     _utoa:
  1320                           	callstack 119
  1321   0033E8                     
  1322                           ;C:\Program Files\Microchip\xc8\v2.41\pic\sources\c99\common\doprnt.c: 917: static void 
      +                          utoa(FILE *fp, vfpf_uint_t d);C:\Program Files\Microchip\xc8\v2.41\pic\sources\c99\commo
      +                          n\doprnt.c: 918: {;C:\Program Files\Microchip\xc8\v2.41\pic\sources\c99\common\doprnt.c:
      +                           919:     int i, p, w;;C:\Program Files\Microchip\xc8\v2.41\pic\sources\c99\common\doprn
      +                          t.c: 927:     p = (0 <= prec) ? prec : 1;
  1323   0033E8  BE5A               	btfsc	(_prec+1)^(0+1280),7,c
  1324   0033EA  EFFB  F019         	goto	u1080
  1325   0033EE  EFF9  F019         	goto	u1081
  1326   0033F2                     u1081:
  1327   0033F2  EF01  F01A         	goto	l826
  1328   0033F6                     u1080:
  1329   0033F6  0E00               	movlw	0
  1330   0033F8  6E23               	movwf	(utoa@p+1)^(0+1280),c
  1331   0033FA  0E01               	movlw	1
  1332   0033FC  6E22               	movwf	utoa@p^(0+1280),c
  1333   0033FE  EF05  F01A         	goto	l828
  1334   003402                     l826:
  1335   003402  C559  F522         	movff	_prec,utoa@p
  1336   003406  C55A  F523         	movff	_prec+1,utoa@p+1
  1337   00340A                     l828:
  1338                           
  1339                           ;C:\Program Files\Microchip\xc8\v2.41\pic\sources\c99\common\doprnt.c: 928:     w = widt
      +                          h;
  1340   00340A  C557  F520         	movff	_width,utoa@w
  1341   00340E  C558  F521         	movff	_width+1,utoa@w+1
  1342   003412                     
  1343                           ;C:\Program Files\Microchip\xc8\v2.41\pic\sources\c99\common\doprnt.c: 931:     i = size
      +                          of(dbuf) - 1;
  1344   003412  0E00               	movlw	0
  1345   003414  6E25               	movwf	(utoa@i+1)^(0+1280),c
  1346   003416  0E1F               	movlw	31
  1347   003418  6E24               	movwf	utoa@i^(0+1280),c
  1348   00341A                     
  1349                           ;C:\Program Files\Microchip\xc8\v2.41\pic\sources\c99\common\doprnt.c: 932:     dbuf[i] 
      +                          = '\0';
  1350   00341A  0E00               	movlw	0
  1351   00341C  0105               	movlb	5	; () banked
  1352   00341E  6F7F               	movwf	(_dbuf+31)& (0+255),b
  1353                           
  1354                           ;C:\Program Files\Microchip\xc8\v2.41\pic\sources\c99\common\doprnt.c: 933:     while (i
      +                           && (d || (0 < p)
  1355   003420  EF3C  F01A         	goto	l1744
  1356   003424                     l1734:
  1357                           
  1358                           ;C:\Program Files\Microchip\xc8\v2.41\pic\sources\c99\common\doprnt.c: 937:     )) {;C:\
      +                          Program Files\Microchip\xc8\v2.41\pic\sources\c99\common\doprnt.c: 938:         --i;
  1359   003424  0624               	decf	utoa@i^(0+1280),f,c
  1360   003426  A0D8               	btfss	status,0,c
  1361   003428  0625               	decf	(utoa@i+1)^(0+1280),f,c
  1362   00342A                     
  1363                           ;C:\Program Files\Microchip\xc8\v2.41\pic\sources\c99\common\doprnt.c: 939:         dbuf
      +                          [i] = '0' + (d % 10);
  1364   00342A  0E60               	movlw	low _dbuf
  1365   00342C  2424               	addwf	utoa@i^(0+1280),w,c
  1366   00342E  6ED9               	movwf	fsr2l,c
  1367   003430  0E05               	movlw	high _dbuf
  1368   003432  2025               	addwfc	(utoa@i+1)^(0+1280),w,c
  1369   003434  6EDA               	movwf	fsr2h,c
  1370   003436  C51E  F501         	movff	utoa@d,___lwmod@dividend
  1371   00343A  C51F  F502         	movff	utoa@d+1,___lwmod@dividend+1
  1372   00343E  0E00               	movlw	0
  1373   003440  6E04               	movwf	(___lwmod@divisor+1)^(0+1280),c
  1374   003442  0E0A               	movlw	10
  1375   003444  6E03               	movwf	___lwmod@divisor^(0+1280),c
  1376   003446  EC3F  F01C         	call	___lwmod	;wreg free
  1377   00344A  5001               	movf	?___lwmod^(0+1280),w,c
  1378   00344C  0F30               	addlw	48
  1379   00344E  6EDF               	movwf	indf2,c
  1380   003450                     
  1381                           ;C:\Program Files\Microchip\xc8\v2.41\pic\sources\c99\common\doprnt.c: 940:         --p;
  1382   003450  0622               	decf	utoa@p^(0+1280),f,c
  1383   003452  A0D8               	btfss	status,0,c
  1384   003454  0623               	decf	(utoa@p+1)^(0+1280),f,c
  1385   003456                     
  1386                           ;C:\Program Files\Microchip\xc8\v2.41\pic\sources\c99\common\doprnt.c: 941:         --w;
  1387   003456  0620               	decf	utoa@w^(0+1280),f,c
  1388   003458  A0D8               	btfss	status,0,c
  1389   00345A  0621               	decf	(utoa@w+1)^(0+1280),f,c
  1390   00345C                     
  1391                           ;C:\Program Files\Microchip\xc8\v2.41\pic\sources\c99\common\doprnt.c: 942:         d = 
      +                          d / 10;
  1392   00345C  C51E  F501         	movff	utoa@d,___lwdiv@dividend
  1393   003460  C51F  F502         	movff	utoa@d+1,___lwdiv@dividend+1
  1394   003464  0E00               	movlw	0
  1395   003466  6E04               	movwf	(___lwdiv@divisor+1)^(0+1280),c
  1396   003468  0E0A               	movlw	10
  1397   00346A  6E03               	movwf	___lwdiv@divisor^(0+1280),c
  1398   00346C  ECCB  F01B         	call	___lwdiv	;wreg free
  1399   003470  C501  F51E         	movff	?___lwdiv,utoa@d
  1400   003474  C502  F51F         	movff	?___lwdiv+1,utoa@d+1
  1401   003478                     l1744:
  1402                           
  1403                           ;C:\Program Files\Microchip\xc8\v2.41\pic\sources\c99\common\doprnt.c: 933:     while (i
      +                           && (d || (0 < p)
  1404   003478  5024               	movf	utoa@i^(0+1280),w,c
  1405   00347A  1025               	iorwf	(utoa@i+1)^(0+1280),w,c
  1406   00347C  B4D8               	btfsc	status,2,c
  1407   00347E  EF43  F01A         	goto	u1091
  1408   003482  EF45  F01A         	goto	u1090
  1409   003486                     u1091:
  1410   003486  EF5B  F01A         	goto	l1750
  1411   00348A                     u1090:
  1412   00348A  501E               	movf	utoa@d^(0+1280),w,c
  1413   00348C  101F               	iorwf	(utoa@d+1)^(0+1280),w,c
  1414   00348E  A4D8               	btfss	status,2,c
  1415   003490  EF4C  F01A         	goto	u1101
  1416   003494  EF4E  F01A         	goto	u1100
  1417   003498                     u1101:
  1418   003498  EF12  F01A         	goto	l1734
  1419   00349C                     u1100:
  1420   00349C  BE23               	btfsc	(utoa@p+1)^(0+1280),7,c
  1421   00349E  EF5B  F01A         	goto	u1110
  1422   0034A2  5023               	movf	(utoa@p+1)^(0+1280),w,c
  1423   0034A4  E106               	bnz	u1111
  1424   0034A6  0422               	decf	utoa@p^(0+1280),w,c
  1425   0034A8  B0D8               	btfsc	status,0,c
  1426   0034AA  EF59  F01A         	goto	u1111
  1427   0034AE  EF5B  F01A         	goto	u1110
  1428   0034B2                     u1111:
  1429   0034B2  EF12  F01A         	goto	l1734
  1430   0034B6                     u1110:
  1431   0034B6                     l1750:
  1432                           
  1433                           ;C:\Program Files\Microchip\xc8\v2.41\pic\sources\c99\common\doprnt.c: 946:     return (
      +                          void) pad(fp, &dbuf[i], w);
  1434   0034B6  C51C  F511         	movff	utoa@fp,pad@fp
  1435   0034BA  C51D  F512         	movff	utoa@fp+1,pad@fp+1
  1436   0034BE  0E60               	movlw	low _dbuf
  1437   0034C0  2424               	addwf	utoa@i^(0+1280),w,c
  1438   0034C2  6E13               	movwf	pad@buf^(0+1280),c
  1439   0034C4  0E05               	movlw	high _dbuf
  1440   0034C6  2025               	addwfc	(utoa@i+1)^(0+1280),w,c
  1441   0034C8  6E14               	movwf	(pad@buf+1)^(0+1280),c
  1442   0034CA  C520  F515         	movff	utoa@w,pad@p
  1443   0034CE  C521  F516         	movff	utoa@w+1,pad@p+1
  1444   0034D2  EC38  F01B         	call	_pad	;wreg free
  1445   0034D6  0012               	return		;funcret
  1446   0034D8                     __end_of_utoa:
  1447                           	callstack 0
  1448                           
  1449 ;; *************** function _pad *****************
  1450 ;; Defined at:
  1451 ;;		line 152 in file "C:\Program Files\Microchip\xc8\v2.41\pic\sources\c99\common\doprnt.c"
  1452 ;; Parameters:    Size  Location     Type
  1453 ;;  fp              2   16[COMRAM] PTR struct _IO_FILE
  1454 ;;		 -> sprintf@f(12), 
  1455 ;;  buf             2   18[COMRAM] PTR unsigned char 
  1456 ;;		 -> dbuf(32), 
  1457 ;;  p               2   20[COMRAM] int 
  1458 ;; Auto vars:     Size  Location     Type
  1459 ;;  w               2   25[COMRAM] int 
  1460 ;;  i               2   23[COMRAM] int 
  1461 ;; Return value:  Size  Location     Type
  1462 ;;                  1    wreg      void 
  1463 ;; Registers used:
  1464 ;;		wreg, fsr1l, fsr1h, fsr2l, fsr2h, status,2, status,0, cstack
  1465 ;; Tracked objects:
  1466 ;;		On entry : 0/0
  1467 ;;		On exit  : 0/0
  1468 ;;		Unchanged: 0/0
  1469 ;; Data sizes:     COMRAM   BANK5   BANK6   BANK7   BANK8   BANK9  BANK10  BANK11  BANK12  BANK13  BANK14  BANK15  BANK1
      +6  BANK17  BANK18  BANK19  BANK20  BANK21  BANK22  BANK23  BANK24  BANK25  BANK26  BANK27  BANK28  BANK29  BANK30  BANK3
      +1  BANK32  BANK33  BANK34  BANK35  BANK36
  1470 ;;      Params:         6       0       0       0       0       0       0       0       0       0       0       0       
      +0       0       0       0       0       0       0       0       0       0       0       0       0       0       0       
      +0       0       0       0       0       0
  1471 ;;      Locals:         4       0       0       0       0       0       0       0       0       0       0       0       
      +0       0       0       0       0       0       0       0       0       0       0       0       0       0       0       
      +0       0       0       0       0       0
  1472 ;;      Temps:          1       0       0       0       0       0       0       0       0       0       0       0       
      +0       0       0       0       0       0       0       0       0       0       0       0       0       0       0       
      +0       0       0       0       0       0
  1473 ;;      Totals:        11       0       0       0       0       0       0       0       0       0       0       0       
      +0       0       0       0       0       0       0       0       0       0       0       0       0       0       0       
      +0       0       0       0       0       0
  1474 ;;Total ram usage:       11 bytes
  1475 ;; Hardware stack levels used: 1
  1476 ;; Hardware stack levels required when called: 3
  1477 ;; This function calls:
  1478 ;;		_fputc
  1479 ;;		_fputs
  1480 ;; This function is called by:
  1481 ;;		_utoa
  1482 ;; This function uses a non-reentrant model
  1483 ;;
  1484                           
  1485                           	psect	text5
  1486   003670                     __ptext5:
  1487                           	callstack 0
  1488   003670                     _pad:
  1489                           	callstack 119
  1490   003670                     
  1491                           ;C:\Program Files\Microchip\xc8\v2.41\pic\sources\c99\common\doprnt.c: 152: static void 
      +                          pad(FILE *fp, char *buf, int p);C:\Program Files\Microchip\xc8\v2.41\pic\sources\c99\com
      +                          mon\doprnt.c: 153: {;C:\Program Files\Microchip\xc8\v2.41\pic\sources\c99\common\doprnt.
      +                          c: 154:     int i, w;;C:\Program Files\Microchip\xc8\v2.41\pic\sources\c99\common\doprnt
      +                          .c: 158:     if (flags & (1 << 0)) {
  1492   003670  A05B               	btfss	_flags^(0+1280),0,c
  1493   003672  EF3D  F01B         	goto	u1041
  1494   003676  EF3F  F01B         	goto	u1040
  1495   00367A                     u1041:
  1496   00367A  EF49  F01B         	goto	l1712
  1497   00367E                     u1040:
  1498   00367E                     
  1499                           ;C:\Program Files\Microchip\xc8\v2.41\pic\sources\c99\common\doprnt.c: 159:         fput
      +                          s((const char *)buf, fp);
  1500   00367E  C513  F50A         	movff	pad@buf,fputs@s
  1501   003682  C514  F50B         	movff	pad@buf+1,fputs@s+1
  1502   003686  C511  F50C         	movff	pad@fp,fputs@fp
  1503   00368A  C512  F50D         	movff	pad@fp+1,fputs@fp+1
  1504   00368E  ECC0  F01C         	call	_fputs	;wreg free
  1505   003692                     l1712:
  1506                           
  1507                           ;C:\Program Files\Microchip\xc8\v2.41\pic\sources\c99\common\doprnt.c: 164:     w = (p <
      +                           0) ? 0 : p;
  1508   003692  BE16               	btfsc	(pad@p+1)^(0+1280),7,c
  1509   003694  EF4E  F01B         	goto	u1051
  1510   003698  EF50  F01B         	goto	u1050
  1511   00369C                     u1051:
  1512   00369C  EF56  F01B         	goto	l1716
  1513   0036A0                     u1050:
  1514   0036A0  C515  F51A         	movff	pad@p,pad@w
  1515   0036A4  C516  F51B         	movff	pad@p+1,pad@w+1
  1516   0036A8  EF5A  F01B         	goto	l817
  1517   0036AC                     l1716:
  1518   0036AC  0E00               	movlw	0
  1519   0036AE  6E1B               	movwf	(pad@w+1)^(0+1280),c
  1520   0036B0  0E00               	movlw	0
  1521   0036B2  6E1A               	movwf	pad@w^(0+1280),c
  1522   0036B4                     l817:
  1523                           
  1524                           ;C:\Program Files\Microchip\xc8\v2.41\pic\sources\c99\common\doprnt.c: 165:     i = 0;
  1525   0036B4  0E00               	movlw	0
  1526   0036B6  6E19               	movwf	(pad@i+1)^(0+1280),c
  1527   0036B8  0E00               	movlw	0
  1528   0036BA  6E18               	movwf	pad@i^(0+1280),c
  1529                           
  1530                           ;C:\Program Files\Microchip\xc8\v2.41\pic\sources\c99\common\doprnt.c: 166:     while (i
      +                           < w) {
  1531   0036BC  EF6C  F01B         	goto	l1722
  1532   0036C0                     l1718:
  1533                           
  1534                           ;C:\Program Files\Microchip\xc8\v2.41\pic\sources\c99\common\doprnt.c: 167:         fput
      +                          c(' ', fp);
  1535   0036C0  0E00               	movlw	0
  1536   0036C2  6E02               	movwf	(fputc@c+1)^(0+1280),c
  1537   0036C4  0E20               	movlw	32
  1538   0036C6  6E01               	movwf	fputc@c^(0+1280),c
  1539   0036C8  C511  F503         	movff	pad@fp,fputc@fp
  1540   0036CC  C512  F504         	movff	pad@fp+1,fputc@fp+1
  1541   0036D0  ECD3  F01A         	call	_fputc	;wreg free
  1542   0036D4                     
  1543                           ;C:\Program Files\Microchip\xc8\v2.41\pic\sources\c99\common\doprnt.c: 168:         ++i;
  1544   0036D4  4A18               	infsnz	pad@i^(0+1280),f,c
  1545   0036D6  2A19               	incf	(pad@i+1)^(0+1280),f,c
  1546   0036D8                     l1722:
  1547                           
  1548                           ;C:\Program Files\Microchip\xc8\v2.41\pic\sources\c99\common\doprnt.c: 166:     while (i
      +                           < w) {
  1549   0036D8  501A               	movf	pad@w^(0+1280),w,c
  1550   0036DA  5C18               	subwf	pad@i^(0+1280),w,c
  1551   0036DC  5019               	movf	(pad@i+1)^(0+1280),w,c
  1552   0036DE  0A80               	xorlw	128
  1553   0036E0  6E17               	movwf	??_pad^(0+1280),c
  1554   0036E2  501B               	movf	(pad@w+1)^(0+1280),w,c
  1555   0036E4  0A80               	xorlw	128
  1556   0036E6  5817               	subwfb	??_pad^(0+1280),w,c
  1557   0036E8  A0D8               	btfss	status,0,c
  1558   0036EA  EF79  F01B         	goto	u1061
  1559   0036EE  EF7B  F01B         	goto	u1060
  1560   0036F2                     u1061:
  1561   0036F2  EF60  F01B         	goto	l1718
  1562   0036F6                     u1060:
  1563   0036F6                     
  1564                           ;C:\Program Files\Microchip\xc8\v2.41\pic\sources\c99\common\doprnt.c: 173:     if (!(fl
      +                          ags & (1 << 0))) {
  1565   0036F6  B05B               	btfsc	_flags^(0+1280),0,c
  1566   0036F8  EF80  F01B         	goto	u1071
  1567   0036FC  EF82  F01B         	goto	u1070
  1568   003700                     u1071:
  1569   003700  EF8C  F01B         	goto	l822
  1570   003704                     u1070:
  1571   003704                     
  1572                           ;C:\Program Files\Microchip\xc8\v2.41\pic\sources\c99\common\doprnt.c: 175:         fput
      +                          s((const char *)buf, fp);
  1573   003704  C513  F50A         	movff	pad@buf,fputs@s
  1574   003708  C514  F50B         	movff	pad@buf+1,fputs@s+1
  1575   00370C  C511  F50C         	movff	pad@fp,fputs@fp
  1576   003710  C512  F50D         	movff	pad@fp+1,fputs@fp+1
  1577   003714  ECC0  F01C         	call	_fputs	;wreg free
  1578   003718                     l822:
  1579   003718  0012               	return		;funcret
  1580   00371A                     __end_of_pad:
  1581                           	callstack 0
  1582                           
  1583 ;; *************** function _fputs *****************
  1584 ;; Defined at:
  1585 ;;		line 8 in file "C:\Program Files\Microchip\xc8\v2.41\pic\sources\c99\common\nf_fputs.c"
  1586 ;; Parameters:    Size  Location     Type
  1587 ;;  s               2    9[COMRAM] PTR const unsigned char 
  1588 ;;		 -> dbuf(32), 
  1589 ;;  fp              2   11[COMRAM] PTR struct _IO_FILE
  1590 ;;		 -> sprintf@f(12), 
  1591 ;; Auto vars:     Size  Location     Type
  1592 ;;  i               2   14[COMRAM] int 
  1593 ;;  c               1   13[COMRAM] unsigned char 
  1594 ;; Return value:  Size  Location     Type
  1595 ;;                  2    9[COMRAM] int 
  1596 ;; Registers used:
  1597 ;;		wreg, fsr1l, fsr1h, fsr2l, fsr2h, status,2, status,0, cstack
  1598 ;; Tracked objects:
  1599 ;;		On entry : 0/0
  1600 ;;		On exit  : 0/0
  1601 ;;		Unchanged: 0/0
  1602 ;; Data sizes:     COMRAM   BANK5   BANK6   BANK7   BANK8   BANK9  BANK10  BANK11  BANK12  BANK13  BANK14  BANK15  BANK1
      +6  BANK17  BANK18  BANK19  BANK20  BANK21  BANK22  BANK23  BANK24  BANK25  BANK26  BANK27  BANK28  BANK29  BANK30  BANK3
      +1  BANK32  BANK33  BANK34  BANK35  BANK36
  1603 ;;      Params:         4       0       0       0       0       0       0       0       0       0       0       0       
      +0       0       0       0       0       0       0       0       0       0       0       0       0       0       0       
      +0       0       0       0       0       0
  1604 ;;      Locals:         3       0       0       0       0       0       0       0       0       0       0       0       
      +0       0       0       0       0       0       0       0       0       0       0       0       0       0       0       
      +0       0       0       0       0       0
  1605 ;;      Temps:          0       0       0       0       0       0       0       0       0       0       0       0       
      +0       0       0       0       0       0       0       0       0       0       0       0       0       0       0       
      +0       0       0       0       0       0
  1606 ;;      Totals:         7       0       0       0       0       0       0       0       0       0       0       0       
      +0       0       0       0       0       0       0       0       0       0       0       0       0       0       0       
      +0       0       0       0       0       0
  1607 ;;Total ram usage:        7 bytes
  1608 ;; Hardware stack levels used: 1
  1609 ;; Hardware stack levels required when called: 2
  1610 ;; This function calls:
  1611 ;;		_fputc
  1612 ;; This function is called by:
  1613 ;;		_pad
  1614 ;; This function uses a non-reentrant model
  1615 ;;
  1616                           
  1617                           	psect	text6
  1618   003980                     __ptext6:
  1619                           	callstack 0
  1620   003980                     _fputs:
  1621                           	callstack 119
  1622   003980  0E00               	movlw	0
  1623   003982  6E10               	movwf	(fputs@i+1)^(0+1280),c
  1624   003984  0E00               	movlw	0
  1625   003986  6E0F               	movwf	fputs@i^(0+1280),c
  1626   003988  EFD1  F01C         	goto	l1662
  1627   00398C                     l1658:
  1628   00398C  C50E  F501         	movff	fputs@c,fputc@c
  1629   003990  6A02               	clrf	(fputc@c+1)^(0+1280),c
  1630   003992  C50C  F503         	movff	fputs@fp,fputc@fp
  1631   003996  C50D  F504         	movff	fputs@fp+1,fputc@fp+1
  1632   00399A  ECD3  F01A         	call	_fputc	;wreg free
  1633   00399E  4A0F               	infsnz	fputs@i^(0+1280),f,c
  1634   0039A0  2A10               	incf	(fputs@i+1)^(0+1280),f,c
  1635   0039A2                     l1662:
  1636   0039A2  500F               	movf	fputs@i^(0+1280),w,c
  1637   0039A4  240A               	addwf	fputs@s^(0+1280),w,c
  1638   0039A6  6ED9               	movwf	fsr2l,c
  1639   0039A8  5010               	movf	(fputs@i+1)^(0+1280),w,c
  1640   0039AA  200B               	addwfc	(fputs@s+1)^(0+1280),w,c
  1641   0039AC  6EDA               	movwf	fsr2h,c
  1642   0039AE  50DF               	movf	indf2,w,c
  1643   0039B0  6E0E               	movwf	fputs@c^(0+1280),c
  1644   0039B2  500E               	movf	fputs@c^(0+1280),w,c
  1645   0039B4  A4D8               	btfss	status,2,c
  1646   0039B6  EFDF  F01C         	goto	u971
  1647   0039BA  EFE1  F01C         	goto	u970
  1648   0039BE                     u971:
  1649   0039BE  EFC6  F01C         	goto	l1658
  1650   0039C2                     u970:
  1651   0039C2  0012               	return		;funcret
  1652   0039C4                     __end_of_fputs:
  1653                           	callstack 0
  1654                           
  1655 ;; *************** function _fputc *****************
  1656 ;; Defined at:
  1657 ;;		line 8 in file "C:\Program Files\Microchip\xc8\v2.41\pic\sources\c99\common\nf_fputc.c"
  1658 ;; Parameters:    Size  Location     Type
  1659 ;;  c               2    0[COMRAM] int 
  1660 ;;  fp              2    2[COMRAM] PTR struct _IO_FILE
  1661 ;;		 -> sprintf@f(12), 
  1662 ;; Auto vars:     Size  Location     Type
  1663 ;;		None
  1664 ;; Return value:  Size  Location     Type
  1665 ;;                  2    0[COMRAM] int 
  1666 ;; Registers used:
  1667 ;;		wreg, fsr1l, fsr1h, fsr2l, fsr2h, status,2, status,0, cstack
  1668 ;; Tracked objects:
  1669 ;;		On entry : 0/0
  1670 ;;		On exit  : 0/0
  1671 ;;		Unchanged: 0/0
  1672 ;; Data sizes:     COMRAM   BANK5   BANK6   BANK7   BANK8   BANK9  BANK10  BANK11  BANK12  BANK13  BANK14  BANK15  BANK1
      +6  BANK17  BANK18  BANK19  BANK20  BANK21  BANK22  BANK23  BANK24  BANK25  BANK26  BANK27  BANK28  BANK29  BANK30  BANK3
      +1  BANK32  BANK33  BANK34  BANK35  BANK36
  1673 ;;      Params:         4       0       0       0       0       0       0       0       0       0       0       0       
      +0       0       0       0       0       0       0       0       0       0       0       0       0       0       0       
      +0       0       0       0       0       0
  1674 ;;      Locals:         0       0       0       0       0       0       0       0       0       0       0       0       
      +0       0       0       0       0       0       0       0       0       0       0       0       0       0       0       
      +0       0       0       0       0       0
  1675 ;;      Temps:          5       0       0       0       0       0       0       0       0       0       0       0       
      +0       0       0       0       0       0       0       0       0       0       0       0       0       0       0       
      +0       0       0       0       0       0
  1676 ;;      Totals:         9       0       0       0       0       0       0       0       0       0       0       0       
      +0       0       0       0       0       0       0       0       0       0       0       0       0       0       0       
      +0       0       0       0       0       0
  1677 ;;Total ram usage:        9 bytes
  1678 ;; Hardware stack levels used: 1
  1679 ;; Hardware stack levels required when called: 1
  1680 ;; This function calls:
  1681 ;;		_putch
  1682 ;; This function is called by:
  1683 ;;		_pad
  1684 ;;		_vfpfcnvrt
  1685 ;;		_fputs
  1686 ;; This function uses a non-reentrant model
  1687 ;;
  1688                           
  1689                           	psect	text7
  1690   0035A6                     __ptext7:
  1691                           	callstack 0
  1692   0035A6                     _fputc:
  1693                           	callstack 119
  1694   0035A6  5003               	movf	fputc@fp^(0+1280),w,c
  1695   0035A8  1004               	iorwf	(fputc@fp+1)^(0+1280),w,c
  1696   0035AA  B4D8               	btfsc	status,2,c
  1697   0035AC  EFDA  F01A         	goto	u931
  1698   0035B0  EFDC  F01A         	goto	u930
  1699   0035B4                     u931:
  1700   0035B4  EFE5  F01A         	goto	l1646
  1701   0035B8                     u930:
  1702   0035B8  5003               	movf	fputc@fp^(0+1280),w,c
  1703   0035BA  1004               	iorwf	(fputc@fp+1)^(0+1280),w,c
  1704   0035BC  A4D8               	btfss	status,2,c
  1705   0035BE  EFE3  F01A         	goto	u941
  1706   0035C2  EFE5  F01A         	goto	u940
  1707   0035C6                     u941:
  1708   0035C6  EFEA  F01A         	goto	l1648
  1709   0035CA                     u940:
  1710   0035CA                     l1646:
  1711   0035CA  5001               	movf	fputc@c^(0+1280),w,c
  1712   0035CC  ECA8  F01D         	call	_putch
  1713   0035D0  EF37  F01B         	goto	l879
  1714   0035D4                     l1648:
  1715   0035D4  EE20 F00A          	lfsr	2,10
  1716   0035D8  5003               	movf	fputc@fp^(0+1280),w,c
  1717   0035DA  26D9               	addwf	fsr2l,f,c
  1718   0035DC  5004               	movf	(fputc@fp+1)^(0+1280),w,c
  1719   0035DE  22DA               	addwfc	fsr2h,f,c
  1720   0035E0  50DE               	movf	postinc2,w,c
  1721   0035E2  10DE               	iorwf	postinc2,w,c
  1722   0035E4  B4D8               	btfsc	status,2,c
  1723   0035E6  EFF7  F01A         	goto	u951
  1724   0035EA  EFF9  F01A         	goto	u950
  1725   0035EE                     u951:
  1726   0035EE  EF14  F01B         	goto	l1652
  1727   0035F2                     u950:
  1728   0035F2  EE20 F00A          	lfsr	2,10
  1729   0035F6  5003               	movf	fputc@fp^(0+1280),w,c
  1730   0035F8  26D9               	addwf	fsr2l,f,c
  1731   0035FA  5004               	movf	(fputc@fp+1)^(0+1280),w,c
  1732   0035FC  22DA               	addwfc	fsr2h,f,c
  1733   0035FE  EE10 F003          	lfsr	1,3
  1734   003602  5003               	movf	fputc@fp^(0+1280),w,c
  1735   003604  26E1               	addwf	fsr1l,f,c
  1736   003606  5004               	movf	(fputc@fp+1)^(0+1280),w,c
  1737   003608  22E2               	addwfc	fsr1h,f,c
  1738   00360A  50DE               	movf	postinc2,w,c
  1739   00360C  5CE6               	subwf	postinc1,w,c
  1740   00360E  50E6               	movf	postinc1,w,c
  1741   003610  0A80               	xorlw	128
  1742   003612  6E09               	movwf	(??_fputc+4)^(0+1280),c
  1743   003614  50DE               	movf	postinc2,w,c
  1744   003616  0A80               	xorlw	128
  1745   003618  5809               	subwfb	(??_fputc+4)^(0+1280),w,c
  1746   00361A  B0D8               	btfsc	status,0,c
  1747   00361C  EF12  F01B         	goto	u961
  1748   003620  EF14  F01B         	goto	u960
  1749   003624                     u961:
  1750   003624  EF37  F01B         	goto	l879
  1751   003628                     u960:
  1752   003628                     l1652:
  1753   003628  EE20 F003          	lfsr	2,3
  1754   00362C  5003               	movf	fputc@fp^(0+1280),w,c
  1755   00362E  26D9               	addwf	fsr2l,f,c
  1756   003630  5004               	movf	(fputc@fp+1)^(0+1280),w,c
  1757   003632  22DA               	addwfc	fsr2h,f,c
  1758   003634  C4DE F505          	movff	postinc2,??_fputc
  1759   003638  C4DD F506          	movff	postdec2,??_fputc+1
  1760   00363C  C503  F4D9         	movff	fputc@fp,fsr2l
  1761   003640  C504  F4DA         	movff	fputc@fp+1,fsr2h
  1762   003644  C4DE F507          	movff	postinc2,??_fputc+2
  1763   003648  C4DD F508          	movff	postdec2,??_fputc+3
  1764   00364C  5005               	movf	??_fputc^(0+1280),w,c
  1765   00364E  2407               	addwf	(??_fputc+2)^(0+1280),w,c
  1766   003650  6ED9               	movwf	fsr2l,c
  1767   003652  5006               	movf	(??_fputc+1)^(0+1280),w,c
  1768   003654  2008               	addwfc	(??_fputc+3)^(0+1280),w,c
  1769   003656  6EDA               	movwf	fsr2h,c
  1770   003658  C501  F4DF         	movff	fputc@c,indf2
  1771   00365C  EE20 F003          	lfsr	2,3
  1772   003660  5003               	movf	fputc@fp^(0+1280),w,c
  1773   003662  26D9               	addwf	fsr2l,f,c
  1774   003664  5004               	movf	(fputc@fp+1)^(0+1280),w,c
  1775   003666  22DA               	addwfc	fsr2h,f,c
  1776   003668  2ADE               	incf	postinc2,f,c
  1777   00366A  0E00               	movlw	0
  1778   00366C  22DD               	addwfc	postdec2,f,c
  1779   00366E                     l879:
  1780   00366E  0012               	return		;funcret
  1781   003670                     __end_of_fputc:
  1782                           	callstack 0
  1783                           
  1784 ;; *************** function _putch *****************
  1785 ;; Defined at:
  1786 ;;		line 7 in file "C:\Program Files\Microchip\xc8\v2.41\pic\sources\c99\common\putch.c"
  1787 ;; Parameters:    Size  Location     Type
  1788 ;;  c               1    wreg     unsigned char 
  1789 ;; Auto vars:     Size  Location     Type
  1790 ;;  c               1    0[COMRAM] unsigned char 
  1791 ;; Return value:  Size  Location     Type
  1792 ;;                  1    wreg      void 
  1793 ;; Registers used:
  1794 ;;		wreg
  1795 ;; Tracked objects:
  1796 ;;		On entry : 0/0
  1797 ;;		On exit  : 0/0
  1798 ;;		Unchanged: 0/0
  1799 ;; Data sizes:     COMRAM   BANK5   BANK6   BANK7   BANK8   BANK9  BANK10  BANK11  BANK12  BANK13  BANK14  BANK15  BANK1
      +6  BANK17  BANK18  BANK19  BANK20  BANK21  BANK22  BANK23  BANK24  BANK25  BANK26  BANK27  BANK28  BANK29  BANK30  BANK3
      +1  BANK32  BANK33  BANK34  BANK35  BANK36
  1800 ;;      Params:         0       0       0       0       0       0       0       0       0       0       0       0       
      +0       0       0       0       0       0       0       0       0       0       0       0       0       0       0       
      +0       0       0       0       0       0
  1801 ;;      Locals:         0       0       0       0       0       0       0       0       0       0       0       0       
      +0       0       0       0       0       0       0       0       0       0       0       0       0       0       0       
      +0       0       0       0       0       0
  1802 ;;      Temps:          0       0       0       0       0       0       0       0       0       0       0       0       
      +0       0       0       0       0       0       0       0       0       0       0       0       0       0       0       
      +0       0       0       0       0       0
  1803 ;;      Totals:         0       0       0       0       0       0       0       0       0       0       0       0       
      +0       0       0       0       0       0       0       0       0       0       0       0       0       0       0       
      +0       0       0       0       0       0
  1804 ;;Total ram usage:        0 bytes
  1805 ;; Hardware stack levels used: 1
  1806 ;; This function calls:
  1807 ;;		Nothing
  1808 ;; This function is called by:
  1809 ;;		_fputc
  1810 ;; This function uses a non-reentrant model
  1811 ;;
  1812                           
  1813                           	psect	text8
  1814   003B50                     __ptext8:
  1815                           	callstack 0
  1816   003B50                     _putch:
  1817                           	callstack 119
  1818   003B50  0012               	return		;funcret
  1819   003B52                     __end_of_putch:
  1820                           	callstack 0
  1821                           
  1822 ;; *************** function ___lwmod *****************
  1823 ;; Defined at:
  1824 ;;		line 7 in file "C:\Program Files\Microchip\xc8\v2.41\pic\sources\c99\common\lwmod.c"
  1825 ;; Parameters:    Size  Location     Type
  1826 ;;  dividend        2    0[COMRAM] unsigned int 
  1827 ;;  divisor         2    2[COMRAM] unsigned int 
  1828 ;; Auto vars:     Size  Location     Type
  1829 ;;  counter         1    4[COMRAM] unsigned char 
  1830 ;; Return value:  Size  Location     Type
  1831 ;;                  2    0[COMRAM] unsigned int 
  1832 ;; Registers used:
  1833 ;;		wreg, status,2, status,0
  1834 ;; Tracked objects:
  1835 ;;		On entry : 0/0
  1836 ;;		On exit  : 0/0
  1837 ;;		Unchanged: 0/0
  1838 ;; Data sizes:     COMRAM   BANK5   BANK6   BANK7   BANK8   BANK9  BANK10  BANK11  BANK12  BANK13  BANK14  BANK15  BANK1
      +6  BANK17  BANK18  BANK19  BANK20  BANK21  BANK22  BANK23  BANK24  BANK25  BANK26  BANK27  BANK28  BANK29  BANK30  BANK3
      +1  BANK32  BANK33  BANK34  BANK35  BANK36
  1839 ;;      Params:         4       0       0       0       0       0       0       0       0       0       0       0       
      +0       0       0       0       0       0       0       0       0       0       0       0       0       0       0       
      +0       0       0       0       0       0
  1840 ;;      Locals:         1       0       0       0       0       0       0       0       0       0       0       0       
      +0       0       0       0       0       0       0       0       0       0       0       0       0       0       0       
      +0       0       0       0       0       0
  1841 ;;      Temps:          0       0       0       0       0       0       0       0       0       0       0       0       
      +0       0       0       0       0       0       0       0       0       0       0       0       0       0       0       
      +0       0       0       0       0       0
  1842 ;;      Totals:         5       0       0       0       0       0       0       0       0       0       0       0       
      +0       0       0       0       0       0       0       0       0       0       0       0       0       0       0       
      +0       0       0       0       0       0
  1843 ;;Total ram usage:        5 bytes
  1844 ;; Hardware stack levels used: 1
  1845 ;; This function calls:
  1846 ;;		Nothing
  1847 ;; This function is called by:
  1848 ;;		_utoa
  1849 ;; This function uses a non-reentrant model
  1850 ;;
  1851                           
  1852                           	psect	text9
  1853   00387E                     __ptext9:
  1854                           	callstack 0
  1855   00387E                     ___lwmod:
  1856                           	callstack 122
  1857   00387E  5003               	movf	___lwmod@divisor^(0+1280),w,c
  1858   003880  1004               	iorwf	(___lwmod@divisor+1)^(0+1280),w,c
  1859   003882  B4D8               	btfsc	status,2,c
  1860   003884  EF46  F01C         	goto	u1011
  1861   003888  EF48  F01C         	goto	u1010
  1862   00388C                     u1011:
  1863   00388C  EF6C  F01C         	goto	l619
  1864   003890                     u1010:
  1865   003890  0E01               	movlw	1
  1866   003892  6E05               	movwf	___lwmod@counter^(0+1280),c
  1867   003894  EF50  F01C         	goto	l1698
  1868   003898                     l1696:
  1869   003898  90D8               	bcf	status,0,c
  1870   00389A  3603               	rlcf	___lwmod@divisor^(0+1280),f,c
  1871   00389C  3604               	rlcf	(___lwmod@divisor+1)^(0+1280),f,c
  1872   00389E  2A05               	incf	___lwmod@counter^(0+1280),f,c
  1873   0038A0                     l1698:
  1874   0038A0  AE04               	btfss	(___lwmod@divisor+1)^(0+1280),7,c
  1875   0038A2  EF55  F01C         	goto	u1021
  1876   0038A6  EF57  F01C         	goto	u1020
  1877   0038AA                     u1021:
  1878   0038AA  EF4C  F01C         	goto	l1696
  1879   0038AE                     u1020:
  1880   0038AE                     l1700:
  1881   0038AE  5003               	movf	___lwmod@divisor^(0+1280),w,c
  1882   0038B0  5C01               	subwf	___lwmod@dividend^(0+1280),w,c
  1883   0038B2  5004               	movf	(___lwmod@divisor+1)^(0+1280),w,c
  1884   0038B4  5802               	subwfb	(___lwmod@dividend+1)^(0+1280),w,c
  1885   0038B6  A0D8               	btfss	status,0,c
  1886   0038B8  EF60  F01C         	goto	u1031
  1887   0038BC  EF62  F01C         	goto	u1030
  1888   0038C0                     u1031:
  1889   0038C0  EF66  F01C         	goto	l1704
  1890   0038C4                     u1030:
  1891   0038C4  5003               	movf	___lwmod@divisor^(0+1280),w,c
  1892   0038C6  5E01               	subwf	___lwmod@dividend^(0+1280),f,c
  1893   0038C8  5004               	movf	(___lwmod@divisor+1)^(0+1280),w,c
  1894   0038CA  5A02               	subwfb	(___lwmod@dividend+1)^(0+1280),f,c
  1895   0038CC                     l1704:
  1896   0038CC  90D8               	bcf	status,0,c
  1897   0038CE  3204               	rrcf	(___lwmod@divisor+1)^(0+1280),f,c
  1898   0038D0  3203               	rrcf	___lwmod@divisor^(0+1280),f,c
  1899   0038D2  2E05               	decfsz	___lwmod@counter^(0+1280),f,c
  1900   0038D4  EF57  F01C         	goto	l1700
  1901   0038D8                     l619:
  1902   0038D8  C501  F501         	movff	___lwmod@dividend,?___lwmod
  1903   0038DC  C502  F502         	movff	___lwmod@dividend+1,?___lwmod+1
  1904   0038E0  0012               	return		;funcret
  1905   0038E2                     __end_of___lwmod:
  1906                           	callstack 0
  1907                           
  1908 ;; *************** function ___lwdiv *****************
  1909 ;; Defined at:
  1910 ;;		line 7 in file "C:\Program Files\Microchip\xc8\v2.41\pic\sources\c99\common\lwdiv.c"
  1911 ;; Parameters:    Size  Location     Type
  1912 ;;  dividend        2    0[COMRAM] unsigned int 
  1913 ;;  divisor         2    2[COMRAM] unsigned int 
  1914 ;; Auto vars:     Size  Location     Type
  1915 ;;  quotient        2    4[COMRAM] unsigned int 
  1916 ;;  counter         1    6[COMRAM] unsigned char 
  1917 ;; Return value:  Size  Location     Type
  1918 ;;                  2    0[COMRAM] unsigned int 
  1919 ;; Registers used:
  1920 ;;		wreg, status,2, status,0
  1921 ;; Tracked objects:
  1922 ;;		On entry : 0/0
  1923 ;;		On exit  : 0/0
  1924 ;;		Unchanged: 0/0
  1925 ;; Data sizes:     COMRAM   BANK5   BANK6   BANK7   BANK8   BANK9  BANK10  BANK11  BANK12  BANK13  BANK14  BANK15  BANK1
      +6  BANK17  BANK18  BANK19  BANK20  BANK21  BANK22  BANK23  BANK24  BANK25  BANK26  BANK27  BANK28  BANK29  BANK30  BANK3
      +1  BANK32  BANK33  BANK34  BANK35  BANK36
  1926 ;;      Params:         4       0       0       0       0       0       0       0       0       0       0       0       
      +0       0       0       0       0       0       0       0       0       0       0       0       0       0       0       
      +0       0       0       0       0       0
  1927 ;;      Locals:         3       0       0       0       0       0       0       0       0       0       0       0       
      +0       0       0       0       0       0       0       0       0       0       0       0       0       0       0       
      +0       0       0       0       0       0
  1928 ;;      Temps:          0       0       0       0       0       0       0       0       0       0       0       0       
      +0       0       0       0       0       0       0       0       0       0       0       0       0       0       0       
      +0       0       0       0       0       0
  1929 ;;      Totals:         7       0       0       0       0       0       0       0       0       0       0       0       
      +0       0       0       0       0       0       0       0       0       0       0       0       0       0       0       
      +0       0       0       0       0       0
  1930 ;;Total ram usage:        7 bytes
  1931 ;; Hardware stack levels used: 1
  1932 ;; This function calls:
  1933 ;;		Nothing
  1934 ;; This function is called by:
  1935 ;;		_utoa
  1936 ;; This function uses a non-reentrant model
  1937 ;;
  1938                           
  1939                           	psect	text10
  1940   003796                     __ptext10:
  1941                           	callstack 0
  1942   003796                     ___lwdiv:
  1943                           	callstack 122
  1944   003796  0E00               	movlw	0
  1945   003798  6E06               	movwf	(___lwdiv@quotient+1)^(0+1280),c
  1946   00379A  0E00               	movlw	0
  1947   00379C  6E05               	movwf	___lwdiv@quotient^(0+1280),c
  1948   00379E  5003               	movf	___lwdiv@divisor^(0+1280),w,c
  1949   0037A0  1004               	iorwf	(___lwdiv@divisor+1)^(0+1280),w,c
  1950   0037A2  B4D8               	btfsc	status,2,c
  1951   0037A4  EFD6  F01B         	goto	u981
  1952   0037A8  EFD8  F01B         	goto	u980
  1953   0037AC                     u981:
  1954   0037AC  EF00  F01C         	goto	l609
  1955   0037B0                     u980:
  1956   0037B0  0E01               	movlw	1
  1957   0037B2  6E07               	movwf	___lwdiv@counter^(0+1280),c
  1958   0037B4  EFE0  F01B         	goto	l1678
  1959   0037B8                     l1676:
  1960   0037B8  90D8               	bcf	status,0,c
  1961   0037BA  3603               	rlcf	___lwdiv@divisor^(0+1280),f,c
  1962   0037BC  3604               	rlcf	(___lwdiv@divisor+1)^(0+1280),f,c
  1963   0037BE  2A07               	incf	___lwdiv@counter^(0+1280),f,c
  1964   0037C0                     l1678:
  1965   0037C0  AE04               	btfss	(___lwdiv@divisor+1)^(0+1280),7,c
  1966   0037C2  EFE5  F01B         	goto	u991
  1967   0037C6  EFE7  F01B         	goto	u990
  1968   0037CA                     u991:
  1969   0037CA  EFDC  F01B         	goto	l1676
  1970   0037CE                     u990:
  1971   0037CE                     l1680:
  1972   0037CE  90D8               	bcf	status,0,c
  1973   0037D0  3605               	rlcf	___lwdiv@quotient^(0+1280),f,c
  1974   0037D2  3606               	rlcf	(___lwdiv@quotient+1)^(0+1280),f,c
  1975   0037D4  5003               	movf	___lwdiv@divisor^(0+1280),w,c
  1976   0037D6  5C01               	subwf	___lwdiv@dividend^(0+1280),w,c
  1977   0037D8  5004               	movf	(___lwdiv@divisor+1)^(0+1280),w,c
  1978   0037DA  5802               	subwfb	(___lwdiv@dividend+1)^(0+1280),w,c
  1979   0037DC  A0D8               	btfss	status,0,c
  1980   0037DE  EFF3  F01B         	goto	u1001
  1981   0037E2  EFF5  F01B         	goto	u1000
  1982   0037E6                     u1001:
  1983   0037E6  EFFA  F01B         	goto	l1688
  1984   0037EA                     u1000:
  1985   0037EA  5003               	movf	___lwdiv@divisor^(0+1280),w,c
  1986   0037EC  5E01               	subwf	___lwdiv@dividend^(0+1280),f,c
  1987   0037EE  5004               	movf	(___lwdiv@divisor+1)^(0+1280),w,c
  1988   0037F0  5A02               	subwfb	(___lwdiv@dividend+1)^(0+1280),f,c
  1989   0037F2  8005               	bsf	___lwdiv@quotient^(0+1280),0,c
  1990   0037F4                     l1688:
  1991   0037F4  90D8               	bcf	status,0,c
  1992   0037F6  3204               	rrcf	(___lwdiv@divisor+1)^(0+1280),f,c
  1993   0037F8  3203               	rrcf	___lwdiv@divisor^(0+1280),f,c
  1994   0037FA  2E07               	decfsz	___lwdiv@counter^(0+1280),f,c
  1995   0037FC  EFE7  F01B         	goto	l1680
  1996   003800                     l609:
  1997   003800  C505  F501         	movff	___lwdiv@quotient,?___lwdiv
  1998   003804  C506  F502         	movff	___lwdiv@quotient+1,?___lwdiv+1
  1999   003808  0012               	return		;funcret
  2000   00380A                     __end_of___lwdiv:
  2001                           	callstack 0
  2002                           
  2003 ;; *************** function _read_prec_or_width *****************
  2004 ;; Defined at:
  2005 ;;		line 1029 in file "C:\Program Files\Microchip\xc8\v2.41\pic\sources\c99\common\doprnt.c"
  2006 ;; Parameters:    Size  Location     Type
  2007 ;;  fmt             2    6[COMRAM] PTR PTR const unsigned c
  2008 ;;		 -> vfprintf@cfmt(2), 
  2009 ;;  ap              2    8[COMRAM] PTR PTR void [1]
  2010 ;;		 -> sprintf@ap(2), 
  2011 ;; Auto vars:     Size  Location     Type
  2012 ;;  c               1   12[COMRAM] unsigned char 
  2013 ;;  n               2   13[COMRAM] int 
  2014 ;; Return value:  Size  Location     Type
  2015 ;;                  2    6[COMRAM] int 
  2016 ;; Registers used:
  2017 ;;		wreg, fsr2l, fsr2h, status,2, status,0, tblptrl, tblptrh, tblptru, prodl, prodh, cstack
  2018 ;; Tracked objects:
  2019 ;;		On entry : 0/0
  2020 ;;		On exit  : 0/0
  2021 ;;		Unchanged: 0/0
  2022 ;; Data sizes:     COMRAM   BANK5   BANK6   BANK7   BANK8   BANK9  BANK10  BANK11  BANK12  BANK13  BANK14  BANK15  BANK1
      +6  BANK17  BANK18  BANK19  BANK20  BANK21  BANK22  BANK23  BANK24  BANK25  BANK26  BANK27  BANK28  BANK29  BANK30  BANK3
      +1  BANK32  BANK33  BANK34  BANK35  BANK36
  2023 ;;      Params:         4       0       0       0       0       0       0       0       0       0       0       0       
      +0       0       0       0       0       0       0       0       0       0       0       0       0       0       0       
      +0       0       0       0       0       0
  2024 ;;      Locals:         3       0       0       0       0       0       0       0       0       0       0       0       
      +0       0       0       0       0       0       0       0       0       0       0       0       0       0       0       
      +0       0       0       0       0       0
  2025 ;;      Temps:          2       0       0       0       0       0       0       0       0       0       0       0       
      +0       0       0       0       0       0       0       0       0       0       0       0       0       0       0       
      +0       0       0       0       0       0
  2026 ;;      Totals:         9       0       0       0       0       0       0       0       0       0       0       0       
      +0       0       0       0       0       0       0       0       0       0       0       0       0       0       0       
      +0       0       0       0       0       0
  2027 ;;Total ram usage:        9 bytes
  2028 ;; Hardware stack levels used: 1
  2029 ;; Hardware stack levels required when called: 1
  2030 ;; This function calls:
  2031 ;;		___wmul
  2032 ;; This function is called by:
  2033 ;;		_vfpfcnvrt
  2034 ;; This function uses a non-reentrant model
  2035 ;;
  2036                           
  2037                           	psect	text11
  2038   0034D8                     __ptext11:
  2039                           	callstack 0
  2040   0034D8                     _read_prec_or_width:
  2041                           	callstack 122
  2042   0034D8                     
  2043                           ;C:\Program Files\Microchip\xc8\v2.41\pic\sources\c99\common\doprnt.c: 1030:     int n =
      +                           0;
  2044   0034D8  0E00               	movlw	0
  2045   0034DA  6E0F               	movwf	(read_prec_or_width@n+1)^(0+1280),c
  2046   0034DC  0E00               	movlw	0
  2047   0034DE  6E0E               	movwf	read_prec_or_width@n^(0+1280),c
  2048   0034E0                     
  2049                           ;C:\Program Files\Microchip\xc8\v2.41\pic\sources\c99\common\doprnt.c: 1031:     if ((*f
      +                          mt)[0] == '*') {
  2050   0034E0  C507  F4D9         	movff	read_prec_or_width@fmt,fsr2l
  2051   0034E4  C508  F4DA         	movff	read_prec_or_width@fmt+1,fsr2h
  2052   0034E8  C4DE F4F6          	movff	postinc2,tblptrl
  2053   0034EC  C4DD F4F7          	movff	postdec2,tblptrh
  2054   0034F0                     	if	0	;tblptru may be non-zero
  2055   0034F0                     	endif
  2056   0034F0                     	if	1	;Program memory is > 0xFFFF, there are 3 active tblptr bytes
  2057   0034F0  0E00               	movlw	low (__mediumconst shr (0+16))
  2058   0034F2  6EF8               	movwf	tblptru,c
  2059   0034F4                     	endif
  2060   0034F4  0008               	tblrd		*
  2061   0034F6  50F5               	movf	tablat,w,c
  2062   0034F8  0A2A               	xorlw	42
  2063   0034FA  A4D8               	btfss	status,2,c
  2064   0034FC  EF82  F01A         	goto	u1121
  2065   003500  EF84  F01A         	goto	u1120
  2066   003504                     u1121:
  2067   003504  EFB8  F01A         	goto	l1764
  2068   003508                     u1120:
  2069   003508                     
  2070                           ;C:\Program Files\Microchip\xc8\v2.41\pic\sources\c99\common\doprnt.c: 1032:         ++*
      +                          fmt;
  2071   003508  C507  F4D9         	movff	read_prec_or_width@fmt,fsr2l
  2072   00350C  C508  F4DA         	movff	read_prec_or_width@fmt+1,fsr2h
  2073   003510  2ADE               	incf	postinc2,f,c
  2074   003512  0E00               	movlw	0
  2075   003514  22DD               	addwfc	postdec2,f,c
  2076                           
  2077                           ;C:\Program Files\Microchip\xc8\v2.41\pic\sources\c99\common\doprnt.c: 1033:         n =
      +                           (*(int *)__va_arg(*(int **)*ap, (int)0));
  2078   003516  C509  F4D9         	movff	read_prec_or_width@ap,fsr2l
  2079   00351A  C50A  F4DA         	movff	read_prec_or_width@ap+1,fsr2h
  2080   00351E  C4DF F50B          	movff	indf2,??_read_prec_or_width
  2081   003522  0E02               	movlw	2
  2082   003524  26DE               	addwf	postinc2,f,c
  2083   003526  C4DF F50C          	movff	indf2,??_read_prec_or_width+1
  2084   00352A  0E00               	movlw	0
  2085   00352C  22DD               	addwfc	postdec2,f,c
  2086   00352E  C50B  F4D9         	movff	??_read_prec_or_width,fsr2l
  2087   003532  C50C  F4DA         	movff	??_read_prec_or_width+1,fsr2h
  2088   003536  C4DE F50E          	movff	postinc2,read_prec_or_width@n
  2089   00353A  C4DD F50F          	movff	postdec2,read_prec_or_width@n+1
  2090                           
  2091                           ;C:\Program Files\Microchip\xc8\v2.41\pic\sources\c99\common\doprnt.c: 1034:     } else 
      +                          {
  2092   00353E  EFCE  F01A         	goto	l838
  2093   003542                     l1760:
  2094                           
  2095                           ;C:\Program Files\Microchip\xc8\v2.41\pic\sources\c99\common\doprnt.c: 1037:            
      +                           n = n * 10 + c;
  2096   003542  C50E  F501         	movff	read_prec_or_width@n,___wmul@multiplier
  2097   003546  C50F  F502         	movff	read_prec_or_width@n+1,___wmul@multiplier+1
  2098   00354A  0E00               	movlw	0
  2099   00354C  6E04               	movwf	(___wmul@multiplicand+1)^(0+1280),c
  2100   00354E  0E0A               	movlw	10
  2101   003550  6E03               	movwf	___wmul@multiplicand^(0+1280),c
  2102   003552  EC64  F01D         	call	___wmul	;wreg free
  2103   003556  500D               	movf	read_prec_or_width@c^(0+1280),w,c
  2104   003558  2401               	addwf	?___wmul^(0+1280),w,c
  2105   00355A  6E0E               	movwf	read_prec_or_width@n^(0+1280),c
  2106   00355C  0E00               	movlw	0
  2107   00355E  2002               	addwfc	(?___wmul+1)^(0+1280),w,c
  2108   003560  6E0F               	movwf	(read_prec_or_width@n+1)^(0+1280),c
  2109   003562                     
  2110                           ;C:\Program Files\Microchip\xc8\v2.41\pic\sources\c99\common\doprnt.c: 1038:            
      +                           ++*fmt;
  2111   003562  C507  F4D9         	movff	read_prec_or_width@fmt,fsr2l
  2112   003566  C508  F4DA         	movff	read_prec_or_width@fmt+1,fsr2h
  2113   00356A  2ADE               	incf	postinc2,f,c
  2114   00356C  0E00               	movlw	0
  2115   00356E  22DD               	addwfc	postdec2,f,c
  2116   003570                     l1764:
  2117                           
  2118                           ;C:\Program Files\Microchip\xc8\v2.41\pic\sources\c99\common\doprnt.c: 1036:         whi
      +                          le ((c = ((unsigned)(*fmt)[0]) - '0') < 10) {
  2119   003570  C507  F4D9         	movff	read_prec_or_width@fmt,fsr2l
  2120   003574  C508  F4DA         	movff	read_prec_or_width@fmt+1,fsr2h
  2121   003578  C4DE F4F6          	movff	postinc2,tblptrl
  2122   00357C  C4DD F4F7          	movff	postdec2,tblptrh
  2123   003580                     	if	0	;tblptru may be non-zero
  2124   003580                     	endif
  2125   003580                     	if	1	;Program memory is > 0xFFFF, there are 3 active tblptr bytes
  2126   003580  0E00               	movlw	low (__mediumconst shr (0+16))
  2127   003582  6EF8               	movwf	tblptru,c
  2128   003584                     	endif
  2129   003584  0008               	tblrd		*
  2130   003586  50F5               	movf	tablat,w,c
  2131   003588  0FD0               	addlw	208
  2132   00358A  6E0D               	movwf	read_prec_or_width@c^(0+1280),c
  2133   00358C  0E09               	movlw	9
  2134   00358E  640D               	cpfsgt	read_prec_or_width@c^(0+1280),c
  2135   003590  EFCC  F01A         	goto	u1131
  2136   003594  EFCE  F01A         	goto	u1130
  2137   003598                     u1131:
  2138   003598  EFA1  F01A         	goto	l1760
  2139   00359C                     u1130:
  2140   00359C                     l838:
  2141                           
  2142                           ;C:\Program Files\Microchip\xc8\v2.41\pic\sources\c99\common\doprnt.c: 1041:     return 
      +                          n;
  2143   00359C  C50E  F507         	movff	read_prec_or_width@n,?_read_prec_or_width
  2144   0035A0  C50F  F508         	movff	read_prec_or_width@n+1,?_read_prec_or_width+1
  2145   0035A4  0012               	return		;funcret
  2146   0035A6                     __end_of_read_prec_or_width:
  2147                           	callstack 0
  2148                           
  2149 ;; *************** function ___wmul *****************
  2150 ;; Defined at:
  2151 ;;		line 15 in file "C:\Program Files\Microchip\xc8\v2.41\pic\sources\c99\common\Umul16.c"
  2152 ;; Parameters:    Size  Location     Type
  2153 ;;  multiplier      2    0[COMRAM] unsigned int 
  2154 ;;  multiplicand    2    2[COMRAM] unsigned int 
  2155 ;; Auto vars:     Size  Location     Type
  2156 ;;  product         2    4[COMRAM] unsigned int 
  2157 ;; Return value:  Size  Location     Type
  2158 ;;                  2    0[COMRAM] unsigned int 
  2159 ;; Registers used:
  2160 ;;		wreg, status,2, status,0, prodl, prodh
  2161 ;; Tracked objects:
  2162 ;;		On entry : 0/0
  2163 ;;		On exit  : 0/0
  2164 ;;		Unchanged: 0/0
  2165 ;; Data sizes:     COMRAM   BANK5   BANK6   BANK7   BANK8   BANK9  BANK10  BANK11  BANK12  BANK13  BANK14  BANK15  BANK1
      +6  BANK17  BANK18  BANK19  BANK20  BANK21  BANK22  BANK23  BANK24  BANK25  BANK26  BANK27  BANK28  BANK29  BANK30  BANK3
      +1  BANK32  BANK33  BANK34  BANK35  BANK36
  2166 ;;      Params:         4       0       0       0       0       0       0       0       0       0       0       0       
      +0       0       0       0       0       0       0       0       0       0       0       0       0       0       0       
      +0       0       0       0       0       0
  2167 ;;      Locals:         2       0       0       0       0       0       0       0       0       0       0       0       
      +0       0       0       0       0       0       0       0       0       0       0       0       0       0       0       
      +0       0       0       0       0       0
  2168 ;;      Temps:          0       0       0       0       0       0       0       0       0       0       0       0       
      +0       0       0       0       0       0       0       0       0       0       0       0       0       0       0       
      +0       0       0       0       0       0
  2169 ;;      Totals:         6       0       0       0       0       0       0       0       0       0       0       0       
      +0       0       0       0       0       0       0       0       0       0       0       0       0       0       0       
      +0       0       0       0       0       0
  2170 ;;Total ram usage:        6 bytes
  2171 ;; Hardware stack levels used: 1
  2172 ;; This function calls:
  2173 ;;		Nothing
  2174 ;; This function is called by:
  2175 ;;		_read_prec_or_width
  2176 ;; This function uses a non-reentrant model
  2177 ;;
  2178                           
  2179                           	psect	text12
  2180   003AC8                     __ptext12:
  2181                           	callstack 0
  2182   003AC8                     ___wmul:
  2183                           	callstack 122
  2184   003AC8  5001               	movf	___wmul@multiplier^(0+1280),w,c
  2185   003ACA  0203               	mulwf	___wmul@multiplicand^(0+1280),c
  2186   003ACC  C4F3 F505          	movff	prodl,___wmul@product
  2187   003AD0  C4F4 F506          	movff	prodh,___wmul@product+1
  2188   003AD4  5001               	movf	___wmul@multiplier^(0+1280),w,c
  2189   003AD6  0204               	mulwf	(___wmul@multiplicand+1)^(0+1280),c
  2190   003AD8  50F3               	movf	243,w,c
  2191   003ADA  2606               	addwf	(___wmul@product+1)^(0+1280),f,c
  2192   003ADC  5002               	movf	(___wmul@multiplier+1)^(0+1280),w,c
  2193   003ADE  0203               	mulwf	___wmul@multiplicand^(0+1280),c
  2194   003AE0  50F3               	movf	243,w,c
  2195   003AE2  2606               	addwf	(___wmul@product+1)^(0+1280),f,c
  2196   003AE4  C505  F501         	movff	___wmul@product,?___wmul
  2197   003AE8  C506  F502         	movff	___wmul@product+1,?___wmul+1
  2198   003AEC  0012               	return		;funcret
  2199   003AEE                     __end_of___wmul:
  2200                           	callstack 0
  2201                           
  2202 ;; *************** function ___xxtofl *****************
  2203 ;; Defined at:
  2204 ;;		line 10 in file "C:\Program Files\Microchip\xc8\v2.41\pic\sources\c99\common\xxtofl.c"
  2205 ;; Parameters:    Size  Location     Type
  2206 ;;  sign            1    wreg     unsigned char 
  2207 ;;  val             4    0[COMRAM] long 
  2208 ;; Auto vars:     Size  Location     Type
  2209 ;;  sign            1    8[COMRAM] unsigned char 
  2210 ;;  arg             4   10[COMRAM] unsigned long 
  2211 ;;  exp             1    9[COMRAM] unsigned char 
  2212 ;; Return value:  Size  Location     Type
  2213 ;;                  4    0[COMRAM] unsigned char 
  2214 ;; Registers used:
  2215 ;;		wreg, status,2, status,0
  2216 ;; Tracked objects:
  2217 ;;		On entry : 0/0
  2218 ;;		On exit  : 0/0
  2219 ;;		Unchanged: 0/0
  2220 ;; Data sizes:     COMRAM   BANK5   BANK6   BANK7   BANK8   BANK9  BANK10  BANK11  BANK12  BANK13  BANK14  BANK15  BANK1
      +6  BANK17  BANK18  BANK19  BANK20  BANK21  BANK22  BANK23  BANK24  BANK25  BANK26  BANK27  BANK28  BANK29  BANK30  BANK3
      +1  BANK32  BANK33  BANK34  BANK35  BANK36
  2221 ;;      Params:         4       0       0       0       0       0       0       0       0       0       0       0       
      +0       0       0       0       0       0       0       0       0       0       0       0       0       0       0       
      +0       0       0       0       0       0
  2222 ;;      Locals:         6       0       0       0       0       0       0       0       0       0       0       0       
      +0       0       0       0       0       0       0       0       0       0       0       0       0       0       0       
      +0       0       0       0       0       0
  2223 ;;      Temps:          4       0       0       0       0       0       0       0       0       0       0       0       
      +0       0       0       0       0       0       0       0       0       0       0       0       0       0       0       
      +0       0       0       0       0       0
  2224 ;;      Totals:        14       0       0       0       0       0       0       0       0       0       0       0       
      +0       0       0       0       0       0       0       0       0       0       0       0       0       0       0       
      +0       0       0       0       0       0
  2225 ;;Total ram usage:       14 bytes
  2226 ;; Hardware stack levels used: 1
  2227 ;; This function calls:
  2228 ;;		Nothing
  2229 ;; This function is called by:
  2230 ;;		_main
  2231 ;; This function uses a non-reentrant model
  2232 ;;
  2233                           
  2234                           	psect	text13
  2235   00301A                     __ptext13:
  2236                           	callstack 0
  2237   00301A                     ___xxtofl:
  2238                           	callstack 126
  2239                           
  2240                           ;incstack = 0
  2241                           ;___xxtofl@sign stored from wreg
  2242   00301A  6E09               	movwf	___xxtofl@sign^(0+1280),c
  2243   00301C  5009               	movf	___xxtofl@sign^(0+1280),w,c
  2244   00301E  B4D8               	btfsc	status,2,c
  2245   003020  EF14  F018         	goto	u1741
  2246   003024  EF16  F018         	goto	u1740
  2247   003028                     u1741:
  2248   003028  EF38  F018         	goto	l773
  2249   00302C                     u1740:
  2250   00302C  BE04               	btfsc	(___xxtofl@val+3)^(0+1280),7,c
  2251   00302E  EF1D  F018         	goto	u1750
  2252   003032  EF1B  F018         	goto	u1751
  2253   003036                     u1751:
  2254   003036  EF38  F018         	goto	l773
  2255   00303A                     u1750:
  2256   00303A  C501  F505         	movff	___xxtofl@val,??___xxtofl
  2257   00303E  C502  F506         	movff	___xxtofl@val+1,??___xxtofl+1
  2258   003042  C503  F507         	movff	___xxtofl@val+2,??___xxtofl+2
  2259   003046  C504  F508         	movff	___xxtofl@val+3,??___xxtofl+3
  2260   00304A  1E05               	comf	??___xxtofl^(0+1280),f,c
  2261   00304C  1E06               	comf	(??___xxtofl+1)^(0+1280),f,c
  2262   00304E  1E07               	comf	(??___xxtofl+2)^(0+1280),f,c
  2263   003050  1E08               	comf	(??___xxtofl+3)^(0+1280),f,c
  2264   003052  2A05               	incf	??___xxtofl^(0+1280),f,c
  2265   003054  0E00               	movlw	0
  2266   003056  2206               	addwfc	(??___xxtofl+1)^(0+1280),f,c
  2267   003058  2207               	addwfc	(??___xxtofl+2)^(0+1280),f,c
  2268   00305A  2208               	addwfc	(??___xxtofl+3)^(0+1280),f,c
  2269   00305C  C505  F50B         	movff	??___xxtofl,___xxtofl@arg
  2270   003060  C506  F50C         	movff	??___xxtofl+1,___xxtofl@arg+1
  2271   003064  C507  F50D         	movff	??___xxtofl+2,___xxtofl@arg+2
  2272   003068  C508  F50E         	movff	??___xxtofl+3,___xxtofl@arg+3
  2273   00306C  EF40  F018         	goto	l2284
  2274   003070                     l773:
  2275   003070  C501  F50B         	movff	___xxtofl@val,___xxtofl@arg
  2276   003074  C502  F50C         	movff	___xxtofl@val+1,___xxtofl@arg+1
  2277   003078  C503  F50D         	movff	___xxtofl@val+2,___xxtofl@arg+2
  2278   00307C  C504  F50E         	movff	___xxtofl@val+3,___xxtofl@arg+3
  2279   003080                     l2284:
  2280   003080  5001               	movf	___xxtofl@val^(0+1280),w,c
  2281   003082  1002               	iorwf	(___xxtofl@val+1)^(0+1280),w,c
  2282   003084  1003               	iorwf	(___xxtofl@val+2)^(0+1280),w,c
  2283   003086  1004               	iorwf	(___xxtofl@val+3)^(0+1280),w,c
  2284   003088  A4D8               	btfss	status,2,c
  2285   00308A  EF49  F018         	goto	u1761
  2286   00308E  EF4B  F018         	goto	u1760
  2287   003092                     u1761:
  2288   003092  EF55  F018         	goto	l2290
  2289   003096                     u1760:
  2290   003096  0E00               	movlw	0
  2291   003098  6E01               	movwf	?___xxtofl^(0+1280),c
  2292   00309A  0E00               	movlw	0
  2293   00309C  6E02               	movwf	(?___xxtofl+1)^(0+1280),c
  2294   00309E  0E00               	movlw	0
  2295   0030A0  6E03               	movwf	(?___xxtofl+2)^(0+1280),c
  2296   0030A2  0E00               	movlw	0
  2297   0030A4  6E04               	movwf	(?___xxtofl+3)^(0+1280),c
  2298   0030A6  EFE6  F018         	goto	l776
  2299   0030AA                     l2290:
  2300   0030AA  0E96               	movlw	150
  2301   0030AC  6E0A               	movwf	___xxtofl@exp^(0+1280),c
  2302   0030AE  EF5F  F018         	goto	l2294
  2303   0030B2                     l2292:
  2304   0030B2  2A0A               	incf	___xxtofl@exp^(0+1280),f,c
  2305   0030B4  90D8               	bcf	status,0,c
  2306   0030B6  320E               	rrcf	(___xxtofl@arg+3)^(0+1280),f,c
  2307   0030B8  320D               	rrcf	(___xxtofl@arg+2)^(0+1280),f,c
  2308   0030BA  320C               	rrcf	(___xxtofl@arg+1)^(0+1280),f,c
  2309   0030BC  320B               	rrcf	___xxtofl@arg^(0+1280),f,c
  2310   0030BE                     l2294:
  2311   0030BE  0E00               	movlw	0
  2312   0030C0  140B               	andwf	___xxtofl@arg^(0+1280),w,c
  2313   0030C2  6E05               	movwf	??___xxtofl^(0+1280),c
  2314   0030C4  0E00               	movlw	0
  2315   0030C6  140C               	andwf	(___xxtofl@arg+1)^(0+1280),w,c
  2316   0030C8  6E06               	movwf	(??___xxtofl+1)^(0+1280),c
  2317   0030CA  0E00               	movlw	0
  2318   0030CC  140D               	andwf	(___xxtofl@arg+2)^(0+1280),w,c
  2319   0030CE  6E07               	movwf	(??___xxtofl+2)^(0+1280),c
  2320   0030D0  0EFE               	movlw	254
  2321   0030D2  140E               	andwf	(___xxtofl@arg+3)^(0+1280),w,c
  2322   0030D4  6E08               	movwf	(??___xxtofl+3)^(0+1280),c
  2323   0030D6  5005               	movf	??___xxtofl^(0+1280),w,c
  2324   0030D8  1006               	iorwf	(??___xxtofl+1)^(0+1280),w,c
  2325   0030DA  1007               	iorwf	(??___xxtofl+2)^(0+1280),w,c
  2326   0030DC  1008               	iorwf	(??___xxtofl+3)^(0+1280),w,c
  2327   0030DE  A4D8               	btfss	status,2,c
  2328   0030E0  EF74  F018         	goto	u1771
  2329   0030E4  EF76  F018         	goto	u1770
  2330   0030E8                     u1771:
  2331   0030E8  EF59  F018         	goto	l2292
  2332   0030EC                     u1770:
  2333   0030EC  EF84  F018         	goto	l780
  2334   0030F0                     l2296:
  2335   0030F0  2A0A               	incf	___xxtofl@exp^(0+1280),f,c
  2336   0030F2  0E01               	movlw	1
  2337   0030F4  260B               	addwf	___xxtofl@arg^(0+1280),f,c
  2338   0030F6  0E00               	movlw	0
  2339   0030F8  220C               	addwfc	(___xxtofl@arg+1)^(0+1280),f,c
  2340   0030FA  220D               	addwfc	(___xxtofl@arg+2)^(0+1280),f,c
  2341   0030FC  220E               	addwfc	(___xxtofl@arg+3)^(0+1280),f,c
  2342   0030FE  90D8               	bcf	status,0,c
  2343   003100  320E               	rrcf	(___xxtofl@arg+3)^(0+1280),f,c
  2344   003102  320D               	rrcf	(___xxtofl@arg+2)^(0+1280),f,c
  2345   003104  320C               	rrcf	(___xxtofl@arg+1)^(0+1280),f,c
  2346   003106  320B               	rrcf	___xxtofl@arg^(0+1280),f,c
  2347   003108                     l780:
  2348   003108  0E00               	movlw	0
  2349   00310A  140B               	andwf	___xxtofl@arg^(0+1280),w,c
  2350   00310C  6E05               	movwf	??___xxtofl^(0+1280),c
  2351   00310E  0E00               	movlw	0
  2352   003110  140C               	andwf	(___xxtofl@arg+1)^(0+1280),w,c
  2353   003112  6E06               	movwf	(??___xxtofl+1)^(0+1280),c
  2354   003114  0E00               	movlw	0
  2355   003116  140D               	andwf	(___xxtofl@arg+2)^(0+1280),w,c
  2356   003118  6E07               	movwf	(??___xxtofl+2)^(0+1280),c
  2357   00311A  0EFF               	movlw	255
  2358   00311C  140E               	andwf	(___xxtofl@arg+3)^(0+1280),w,c
  2359   00311E  6E08               	movwf	(??___xxtofl+3)^(0+1280),c
  2360   003120  5005               	movf	??___xxtofl^(0+1280),w,c
  2361   003122  1006               	iorwf	(??___xxtofl+1)^(0+1280),w,c
  2362   003124  1007               	iorwf	(??___xxtofl+2)^(0+1280),w,c
  2363   003126  1008               	iorwf	(??___xxtofl+3)^(0+1280),w,c
  2364   003128  A4D8               	btfss	status,2,c
  2365   00312A  EF99  F018         	goto	u1781
  2366   00312E  EF9B  F018         	goto	u1780
  2367   003132                     u1781:
  2368   003132  EF78  F018         	goto	l2296
  2369   003136                     u1780:
  2370   003136  EFA3  F018         	goto	l2304
  2371   00313A                     l2302:
  2372   00313A  060A               	decf	___xxtofl@exp^(0+1280),f,c
  2373   00313C  90D8               	bcf	status,0,c
  2374   00313E  360B               	rlcf	___xxtofl@arg^(0+1280),f,c
  2375   003140  360C               	rlcf	(___xxtofl@arg+1)^(0+1280),f,c
  2376   003142  360D               	rlcf	(___xxtofl@arg+2)^(0+1280),f,c
  2377   003144  360E               	rlcf	(___xxtofl@arg+3)^(0+1280),f,c
  2378   003146                     l2304:
  2379   003146  BE0D               	btfsc	(___xxtofl@arg+2)^(0+1280),7,c
  2380   003148  EFA8  F018         	goto	u1791
  2381   00314C  EFAA  F018         	goto	u1790
  2382   003150                     u1791:
  2383   003150  EFB2  F018         	goto	l787
  2384   003154                     u1790:
  2385   003154  0E02               	movlw	2
  2386   003156  600A               	cpfslt	___xxtofl@exp^(0+1280),c
  2387   003158  EFB0  F018         	goto	u1801
  2388   00315C  EFB2  F018         	goto	u1800
  2389   003160                     u1801:
  2390   003160  EF9D  F018         	goto	l2302
  2391   003164                     u1800:
  2392   003164                     l787:
  2393   003164  B00A               	btfsc	___xxtofl@exp^(0+1280),0,c
  2394   003166  EFB7  F018         	goto	u1811
  2395   00316A  EFB9  F018         	goto	u1810
  2396   00316E                     u1811:
  2397   00316E  EFBA  F018         	goto	l2310
  2398   003172                     u1810:
  2399   003172  9E0D               	bcf	(___xxtofl@arg+2)^(0+1280),7,c
  2400   003174                     l2310:
  2401   003174  90D8               	bcf	status,0,c
  2402   003176  320A               	rrcf	___xxtofl@exp^(0+1280),f,c
  2403   003178  C50A  F505         	movff	___xxtofl@exp,??___xxtofl
  2404   00317C  6A06               	clrf	(??___xxtofl+1)^(0+1280),c
  2405   00317E  6A07               	clrf	(??___xxtofl+2)^(0+1280),c
  2406   003180  6A08               	clrf	(??___xxtofl+3)^(0+1280),c
  2407   003182  C505  F508         	movff	??___xxtofl,??___xxtofl+3
  2408   003186  6A07               	clrf	(??___xxtofl+2)^(0+1280),c
  2409   003188  6A06               	clrf	(??___xxtofl+1)^(0+1280),c
  2410   00318A  6A05               	clrf	??___xxtofl^(0+1280),c
  2411   00318C  5005               	movf	??___xxtofl^(0+1280),w,c
  2412   00318E  120B               	iorwf	___xxtofl@arg^(0+1280),f,c
  2413   003190  5006               	movf	(??___xxtofl+1)^(0+1280),w,c
  2414   003192  120C               	iorwf	(___xxtofl@arg+1)^(0+1280),f,c
  2415   003194  5007               	movf	(??___xxtofl+2)^(0+1280),w,c
  2416   003196  120D               	iorwf	(___xxtofl@arg+2)^(0+1280),f,c
  2417   003198  5008               	movf	(??___xxtofl+3)^(0+1280),w,c
  2418   00319A  120E               	iorwf	(___xxtofl@arg+3)^(0+1280),f,c
  2419   00319C  5009               	movf	___xxtofl@sign^(0+1280),w,c
  2420   00319E  B4D8               	btfsc	status,2,c
  2421   0031A0  EFD4  F018         	goto	u1821
  2422   0031A4  EFD6  F018         	goto	u1820
  2423   0031A8                     u1821:
  2424   0031A8  EFDE  F018         	goto	l2320
  2425   0031AC                     u1820:
  2426   0031AC  BE04               	btfsc	(___xxtofl@val+3)^(0+1280),7,c
  2427   0031AE  EFDD  F018         	goto	u1830
  2428   0031B2  EFDB  F018         	goto	u1831
  2429   0031B6                     u1831:
  2430   0031B6  EFDE  F018         	goto	l2320
  2431   0031BA                     u1830:
  2432   0031BA  8E0E               	bsf	(___xxtofl@arg+3)^(0+1280),7,c
  2433   0031BC                     l2320:
  2434   0031BC  C50B  F501         	movff	___xxtofl@arg,?___xxtofl
  2435   0031C0  C50C  F502         	movff	___xxtofl@arg+1,?___xxtofl+1
  2436   0031C4  C50D  F503         	movff	___xxtofl@arg+2,?___xxtofl+2
  2437   0031C8  C50E  F504         	movff	___xxtofl@arg+3,?___xxtofl+3
  2438   0031CC                     l776:
  2439   0031CC  0012               	return		;funcret
  2440   0031CE                     __end_of___xxtofl:
  2441                           	callstack 0
  2442                           
  2443 ;; *************** function ___fltol *****************
  2444 ;; Defined at:
  2445 ;;		line 43 in file "C:\Program Files\Microchip\xc8\v2.41\pic\sources\c99\common\fltol.c"
  2446 ;; Parameters:    Size  Location     Type
  2447 ;;  f1              4   64[COMRAM] unsigned char 
  2448 ;; Auto vars:     Size  Location     Type
  2449 ;;  exp1            1   73[COMRAM] unsigned char 
  2450 ;;  sign1           1   72[COMRAM] unsigned char 
  2451 ;; Return value:  Size  Location     Type
  2452 ;;                  4   64[COMRAM] long 
  2453 ;; Registers used:
  2454 ;;		wreg, status,2, status,0
  2455 ;; Tracked objects:
  2456 ;;		On entry : 0/0
  2457 ;;		On exit  : 0/0
  2458 ;;		Unchanged: 0/0
  2459 ;; Data sizes:     COMRAM   BANK5   BANK6   BANK7   BANK8   BANK9  BANK10  BANK11  BANK12  BANK13  BANK14  BANK15  BANK1
      +6  BANK17  BANK18  BANK19  BANK20  BANK21  BANK22  BANK23  BANK24  BANK25  BANK26  BANK27  BANK28  BANK29  BANK30  BANK3
      +1  BANK32  BANK33  BANK34  BANK35  BANK36
  2460 ;;      Params:         4       0       0       0       0       0       0       0       0       0       0       0       
      +0       0       0       0       0       0       0       0       0       0       0       0       0       0       0       
      +0       0       0       0       0       0
  2461 ;;      Locals:         2       0       0       0       0       0       0       0       0       0       0       0       
      +0       0       0       0       0       0       0       0       0       0       0       0       0       0       0       
      +0       0       0       0       0       0
  2462 ;;      Temps:          4       0       0       0       0       0       0       0       0       0       0       0       
      +0       0       0       0       0       0       0       0       0       0       0       0       0       0       0       
      +0       0       0       0       0       0
  2463 ;;      Totals:        10       0       0       0       0       0       0       0       0       0       0       0       
      +0       0       0       0       0       0       0       0       0       0       0       0       0       0       0       
      +0       0       0       0       0       0
  2464 ;;Total ram usage:       10 bytes
  2465 ;; Hardware stack levels used: 1
  2466 ;; This function calls:
  2467 ;;		Nothing
  2468 ;; This function is called by:
  2469 ;;		_main
  2470 ;; This function uses a non-reentrant model
  2471 ;;
  2472                           
  2473                           	psect	text14
  2474   0032E2                     __ptext14:
  2475                           	callstack 0
  2476   0032E2                     ___fltol:
  2477                           	callstack 126
  2478   0032E2  3443               	rlcf	(___fltol@f1+2)^(0+1280),w,c
  2479   0032E4  3444               	rlcf	(___fltol@f1+3)^(0+1280),w,c
  2480   0032E6  6E4A               	movwf	___fltol@exp1^(0+1280),c
  2481   0032E8  504A               	movf	___fltol@exp1^(0+1280),w,c
  2482   0032EA  A4D8               	btfss	status,2,c
  2483   0032EC  EF7A  F019         	goto	u1671
  2484   0032F0  EF7C  F019         	goto	u1670
  2485   0032F4                     u1671:
  2486   0032F4  EF86  F019         	goto	l2240
  2487   0032F8                     u1670:
  2488   0032F8                     l2236:
  2489   0032F8  0E00               	movlw	0
  2490   0032FA  6E41               	movwf	?___fltol^(0+1280),c
  2491   0032FC  0E00               	movlw	0
  2492   0032FE  6E42               	movwf	(?___fltol+1)^(0+1280),c
  2493   003300  0E00               	movlw	0
  2494   003302  6E43               	movwf	(?___fltol+2)^(0+1280),c
  2495   003304  0E00               	movlw	0
  2496   003306  6E44               	movwf	(?___fltol+3)^(0+1280),c
  2497   003308  EFF3  F019         	goto	l415
  2498   00330C                     l2240:
  2499   00330C  C541  F545         	movff	___fltol@f1,??___fltol
  2500   003310  C542  F546         	movff	___fltol@f1+1,??___fltol+1
  2501   003314  C543  F547         	movff	___fltol@f1+2,??___fltol+2
  2502   003318  C544  F548         	movff	___fltol@f1+3,??___fltol+3
  2503   00331C  0E20               	movlw	32
  2504   00331E  EF96  F019         	goto	u1680
  2505   003322                     u1685:
  2506   003322  90D8               	bcf	status,0,c
  2507   003324  3248               	rrcf	(??___fltol+3)^(0+1280),f,c
  2508   003326  3247               	rrcf	(??___fltol+2)^(0+1280),f,c
  2509   003328  3246               	rrcf	(??___fltol+1)^(0+1280),f,c
  2510   00332A  3245               	rrcf	??___fltol^(0+1280),f,c
  2511   00332C                     u1680:
  2512   00332C  2EE8               	decfsz	wreg,f,c
  2513   00332E  EF91  F019         	goto	u1685
  2514   003332  5045               	movf	??___fltol^(0+1280),w,c
  2515   003334  6E49               	movwf	___fltol@sign1^(0+1280),c
  2516   003336  8E43               	bsf	(___fltol@f1+2)^(0+1280),7,c
  2517   003338  0EFF               	movlw	255
  2518   00333A  1641               	andwf	___fltol@f1^(0+1280),f,c
  2519   00333C  0EFF               	movlw	255
  2520   00333E  1642               	andwf	(___fltol@f1+1)^(0+1280),f,c
  2521   003340  0EFF               	movlw	255
  2522   003342  1643               	andwf	(___fltol@f1+2)^(0+1280),f,c
  2523   003344  0E00               	movlw	0
  2524   003346  1644               	andwf	(___fltol@f1+3)^(0+1280),f,c
  2525   003348  0E96               	movlw	150
  2526   00334A  5E4A               	subwf	___fltol@exp1^(0+1280),f,c
  2527   00334C  BE4A               	btfsc	___fltol@exp1^(0+1280),7,c
  2528   00334E  EFAD  F019         	goto	u1690
  2529   003352  EFAB  F019         	goto	u1691
  2530   003356                     u1691:
  2531   003356  EFC3  F019         	goto	l2260
  2532   00335A                     u1690:
  2533   00335A  504A               	movf	___fltol@exp1^(0+1280),w,c
  2534   00335C  0A80               	xorlw	128
  2535   00335E  0F97               	addlw	151
  2536   003360  B0D8               	btfsc	status,0,c
  2537   003362  EFB5  F019         	goto	u1701
  2538   003366  EFB7  F019         	goto	u1700
  2539   00336A                     u1701:
  2540   00336A  EFB9  F019         	goto	l2256
  2541   00336E                     u1700:
  2542   00336E  EF7C  F019         	goto	l2236
  2543   003372                     l2256:
  2544   003372  90D8               	bcf	status,0,c
  2545   003374  3244               	rrcf	(___fltol@f1+3)^(0+1280),f,c
  2546   003376  3243               	rrcf	(___fltol@f1+2)^(0+1280),f,c
  2547   003378  3242               	rrcf	(___fltol@f1+1)^(0+1280),f,c
  2548   00337A  3241               	rrcf	___fltol@f1^(0+1280),f,c
  2549   00337C  3E4A               	incfsz	___fltol@exp1^(0+1280),f,c
  2550   00337E  EFB9  F019         	goto	l2256
  2551   003382  EFDB  F019         	goto	l2270
  2552   003386                     l2260:
  2553   003386  0E1F               	movlw	31
  2554   003388  644A               	cpfsgt	___fltol@exp1^(0+1280),c
  2555   00338A  EFC9  F019         	goto	u1711
  2556   00338E  EFCB  F019         	goto	u1710
  2557   003392                     u1711:
  2558   003392  EFD3  F019         	goto	l2268
  2559   003396                     u1710:
  2560   003396  EF7C  F019         	goto	l2236
  2561   00339A                     l2266:
  2562   00339A  90D8               	bcf	status,0,c
  2563   00339C  3641               	rlcf	___fltol@f1^(0+1280),f,c
  2564   00339E  3642               	rlcf	(___fltol@f1+1)^(0+1280),f,c
  2565   0033A0  3643               	rlcf	(___fltol@f1+2)^(0+1280),f,c
  2566   0033A2  3644               	rlcf	(___fltol@f1+3)^(0+1280),f,c
  2567   0033A4  064A               	decf	___fltol@exp1^(0+1280),f,c
  2568   0033A6                     l2268:
  2569   0033A6  504A               	movf	___fltol@exp1^(0+1280),w,c
  2570   0033A8  A4D8               	btfss	status,2,c
  2571   0033AA  EFD9  F019         	goto	u1721
  2572   0033AE  EFDB  F019         	goto	u1720
  2573   0033B2                     u1721:
  2574   0033B2  EFCD  F019         	goto	l2266
  2575   0033B6                     u1720:
  2576   0033B6                     l2270:
  2577   0033B6  5049               	movf	___fltol@sign1^(0+1280),w,c
  2578   0033B8  B4D8               	btfsc	status,2,c
  2579   0033BA  EFE1  F019         	goto	u1731
  2580   0033BE  EFE3  F019         	goto	u1730
  2581   0033C2                     u1731:
  2582   0033C2  EFEB  F019         	goto	l2274
  2583   0033C6                     u1730:
  2584   0033C6  1E44               	comf	(___fltol@f1+3)^(0+1280),f,c
  2585   0033C8  1E43               	comf	(___fltol@f1+2)^(0+1280),f,c
  2586   0033CA  1E42               	comf	(___fltol@f1+1)^(0+1280),f,c
  2587   0033CC  6C41               	negf	___fltol@f1^(0+1280),c
  2588   0033CE  0E00               	movlw	0
  2589   0033D0  2242               	addwfc	(___fltol@f1+1)^(0+1280),f,c
  2590   0033D2  2243               	addwfc	(___fltol@f1+2)^(0+1280),f,c
  2591   0033D4  2244               	addwfc	(___fltol@f1+3)^(0+1280),f,c
  2592   0033D6                     l2274:
  2593   0033D6  C541  F541         	movff	___fltol@f1,?___fltol
  2594   0033DA  C542  F542         	movff	___fltol@f1+1,?___fltol+1
  2595   0033DE  C543  F543         	movff	___fltol@f1+2,?___fltol+2
  2596   0033E2  C544  F544         	movff	___fltol@f1+3,?___fltol+3
  2597   0033E6                     l415:
  2598   0033E6  0012               	return		;funcret
  2599   0033E8                     __end_of___fltol:
  2600                           	callstack 0
  2601                           
  2602 ;; *************** function ___flmul *****************
  2603 ;; Defined at:
  2604 ;;		line 8 in file "C:\Program Files\Microchip\xc8\v2.41\pic\sources\c99\common\sprcmul.c"
  2605 ;; Parameters:    Size  Location     Type
  2606 ;;  b               4   39[COMRAM] long 
  2607 ;;  a               4   43[COMRAM] long 
  2608 ;; Auto vars:     Size  Location     Type
  2609 ;;  prod            4   58[COMRAM] struct .
  2610 ;;  grs             4   52[COMRAM] unsigned long 
  2611 ;;  temp            2   62[COMRAM] struct .
  2612 ;;  bexp            1   57[COMRAM] unsigned char 
  2613 ;;  aexp            1   56[COMRAM] unsigned char 
  2614 ;;  sign            1   51[COMRAM] unsigned char 
  2615 ;; Return value:  Size  Location     Type
  2616 ;;                  4   39[COMRAM] unsigned char 
  2617 ;; Registers used:
  2618 ;;		wreg, status,2, status,0, prodl, prodh
  2619 ;; Tracked objects:
  2620 ;;		On entry : 0/0
  2621 ;;		On exit  : 0/0
  2622 ;;		Unchanged: 0/0
  2623 ;; Data sizes:     COMRAM   BANK5   BANK6   BANK7   BANK8   BANK9  BANK10  BANK11  BANK12  BANK13  BANK14  BANK15  BANK1
      +6  BANK17  BANK18  BANK19  BANK20  BANK21  BANK22  BANK23  BANK24  BANK25  BANK26  BANK27  BANK28  BANK29  BANK30  BANK3
      +1  BANK32  BANK33  BANK34  BANK35  BANK36
  2624 ;;      Params:         8       0       0       0       0       0       0       0       0       0       0       0       
      +0       0       0       0       0       0       0       0       0       0       0       0       0       0       0       
      +0       0       0       0       0       0
  2625 ;;      Locals:        13       0       0       0       0       0       0       0       0       0       0       0       
      +0       0       0       0       0       0       0       0       0       0       0       0       0       0       0       
      +0       0       0       0       0       0
  2626 ;;      Temps:          4       0       0       0       0       0       0       0       0       0       0       0       
      +0       0       0       0       0       0       0       0       0       0       0       0       0       0       0       
      +0       0       0       0       0       0
  2627 ;;      Totals:        25       0       0       0       0       0       0       0       0       0       0       0       
      +0       0       0       0       0       0       0       0       0       0       0       0       0       0       0       
      +0       0       0       0       0       0
  2628 ;;Total ram usage:       25 bytes
  2629 ;; Hardware stack levels used: 1
  2630 ;; This function calls:
  2631 ;;		Nothing
  2632 ;; This function is called by:
  2633 ;;		_main
  2634 ;; This function uses a non-reentrant model
  2635 ;;
  2636                           
  2637                           	psect	text15
  2638   002618                     __ptext15:
  2639                           	callstack 0
  2640   002618                     ___flmul:
  2641                           	callstack 126
  2642   002618  502B               	movf	(___flmul@b+3)^(0+1280),w,c
  2643   00261A  0B80               	andlw	128
  2644   00261C  6E34               	movwf	___flmul@sign^(0+1280),c
  2645   00261E  502B               	movf	(___flmul@b+3)^(0+1280),w,c
  2646   002620  242B               	addwf	(___flmul@b+3)^(0+1280),w,c
  2647   002622  6E3A               	movwf	___flmul@bexp^(0+1280),c
  2648   002624  AE2A               	btfss	(___flmul@b+2)^(0+1280),7,c
  2649   002626  EF17  F013         	goto	u1481
  2650   00262A  EF19  F013         	goto	u1480
  2651   00262E                     u1481:
  2652   00262E  EF1A  F013         	goto	l2110
  2653   002632                     u1480:
  2654   002632  803A               	bsf	___flmul@bexp^(0+1280),0,c
  2655   002634                     l2110:
  2656   002634  503A               	movf	___flmul@bexp^(0+1280),w,c
  2657   002636  B4D8               	btfsc	status,2,c
  2658   002638  EF20  F013         	goto	u1491
  2659   00263C  EF22  F013         	goto	u1490
  2660   002640                     u1491:
  2661   002640  EF35  F013         	goto	l2118
  2662   002644                     u1490:
  2663   002644  283A               	incf	___flmul@bexp^(0+1280),w,c
  2664   002646  A4D8               	btfss	status,2,c
  2665   002648  EF28  F013         	goto	u1501
  2666   00264C  EF2A  F013         	goto	u1500
  2667   002650                     u1501:
  2668   002650  EF32  F013         	goto	l2116
  2669   002654                     u1500:
  2670   002654  0E00               	movlw	0
  2671   002656  6E28               	movwf	___flmul@b^(0+1280),c
  2672   002658  0E00               	movlw	0
  2673   00265A  6E29               	movwf	(___flmul@b+1)^(0+1280),c
  2674   00265C  0E00               	movlw	0
  2675   00265E  6E2A               	movwf	(___flmul@b+2)^(0+1280),c
  2676   002660  0E00               	movlw	0
  2677   002662  6E2B               	movwf	(___flmul@b+3)^(0+1280),c
  2678   002664                     l2116:
  2679   002664  8E2A               	bsf	(___flmul@b+2)^(0+1280),7,c
  2680   002666  EF3D  F013         	goto	l2120
  2681   00266A                     l2118:
  2682   00266A  0E00               	movlw	0
  2683   00266C  6E28               	movwf	___flmul@b^(0+1280),c
  2684   00266E  0E00               	movlw	0
  2685   002670  6E29               	movwf	(___flmul@b+1)^(0+1280),c
  2686   002672  0E00               	movlw	0
  2687   002674  6E2A               	movwf	(___flmul@b+2)^(0+1280),c
  2688   002676  0E00               	movlw	0
  2689   002678  6E2B               	movwf	(___flmul@b+3)^(0+1280),c
  2690   00267A                     l2120:
  2691   00267A  502F               	movf	(___flmul@a+3)^(0+1280),w,c
  2692   00267C  0B80               	andlw	128
  2693   00267E  1A34               	xorwf	___flmul@sign^(0+1280),f,c
  2694   002680  502F               	movf	(___flmul@a+3)^(0+1280),w,c
  2695   002682  242F               	addwf	(___flmul@a+3)^(0+1280),w,c
  2696   002684  6E39               	movwf	___flmul@aexp^(0+1280),c
  2697   002686  AE2E               	btfss	(___flmul@a+2)^(0+1280),7,c
  2698   002688  EF48  F013         	goto	u1511
  2699   00268C  EF4A  F013         	goto	u1510
  2700   002690                     u1511:
  2701   002690  EF4B  F013         	goto	l2128
  2702   002694                     u1510:
  2703   002694  8039               	bsf	___flmul@aexp^(0+1280),0,c
  2704   002696                     l2128:
  2705   002696  5039               	movf	___flmul@aexp^(0+1280),w,c
  2706   002698  B4D8               	btfsc	status,2,c
  2707   00269A  EF51  F013         	goto	u1521
  2708   00269E  EF53  F013         	goto	u1520
  2709   0026A2                     u1521:
  2710   0026A2  EF66  F013         	goto	l2136
  2711   0026A6                     u1520:
  2712   0026A6  2839               	incf	___flmul@aexp^(0+1280),w,c
  2713   0026A8  A4D8               	btfss	status,2,c
  2714   0026AA  EF59  F013         	goto	u1531
  2715   0026AE  EF5B  F013         	goto	u1530
  2716   0026B2                     u1531:
  2717   0026B2  EF63  F013         	goto	l2134
  2718   0026B6                     u1530:
  2719   0026B6  0E00               	movlw	0
  2720   0026B8  6E2C               	movwf	___flmul@a^(0+1280),c
  2721   0026BA  0E00               	movlw	0
  2722   0026BC  6E2D               	movwf	(___flmul@a+1)^(0+1280),c
  2723   0026BE  0E00               	movlw	0
  2724   0026C0  6E2E               	movwf	(___flmul@a+2)^(0+1280),c
  2725   0026C2  0E00               	movlw	0
  2726   0026C4  6E2F               	movwf	(___flmul@a+3)^(0+1280),c
  2727   0026C6                     l2134:
  2728   0026C6  8E2E               	bsf	(___flmul@a+2)^(0+1280),7,c
  2729   0026C8  EF6E  F013         	goto	l732
  2730   0026CC                     l2136:
  2731   0026CC  0E00               	movlw	0
  2732   0026CE  6E2C               	movwf	___flmul@a^(0+1280),c
  2733   0026D0  0E00               	movlw	0
  2734   0026D2  6E2D               	movwf	(___flmul@a+1)^(0+1280),c
  2735   0026D4  0E00               	movlw	0
  2736   0026D6  6E2E               	movwf	(___flmul@a+2)^(0+1280),c
  2737   0026D8  0E00               	movlw	0
  2738   0026DA  6E2F               	movwf	(___flmul@a+3)^(0+1280),c
  2739   0026DC                     l732:
  2740   0026DC  5039               	movf	___flmul@aexp^(0+1280),w,c
  2741   0026DE  B4D8               	btfsc	status,2,c
  2742   0026E0  EF74  F013         	goto	u1541
  2743   0026E4  EF76  F013         	goto	u1540
  2744   0026E8                     u1541:
  2745   0026E8  EF7E  F013         	goto	l2140
  2746   0026EC                     u1540:
  2747   0026EC  503A               	movf	___flmul@bexp^(0+1280),w,c
  2748   0026EE  A4D8               	btfss	status,2,c
  2749   0026F0  EF7C  F013         	goto	u1551
  2750   0026F4  EF7E  F013         	goto	u1550
  2751   0026F8                     u1551:
  2752   0026F8  EF88  F013         	goto	l2144
  2753   0026FC                     u1550:
  2754   0026FC                     l2140:
  2755   0026FC  0E00               	movlw	0
  2756   0026FE  6E28               	movwf	?___flmul^(0+1280),c
  2757   002700  0E00               	movlw	0
  2758   002702  6E29               	movwf	(?___flmul+1)^(0+1280),c
  2759   002704  0E00               	movlw	0
  2760   002706  6E2A               	movwf	(?___flmul+2)^(0+1280),c
  2761   002708  0E00               	movlw	0
  2762   00270A  6E2B               	movwf	(?___flmul+3)^(0+1280),c
  2763   00270C  EF20  F015         	goto	l736
  2764   002710                     l2144:
  2765   002710  502E               	movf	(___flmul@a+2)^(0+1280),w,c
  2766   002712  0228               	mulwf	___flmul@b^(0+1280),c
  2767   002714  C4F3 F53F          	movff	prodl,___flmul@temp
  2768   002718  C4F4 F540          	movff	prodh,___flmul@temp+1
  2769   00271C  503F               	movf	___flmul@temp^(0+1280),w,c
  2770   00271E  6E35               	movwf	___flmul@grs^(0+1280),c
  2771   002720  6A36               	clrf	(___flmul@grs+1)^(0+1280),c
  2772   002722  6A37               	clrf	(___flmul@grs+2)^(0+1280),c
  2773   002724  6A38               	clrf	(___flmul@grs+3)^(0+1280),c
  2774   002726  5040               	movf	(___flmul@temp+1)^(0+1280),w,c
  2775   002728  6E3B               	movwf	___flmul@prod^(0+1280),c
  2776   00272A  6A3C               	clrf	(___flmul@prod+1)^(0+1280),c
  2777   00272C  6A3D               	clrf	(___flmul@prod+2)^(0+1280),c
  2778   00272E  6A3E               	clrf	(___flmul@prod+3)^(0+1280),c
  2779   002730  502D               	movf	(___flmul@a+1)^(0+1280),w,c
  2780   002732  0229               	mulwf	(___flmul@b+1)^(0+1280),c
  2781   002734  C4F3 F53F          	movff	prodl,___flmul@temp
  2782   002738  C4F4 F540          	movff	prodh,___flmul@temp+1
  2783   00273C  503F               	movf	___flmul@temp^(0+1280),w,c
  2784   00273E  2635               	addwf	___flmul@grs^(0+1280),f,c
  2785   002740  0E00               	movlw	0
  2786   002742  2236               	addwfc	(___flmul@grs+1)^(0+1280),f,c
  2787   002744  2237               	addwfc	(___flmul@grs+2)^(0+1280),f,c
  2788   002746  2238               	addwfc	(___flmul@grs+3)^(0+1280),f,c
  2789   002748  5040               	movf	(___flmul@temp+1)^(0+1280),w,c
  2790   00274A  263B               	addwf	___flmul@prod^(0+1280),f,c
  2791   00274C  0E00               	movlw	0
  2792   00274E  223C               	addwfc	(___flmul@prod+1)^(0+1280),f,c
  2793   002750  223D               	addwfc	(___flmul@prod+2)^(0+1280),f,c
  2794   002752  223E               	addwfc	(___flmul@prod+3)^(0+1280),f,c
  2795   002754  502C               	movf	___flmul@a^(0+1280),w,c
  2796   002756  022A               	mulwf	(___flmul@b+2)^(0+1280),c
  2797   002758  C4F3 F53F          	movff	prodl,___flmul@temp
  2798   00275C  C4F4 F540          	movff	prodh,___flmul@temp+1
  2799   002760  503F               	movf	___flmul@temp^(0+1280),w,c
  2800   002762  2635               	addwf	___flmul@grs^(0+1280),f,c
  2801   002764  0E00               	movlw	0
  2802   002766  2236               	addwfc	(___flmul@grs+1)^(0+1280),f,c
  2803   002768  2237               	addwfc	(___flmul@grs+2)^(0+1280),f,c
  2804   00276A  2238               	addwfc	(___flmul@grs+3)^(0+1280),f,c
  2805   00276C  5040               	movf	(___flmul@temp+1)^(0+1280),w,c
  2806   00276E  263B               	addwf	___flmul@prod^(0+1280),f,c
  2807   002770  0E00               	movlw	0
  2808   002772  223C               	addwfc	(___flmul@prod+1)^(0+1280),f,c
  2809   002774  223D               	addwfc	(___flmul@prod+2)^(0+1280),f,c
  2810   002776  223E               	addwfc	(___flmul@prod+3)^(0+1280),f,c
  2811   002778  C537  F538         	movff	___flmul@grs+2,___flmul@grs+3
  2812   00277C  C536  F537         	movff	___flmul@grs+1,___flmul@grs+2
  2813   002780  C535  F536         	movff	___flmul@grs,___flmul@grs+1
  2814   002784  6A35               	clrf	___flmul@grs^(0+1280),c
  2815   002786  502C               	movf	___flmul@a^(0+1280),w,c
  2816   002788  0229               	mulwf	(___flmul@b+1)^(0+1280),c
  2817   00278A  C4F3 F53F          	movff	prodl,___flmul@temp
  2818   00278E  C4F4 F540          	movff	prodh,___flmul@temp+1
  2819   002792  503F               	movf	___flmul@temp^(0+1280),w,c
  2820   002794  2635               	addwf	___flmul@grs^(0+1280),f,c
  2821   002796  5040               	movf	(___flmul@temp+1)^(0+1280),w,c
  2822   002798  2236               	addwfc	(___flmul@grs+1)^(0+1280),f,c
  2823   00279A  0E00               	movlw	0
  2824   00279C  2237               	addwfc	(___flmul@grs+2)^(0+1280),f,c
  2825   00279E  0E00               	movlw	0
  2826   0027A0  2238               	addwfc	(___flmul@grs+3)^(0+1280),f,c
  2827   0027A2  502D               	movf	(___flmul@a+1)^(0+1280),w,c
  2828   0027A4  0228               	mulwf	___flmul@b^(0+1280),c
  2829   0027A6  C4F3 F53F          	movff	prodl,___flmul@temp
  2830   0027AA  C4F4 F540          	movff	prodh,___flmul@temp+1
  2831   0027AE  503F               	movf	___flmul@temp^(0+1280),w,c
  2832   0027B0  2635               	addwf	___flmul@grs^(0+1280),f,c
  2833   0027B2  5040               	movf	(___flmul@temp+1)^(0+1280),w,c
  2834   0027B4  2236               	addwfc	(___flmul@grs+1)^(0+1280),f,c
  2835   0027B6  0E00               	movlw	0
  2836   0027B8  2237               	addwfc	(___flmul@grs+2)^(0+1280),f,c
  2837   0027BA  0E00               	movlw	0
  2838   0027BC  2238               	addwfc	(___flmul@grs+3)^(0+1280),f,c
  2839   0027BE  C537  F538         	movff	___flmul@grs+2,___flmul@grs+3
  2840   0027C2  C536  F537         	movff	___flmul@grs+1,___flmul@grs+2
  2841   0027C6  C535  F536         	movff	___flmul@grs,___flmul@grs+1
  2842   0027CA  6A35               	clrf	___flmul@grs^(0+1280),c
  2843   0027CC  502C               	movf	___flmul@a^(0+1280),w,c
  2844   0027CE  0228               	mulwf	___flmul@b^(0+1280),c
  2845   0027D0  C4F3 F53F          	movff	prodl,___flmul@temp
  2846   0027D4  C4F4 F540          	movff	prodh,___flmul@temp+1
  2847   0027D8  503F               	movf	___flmul@temp^(0+1280),w,c
  2848   0027DA  2635               	addwf	___flmul@grs^(0+1280),f,c
  2849   0027DC  5040               	movf	(___flmul@temp+1)^(0+1280),w,c
  2850   0027DE  2236               	addwfc	(___flmul@grs+1)^(0+1280),f,c
  2851   0027E0  0E00               	movlw	0
  2852   0027E2  2237               	addwfc	(___flmul@grs+2)^(0+1280),f,c
  2853   0027E4  0E00               	movlw	0
  2854   0027E6  2238               	addwfc	(___flmul@grs+3)^(0+1280),f,c
  2855   0027E8  502E               	movf	(___flmul@a+2)^(0+1280),w,c
  2856   0027EA  0229               	mulwf	(___flmul@b+1)^(0+1280),c
  2857   0027EC  C4F3 F53F          	movff	prodl,___flmul@temp
  2858   0027F0  C4F4 F540          	movff	prodh,___flmul@temp+1
  2859   0027F4  503F               	movf	___flmul@temp^(0+1280),w,c
  2860   0027F6  263B               	addwf	___flmul@prod^(0+1280),f,c
  2861   0027F8  5040               	movf	(___flmul@temp+1)^(0+1280),w,c
  2862   0027FA  223C               	addwfc	(___flmul@prod+1)^(0+1280),f,c
  2863   0027FC  0E00               	movlw	0
  2864   0027FE  223D               	addwfc	(___flmul@prod+2)^(0+1280),f,c
  2865   002800  0E00               	movlw	0
  2866   002802  223E               	addwfc	(___flmul@prod+3)^(0+1280),f,c
  2867   002804  502D               	movf	(___flmul@a+1)^(0+1280),w,c
  2868   002806  022A               	mulwf	(___flmul@b+2)^(0+1280),c
  2869   002808  C4F3 F53F          	movff	prodl,___flmul@temp
  2870   00280C  C4F4 F540          	movff	prodh,___flmul@temp+1
  2871   002810  503F               	movf	___flmul@temp^(0+1280),w,c
  2872   002812  263B               	addwf	___flmul@prod^(0+1280),f,c
  2873   002814  5040               	movf	(___flmul@temp+1)^(0+1280),w,c
  2874   002816  223C               	addwfc	(___flmul@prod+1)^(0+1280),f,c
  2875   002818  0E00               	movlw	0
  2876   00281A  223D               	addwfc	(___flmul@prod+2)^(0+1280),f,c
  2877   00281C  0E00               	movlw	0
  2878   00281E  223E               	addwfc	(___flmul@prod+3)^(0+1280),f,c
  2879   002820  502E               	movf	(___flmul@a+2)^(0+1280),w,c
  2880   002822  022A               	mulwf	(___flmul@b+2)^(0+1280),c
  2881   002824  C4F3 F53F          	movff	prodl,___flmul@temp
  2882   002828  C4F4 F540          	movff	prodh,___flmul@temp+1
  2883   00282C  503F               	movf	___flmul@temp^(0+1280),w,c
  2884   00282E  6E30               	movwf	??___flmul^(0+1280),c
  2885   002830  5040               	movf	(___flmul@temp+1)^(0+1280),w,c
  2886   002832  6E31               	movwf	(??___flmul+1)^(0+1280),c
  2887   002834  6A32               	clrf	(??___flmul+2)^(0+1280),c
  2888   002836  6A33               	clrf	(??___flmul+3)^(0+1280),c
  2889   002838  C532  F533         	movff	??___flmul+2,??___flmul+3
  2890   00283C  C531  F532         	movff	??___flmul+1,??___flmul+2
  2891   002840  C530  F531         	movff	??___flmul,??___flmul+1
  2892   002844  6A30               	clrf	??___flmul^(0+1280),c
  2893   002846  5030               	movf	??___flmul^(0+1280),w,c
  2894   002848  263B               	addwf	___flmul@prod^(0+1280),f,c
  2895   00284A  5031               	movf	(??___flmul+1)^(0+1280),w,c
  2896   00284C  223C               	addwfc	(___flmul@prod+1)^(0+1280),f,c
  2897   00284E  5032               	movf	(??___flmul+2)^(0+1280),w,c
  2898   002850  223D               	addwfc	(___flmul@prod+2)^(0+1280),f,c
  2899   002852  5033               	movf	(??___flmul+3)^(0+1280),w,c
  2900   002854  223E               	addwfc	(___flmul@prod+3)^(0+1280),f,c
  2901   002856  C535  F530         	movff	___flmul@grs,??___flmul
  2902   00285A  C536  F531         	movff	___flmul@grs+1,??___flmul+1
  2903   00285E  C537  F532         	movff	___flmul@grs+2,??___flmul+2
  2904   002862  C538  F533         	movff	___flmul@grs+3,??___flmul+3
  2905   002866  0E19               	movlw	25
  2906   002868  EF3B  F014         	goto	u1560
  2907   00286C                     u1565:
  2908   00286C  90D8               	bcf	status,0,c
  2909   00286E  3233               	rrcf	(??___flmul+3)^(0+1280),f,c
  2910   002870  3232               	rrcf	(??___flmul+2)^(0+1280),f,c
  2911   002872  3231               	rrcf	(??___flmul+1)^(0+1280),f,c
  2912   002874  3230               	rrcf	??___flmul^(0+1280),f,c
  2913   002876                     u1560:
  2914   002876  2EE8               	decfsz	wreg,f,c
  2915   002878  EF36  F014         	goto	u1565
  2916   00287C  5030               	movf	??___flmul^(0+1280),w,c
  2917   00287E  263B               	addwf	___flmul@prod^(0+1280),f,c
  2918   002880  5031               	movf	(??___flmul+1)^(0+1280),w,c
  2919   002882  223C               	addwfc	(___flmul@prod+1)^(0+1280),f,c
  2920   002884  5032               	movf	(??___flmul+2)^(0+1280),w,c
  2921   002886  223D               	addwfc	(___flmul@prod+2)^(0+1280),f,c
  2922   002888  5033               	movf	(??___flmul+3)^(0+1280),w,c
  2923   00288A  223E               	addwfc	(___flmul@prod+3)^(0+1280),f,c
  2924   00288C  C537  F538         	movff	___flmul@grs+2,___flmul@grs+3
  2925   002890  C536  F537         	movff	___flmul@grs+1,___flmul@grs+2
  2926   002894  C535  F536         	movff	___flmul@grs,___flmul@grs+1
  2927   002898  6A35               	clrf	___flmul@grs^(0+1280),c
  2928   00289A  5039               	movf	___flmul@aexp^(0+1280),w,c
  2929   00289C  C53A  F530         	movff	___flmul@bexp,??___flmul
  2930   0028A0  6A31               	clrf	(??___flmul+1)^(0+1280),c
  2931   0028A2  2630               	addwf	??___flmul^(0+1280),f,c
  2932   0028A4  0E00               	movlw	0
  2933   0028A6  2231               	addwfc	(??___flmul+1)^(0+1280),f,c
  2934   0028A8  0E82               	movlw	130
  2935   0028AA  2430               	addwf	??___flmul^(0+1280),w,c
  2936   0028AC  6E3F               	movwf	___flmul@temp^(0+1280),c
  2937   0028AE  0EFF               	movlw	255
  2938   0028B0  2031               	addwfc	(??___flmul+1)^(0+1280),w,c
  2939   0028B2  6E40               	movwf	(___flmul@temp+1)^(0+1280),c
  2940   0028B4  EF71  F014         	goto	l2192
  2941   0028B8                     l2186:
  2942   0028B8  90D8               	bcf	status,0,c
  2943   0028BA  363B               	rlcf	___flmul@prod^(0+1280),f,c
  2944   0028BC  363C               	rlcf	(___flmul@prod+1)^(0+1280),f,c
  2945   0028BE  363D               	rlcf	(___flmul@prod+2)^(0+1280),f,c
  2946   0028C0  363E               	rlcf	(___flmul@prod+3)^(0+1280),f,c
  2947   0028C2  AE38               	btfss	(___flmul@grs+3)^(0+1280),7,c
  2948   0028C4  EF66  F014         	goto	u1571
  2949   0028C8  EF68  F014         	goto	u1570
  2950   0028CC                     u1571:
  2951   0028CC  EF69  F014         	goto	l739
  2952   0028D0                     u1570:
  2953   0028D0  803B               	bsf	___flmul@prod^(0+1280),0,c
  2954   0028D2                     l739:
  2955   0028D2  90D8               	bcf	status,0,c
  2956   0028D4  3635               	rlcf	___flmul@grs^(0+1280),f,c
  2957   0028D6  3636               	rlcf	(___flmul@grs+1)^(0+1280),f,c
  2958   0028D8  3637               	rlcf	(___flmul@grs+2)^(0+1280),f,c
  2959   0028DA  3638               	rlcf	(___flmul@grs+3)^(0+1280),f,c
  2960   0028DC  063F               	decf	___flmul@temp^(0+1280),f,c
  2961   0028DE  A0D8               	btfss	status,0,c
  2962   0028E0  0640               	decf	(___flmul@temp+1)^(0+1280),f,c
  2963   0028E2                     l2192:
  2964   0028E2  AE3D               	btfss	(___flmul@prod+2)^(0+1280),7,c
  2965   0028E4  EF76  F014         	goto	u1581
  2966   0028E8  EF78  F014         	goto	u1580
  2967   0028EC                     u1581:
  2968   0028EC  EF5C  F014         	goto	l2186
  2969   0028F0                     u1580:
  2970   0028F0  0E00               	movlw	0
  2971   0028F2  6E39               	movwf	___flmul@aexp^(0+1280),c
  2972   0028F4  AE38               	btfss	(___flmul@grs+3)^(0+1280),7,c
  2973   0028F6  EF7F  F014         	goto	u1591
  2974   0028FA  EF81  F014         	goto	u1590
  2975   0028FE                     u1591:
  2976   0028FE  EFA5  F014         	goto	l741
  2977   002902                     u1590:
  2978   002902  0EFF               	movlw	255
  2979   002904  1435               	andwf	___flmul@grs^(0+1280),w,c
  2980   002906  6E30               	movwf	??___flmul^(0+1280),c
  2981   002908  0EFF               	movlw	255
  2982   00290A  1436               	andwf	(___flmul@grs+1)^(0+1280),w,c
  2983   00290C  6E31               	movwf	(??___flmul+1)^(0+1280),c
  2984   00290E  0EFF               	movlw	255
  2985   002910  1437               	andwf	(___flmul@grs+2)^(0+1280),w,c
  2986   002912  6E32               	movwf	(??___flmul+2)^(0+1280),c
  2987   002914  0E7F               	movlw	127
  2988   002916  1438               	andwf	(___flmul@grs+3)^(0+1280),w,c
  2989   002918  6E33               	movwf	(??___flmul+3)^(0+1280),c
  2990   00291A  5030               	movf	??___flmul^(0+1280),w,c
  2991   00291C  1031               	iorwf	(??___flmul+1)^(0+1280),w,c
  2992   00291E  1032               	iorwf	(??___flmul+2)^(0+1280),w,c
  2993   002920  1033               	iorwf	(??___flmul+3)^(0+1280),w,c
  2994   002922  B4D8               	btfsc	status,2,c
  2995   002924  EF96  F014         	goto	u1601
  2996   002928  EF98  F014         	goto	u1600
  2997   00292C                     u1601:
  2998   00292C  EF9C  F014         	goto	l742
  2999   002930                     u1600:
  3000   002930                     l2200:
  3001   002930  0E01               	movlw	1
  3002   002932  6E39               	movwf	___flmul@aexp^(0+1280),c
  3003   002934  EFA5  F014         	goto	l741
  3004   002938                     l742:
  3005   002938  A03B               	btfss	___flmul@prod^(0+1280),0,c
  3006   00293A  EFA1  F014         	goto	u1611
  3007   00293E  EFA3  F014         	goto	u1610
  3008   002942                     u1611:
  3009   002942  EFA5  F014         	goto	l741
  3010   002946                     u1610:
  3011   002946  EF98  F014         	goto	l2200
  3012   00294A                     l741:
  3013   00294A  5039               	movf	___flmul@aexp^(0+1280),w,c
  3014   00294C  B4D8               	btfsc	status,2,c
  3015   00294E  EFAB  F014         	goto	u1621
  3016   002952  EFAD  F014         	goto	u1620
  3017   002956                     u1621:
  3018   002956  EFD1  F014         	goto	l2212
  3019   00295A                     u1620:
  3020   00295A  0E01               	movlw	1
  3021   00295C  263B               	addwf	___flmul@prod^(0+1280),f,c
  3022   00295E  0E00               	movlw	0
  3023   002960  223C               	addwfc	(___flmul@prod+1)^(0+1280),f,c
  3024   002962  223D               	addwfc	(___flmul@prod+2)^(0+1280),f,c
  3025   002964  223E               	addwfc	(___flmul@prod+3)^(0+1280),f,c
  3026   002966  A03E               	btfss	(___flmul@prod+3)^(0+1280),0,c
  3027   002968  EFB8  F014         	goto	u1631
  3028   00296C  EFBA  F014         	goto	u1630
  3029   002970                     u1631:
  3030   002970  EFD1  F014         	goto	l2212
  3031   002974                     u1630:
  3032   002974  C53B  F530         	movff	___flmul@prod,??___flmul
  3033   002978  C53C  F531         	movff	___flmul@prod+1,??___flmul+1
  3034   00297C  C53D  F532         	movff	___flmul@prod+2,??___flmul+2
  3035   002980  C53E  F533         	movff	___flmul@prod+3,??___flmul+3
  3036   002984  3433               	rlcf	(??___flmul+3)^(0+1280),w,c
  3037   002986  3233               	rrcf	(??___flmul+3)^(0+1280),f,c
  3038   002988  3232               	rrcf	(??___flmul+2)^(0+1280),f,c
  3039   00298A  3231               	rrcf	(??___flmul+1)^(0+1280),f,c
  3040   00298C  3230               	rrcf	??___flmul^(0+1280),f,c
  3041   00298E  C530  F53B         	movff	??___flmul,___flmul@prod
  3042   002992  C531  F53C         	movff	??___flmul+1,___flmul@prod+1
  3043   002996  C532  F53D         	movff	??___flmul+2,___flmul@prod+2
  3044   00299A  C533  F53E         	movff	??___flmul+3,___flmul@prod+3
  3045   00299E  4A3F               	infsnz	___flmul@temp^(0+1280),f,c
  3046   0029A0  2A40               	incf	(___flmul@temp+1)^(0+1280),f,c
  3047   0029A2                     l2212:
  3048   0029A2  BE40               	btfsc	(___flmul@temp+1)^(0+1280),7,c
  3049   0029A4  EFDC  F014         	goto	u1641
  3050   0029A8  5040               	movf	(___flmul@temp+1)^(0+1280),w,c
  3051   0029AA  E108               	bnz	u1640
  3052   0029AC  283F               	incf	___flmul@temp^(0+1280),w,c
  3053   0029AE  A0D8               	btfss	status,0,c
  3054   0029B0  EFDC  F014         	goto	u1641
  3055   0029B4  EFDE  F014         	goto	u1640
  3056   0029B8                     u1641:
  3057   0029B8  EFE8  F014         	goto	l2216
  3058   0029BC                     u1640:
  3059   0029BC  0E00               	movlw	0
  3060   0029BE  6E3B               	movwf	___flmul@prod^(0+1280),c
  3061   0029C0  0E00               	movlw	0
  3062   0029C2  6E3C               	movwf	(___flmul@prod+1)^(0+1280),c
  3063   0029C4  0E80               	movlw	128
  3064   0029C6  6E3D               	movwf	(___flmul@prod+2)^(0+1280),c
  3065   0029C8  0E7F               	movlw	127
  3066   0029CA  6E3E               	movwf	(___flmul@prod+3)^(0+1280),c
  3067   0029CC  EF16  F015         	goto	l2228
  3068   0029D0                     l2216:
  3069   0029D0  BE40               	btfsc	(___flmul@temp+1)^(0+1280),7,c
  3070   0029D2  EFF5  F014         	goto	u1650
  3071   0029D6  5040               	movf	(___flmul@temp+1)^(0+1280),w,c
  3072   0029D8  E106               	bnz	u1651
  3073   0029DA  043F               	decf	___flmul@temp^(0+1280),w,c
  3074   0029DC  B0D8               	btfsc	status,0,c
  3075   0029DE  EFF3  F014         	goto	u1651
  3076   0029E2  EFF5  F014         	goto	u1650
  3077   0029E6                     u1651:
  3078   0029E6  EF01  F015         	goto	l749
  3079   0029EA                     u1650:
  3080   0029EA  0E00               	movlw	0
  3081   0029EC  6E3B               	movwf	___flmul@prod^(0+1280),c
  3082   0029EE  0E00               	movlw	0
  3083   0029F0  6E3C               	movwf	(___flmul@prod+1)^(0+1280),c
  3084   0029F2  0E00               	movlw	0
  3085   0029F4  6E3D               	movwf	(___flmul@prod+2)^(0+1280),c
  3086   0029F6  0E00               	movlw	0
  3087   0029F8  6E3E               	movwf	(___flmul@prod+3)^(0+1280),c
  3088   0029FA  0E00               	movlw	0
  3089   0029FC  6E34               	movwf	___flmul@sign^(0+1280),c
  3090   0029FE  EF16  F015         	goto	l2228
  3091   002A02                     l749:
  3092   002A02  C53F  F53A         	movff	___flmul@temp,___flmul@bexp
  3093   002A06  0EFF               	movlw	255
  3094   002A08  163B               	andwf	___flmul@prod^(0+1280),f,c
  3095   002A0A  0EFF               	movlw	255
  3096   002A0C  163C               	andwf	(___flmul@prod+1)^(0+1280),f,c
  3097   002A0E  0E7F               	movlw	127
  3098   002A10  163D               	andwf	(___flmul@prod+2)^(0+1280),f,c
  3099   002A12  0E00               	movlw	0
  3100   002A14  163E               	andwf	(___flmul@prod+3)^(0+1280),f,c
  3101   002A16  A03A               	btfss	___flmul@bexp^(0+1280),0,c
  3102   002A18  EF10  F015         	goto	u1661
  3103   002A1C  EF12  F015         	goto	u1660
  3104   002A20                     u1661:
  3105   002A20  EF13  F015         	goto	l2226
  3106   002A24                     u1660:
  3107   002A24  8E3D               	bsf	(___flmul@prod+2)^(0+1280),7,c
  3108   002A26                     l2226:
  3109   002A26  90D8               	bcf	status,0,c
  3110   002A28  303A               	rrcf	___flmul@bexp^(0+1280),w,c
  3111   002A2A  6E3E               	movwf	(___flmul@prod+3)^(0+1280),c
  3112   002A2C                     l2228:
  3113   002A2C  5034               	movf	___flmul@sign^(0+1280),w,c
  3114   002A2E  123E               	iorwf	(___flmul@prod+3)^(0+1280),f,c
  3115   002A30  C53B  F528         	movff	___flmul@prod,?___flmul
  3116   002A34  C53C  F529         	movff	___flmul@prod+1,?___flmul+1
  3117   002A38  C53D  F52A         	movff	___flmul@prod+2,?___flmul+2
  3118   002A3C  C53E  F52B         	movff	___flmul@prod+3,?___flmul+3
  3119   002A40                     l736:
  3120   002A40  0012               	return		;funcret
  3121   002A42                     __end_of___flmul:
  3122                           	callstack 0
  3123                           
  3124 ;; *************** function ___fldiv *****************
  3125 ;; Defined at:
  3126 ;;		line 11 in file "C:\Program Files\Microchip\xc8\v2.41\pic\sources\c99\common\sprcdiv.c"
  3127 ;; Parameters:    Size  Location     Type
  3128 ;;  b               4   14[COMRAM] unsigned char 
  3129 ;;  a               4   18[COMRAM] unsigned char 
  3130 ;; Auto vars:     Size  Location     Type
  3131 ;;  grs             4   33[COMRAM] unsigned long 
  3132 ;;  rem             4   26[COMRAM] unsigned long 
  3133 ;;  new_exp         2   31[COMRAM] short 
  3134 ;;  aexp            1   38[COMRAM] unsigned char 
  3135 ;;  bexp            1   37[COMRAM] unsigned char 
  3136 ;;  sign            1   30[COMRAM] unsigned char 
  3137 ;; Return value:  Size  Location     Type
  3138 ;;                  4   14[COMRAM] unsigned char 
  3139 ;; Registers used:
  3140 ;;		wreg, status,2, status,0
  3141 ;; Tracked objects:
  3142 ;;		On entry : 0/0
  3143 ;;		On exit  : 0/0
  3144 ;;		Unchanged: 0/0
  3145 ;; Data sizes:     COMRAM   BANK5   BANK6   BANK7   BANK8   BANK9  BANK10  BANK11  BANK12  BANK13  BANK14  BANK15  BANK1
      +6  BANK17  BANK18  BANK19  BANK20  BANK21  BANK22  BANK23  BANK24  BANK25  BANK26  BANK27  BANK28  BANK29  BANK30  BANK3
      +1  BANK32  BANK33  BANK34  BANK35  BANK36
  3146 ;;      Params:         8       0       0       0       0       0       0       0       0       0       0       0       
      +0       0       0       0       0       0       0       0       0       0       0       0       0       0       0       
      +0       0       0       0       0       0
  3147 ;;      Locals:        13       0       0       0       0       0       0       0       0       0       0       0       
      +0       0       0       0       0       0       0       0       0       0       0       0       0       0       0       
      +0       0       0       0       0       0
  3148 ;;      Temps:          4       0       0       0       0       0       0       0       0       0       0       0       
      +0       0       0       0       0       0       0       0       0       0       0       0       0       0       0       
      +0       0       0       0       0       0
  3149 ;;      Totals:        25       0       0       0       0       0       0       0       0       0       0       0       
      +0       0       0       0       0       0       0       0       0       0       0       0       0       0       0       
      +0       0       0       0       0       0
  3150 ;;Total ram usage:       25 bytes
  3151 ;; Hardware stack levels used: 1
  3152 ;; This function calls:
  3153 ;;		Nothing
  3154 ;; This function is called by:
  3155 ;;		_main
  3156 ;; This function uses a non-reentrant model
  3157 ;;
  3158                           
  3159                           	psect	text16
  3160   002A42                     __ptext16:
  3161                           	callstack 0
  3162   002A42                     ___fldiv:
  3163                           	callstack 126
  3164   002A42  5012               	movf	(___fldiv@b+3)^(0+1280),w,c
  3165   002A44  0B80               	andlw	128
  3166   002A46  6E1F               	movwf	___fldiv@sign^(0+1280),c
  3167   002A48  5012               	movf	(___fldiv@b+3)^(0+1280),w,c
  3168   002A4A  2412               	addwf	(___fldiv@b+3)^(0+1280),w,c
  3169   002A4C  6E26               	movwf	___fldiv@bexp^(0+1280),c
  3170   002A4E  AE11               	btfss	(___fldiv@b+2)^(0+1280),7,c
  3171   002A50  EF2C  F015         	goto	u1251
  3172   002A54  EF2E  F015         	goto	u1250
  3173   002A58                     u1251:
  3174   002A58  EF2F  F015         	goto	l1972
  3175   002A5C                     u1250:
  3176   002A5C  8026               	bsf	___fldiv@bexp^(0+1280),0,c
  3177   002A5E                     l1972:
  3178   002A5E  5026               	movf	___fldiv@bexp^(0+1280),w,c
  3179   002A60  B4D8               	btfsc	status,2,c
  3180   002A62  EF35  F015         	goto	u1261
  3181   002A66  EF37  F015         	goto	u1260
  3182   002A6A                     u1261:
  3183   002A6A  EF4C  F015         	goto	l1982
  3184   002A6E                     u1260:
  3185   002A6E  2826               	incf	___fldiv@bexp^(0+1280),w,c
  3186   002A70  A4D8               	btfss	status,2,c
  3187   002A72  EF3D  F015         	goto	u1271
  3188   002A76  EF3F  F015         	goto	u1270
  3189   002A7A                     u1271:
  3190   002A7A  EF47  F015         	goto	l1978
  3191   002A7E                     u1270:
  3192   002A7E  0E00               	movlw	0
  3193   002A80  6E0F               	movwf	___fldiv@b^(0+1280),c
  3194   002A82  0E00               	movlw	0
  3195   002A84  6E10               	movwf	(___fldiv@b+1)^(0+1280),c
  3196   002A86  0E00               	movlw	0
  3197   002A88  6E11               	movwf	(___fldiv@b+2)^(0+1280),c
  3198   002A8A  0E00               	movlw	0
  3199   002A8C  6E12               	movwf	(___fldiv@b+3)^(0+1280),c
  3200   002A8E                     l1978:
  3201   002A8E  8E11               	bsf	(___fldiv@b+2)^(0+1280),7,c
  3202   002A90  0E00               	movlw	0
  3203   002A92  6E12               	movwf	(___fldiv@b+3)^(0+1280),c
  3204   002A94  EF54  F015         	goto	l1984
  3205   002A98                     l1982:
  3206   002A98  0E00               	movlw	0
  3207   002A9A  6E0F               	movwf	___fldiv@b^(0+1280),c
  3208   002A9C  0E00               	movlw	0
  3209   002A9E  6E10               	movwf	(___fldiv@b+1)^(0+1280),c
  3210   002AA0  0E00               	movlw	0
  3211   002AA2  6E11               	movwf	(___fldiv@b+2)^(0+1280),c
  3212   002AA4  0E00               	movlw	0
  3213   002AA6  6E12               	movwf	(___fldiv@b+3)^(0+1280),c
  3214   002AA8                     l1984:
  3215   002AA8  5016               	movf	(___fldiv@a+3)^(0+1280),w,c
  3216   002AAA  0B80               	andlw	128
  3217   002AAC  1A1F               	xorwf	___fldiv@sign^(0+1280),f,c
  3218   002AAE  5016               	movf	(___fldiv@a+3)^(0+1280),w,c
  3219   002AB0  2416               	addwf	(___fldiv@a+3)^(0+1280),w,c
  3220   002AB2  6E27               	movwf	___fldiv@aexp^(0+1280),c
  3221   002AB4  AE15               	btfss	(___fldiv@a+2)^(0+1280),7,c
  3222   002AB6  EF5F  F015         	goto	u1281
  3223   002ABA  EF61  F015         	goto	u1280
  3224   002ABE                     u1281:
  3225   002ABE  EF62  F015         	goto	l1992
  3226   002AC2                     u1280:
  3227   002AC2  8027               	bsf	___fldiv@aexp^(0+1280),0,c
  3228   002AC4                     l1992:
  3229   002AC4  5027               	movf	___fldiv@aexp^(0+1280),w,c
  3230   002AC6  B4D8               	btfsc	status,2,c
  3231   002AC8  EF68  F015         	goto	u1291
  3232   002ACC  EF6A  F015         	goto	u1290
  3233   002AD0                     u1291:
  3234   002AD0  EF7F  F015         	goto	l2002
  3235   002AD4                     u1290:
  3236   002AD4  2827               	incf	___fldiv@aexp^(0+1280),w,c
  3237   002AD6  A4D8               	btfss	status,2,c
  3238   002AD8  EF70  F015         	goto	u1301
  3239   002ADC  EF72  F015         	goto	u1300
  3240   002AE0                     u1301:
  3241   002AE0  EF7A  F015         	goto	l1998
  3242   002AE4                     u1300:
  3243   002AE4  0E00               	movlw	0
  3244   002AE6  6E13               	movwf	___fldiv@a^(0+1280),c
  3245   002AE8  0E00               	movlw	0
  3246   002AEA  6E14               	movwf	(___fldiv@a+1)^(0+1280),c
  3247   002AEC  0E00               	movlw	0
  3248   002AEE  6E15               	movwf	(___fldiv@a+2)^(0+1280),c
  3249   002AF0  0E00               	movlw	0
  3250   002AF2  6E16               	movwf	(___fldiv@a+3)^(0+1280),c
  3251   002AF4                     l1998:
  3252   002AF4  8E15               	bsf	(___fldiv@a+2)^(0+1280),7,c
  3253   002AF6  0E00               	movlw	0
  3254   002AF8  6E16               	movwf	(___fldiv@a+3)^(0+1280),c
  3255   002AFA  EF87  F015         	goto	l2004
  3256   002AFE                     l2002:
  3257   002AFE  0E00               	movlw	0
  3258   002B00  6E13               	movwf	___fldiv@a^(0+1280),c
  3259   002B02  0E00               	movlw	0
  3260   002B04  6E14               	movwf	(___fldiv@a+1)^(0+1280),c
  3261   002B06  0E00               	movlw	0
  3262   002B08  6E15               	movwf	(___fldiv@a+2)^(0+1280),c
  3263   002B0A  0E00               	movlw	0
  3264   002B0C  6E16               	movwf	(___fldiv@a+3)^(0+1280),c
  3265   002B0E                     l2004:
  3266   002B0E  5013               	movf	___fldiv@a^(0+1280),w,c
  3267   002B10  1014               	iorwf	(___fldiv@a+1)^(0+1280),w,c
  3268   002B12  1015               	iorwf	(___fldiv@a+2)^(0+1280),w,c
  3269   002B14  1016               	iorwf	(___fldiv@a+3)^(0+1280),w,c
  3270   002B16  A4D8               	btfss	status,2,c
  3271   002B18  EF90  F015         	goto	u1311
  3272   002B1C  EF92  F015         	goto	u1310
  3273   002B20                     u1311:
  3274   002B20  EFAA  F015         	goto	l2016
  3275   002B24                     u1310:
  3276   002B24  0E00               	movlw	0
  3277   002B26  6E0F               	movwf	___fldiv@b^(0+1280),c
  3278   002B28  0E00               	movlw	0
  3279   002B2A  6E10               	movwf	(___fldiv@b+1)^(0+1280),c
  3280   002B2C  0E00               	movlw	0
  3281   002B2E  6E11               	movwf	(___fldiv@b+2)^(0+1280),c
  3282   002B30  0E00               	movlw	0
  3283   002B32  6E12               	movwf	(___fldiv@b+3)^(0+1280),c
  3284   002B34  0E80               	movlw	128
  3285   002B36  1211               	iorwf	(___fldiv@b+2)^(0+1280),f,c
  3286   002B38  0E7F               	movlw	127
  3287   002B3A  1212               	iorwf	(___fldiv@b+3)^(0+1280),f,c
  3288   002B3C                     l2010:
  3289   002B3C  501F               	movf	___fldiv@sign^(0+1280),w,c
  3290   002B3E  1212               	iorwf	(___fldiv@b+3)^(0+1280),f,c
  3291   002B40  C50F  F50F         	movff	___fldiv@b,?___fldiv
  3292   002B44  C510  F510         	movff	___fldiv@b+1,?___fldiv+1
  3293   002B48  C511  F511         	movff	___fldiv@b+2,?___fldiv+2
  3294   002B4C  C512  F512         	movff	___fldiv@b+3,?___fldiv+3
  3295   002B50  EFED  F016         	goto	l700
  3296   002B54                     l2016:
  3297   002B54  5026               	movf	___fldiv@bexp^(0+1280),w,c
  3298   002B56  A4D8               	btfss	status,2,c
  3299   002B58  EFB0  F015         	goto	u1321
  3300   002B5C  EFB2  F015         	goto	u1320
  3301   002B60                     u1321:
  3302   002B60  EFBC  F015         	goto	l2024
  3303   002B64                     u1320:
  3304   002B64  0E00               	movlw	0
  3305   002B66  6E0F               	movwf	?___fldiv^(0+1280),c
  3306   002B68  0E00               	movlw	0
  3307   002B6A  6E10               	movwf	(?___fldiv+1)^(0+1280),c
  3308   002B6C  0E00               	movlw	0
  3309   002B6E  6E11               	movwf	(?___fldiv+2)^(0+1280),c
  3310   002B70  0E00               	movlw	0
  3311   002B72  6E12               	movwf	(?___fldiv+3)^(0+1280),c
  3312   002B74  EFED  F016         	goto	l700
  3313   002B78                     l2024:
  3314   002B78  5027               	movf	___fldiv@aexp^(0+1280),w,c
  3315   002B7A  C526  F517         	movff	___fldiv@bexp,??___fldiv
  3316   002B7E  6A18               	clrf	(??___fldiv+1)^(0+1280),c
  3317   002B80  5E17               	subwf	??___fldiv^(0+1280),f,c
  3318   002B82  0E00               	movlw	0
  3319   002B84  5A18               	subwfb	(??___fldiv+1)^(0+1280),f,c
  3320   002B86  0E7F               	movlw	127
  3321   002B88  2417               	addwf	??___fldiv^(0+1280),w,c
  3322   002B8A  6E20               	movwf	___fldiv@new_exp^(0+1280),c
  3323   002B8C  0E00               	movlw	0
  3324   002B8E  2018               	addwfc	(??___fldiv+1)^(0+1280),w,c
  3325   002B90  6E21               	movwf	(___fldiv@new_exp+1)^(0+1280),c
  3326   002B92  C50F  F51B         	movff	___fldiv@b,___fldiv@rem
  3327   002B96  C510  F51C         	movff	___fldiv@b+1,___fldiv@rem+1
  3328   002B9A  C511  F51D         	movff	___fldiv@b+2,___fldiv@rem+2
  3329   002B9E  C512  F51E         	movff	___fldiv@b+3,___fldiv@rem+3
  3330   002BA2  0E00               	movlw	0
  3331   002BA4  6E0F               	movwf	___fldiv@b^(0+1280),c
  3332   002BA6  0E00               	movlw	0
  3333   002BA8  6E10               	movwf	(___fldiv@b+1)^(0+1280),c
  3334   002BAA  0E00               	movlw	0
  3335   002BAC  6E11               	movwf	(___fldiv@b+2)^(0+1280),c
  3336   002BAE  0E00               	movlw	0
  3337   002BB0  6E12               	movwf	(___fldiv@b+3)^(0+1280),c
  3338   002BB2  0E00               	movlw	0
  3339   002BB4  6E22               	movwf	___fldiv@grs^(0+1280),c
  3340   002BB6  0E00               	movlw	0
  3341   002BB8  6E23               	movwf	(___fldiv@grs+1)^(0+1280),c
  3342   002BBA  0E00               	movlw	0
  3343   002BBC  6E24               	movwf	(___fldiv@grs+2)^(0+1280),c
  3344   002BBE  0E00               	movlw	0
  3345   002BC0  6E25               	movwf	(___fldiv@grs+3)^(0+1280),c
  3346   002BC2  0E00               	movlw	0
  3347   002BC4  6E27               	movwf	___fldiv@aexp^(0+1280),c
  3348   002BC6  EF1D  F016         	goto	l702
  3349   002BCA                     l2034:
  3350   002BCA  5027               	movf	___fldiv@aexp^(0+1280),w,c
  3351   002BCC  B4D8               	btfsc	status,2,c
  3352   002BCE  EFEB  F015         	goto	u1331
  3353   002BD2  EFED  F015         	goto	u1330
  3354   002BD6                     u1331:
  3355   002BD6  EF04  F016         	goto	l2042
  3356   002BDA                     u1330:
  3357   002BDA  90D8               	bcf	status,0,c
  3358   002BDC  361B               	rlcf	___fldiv@rem^(0+1280),f,c
  3359   002BDE  361C               	rlcf	(___fldiv@rem+1)^(0+1280),f,c
  3360   002BE0  361D               	rlcf	(___fldiv@rem+2)^(0+1280),f,c
  3361   002BE2  361E               	rlcf	(___fldiv@rem+3)^(0+1280),f,c
  3362   002BE4  90D8               	bcf	status,0,c
  3363   002BE6  360F               	rlcf	___fldiv@b^(0+1280),f,c
  3364   002BE8  3610               	rlcf	(___fldiv@b+1)^(0+1280),f,c
  3365   002BEA  3611               	rlcf	(___fldiv@b+2)^(0+1280),f,c
  3366   002BEC  3612               	rlcf	(___fldiv@b+3)^(0+1280),f,c
  3367   002BEE  AE25               	btfss	(___fldiv@grs+3)^(0+1280),7,c
  3368   002BF0  EFFC  F015         	goto	u1341
  3369   002BF4  EFFE  F015         	goto	u1340
  3370   002BF8                     u1341:
  3371   002BF8  EFFF  F015         	goto	l705
  3372   002BFC                     u1340:
  3373   002BFC  800F               	bsf	___fldiv@b^(0+1280),0,c
  3374   002BFE                     l705:
  3375   002BFE  90D8               	bcf	status,0,c
  3376   002C00  3622               	rlcf	___fldiv@grs^(0+1280),f,c
  3377   002C02  3623               	rlcf	(___fldiv@grs+1)^(0+1280),f,c
  3378   002C04  3624               	rlcf	(___fldiv@grs+2)^(0+1280),f,c
  3379   002C06  3625               	rlcf	(___fldiv@grs+3)^(0+1280),f,c
  3380   002C08                     l2042:
  3381   002C08  5013               	movf	___fldiv@a^(0+1280),w,c
  3382   002C0A  5C1B               	subwf	___fldiv@rem^(0+1280),w,c
  3383   002C0C  5014               	movf	(___fldiv@a+1)^(0+1280),w,c
  3384   002C0E  581C               	subwfb	(___fldiv@rem+1)^(0+1280),w,c
  3385   002C10  5015               	movf	(___fldiv@a+2)^(0+1280),w,c
  3386   002C12  581D               	subwfb	(___fldiv@rem+2)^(0+1280),w,c
  3387   002C14  5016               	movf	(___fldiv@a+3)^(0+1280),w,c
  3388   002C16  581E               	subwfb	(___fldiv@rem+3)^(0+1280),w,c
  3389   002C18  A0D8               	btfss	status,0,c
  3390   002C1A  EF11  F016         	goto	u1351
  3391   002C1E  EF13  F016         	goto	u1350
  3392   002C22                     u1351:
  3393   002C22  EF1C  F016         	goto	l2048
  3394   002C26                     u1350:
  3395   002C26  8C25               	bsf	(___fldiv@grs+3)^(0+1280),6,c
  3396   002C28  5013               	movf	___fldiv@a^(0+1280),w,c
  3397   002C2A  5E1B               	subwf	___fldiv@rem^(0+1280),f,c
  3398   002C2C  5014               	movf	(___fldiv@a+1)^(0+1280),w,c
  3399   002C2E  5A1C               	subwfb	(___fldiv@rem+1)^(0+1280),f,c
  3400   002C30  5015               	movf	(___fldiv@a+2)^(0+1280),w,c
  3401   002C32  5A1D               	subwfb	(___fldiv@rem+2)^(0+1280),f,c
  3402   002C34  5016               	movf	(___fldiv@a+3)^(0+1280),w,c
  3403   002C36  5A1E               	subwfb	(___fldiv@rem+3)^(0+1280),f,c
  3404   002C38                     l2048:
  3405   002C38  2A27               	incf	___fldiv@aexp^(0+1280),f,c
  3406   002C3A                     l702:
  3407   002C3A  0E19               	movlw	25
  3408   002C3C  6427               	cpfsgt	___fldiv@aexp^(0+1280),c
  3409   002C3E  EF23  F016         	goto	u1361
  3410   002C42  EF25  F016         	goto	u1360
  3411   002C46                     u1361:
  3412   002C46  EFE5  F015         	goto	l2034
  3413   002C4A                     u1360:
  3414   002C4A  501B               	movf	___fldiv@rem^(0+1280),w,c
  3415   002C4C  101C               	iorwf	(___fldiv@rem+1)^(0+1280),w,c
  3416   002C4E  101D               	iorwf	(___fldiv@rem+2)^(0+1280),w,c
  3417   002C50  101E               	iorwf	(___fldiv@rem+3)^(0+1280),w,c
  3418   002C52  B4D8               	btfsc	status,2,c
  3419   002C54  EF2E  F016         	goto	u1371
  3420   002C58  EF30  F016         	goto	u1370
  3421   002C5C                     u1371:
  3422   002C5C  EF48  F016         	goto	l2060
  3423   002C60                     u1370:
  3424   002C60  8022               	bsf	___fldiv@grs^(0+1280),0,c
  3425   002C62  EF48  F016         	goto	l2060
  3426   002C66                     l2054:
  3427   002C66  90D8               	bcf	status,0,c
  3428   002C68  360F               	rlcf	___fldiv@b^(0+1280),f,c
  3429   002C6A  3610               	rlcf	(___fldiv@b+1)^(0+1280),f,c
  3430   002C6C  3611               	rlcf	(___fldiv@b+2)^(0+1280),f,c
  3431   002C6E  3612               	rlcf	(___fldiv@b+3)^(0+1280),f,c
  3432   002C70  AE25               	btfss	(___fldiv@grs+3)^(0+1280),7,c
  3433   002C72  EF3D  F016         	goto	u1381
  3434   002C76  EF3F  F016         	goto	u1380
  3435   002C7A                     u1381:
  3436   002C7A  EF40  F016         	goto	l711
  3437   002C7E                     u1380:
  3438   002C7E  800F               	bsf	___fldiv@b^(0+1280),0,c
  3439   002C80                     l711:
  3440   002C80  90D8               	bcf	status,0,c
  3441   002C82  3622               	rlcf	___fldiv@grs^(0+1280),f,c
  3442   002C84  3623               	rlcf	(___fldiv@grs+1)^(0+1280),f,c
  3443   002C86  3624               	rlcf	(___fldiv@grs+2)^(0+1280),f,c
  3444   002C88  3625               	rlcf	(___fldiv@grs+3)^(0+1280),f,c
  3445   002C8A  0620               	decf	___fldiv@new_exp^(0+1280),f,c
  3446   002C8C  A0D8               	btfss	status,0,c
  3447   002C8E  0621               	decf	(___fldiv@new_exp+1)^(0+1280),f,c
  3448   002C90                     l2060:
  3449   002C90  AE11               	btfss	(___fldiv@b+2)^(0+1280),7,c
  3450   002C92  EF4D  F016         	goto	u1391
  3451   002C96  EF4F  F016         	goto	u1390
  3452   002C9A                     u1391:
  3453   002C9A  EF33  F016         	goto	l2054
  3454   002C9E                     u1390:
  3455   002C9E  0E00               	movlw	0
  3456   002CA0  6E27               	movwf	___fldiv@aexp^(0+1280),c
  3457   002CA2  AE25               	btfss	(___fldiv@grs+3)^(0+1280),7,c
  3458   002CA4  EF56  F016         	goto	u1401
  3459   002CA8  EF58  F016         	goto	u1400
  3460   002CAC                     u1401:
  3461   002CAC  EF7C  F016         	goto	l713
  3462   002CB0                     u1400:
  3463   002CB0  0EFF               	movlw	255
  3464   002CB2  1422               	andwf	___fldiv@grs^(0+1280),w,c
  3465   002CB4  6E17               	movwf	??___fldiv^(0+1280),c
  3466   002CB6  0EFF               	movlw	255
  3467   002CB8  1423               	andwf	(___fldiv@grs+1)^(0+1280),w,c
  3468   002CBA  6E18               	movwf	(??___fldiv+1)^(0+1280),c
  3469   002CBC  0EFF               	movlw	255
  3470   002CBE  1424               	andwf	(___fldiv@grs+2)^(0+1280),w,c
  3471   002CC0  6E19               	movwf	(??___fldiv+2)^(0+1280),c
  3472   002CC2  0E7F               	movlw	127
  3473   002CC4  1425               	andwf	(___fldiv@grs+3)^(0+1280),w,c
  3474   002CC6  6E1A               	movwf	(??___fldiv+3)^(0+1280),c
  3475   002CC8  5017               	movf	??___fldiv^(0+1280),w,c
  3476   002CCA  1018               	iorwf	(??___fldiv+1)^(0+1280),w,c
  3477   002CCC  1019               	iorwf	(??___fldiv+2)^(0+1280),w,c
  3478   002CCE  101A               	iorwf	(??___fldiv+3)^(0+1280),w,c
  3479   002CD0  B4D8               	btfsc	status,2,c
  3480   002CD2  EF6D  F016         	goto	u1411
  3481   002CD6  EF6F  F016         	goto	u1410
  3482   002CDA                     u1411:
  3483   002CDA  EF73  F016         	goto	l714
  3484   002CDE                     u1410:
  3485   002CDE                     l2068:
  3486   002CDE  0E01               	movlw	1
  3487   002CE0  6E27               	movwf	___fldiv@aexp^(0+1280),c
  3488   002CE2  EF7C  F016         	goto	l713
  3489   002CE6                     l714:
  3490   002CE6  A00F               	btfss	___fldiv@b^(0+1280),0,c
  3491   002CE8  EF78  F016         	goto	u1421
  3492   002CEC  EF7A  F016         	goto	u1420
  3493   002CF0                     u1421:
  3494   002CF0  EF7C  F016         	goto	l713
  3495   002CF4                     u1420:
  3496   002CF4  EF6F  F016         	goto	l2068
  3497   002CF8                     l713:
  3498   002CF8  5027               	movf	___fldiv@aexp^(0+1280),w,c
  3499   002CFA  B4D8               	btfsc	status,2,c
  3500   002CFC  EF82  F016         	goto	u1431
  3501   002D00  EF84  F016         	goto	u1430
  3502   002D04                     u1431:
  3503   002D04  EFA8  F016         	goto	l2080
  3504   002D08                     u1430:
  3505   002D08  0E01               	movlw	1
  3506   002D0A  260F               	addwf	___fldiv@b^(0+1280),f,c
  3507   002D0C  0E00               	movlw	0
  3508   002D0E  2210               	addwfc	(___fldiv@b+1)^(0+1280),f,c
  3509   002D10  2211               	addwfc	(___fldiv@b+2)^(0+1280),f,c
  3510   002D12  2212               	addwfc	(___fldiv@b+3)^(0+1280),f,c
  3511   002D14  A012               	btfss	(___fldiv@b+3)^(0+1280),0,c
  3512   002D16  EF8F  F016         	goto	u1441
  3513   002D1A  EF91  F016         	goto	u1440
  3514   002D1E                     u1441:
  3515   002D1E  EFA8  F016         	goto	l2080
  3516   002D22                     u1440:
  3517   002D22  C50F  F517         	movff	___fldiv@b,??___fldiv
  3518   002D26  C510  F518         	movff	___fldiv@b+1,??___fldiv+1
  3519   002D2A  C511  F519         	movff	___fldiv@b+2,??___fldiv+2
  3520   002D2E  C512  F51A         	movff	___fldiv@b+3,??___fldiv+3
  3521   002D32  341A               	rlcf	(??___fldiv+3)^(0+1280),w,c
  3522   002D34  321A               	rrcf	(??___fldiv+3)^(0+1280),f,c
  3523   002D36  3219               	rrcf	(??___fldiv+2)^(0+1280),f,c
  3524   002D38  3218               	rrcf	(??___fldiv+1)^(0+1280),f,c
  3525   002D3A  3217               	rrcf	??___fldiv^(0+1280),f,c
  3526   002D3C  C517  F50F         	movff	??___fldiv,___fldiv@b
  3527   002D40  C518  F510         	movff	??___fldiv+1,___fldiv@b+1
  3528   002D44  C519  F511         	movff	??___fldiv+2,___fldiv@b+2
  3529   002D48  C51A  F512         	movff	??___fldiv+3,___fldiv@b+3
  3530   002D4C  4A20               	infsnz	___fldiv@new_exp^(0+1280),f,c
  3531   002D4E  2A21               	incf	(___fldiv@new_exp+1)^(0+1280),f,c
  3532   002D50                     l2080:
  3533   002D50  BE21               	btfsc	(___fldiv@new_exp+1)^(0+1280),7,c
  3534   002D52  EFB3  F016         	goto	u1451
  3535   002D56  5021               	movf	(___fldiv@new_exp+1)^(0+1280),w,c
  3536   002D58  E108               	bnz	u1450
  3537   002D5A  2820               	incf	___fldiv@new_exp^(0+1280),w,c
  3538   002D5C  A0D8               	btfss	status,0,c
  3539   002D5E  EFB3  F016         	goto	u1451
  3540   002D62  EFB5  F016         	goto	u1450
  3541   002D66                     u1451:
  3542   002D66  EFC0  F016         	goto	l2084
  3543   002D6A                     u1450:
  3544   002D6A  0E00               	movlw	0
  3545   002D6C  6E21               	movwf	(___fldiv@new_exp+1)^(0+1280),c
  3546   002D6E  6820               	setf	___fldiv@new_exp^(0+1280),c
  3547   002D70  0E00               	movlw	0
  3548   002D72  6E0F               	movwf	___fldiv@b^(0+1280),c
  3549   002D74  0E00               	movlw	0
  3550   002D76  6E10               	movwf	(___fldiv@b+1)^(0+1280),c
  3551   002D78  0E00               	movlw	0
  3552   002D7A  6E11               	movwf	(___fldiv@b+2)^(0+1280),c
  3553   002D7C  0E00               	movlw	0
  3554   002D7E  6E12               	movwf	(___fldiv@b+3)^(0+1280),c
  3555   002D80                     l2084:
  3556   002D80  BE21               	btfsc	(___fldiv@new_exp+1)^(0+1280),7,c
  3557   002D82  EFCD  F016         	goto	u1460
  3558   002D86  5021               	movf	(___fldiv@new_exp+1)^(0+1280),w,c
  3559   002D88  E106               	bnz	u1461
  3560   002D8A  0420               	decf	___fldiv@new_exp^(0+1280),w,c
  3561   002D8C  B0D8               	btfsc	status,0,c
  3562   002D8E  EFCB  F016         	goto	u1461
  3563   002D92  EFCD  F016         	goto	u1460
  3564   002D96                     u1461:
  3565   002D96  EFDB  F016         	goto	l2088
  3566   002D9A                     u1460:
  3567   002D9A  0E00               	movlw	0
  3568   002D9C  6E21               	movwf	(___fldiv@new_exp+1)^(0+1280),c
  3569   002D9E  0E00               	movlw	0
  3570   002DA0  6E20               	movwf	___fldiv@new_exp^(0+1280),c
  3571   002DA2  0E00               	movlw	0
  3572   002DA4  6E0F               	movwf	___fldiv@b^(0+1280),c
  3573   002DA6  0E00               	movlw	0
  3574   002DA8  6E10               	movwf	(___fldiv@b+1)^(0+1280),c
  3575   002DAA  0E00               	movlw	0
  3576   002DAC  6E11               	movwf	(___fldiv@b+2)^(0+1280),c
  3577   002DAE  0E00               	movlw	0
  3578   002DB0  6E12               	movwf	(___fldiv@b+3)^(0+1280),c
  3579   002DB2  0E00               	movlw	0
  3580   002DB4  6E1F               	movwf	___fldiv@sign^(0+1280),c
  3581   002DB6                     l2088:
  3582   002DB6  C520  F526         	movff	___fldiv@new_exp,___fldiv@bexp
  3583   002DBA  A026               	btfss	___fldiv@bexp^(0+1280),0,c
  3584   002DBC  EFE2  F016         	goto	u1471
  3585   002DC0  EFE4  F016         	goto	u1470
  3586   002DC4                     u1471:
  3587   002DC4  EFE7  F016         	goto	l2094
  3588   002DC8                     u1470:
  3589   002DC8  8E11               	bsf	(___fldiv@b+2)^(0+1280),7,c
  3590   002DCA  EFE8  F016         	goto	l2096
  3591   002DCE                     l2094:
  3592   002DCE  9E11               	bcf	(___fldiv@b+2)^(0+1280),7,c
  3593   002DD0                     l2096:
  3594   002DD0  90D8               	bcf	status,0,c
  3595   002DD2  3026               	rrcf	___fldiv@bexp^(0+1280),w,c
  3596   002DD4  6E12               	movwf	(___fldiv@b+3)^(0+1280),c
  3597   002DD6  EF9E  F015         	goto	l2010
  3598   002DDA                     l700:
  3599   002DDA  0012               	return		;funcret
  3600   002DDC                     __end_of___fldiv:
  3601                           	callstack 0
  3602                           
  3603 ;; *************** function _Init_Internal_Oscillator *****************
  3604 ;; Defined at:
  3605 ;;		line 146 in file "main.c"
  3606 ;; Parameters:    Size  Location     Type
  3607 ;;		None
  3608 ;; Auto vars:     Size  Location     Type
  3609 ;;  my_clock        2    3[COMRAM] struct .
  3610 ;; Return value:  Size  Location     Type
  3611 ;;                  1    wreg      void 
  3612 ;; Registers used:
  3613 ;;		wreg, fsr2l, fsr2h, status,2, status,0, cstack
  3614 ;; Tracked objects:
  3615 ;;		On entry : 0/0
  3616 ;;		On exit  : 0/0
  3617 ;;		Unchanged: 0/0
  3618 ;; Data sizes:     COMRAM   BANK5   BANK6   BANK7   BANK8   BANK9  BANK10  BANK11  BANK12  BANK13  BANK14  BANK15  BANK1
      +6  BANK17  BANK18  BANK19  BANK20  BANK21  BANK22  BANK23  BANK24  BANK25  BANK26  BANK27  BANK28  BANK29  BANK30  BANK3
      +1  BANK32  BANK33  BANK34  BANK35  BANK36
  3619 ;;      Params:         0       0       0       0       0       0       0       0       0       0       0       0       
      +0       0       0       0       0       0       0       0       0       0       0       0       0       0       0       
      +0       0       0       0       0       0
  3620 ;;      Locals:         2       0       0       0       0       0       0       0       0       0       0       0       
      +0       0       0       0       0       0       0       0       0       0       0       0       0       0       0       
      +0       0       0       0       0       0
  3621 ;;      Temps:          0       0       0       0       0       0       0       0       0       0       0       0       
      +0       0       0       0       0       0       0       0       0       0       0       0       0       0       0       
      +0       0       0       0       0       0
  3622 ;;      Totals:         2       0       0       0       0       0       0       0       0       0       0       0       
      +0       0       0       0       0       0       0       0       0       0       0       0       0       0       0       
      +0       0       0       0       0       0
  3623 ;;Total ram usage:        2 bytes
  3624 ;; Hardware stack levels used: 1
  3625 ;; Hardware stack levels required when called: 1
  3626 ;; This function calls:
  3627 ;;		_FM_Hfintosc_Init
  3628 ;; This function is called by:
  3629 ;;		_main
  3630 ;; This function uses a non-reentrant model
  3631 ;;
  3632                           
  3633                           	psect	text17
  3634   003B0A                     __ptext17:
  3635                           	callstack 0
  3636   003B0A                     _Init_Internal_Oscillator:
  3637                           	callstack 125
  3638   003B0A                     
  3639                           ;main.c: 148:     _clock_hfintosc_params_t my_clock;;main.c: 149:     my_clock.frecuenci
      +                          a_clock = freq_clk_16MHZ;
  3640   003B0A  0E05               	movlw	5
  3641   003B0C  6E05               	movwf	(Init_Internal_Oscillator@my_clock+1)^(0+1280),c
  3642                           
  3643                           ;main.c: 150:     my_clock.divisor_clock = clock_div_1;
  3644   003B0E  0E00               	movlw	0
  3645   003B10  6E04               	movwf	Init_Internal_Oscillator@my_clock^(0+1280),c
  3646   003B12                     
  3647                           ;main.c: 151:     FM_Hfintosc_Init(&my_clock);
  3648   003B12  0E04               	movlw	low Init_Internal_Oscillator@my_clock
  3649   003B14  6E01               	movwf	FM_Hfintosc_Init@clock_params^(0+1280),c
  3650   003B16  0E05               	movlw	high Init_Internal_Oscillator@my_clock
  3651   003B18  6E02               	movwf	(FM_Hfintosc_Init@clock_params+1)^(0+1280),c
  3652   003B1A  EC46  F01D         	call	_FM_Hfintosc_Init	;wreg free
  3653   003B1E  0012               	return		;funcret
  3654   003B20                     __end_of_Init_Internal_Oscillator:
  3655                           	callstack 0
  3656                           
  3657 ;; *************** function _FM_Hfintosc_Init *****************
  3658 ;; Defined at:
  3659 ;;		line 8 in file "system_config.c"
  3660 ;; Parameters:    Size  Location     Type
  3661 ;;  clock_params    2    0[COMRAM] PTR struct .
  3662 ;;		 -> Init_Internal_Oscillator@my_clock(2), 
  3663 ;; Auto vars:     Size  Location     Type
  3664 ;;		None
  3665 ;; Return value:  Size  Location     Type
  3666 ;;                  1    wreg      void 
  3667 ;; Registers used:
  3668 ;;		wreg, fsr2l, fsr2h, status,2, status,0
  3669 ;; Tracked objects:
  3670 ;;		On entry : 0/0
  3671 ;;		On exit  : 0/0
  3672 ;;		Unchanged: 0/0
  3673 ;; Data sizes:     COMRAM   BANK5   BANK6   BANK7   BANK8   BANK9  BANK10  BANK11  BANK12  BANK13  BANK14  BANK15  BANK1
      +6  BANK17  BANK18  BANK19  BANK20  BANK21  BANK22  BANK23  BANK24  BANK25  BANK26  BANK27  BANK28  BANK29  BANK30  BANK3
      +1  BANK32  BANK33  BANK34  BANK35  BANK36
  3674 ;;      Params:         2       0       0       0       0       0       0       0       0       0       0       0       
      +0       0       0       0       0       0       0       0       0       0       0       0       0       0       0       
      +0       0       0       0       0       0
  3675 ;;      Locals:         0       0       0       0       0       0       0       0       0       0       0       0       
      +0       0       0       0       0       0       0       0       0       0       0       0       0       0       0       
      +0       0       0       0       0       0
  3676 ;;      Temps:          1       0       0       0       0       0       0       0       0       0       0       0       
      +0       0       0       0       0       0       0       0       0       0       0       0       0       0       0       
      +0       0       0       0       0       0
  3677 ;;      Totals:         3       0       0       0       0       0       0       0       0       0       0       0       
      +0       0       0       0       0       0       0       0       0       0       0       0       0       0       0       
      +0       0       0       0       0       0
  3678 ;;Total ram usage:        3 bytes
  3679 ;; Hardware stack levels used: 1
  3680 ;; This function calls:
  3681 ;;		Nothing
  3682 ;; This function is called by:
  3683 ;;		_Init_Internal_Oscillator
  3684 ;; This function uses a non-reentrant model
  3685 ;;
  3686                           
  3687                           	psect	text18
  3688   003A8C                     __ptext18:
  3689                           	callstack 0
  3690   003A8C                     _FM_Hfintosc_Init:
  3691                           	callstack 125
  3692   003A8C                     
  3693                           ;system_config.c: 8: void FM_Hfintosc_Init (_clock_hfintosc_params_t *clock_params);syst
      +                          em_config.c: 9: {;system_config.c: 10:     OSCCON1bits.NOSC = 0b110;
  3694   003A8C  0100               	movlb	0	; () banked
  3695   003A8E  51AD               	movf	173,w,b	;volatile
  3696   003A90  0B8F               	andlw	-113
  3697   003A92  0960               	iorlw	96
  3698   003A94  6FAD               	movwf	173,b	;volatile
  3699   003A96                     
  3700                           ; BSR set to: 0
  3701                           ;system_config.c: 11:     OSCCON1bits.NDIV = clock_params->divisor_clock;
  3702   003A96  C501  F4D9         	movff	FM_Hfintosc_Init@clock_params,fsr2l
  3703   003A9A  C502  F4DA         	movff	FM_Hfintosc_Init@clock_params+1,fsr2h
  3704   003A9E  50DF               	movf	indf2,w,c
  3705   003AA0  6E03               	movwf	??_FM_Hfintosc_Init^(0+1280),c
  3706   003AA2  51AD               	movf	173,w,b	;volatile
  3707   003AA4  1803               	xorwf	??_FM_Hfintosc_Init^(0+1280),w,c
  3708   003AA6  0BF0               	andlw	-16
  3709   003AA8  1803               	xorwf	??_FM_Hfintosc_Init^(0+1280),w,c
  3710   003AAA  6FAD               	movwf	173,b	;volatile
  3711   003AAC                     
  3712                           ; BSR set to: 0
  3713                           ;system_config.c: 12:     OSCFRQbits.HFFRQ = clock_params->frecuencia_clock;
  3714   003AAC  EE20 F001          	lfsr	2,1
  3715   003AB0  5001               	movf	FM_Hfintosc_Init@clock_params^(0+1280),w,c
  3716   003AB2  26D9               	addwf	fsr2l,f,c
  3717   003AB4  5002               	movf	(FM_Hfintosc_Init@clock_params+1)^(0+1280),w,c
  3718   003AB6  22DA               	addwfc	fsr2h,f,c
  3719   003AB8  50DF               	movf	indf2,w,c
  3720   003ABA  6E03               	movwf	??_FM_Hfintosc_Init^(0+1280),c
  3721   003ABC  51B1               	movf	177,w,b	;volatile
  3722   003ABE  1803               	xorwf	??_FM_Hfintosc_Init^(0+1280),w,c
  3723   003AC0  0BF0               	andlw	-16
  3724   003AC2  1803               	xorwf	??_FM_Hfintosc_Init^(0+1280),w,c
  3725   003AC4  6FB1               	movwf	177,b	;volatile
  3726   003AC6                     
  3727                           ; BSR set to: 0
  3728   003AC6  0012               	return		;funcret
  3729   003AC8                     __end_of_FM_Hfintosc_Init:
  3730                           	callstack 0
  3731                           
  3732 ;; *************** function _Init_Gpio_System *****************
  3733 ;; Defined at:
  3734 ;;		line 139 in file "main.c"
  3735 ;; Parameters:    Size  Location     Type
  3736 ;;		None
  3737 ;; Auto vars:     Size  Location     Type
  3738 ;;		None
  3739 ;; Return value:  Size  Location     Type
  3740 ;;                  1    wreg      void 
  3741 ;; Registers used:
  3742 ;;		status,2, status,0
  3743 ;; Tracked objects:
  3744 ;;		On entry : 0/0
  3745 ;;		On exit  : 0/0
  3746 ;;		Unchanged: 0/0
  3747 ;; Data sizes:     COMRAM   BANK5   BANK6   BANK7   BANK8   BANK9  BANK10  BANK11  BANK12  BANK13  BANK14  BANK15  BANK1
      +6  BANK17  BANK18  BANK19  BANK20  BANK21  BANK22  BANK23  BANK24  BANK25  BANK26  BANK27  BANK28  BANK29  BANK30  BANK3
      +1  BANK32  BANK33  BANK34  BANK35  BANK36
  3748 ;;      Params:         0       0       0       0       0       0       0       0       0       0       0       0       
      +0       0       0       0       0       0       0       0       0       0       0       0       0       0       0       
      +0       0       0       0       0       0
  3749 ;;      Locals:         0       0       0       0       0       0       0       0       0       0       0       0       
      +0       0       0       0       0       0       0       0       0       0       0       0       0       0       0       
      +0       0       0       0       0       0
  3750 ;;      Temps:          0       0       0       0       0       0       0       0       0       0       0       0       
      +0       0       0       0       0       0       0       0       0       0       0       0       0       0       0       
      +0       0       0       0       0       0
  3751 ;;      Totals:         0       0       0       0       0       0       0       0       0       0       0       0       
      +0       0       0       0       0       0       0       0       0       0       0       0       0       0       0       
      +0       0       0       0       0       0
  3752 ;;Total ram usage:        0 bytes
  3753 ;; Hardware stack levels used: 1
  3754 ;; This function calls:
  3755 ;;		Nothing
  3756 ;; This function is called by:
  3757 ;;		_main
  3758 ;; This function uses a non-reentrant model
  3759 ;;
  3760                           
  3761                           	psect	text19
  3762   003B46                     __ptext19:
  3763                           	callstack 0
  3764   003B46                     _Init_Gpio_System:
  3765                           	callstack 126
  3766   003B46                     
  3767                           ;main.c: 141:     TRISF &= ~(1 << 3);
  3768   003B46  96CB               	bcf	203,3,c	;volatile
  3769                           
  3770                           ;main.c: 142:     ANSELF &= ~(1 << 3);
  3771   003B48  0104               	movlb	4	; () banked
  3772   003B4A  9728               	bcf	40,3,b	;volatile
  3773                           
  3774                           ;main.c: 143:     LATF &= ~(1 << 3);
  3775   003B4C  96C3               	bcf	195,3,c	;volatile
  3776   003B4E                     
  3777                           ; BSR set to: 4
  3778   003B4E  0012               	return		;funcret
  3779   003B50                     __end_of_Init_Gpio_System:
  3780                           	callstack 0
  3781                           
  3782 ;; *************** function _Init_ADCC_Module *****************
  3783 ;; Defined at:
  3784 ;;		line 76 in file "main.c"
  3785 ;; Parameters:    Size  Location     Type
  3786 ;;		None
  3787 ;; Auto vars:     Size  Location     Type
  3788 ;;		None
  3789 ;; Return value:  Size  Location     Type
  3790 ;;                  1    wreg      void 
  3791 ;; Registers used:
  3792 ;;		wreg, status,2, status,0
  3793 ;; Tracked objects:
  3794 ;;		On entry : 0/0
  3795 ;;		On exit  : 0/0
  3796 ;;		Unchanged: 0/0
  3797 ;; Data sizes:     COMRAM   BANK5   BANK6   BANK7   BANK8   BANK9  BANK10  BANK11  BANK12  BANK13  BANK14  BANK15  BANK1
      +6  BANK17  BANK18  BANK19  BANK20  BANK21  BANK22  BANK23  BANK24  BANK25  BANK26  BANK27  BANK28  BANK29  BANK30  BANK3
      +1  BANK32  BANK33  BANK34  BANK35  BANK36
  3798 ;;      Params:         0       0       0       0       0       0       0       0       0       0       0       0       
      +0       0       0       0       0       0       0       0       0       0       0       0       0       0       0       
      +0       0       0       0       0       0
  3799 ;;      Locals:         0       0       0       0       0       0       0       0       0       0       0       0       
      +0       0       0       0       0       0       0       0       0       0       0       0       0       0       0       
      +0       0       0       0       0       0
  3800 ;;      Temps:          0       0       0       0       0       0       0       0       0       0       0       0       
      +0       0       0       0       0       0       0       0       0       0       0       0       0       0       0       
      +0       0       0       0       0       0
  3801 ;;      Totals:         0       0       0       0       0       0       0       0       0       0       0       0       
      +0       0       0       0       0       0       0       0       0       0       0       0       0       0       0       
      +0       0       0       0       0       0
  3802 ;;Total ram usage:        0 bytes
  3803 ;; Hardware stack levels used: 1
  3804 ;; This function calls:
  3805 ;;		Nothing
  3806 ;; This function is called by:
  3807 ;;		_main
  3808 ;; This function uses a non-reentrant model
  3809 ;;
  3810                           
  3811                           	psect	text20
  3812   003A08                     __ptext20:
  3813                           	callstack 0
  3814   003A08                     _Init_ADCC_Module:
  3815                           	callstack 126
  3816   003A08                     
  3817                           ;main.c: 78:     ADCON0 = 0x00;
  3818   003A08  0E00               	movlw	0
  3819   003A0A  0103               	movlb	3	; () banked
  3820   003A0C  6FF3               	movwf	243,b	;volatile
  3821                           
  3822                           ;main.c: 79:     ADCON1 = 0x00;
  3823   003A0E  0E00               	movlw	0
  3824   003A10  6FF4               	movwf	244,b	;volatile
  3825                           
  3826                           ;main.c: 80:     ADCON2 = 0x00;
  3827   003A12  0E00               	movlw	0
  3828   003A14  6FF5               	movwf	245,b	;volatile
  3829   003A16                     
  3830                           ; BSR set to: 3
  3831                           ;main.c: 83:     ADCON0 &= ~(1 << 0x7);
  3832   003A16  9FF3               	bcf	243,7,b	;volatile
  3833   003A18                     
  3834                           ; BSR set to: 3
  3835                           ;main.c: 84:     ADCON0 &= ~(1 << 0x6);
  3836   003A18  9DF3               	bcf	243,6,b	;volatile
  3837   003A1A                     
  3838                           ; BSR set to: 3
  3839                           ;main.c: 85:     ADCON0 &= ~(1 << 0x4);
  3840   003A1A  99F3               	bcf	243,4,b	;volatile
  3841   003A1C                     
  3842                           ; BSR set to: 3
  3843                           ;main.c: 86:     ADCON0 &= ~(1 << 0x0);
  3844   003A1C  91F3               	bcf	243,0,b	;volatile
  3845                           
  3846                           ;main.c: 88:     ADCLK = 0x01;
  3847   003A1E  0E01               	movlw	1
  3848   003A20  6FFA               	movwf	250,b	;volatile
  3849   003A22                     
  3850                           ; BSR set to: 3
  3851                           ;main.c: 111:     ADCON0 |= (1 << 0x2);
  3852   003A22  85F3               	bsf	243,2,b	;volatile
  3853   003A24                     
  3854                           ; BSR set to: 3
  3855                           ;main.c: 118:     ADREF &= ~(1 << 0x4);
  3856   003A24  99F8               	bcf	248,4,b	;volatile
  3857   003A26                     
  3858                           ; BSR set to: 3
  3859                           ;main.c: 119:     ADREF &= ~(0b11 << 0x0);
  3860   003A26  0EFC               	movlw	252
  3861   003A28  17F8               	andwf	248,f,b	;volatile
  3862   003A2A                     
  3863                           ; BSR set to: 3
  3864                           ;main.c: 122:     ADPCH = 0x00;
  3865   003A2A  0E00               	movlw	0
  3866   003A2C  6FEC               	movwf	236,b	;volatile
  3867   003A2E                     
  3868                           ; BSR set to: 3
  3869                           ;main.c: 125:     TRISA |= (1 << 0x0);
  3870   003A2E  80C6               	bsf	198,0,c	;volatile
  3871   003A30                     
  3872                           ; BSR set to: 3
  3873                           ;main.c: 126:     ANSELA |= (1 << 0x0);
  3874   003A30  0104               	movlb	4	; () banked
  3875   003A32  8100               	bsf	0,0,b	;volatile
  3876   003A34                     
  3877                           ; BSR set to: 4
  3878                           ;main.c: 132:     ADPRE = 0x00;
  3879   003A34  0E00               	movlw	0
  3880   003A36  0103               	movlb	3	; () banked
  3881   003A38  6FF2               	movwf	242,b	;volatile
  3882   003A3A  0E00               	movlw	0
  3883   003A3C  6FF1               	movwf	241,b	;volatile
  3884   003A3E                     
  3885                           ; BSR set to: 3
  3886                           ;main.c: 133:     ADACQ = 0x00;
  3887   003A3E  0E00               	movlw	0
  3888   003A40  6FEF               	movwf	239,b	;volatile
  3889   003A42  0E00               	movlw	0
  3890   003A44  6FEE               	movwf	238,b	;volatile
  3891   003A46                     
  3892                           ; BSR set to: 3
  3893                           ;main.c: 136:     ADCON0 |= (1 << 0x7);
  3894   003A46  8FF3               	bsf	243,7,b	;volatile
  3895   003A48                     
  3896                           ; BSR set to: 3
  3897   003A48  0012               	return		;funcret
  3898   003A4A                     __end_of_Init_ADCC_Module:
  3899                           	callstack 0
  3900                           
  3901 ;; *************** function _FM_Lcd_Set_Cursor *****************
  3902 ;; Defined at:
  3903 ;;		line 56 in file "FM_Lcd_Easy.c"
  3904 ;; Parameters:    Size  Location     Type
  3905 ;;  filas           1    wreg     enum E16689
  3906 ;;  columna         1    5[COMRAM] enum E16693
  3907 ;; Auto vars:     Size  Location     Type
  3908 ;;  filas           1    6[COMRAM] enum E16689
  3909 ;;  base_pos        1    7[COMRAM] unsigned char 
  3910 ;; Return value:  Size  Location     Type
  3911 ;;                  1    wreg      void 
  3912 ;; Registers used:
  3913 ;;		wreg, status,2, status,0, cstack
  3914 ;; Tracked objects:
  3915 ;;		On entry : 0/0
  3916 ;;		On exit  : 0/0
  3917 ;;		Unchanged: 0/0
  3918 ;; Data sizes:     COMRAM   BANK5   BANK6   BANK7   BANK8   BANK9  BANK10  BANK11  BANK12  BANK13  BANK14  BANK15  BANK1
      +6  BANK17  BANK18  BANK19  BANK20  BANK21  BANK22  BANK23  BANK24  BANK25  BANK26  BANK27  BANK28  BANK29  BANK30  BANK3
      +1  BANK32  BANK33  BANK34  BANK35  BANK36
  3919 ;;      Params:         1       0       0       0       0       0       0       0       0       0       0       0       
      +0       0       0       0       0       0       0       0       0       0       0       0       0       0       0       
      +0       0       0       0       0       0
  3920 ;;      Locals:         2       0       0       0       0       0       0       0       0       0       0       0       
      +0       0       0       0       0       0       0       0       0       0       0       0       0       0       0       
      +0       0       0       0       0       0
  3921 ;;      Temps:          0       0       0       0       0       0       0       0       0       0       0       0       
      +0       0       0       0       0       0       0       0       0       0       0       0       0       0       0       
      +0       0       0       0       0       0
  3922 ;;      Totals:         3       0       0       0       0       0       0       0       0       0       0       0       
      +0       0       0       0       0       0       0       0       0       0       0       0       0       0       0       
      +0       0       0       0       0       0
  3923 ;;Total ram usage:        3 bytes
  3924 ;; Hardware stack levels used: 1
  3925 ;; Hardware stack levels required when called: 2
  3926 ;; This function calls:
  3927 ;;		_FM_Lcd_Send_Command
  3928 ;; This function is called by:
  3929 ;;		_main
  3930 ;; This function uses a non-reentrant model
  3931 ;;
  3932                           
  3933                           	psect	text21
  3934   0039C4                     __ptext21:
  3935                           	callstack 0
  3936   0039C4                     _FM_Lcd_Set_Cursor:
  3937                           	callstack 124
  3938                           
  3939                           ; BSR set to: 3
  3940                           ;incstack = 0
  3941                           ;FM_Lcd_Set_Cursor@filas stored from wreg
  3942   0039C4  6E07               	movwf	FM_Lcd_Set_Cursor@filas^(0+1280),c
  3943   0039C6                     
  3944                           ;FM_Lcd_Easy.c: 56: void FM_Lcd_Set_Cursor (_row_lcd_t filas, _column_lcd_t columna);FM_
      +                          Lcd_Easy.c: 57: {;FM_Lcd_Easy.c: 58:     char base_pos = 0x00;
  3945   0039C6  0E00               	movlw	0
  3946   0039C8  6E08               	movwf	FM_Lcd_Set_Cursor@base_pos^(0+1280),c
  3947   0039CA                     
  3948                           ;FM_Lcd_Easy.c: 59:     if(filas == ROW_1)
  3949   0039CA  5007               	movf	FM_Lcd_Set_Cursor@filas^(0+1280),w,c
  3950   0039CC  A4D8               	btfss	status,2,c
  3951   0039CE  EFEB  F01C         	goto	u1201
  3952   0039D2  EFED  F01C         	goto	u1200
  3953   0039D6                     u1201:
  3954   0039D6  EFF1  F01C         	goto	l1936
  3955   0039DA                     u1200:
  3956   0039DA                     
  3957                           ;FM_Lcd_Easy.c: 60:     {;FM_Lcd_Easy.c: 61:         base_pos = 0x80;
  3958   0039DA  0E80               	movlw	128
  3959   0039DC  6E08               	movwf	FM_Lcd_Set_Cursor@base_pos^(0+1280),c
  3960                           
  3961                           ;FM_Lcd_Easy.c: 62:     }
  3962   0039DE  EFFE  F01C         	goto	l1940
  3963   0039E2                     l1936:
  3964   0039E2  0407               	decf	FM_Lcd_Set_Cursor@filas^(0+1280),w,c
  3965   0039E4  A4D8               	btfss	status,2,c
  3966   0039E6  EFF7  F01C         	goto	u1211
  3967   0039EA  EFF9  F01C         	goto	u1210
  3968   0039EE                     u1211:
  3969   0039EE  EFFD  F01C         	goto	l104
  3970   0039F2                     u1210:
  3971   0039F2                     
  3972                           ;FM_Lcd_Easy.c: 64:     {;FM_Lcd_Easy.c: 65:         base_pos = 0xC0;
  3973   0039F2  0EC0               	movlw	192
  3974   0039F4  6E08               	movwf	FM_Lcd_Set_Cursor@base_pos^(0+1280),c
  3975                           
  3976                           ;FM_Lcd_Easy.c: 66:     }
  3977   0039F6  EFFE  F01C         	goto	l1940
  3978   0039FA                     l104:
  3979                           
  3980                           ;FM_Lcd_Easy.c: 68:     {;FM_Lcd_Easy.c: 69:         __nop();
  3981   0039FA  F000               	nop	
  3982   0039FC                     l1940:
  3983                           
  3984                           ;FM_Lcd_Easy.c: 73:     base_pos += columna;
  3985   0039FC  5006               	movf	FM_Lcd_Set_Cursor@columna^(0+1280),w,c
  3986   0039FE  2608               	addwf	FM_Lcd_Set_Cursor@base_pos^(0+1280),f,c
  3987   003A00                     
  3988                           ;FM_Lcd_Easy.c: 74:     FM_Lcd_Send_Command(base_pos);
  3989   003A00  5008               	movf	FM_Lcd_Set_Cursor@base_pos^(0+1280),w,c
  3990   003A02  EC9D  F01D         	call	_FM_Lcd_Send_Command
  3991   003A06  0012               	return		;funcret
  3992   003A08                     __end_of_FM_Lcd_Set_Cursor:
  3993                           	callstack 0
  3994                           
  3995 ;; *************** function _FM_Lcd_Send_String *****************
  3996 ;; Defined at:
  3997 ;;		line 78 in file "FM_Lcd_Easy.c"
  3998 ;; Parameters:    Size  Location     Type
  3999 ;;  cadena          2    5[COMRAM] PTR unsigned char 
  4000 ;;		 -> msj(16), STR_1(13), 
  4001 ;; Auto vars:     Size  Location     Type
  4002 ;;  index           1    9[COMRAM] unsigned char 
  4003 ;; Return value:  Size  Location     Type
  4004 ;;                  1    wreg      void 
  4005 ;; Registers used:
  4006 ;;		wreg, fsr1l, fsr1h, status,2, status,0, tblptrl, tblptrh, tblptru, cstack
  4007 ;; Tracked objects:
  4008 ;;		On entry : 0/0
  4009 ;;		On exit  : 0/0
  4010 ;;		Unchanged: 0/0
  4011 ;; Data sizes:     COMRAM   BANK5   BANK6   BANK7   BANK8   BANK9  BANK10  BANK11  BANK12  BANK13  BANK14  BANK15  BANK1
      +6  BANK17  BANK18  BANK19  BANK20  BANK21  BANK22  BANK23  BANK24  BANK25  BANK26  BANK27  BANK28  BANK29  BANK30  BANK3
      +1  BANK32  BANK33  BANK34  BANK35  BANK36
  4012 ;;      Params:         2       0       0       0       0       0       0       0       0       0       0       0       
      +0       0       0       0       0       0       0       0       0       0       0       0       0       0       0       
      +0       0       0       0       0       0
  4013 ;;      Locals:         1       0       0       0       0       0       0       0       0       0       0       0       
      +0       0       0       0       0       0       0       0       0       0       0       0       0       0       0       
      +0       0       0       0       0       0
  4014 ;;      Temps:          2       0       0       0       0       0       0       0       0       0       0       0       
      +0       0       0       0       0       0       0       0       0       0       0       0       0       0       0       
      +0       0       0       0       0       0
  4015 ;;      Totals:         5       0       0       0       0       0       0       0       0       0       0       0       
      +0       0       0       0       0       0       0       0       0       0       0       0       0       0       0       
      +0       0       0       0       0       0
  4016 ;;Total ram usage:        5 bytes
  4017 ;; Hardware stack levels used: 1
  4018 ;; Hardware stack levels required when called: 2
  4019 ;; This function calls:
  4020 ;;		_FM_Lcd_Send_Character
  4021 ;; This function is called by:
  4022 ;;		_main
  4023 ;; This function uses a non-reentrant model
  4024 ;;
  4025                           
  4026                           	psect	text22
  4027   00371A                     __ptext22:
  4028                           	callstack 0
  4029   00371A                     _FM_Lcd_Send_String:
  4030                           	callstack 124
  4031   00371A                     
  4032                           ;FM_Lcd_Easy.c: 78: void FM_Lcd_Send_String (char *cadena);FM_Lcd_Easy.c: 79: {;FM_Lcd_E
      +                          asy.c: 80:     uint8_t index = 0;
  4033   00371A  0E00               	movlw	0
  4034   00371C  6E0A               	movwf	FM_Lcd_Send_String@index^(0+1280),c
  4035                           
  4036                           ;FM_Lcd_Easy.c: 81:     while(cadena[index] != '\0')
  4037   00371E  EFAB  F01B         	goto	l1952
  4038   003722                     l1948:
  4039                           
  4040                           ;FM_Lcd_Easy.c: 82:     {;FM_Lcd_Easy.c: 83:         FM_Lcd_Send_Character(cadena[index]
      +                          );
  4041   003722  500A               	movf	FM_Lcd_Send_String@index^(0+1280),w,c
  4042   003724  2406               	addwf	FM_Lcd_Send_String@cadena^(0+1280),w,c
  4043   003726  6E08               	movwf	??_FM_Lcd_Send_String^(0+1280),c
  4044   003728  0E00               	movlw	0
  4045   00372A  2007               	addwfc	(FM_Lcd_Send_String@cadena+1)^(0+1280),w,c
  4046   00372C  6E09               	movwf	(??_FM_Lcd_Send_String+1)^(0+1280),c
  4047   00372E  C508  F4F6         	movff	??_FM_Lcd_Send_String,tblptrl
  4048   003732  C509  F4F7         	movff	??_FM_Lcd_Send_String+1,tblptrh
  4049   003736  0E00               	movlw	low (__smallconst shr (0+16))
  4050   003738  6EF8               	movwf	tblptru,c
  4051   00373A  0E25               	movlw	(high __ramtop+-1)
  4052   00373C  64F7               	cpfsgt	tblptrh,c
  4053   00373E  D003               	bra	u1227
  4054   003740  0008               	tblrd		*
  4055   003742  50F5               	movf	tablat,w,c
  4056   003744  D005               	bra	u1220
  4057   003746                     u1227:
  4058   003746  C4F6 F4E1          	movff	tblptrl,fsr1l
  4059   00374A  C4F7 F4E2          	movff	tblptrh,fsr1h
  4060   00374E  50E7               	movf	indf1,w,c
  4061   003750                     u1220:
  4062   003750  EC97  F01D         	call	_FM_Lcd_Send_Character
  4063   003754                     
  4064                           ;FM_Lcd_Easy.c: 84:         index++;
  4065   003754  2A0A               	incf	FM_Lcd_Send_String@index^(0+1280),f,c
  4066   003756                     l1952:
  4067                           
  4068                           ;FM_Lcd_Easy.c: 81:     while(cadena[index] != '\0')
  4069   003756  500A               	movf	FM_Lcd_Send_String@index^(0+1280),w,c
  4070   003758  2406               	addwf	FM_Lcd_Send_String@cadena^(0+1280),w,c
  4071   00375A  6E08               	movwf	??_FM_Lcd_Send_String^(0+1280),c
  4072   00375C  0E00               	movlw	0
  4073   00375E  2007               	addwfc	(FM_Lcd_Send_String@cadena+1)^(0+1280),w,c
  4074   003760  6E09               	movwf	(??_FM_Lcd_Send_String+1)^(0+1280),c
  4075   003762  C508  F4F6         	movff	??_FM_Lcd_Send_String,tblptrl
  4076   003766  C509  F4F7         	movff	??_FM_Lcd_Send_String+1,tblptrh
  4077   00376A  0E00               	movlw	low (__smallconst shr (0+16))
  4078   00376C  6EF8               	movwf	tblptru,c
  4079   00376E  0E25               	movlw	(high __ramtop+-1)
  4080   003770  64F7               	cpfsgt	tblptrh,c
  4081   003772  D003               	bra	u1237
  4082   003774  0008               	tblrd		*
  4083   003776  50F5               	movf	tablat,w,c
  4084   003778  D005               	bra	u1230
  4085   00377A                     u1237:
  4086   00377A  C4F6 F4E1          	movff	tblptrl,fsr1l
  4087   00377E  C4F7 F4E2          	movff	tblptrh,fsr1h
  4088   003782  50E7               	movf	indf1,w,c
  4089   003784                     u1230:
  4090   003784  0900               	iorlw	0
  4091   003786  A4D8               	btfss	status,2,c
  4092   003788  EFC8  F01B         	goto	u1241
  4093   00378C  EFCA  F01B         	goto	u1240
  4094   003790                     u1241:
  4095   003790  EF91  F01B         	goto	l1948
  4096   003794                     u1240:
  4097   003794  0012               	return		;funcret
  4098   003796                     __end_of_FM_Lcd_Send_String:
  4099                           	callstack 0
  4100                           
  4101 ;; *************** function _FM_Lcd_Send_Character *****************
  4102 ;; Defined at:
  4103 ;;		line 50 in file "FM_Lcd_Easy.c"
  4104 ;; Parameters:    Size  Location     Type
  4105 ;;  character_to    1    wreg     unsigned char 
  4106 ;; Auto vars:     Size  Location     Type
  4107 ;;  character_to    1    4[COMRAM] unsigned char 
  4108 ;; Return value:  Size  Location     Type
  4109 ;;                  1    wreg      void 
  4110 ;; Registers used:
  4111 ;;		wreg, status,2, status,0, cstack
  4112 ;; Tracked objects:
  4113 ;;		On entry : 0/0
  4114 ;;		On exit  : 0/0
  4115 ;;		Unchanged: 0/0
  4116 ;; Data sizes:     COMRAM   BANK5   BANK6   BANK7   BANK8   BANK9  BANK10  BANK11  BANK12  BANK13  BANK14  BANK15  BANK1
      +6  BANK17  BANK18  BANK19  BANK20  BANK21  BANK22  BANK23  BANK24  BANK25  BANK26  BANK27  BANK28  BANK29  BANK30  BANK3
      +1  BANK32  BANK33  BANK34  BANK35  BANK36
  4117 ;;      Params:         0       0       0       0       0       0       0       0       0       0       0       0       
      +0       0       0       0       0       0       0       0       0       0       0       0       0       0       0       
      +0       0       0       0       0       0
  4118 ;;      Locals:         1       0       0       0       0       0       0       0       0       0       0       0       
      +0       0       0       0       0       0       0       0       0       0       0       0       0       0       0       
      +0       0       0       0       0       0
  4119 ;;      Temps:          0       0       0       0       0       0       0       0       0       0       0       0       
      +0       0       0       0       0       0       0       0       0       0       0       0       0       0       0       
      +0       0       0       0       0       0
  4120 ;;      Totals:         1       0       0       0       0       0       0       0       0       0       0       0       
      +0       0       0       0       0       0       0       0       0       0       0       0       0       0       0       
      +0       0       0       0       0       0
  4121 ;;Total ram usage:        1 bytes
  4122 ;; Hardware stack levels used: 1
  4123 ;; Hardware stack levels required when called: 1
  4124 ;; This function calls:
  4125 ;;		_FM_Lcd_Send_Nibble
  4126 ;; This function is called by:
  4127 ;;		_FM_Lcd_Send_String
  4128 ;; This function uses a non-reentrant model
  4129 ;;
  4130                           
  4131                           	psect	text23
  4132   003B2E                     __ptext23:
  4133                           	callstack 0
  4134   003B2E                     _FM_Lcd_Send_Character:
  4135                           	callstack 124
  4136                           
  4137                           ;incstack = 0
  4138                           ;FM_Lcd_Send_Character@character_to_send stored from wreg
  4139   003B2E  6E05               	movwf	FM_Lcd_Send_Character@character_to_send^(0+1280),c
  4140   003B30                     
  4141                           ;FM_Lcd_Easy.c: 50: void FM_Lcd_Send_Character (char character_to_send);FM_Lcd_Easy.c: 5
      +                          1: {;FM_Lcd_Easy.c: 52:     LATF |= (1 << 0);;
  4142   003B30  80C3               	bsf	195,0,c	;volatile
  4143   003B32                     
  4144                           ;FM_Lcd_Easy.c: 53:     FM_Lcd_Send_Nibble(character_to_send);
  4145   003B32  5005               	movf	FM_Lcd_Send_Character@character_to_send^(0+1280),w,c
  4146   003B34  EC05  F01C         	call	_FM_Lcd_Send_Nibble
  4147   003B38  0012               	return		;funcret
  4148   003B3A                     __end_of_FM_Lcd_Send_Character:
  4149                           	callstack 0
  4150                           
  4151 ;; *************** function _FM_Lcd_Easy_Init *****************
  4152 ;; Defined at:
  4153 ;;		line 88 in file "FM_Lcd_Easy.c"
  4154 ;; Parameters:    Size  Location     Type
  4155 ;;		None
  4156 ;; Auto vars:     Size  Location     Type
  4157 ;;		None
  4158 ;; Return value:  Size  Location     Type
  4159 ;;                  1    wreg      void 
  4160 ;; Registers used:
  4161 ;;		wreg, status,2, status,0, cstack
  4162 ;; Tracked objects:
  4163 ;;		On entry : 0/0
  4164 ;;		On exit  : 0/0
  4165 ;;		Unchanged: 0/0
  4166 ;; Data sizes:     COMRAM   BANK5   BANK6   BANK7   BANK8   BANK9  BANK10  BANK11  BANK12  BANK13  BANK14  BANK15  BANK1
      +6  BANK17  BANK18  BANK19  BANK20  BANK21  BANK22  BANK23  BANK24  BANK25  BANK26  BANK27  BANK28  BANK29  BANK30  BANK3
      +1  BANK32  BANK33  BANK34  BANK35  BANK36
  4167 ;;      Params:         0       0       0       0       0       0       0       0       0       0       0       0       
      +0       0       0       0       0       0       0       0       0       0       0       0       0       0       0       
      +0       0       0       0       0       0
  4168 ;;      Locals:         0       0       0       0       0       0       0       0       0       0       0       0       
      +0       0       0       0       0       0       0       0       0       0       0       0       0       0       0       
      +0       0       0       0       0       0
  4169 ;;      Temps:          2       0       0       0       0       0       0       0       0       0       0       0       
      +0       0       0       0       0       0       0       0       0       0       0       0       0       0       0       
      +0       0       0       0       0       0
  4170 ;;      Totals:         2       0       0       0       0       0       0       0       0       0       0       0       
      +0       0       0       0       0       0       0       0       0       0       0       0       0       0       0       
      +0       0       0       0       0       0
  4171 ;;Total ram usage:        2 bytes
  4172 ;; Hardware stack levels used: 1
  4173 ;; Hardware stack levels required when called: 2
  4174 ;; This function calls:
  4175 ;;		_FM_Lcd_Easy_Gpio_Init
  4176 ;;		_FM_Lcd_Send_Command
  4177 ;; This function is called by:
  4178 ;;		_main
  4179 ;; This function uses a non-reentrant model
  4180 ;;
  4181                           
  4182                           	psect	text24
  4183   003A4A                     __ptext24:
  4184                           	callstack 0
  4185   003A4A                     _FM_Lcd_Easy_Init:
  4186                           	callstack 124
  4187   003A4A                     
  4188                           ;FM_Lcd_Easy.c: 90:     FM_Lcd_Easy_Gpio_Init();
  4189   003A4A  EC90  F01D         	call	_FM_Lcd_Easy_Gpio_Init	;wreg free
  4190   003A4E                     
  4191                           ;FM_Lcd_Easy.c: 91:     _delay((unsigned long)((50)*(16000000UL/4000.0)));
  4192   003A4E  0E02               	movlw	2
  4193   003A50  6E07               	movwf	(??_FM_Lcd_Easy_Init+1)^(0+1280),c
  4194   003A52  0E04               	movlw	4
  4195   003A54  6E06               	movwf	??_FM_Lcd_Easy_Init^(0+1280),c
  4196   003A56  0EBA               	movlw	186
  4197   003A58                     u1867:
  4198   003A58  2EE8               	decfsz	wreg,f,c
  4199   003A5A  D7FE               	bra	u1867
  4200   003A5C  2E06               	decfsz	??_FM_Lcd_Easy_Init^(0+1280),f,c
  4201   003A5E  D7FC               	bra	u1867
  4202   003A60  2E07               	decfsz	(??_FM_Lcd_Easy_Init+1)^(0+1280),f,c
  4203   003A62  D7FA               	bra	u1867
  4204   003A64  D000               	nop2	
  4205   003A66                     
  4206                           ;FM_Lcd_Easy.c: 93:     FM_Lcd_Send_Command(0x01);
  4207   003A66  0E01               	movlw	1
  4208   003A68  EC9D  F01D         	call	_FM_Lcd_Send_Command
  4209   003A6C                     
  4210                           ;FM_Lcd_Easy.c: 94:     FM_Lcd_Send_Command(0x02);
  4211   003A6C  0E02               	movlw	2
  4212   003A6E  EC9D  F01D         	call	_FM_Lcd_Send_Command
  4213   003A72                     
  4214                           ;FM_Lcd_Easy.c: 95:     FM_Lcd_Send_Command(0x06);
  4215   003A72  0E06               	movlw	6
  4216   003A74  EC9D  F01D         	call	_FM_Lcd_Send_Command
  4217   003A78                     
  4218                           ;FM_Lcd_Easy.c: 96:     FM_Lcd_Send_Command(0x0C);
  4219   003A78  0E0C               	movlw	12
  4220   003A7A  EC9D  F01D         	call	_FM_Lcd_Send_Command
  4221   003A7E                     
  4222                           ;FM_Lcd_Easy.c: 97:     FM_Lcd_Send_Command(0x10);
  4223   003A7E  0E10               	movlw	16
  4224   003A80  EC9D  F01D         	call	_FM_Lcd_Send_Command
  4225   003A84                     
  4226                           ;FM_Lcd_Easy.c: 98:     FM_Lcd_Send_Command(0x2C);
  4227   003A84  0E2C               	movlw	44
  4228   003A86  EC9D  F01D         	call	_FM_Lcd_Send_Command
  4229   003A8A  0012               	return		;funcret
  4230   003A8C                     __end_of_FM_Lcd_Easy_Init:
  4231                           	callstack 0
  4232                           
  4233 ;; *************** function _FM_Lcd_Send_Command *****************
  4234 ;; Defined at:
  4235 ;;		line 44 in file "FM_Lcd_Easy.c"
  4236 ;; Parameters:    Size  Location     Type
  4237 ;;  command_to_s    1    wreg     unsigned char 
  4238 ;; Auto vars:     Size  Location     Type
  4239 ;;  command_to_s    1    4[COMRAM] unsigned char 
  4240 ;; Return value:  Size  Location     Type
  4241 ;;                  1    wreg      void 
  4242 ;; Registers used:
  4243 ;;		wreg, status,2, status,0, cstack
  4244 ;; Tracked objects:
  4245 ;;		On entry : 0/0
  4246 ;;		On exit  : 0/0
  4247 ;;		Unchanged: 0/0
  4248 ;; Data sizes:     COMRAM   BANK5   BANK6   BANK7   BANK8   BANK9  BANK10  BANK11  BANK12  BANK13  BANK14  BANK15  BANK1
      +6  BANK17  BANK18  BANK19  BANK20  BANK21  BANK22  BANK23  BANK24  BANK25  BANK26  BANK27  BANK28  BANK29  BANK30  BANK3
      +1  BANK32  BANK33  BANK34  BANK35  BANK36
  4249 ;;      Params:         0       0       0       0       0       0       0       0       0       0       0       0       
      +0       0       0       0       0       0       0       0       0       0       0       0       0       0       0       
      +0       0       0       0       0       0
  4250 ;;      Locals:         1       0       0       0       0       0       0       0       0       0       0       0       
      +0       0       0       0       0       0       0       0       0       0       0       0       0       0       0       
      +0       0       0       0       0       0
  4251 ;;      Temps:          0       0       0       0       0       0       0       0       0       0       0       0       
      +0       0       0       0       0       0       0       0       0       0       0       0       0       0       0       
      +0       0       0       0       0       0
  4252 ;;      Totals:         1       0       0       0       0       0       0       0       0       0       0       0       
      +0       0       0       0       0       0       0       0       0       0       0       0       0       0       0       
      +0       0       0       0       0       0
  4253 ;;Total ram usage:        1 bytes
  4254 ;; Hardware stack levels used: 1
  4255 ;; Hardware stack levels required when called: 1
  4256 ;; This function calls:
  4257 ;;		_FM_Lcd_Send_Nibble
  4258 ;; This function is called by:
  4259 ;;		_FM_Lcd_Set_Cursor
  4260 ;;		_FM_Lcd_Easy_Init
  4261 ;; This function uses a non-reentrant model
  4262 ;;
  4263                           
  4264                           	psect	text25
  4265   003B3A                     __ptext25:
  4266                           	callstack 0
  4267   003B3A                     _FM_Lcd_Send_Command:
  4268                           	callstack 124
  4269                           
  4270                           ;incstack = 0
  4271                           ;FM_Lcd_Send_Command@command_to_send stored from wreg
  4272   003B3A  6E05               	movwf	FM_Lcd_Send_Command@command_to_send^(0+1280),c
  4273   003B3C                     
  4274                           ;FM_Lcd_Easy.c: 44: void FM_Lcd_Send_Command (char command_to_send);FM_Lcd_Easy.c: 45: {
      +                          ;FM_Lcd_Easy.c: 46:     LATF &= ~(1 << 0);;
  4275   003B3C  90C3               	bcf	195,0,c	;volatile
  4276   003B3E                     
  4277                           ;FM_Lcd_Easy.c: 47:     FM_Lcd_Send_Nibble(command_to_send);
  4278   003B3E  5005               	movf	FM_Lcd_Send_Command@command_to_send^(0+1280),w,c
  4279   003B40  EC05  F01C         	call	_FM_Lcd_Send_Nibble
  4280   003B44  0012               	return		;funcret
  4281   003B46                     __end_of_FM_Lcd_Send_Command:
  4282                           	callstack 0
  4283                           
  4284 ;; *************** function _FM_Lcd_Send_Nibble *****************
  4285 ;; Defined at:
  4286 ;;		line 24 in file "FM_Lcd_Easy.c"
  4287 ;; Parameters:    Size  Location     Type
  4288 ;;  byte_to_send    1    wreg     unsigned char 
  4289 ;; Auto vars:     Size  Location     Type
  4290 ;;  byte_to_send    1    1[COMRAM] unsigned char 
  4291 ;;  lower_bits      1    3[COMRAM] unsigned char 
  4292 ;;  upper_bits      1    2[COMRAM] unsigned char 
  4293 ;; Return value:  Size  Location     Type
  4294 ;;                  1    wreg      void 
  4295 ;; Registers used:
  4296 ;;		wreg, status,2, status,0
  4297 ;; Tracked objects:
  4298 ;;		On entry : 0/0
  4299 ;;		On exit  : 0/0
  4300 ;;		Unchanged: 0/0
  4301 ;; Data sizes:     COMRAM   BANK5   BANK6   BANK7   BANK8   BANK9  BANK10  BANK11  BANK12  BANK13  BANK14  BANK15  BANK1
      +6  BANK17  BANK18  BANK19  BANK20  BANK21  BANK22  BANK23  BANK24  BANK25  BANK26  BANK27  BANK28  BANK29  BANK30  BANK3
      +1  BANK32  BANK33  BANK34  BANK35  BANK36
  4302 ;;      Params:         0       0       0       0       0       0       0       0       0       0       0       0       
      +0       0       0       0       0       0       0       0       0       0       0       0       0       0       0       
      +0       0       0       0       0       0
  4303 ;;      Locals:         3       0       0       0       0       0       0       0       0       0       0       0       
      +0       0       0       0       0       0       0       0       0       0       0       0       0       0       0       
      +0       0       0       0       0       0
  4304 ;;      Temps:          1       0       0       0       0       0       0       0       0       0       0       0       
      +0       0       0       0       0       0       0       0       0       0       0       0       0       0       0       
      +0       0       0       0       0       0
  4305 ;;      Totals:         4       0       0       0       0       0       0       0       0       0       0       0       
      +0       0       0       0       0       0       0       0       0       0       0       0       0       0       0       
      +0       0       0       0       0       0
  4306 ;;Total ram usage:        4 bytes
  4307 ;; Hardware stack levels used: 1
  4308 ;; This function calls:
  4309 ;;		Nothing
  4310 ;; This function is called by:
  4311 ;;		_FM_Lcd_Send_Command
  4312 ;;		_FM_Lcd_Send_Character
  4313 ;; This function uses a non-reentrant model
  4314 ;;
  4315                           
  4316                           	psect	text26
  4317   00380A                     __ptext26:
  4318                           	callstack 0
  4319   00380A                     _FM_Lcd_Send_Nibble:
  4320                           	callstack 124
  4321                           
  4322                           ;incstack = 0
  4323                           ;FM_Lcd_Send_Nibble@byte_to_send stored from wreg
  4324   00380A  6E02               	movwf	FM_Lcd_Send_Nibble@byte_to_send^(0+1280),c
  4325   00380C                     
  4326                           ;FM_Lcd_Easy.c: 24: void FM_Lcd_Send_Nibble (char byte_to_send);FM_Lcd_Easy.c: 25: {;FM_
      +                          Lcd_Easy.c: 26:     uint8_t upper_bits, lower_bits;;FM_Lcd_Easy.c: 28:     upper_bits = 
      +                          (byte_to_send & 0xF0);
  4327   00380C  5002               	movf	FM_Lcd_Send_Nibble@byte_to_send^(0+1280),w,c
  4328   00380E  0BF0               	andlw	240
  4329   003810  6E03               	movwf	FM_Lcd_Send_Nibble@upper_bits^(0+1280),c
  4330                           
  4331                           ;FM_Lcd_Easy.c: 29:     lower_bits = (byte_to_send & 0x0F) << 4;
  4332   003812  C502  F501         	movff	FM_Lcd_Send_Nibble@byte_to_send,??_FM_Lcd_Send_Nibble
  4333   003816  0E0F               	movlw	15
  4334   003818  1601               	andwf	??_FM_Lcd_Send_Nibble^(0+1280),f,c
  4335   00381A  3801               	swapf	??_FM_Lcd_Send_Nibble^(0+1280),w,c
  4336   00381C  0BF0               	andlw	240
  4337   00381E  6E04               	movwf	FM_Lcd_Send_Nibble@lower_bits^(0+1280),c
  4338                           
  4339                           ;FM_Lcd_Easy.c: 35:     LATF |= upper_bits;
  4340   003820  5003               	movf	FM_Lcd_Send_Nibble@upper_bits^(0+1280),w,c	;volatile
  4341   003822  12C3               	iorwf	195,f,c	;volatile
  4342   003824                     
  4343                           ;FM_Lcd_Easy.c: 36:     LATF |= (1 << 2);; _delay((unsigned long)((1)*(16000000UL/4000.0
      +                          ))); LATF &= ~(1 << 2);_delay((unsigned long)((1)*(16000000UL/4000.0)));;
  4344   003824  84C3               	bsf	195,2,c	;volatile
  4345   003826  0E06               	movlw	6
  4346   003828  6E01               	movwf	??_FM_Lcd_Send_Nibble^(0+1280),c
  4347   00382A  0E30               	movlw	48
  4348   00382C                     u1877:
  4349   00382C  2EE8               	decfsz	wreg,f,c
  4350   00382E  D7FE               	bra	u1877
  4351   003830  2E01               	decfsz	??_FM_Lcd_Send_Nibble^(0+1280),f,c
  4352   003832  D7FC               	bra	u1877
  4353   003834  D000               	nop2	
  4354   003836  94C3               	bcf	195,2,c	;volatile
  4355   003838  0E06               	movlw	6
  4356   00383A  6E01               	movwf	??_FM_Lcd_Send_Nibble^(0+1280),c
  4357   00383C  0E30               	movlw	48
  4358   00383E                     u1887:
  4359   00383E  2EE8               	decfsz	wreg,f,c
  4360   003840  D7FE               	bra	u1887
  4361   003842  2E01               	decfsz	??_FM_Lcd_Send_Nibble^(0+1280),f,c
  4362   003844  D7FC               	bra	u1887
  4363   003846  D000               	nop2	
  4364   003848                     
  4365                           ;FM_Lcd_Easy.c: 37:     LATF &= ~upper_bits;
  4366   003848  5003               	movf	FM_Lcd_Send_Nibble@upper_bits^(0+1280),w,c	;volatile
  4367   00384A  0AFF               	xorlw	255
  4368   00384C  16C3               	andwf	195,f,c	;volatile
  4369   00384E                     
  4370                           ;FM_Lcd_Easy.c: 38:     LATF |= lower_bits;
  4371   00384E  5004               	movf	FM_Lcd_Send_Nibble@lower_bits^(0+1280),w,c	;volatile
  4372   003850  12C3               	iorwf	195,f,c	;volatile
  4373                           
  4374                           ;FM_Lcd_Easy.c: 39:     LATF |= (1 << 2);; _delay((unsigned long)((1)*(16000000UL/4000.0
      +                          ))); LATF &= ~(1 << 2);_delay((unsigned long)((1)*(16000000UL/4000.0)));;
  4375   003852  84C3               	bsf	195,2,c	;volatile
  4376   003854  0E06               	movlw	6
  4377   003856  6E01               	movwf	??_FM_Lcd_Send_Nibble^(0+1280),c
  4378   003858  0E30               	movlw	48
  4379   00385A                     u1897:
  4380   00385A  2EE8               	decfsz	wreg,f,c
  4381   00385C  D7FE               	bra	u1897
  4382   00385E  2E01               	decfsz	??_FM_Lcd_Send_Nibble^(0+1280),f,c
  4383   003860  D7FC               	bra	u1897
  4384   003862  D000               	nop2	
  4385   003864  94C3               	bcf	195,2,c	;volatile
  4386   003866  0E06               	movlw	6
  4387   003868  6E01               	movwf	??_FM_Lcd_Send_Nibble^(0+1280),c
  4388   00386A  0E30               	movlw	48
  4389   00386C                     u1907:
  4390   00386C  2EE8               	decfsz	wreg,f,c
  4391   00386E  D7FE               	bra	u1907
  4392   003870  2E01               	decfsz	??_FM_Lcd_Send_Nibble^(0+1280),f,c
  4393   003872  D7FC               	bra	u1907
  4394   003874  D000               	nop2	
  4395   003876                     
  4396                           ;FM_Lcd_Easy.c: 40:     LATF &= ~lower_bits;
  4397   003876  5004               	movf	FM_Lcd_Send_Nibble@lower_bits^(0+1280),w,c	;volatile
  4398   003878  0AFF               	xorlw	255
  4399   00387A  16C3               	andwf	195,f,c	;volatile
  4400   00387C  0012               	return		;funcret
  4401   00387E                     __end_of_FM_Lcd_Send_Nibble:
  4402                           	callstack 0
  4403                           
  4404 ;; *************** function _FM_Lcd_Easy_Gpio_Init *****************
  4405 ;; Defined at:
  4406 ;;		line 11 in file "FM_Lcd_Easy.c"
  4407 ;; Parameters:    Size  Location     Type
  4408 ;;		None
  4409 ;; Auto vars:     Size  Location     Type
  4410 ;;  bits_data       1    0        unsigned char 
  4411 ;; Return value:  Size  Location     Type
  4412 ;;                  1    wreg      void 
  4413 ;; Registers used:
  4414 ;;		wreg, status,2, status,0
  4415 ;; Tracked objects:
  4416 ;;		On entry : 0/0
  4417 ;;		On exit  : 0/0
  4418 ;;		Unchanged: 0/0
  4419 ;; Data sizes:     COMRAM   BANK5   BANK6   BANK7   BANK8   BANK9  BANK10  BANK11  BANK12  BANK13  BANK14  BANK15  BANK1
      +6  BANK17  BANK18  BANK19  BANK20  BANK21  BANK22  BANK23  BANK24  BANK25  BANK26  BANK27  BANK28  BANK29  BANK30  BANK3
      +1  BANK32  BANK33  BANK34  BANK35  BANK36
  4420 ;;      Params:         0       0       0       0       0       0       0       0       0       0       0       0       
      +0       0       0       0       0       0       0       0       0       0       0       0       0       0       0       
      +0       0       0       0       0       0
  4421 ;;      Locals:         0       0       0       0       0       0       0       0       0       0       0       0       
      +0       0       0       0       0       0       0       0       0       0       0       0       0       0       0       
      +0       0       0       0       0       0
  4422 ;;      Temps:          0       0       0       0       0       0       0       0       0       0       0       0       
      +0       0       0       0       0       0       0       0       0       0       0       0       0       0       0       
      +0       0       0       0       0       0
  4423 ;;      Totals:         0       0       0       0       0       0       0       0       0       0       0       0       
      +0       0       0       0       0       0       0       0       0       0       0       0       0       0       0       
      +0       0       0       0       0       0
  4424 ;;Total ram usage:        0 bytes
  4425 ;; Hardware stack levels used: 1
  4426 ;; This function calls:
  4427 ;;		Nothing
  4428 ;; This function is called by:
  4429 ;;		_FM_Lcd_Easy_Init
  4430 ;; This function uses a non-reentrant model
  4431 ;;
  4432                           
  4433                           	psect	text27
  4434   003B20                     __ptext27:
  4435                           	callstack 0
  4436   003B20                     _FM_Lcd_Easy_Gpio_Init:
  4437                           	callstack 125
  4438   003B20                     
  4439                           ;FM_Lcd_Easy.c: 19:     TRISF = 0x00;
  4440   003B20  0E00               	movlw	0
  4441   003B22  6ECB               	movwf	203,c	;volatile
  4442                           
  4443                           ;FM_Lcd_Easy.c: 20:     ANSELF = 0x00;
  4444   003B24  0E00               	movlw	0
  4445   003B26  0104               	movlb	4	; () banked
  4446   003B28  6F28               	movwf	40,b	;volatile
  4447   003B2A                     
  4448                           ; BSR set to: 4
  4449                           ;FM_Lcd_Easy.c: 21:     LATF &= ~(1 << 1);
  4450   003B2A  92C3               	bcf	195,1,c	;volatile
  4451   003B2C                     
  4452                           ; BSR set to: 4
  4453   003B2C  0012               	return		;funcret
  4454   003B2E                     __end_of_FM_Lcd_Easy_Gpio_Init:
  4455                           	callstack 0
  4456                           
  4457                           	psect	rparam
  4458   000000                     
  4459                           	psect	idloc
  4460                           
  4461                           ;Config register IDLOC0 @ 0x200000
  4462                           ;	unspecified, using default values
  4463   200000                     	org	2097152
  4464   200000  0FFF               	dw	4095
  4465                           
  4466                           ;Config register IDLOC1 @ 0x200002
  4467                           ;	unspecified, using default values
  4468   200002                     	org	2097154
  4469   200002  0FFF               	dw	4095
  4470                           
  4471                           ;Config register IDLOC2 @ 0x200004
  4472                           ;	unspecified, using default values
  4473   200004                     	org	2097156
  4474   200004  0FFF               	dw	4095
  4475                           
  4476                           ;Config register IDLOC3 @ 0x200006
  4477                           ;	unspecified, using default values
  4478   200006                     	org	2097158
  4479   200006  0FFF               	dw	4095
  4480                           
  4481                           ;Config register IDLOC4 @ 0x200008
  4482                           ;	unspecified, using default values
  4483   200008                     	org	2097160
  4484   200008  0FFF               	dw	4095
  4485                           
  4486                           ;Config register IDLOC5 @ 0x20000A
  4487                           ;	unspecified, using default values
  4488   20000A                     	org	2097162
  4489   20000A  0FFF               	dw	4095
  4490                           
  4491                           ;Config register IDLOC6 @ 0x20000C
  4492                           ;	unspecified, using default values
  4493   20000C                     	org	2097164
  4494   20000C  0FFF               	dw	4095
  4495                           
  4496                           ;Config register IDLOC7 @ 0x20000E
  4497                           ;	unspecified, using default values
  4498   20000E                     	org	2097166
  4499   20000E  0FFF               	dw	4095
  4500                           
  4501                           ;Config register IDLOC8 @ 0x200010
  4502                           ;	unspecified, using default values
  4503   200010                     	org	2097168
  4504   200010  0FFF               	dw	4095
  4505                           
  4506                           ;Config register IDLOC9 @ 0x200012
  4507                           ;	unspecified, using default values
  4508   200012                     	org	2097170
  4509   200012  0FFF               	dw	4095
  4510                           
  4511                           ;Config register IDLOC10 @ 0x200014
  4512                           ;	unspecified, using default values
  4513   200014                     	org	2097172
  4514   200014  0FFF               	dw	4095
  4515                           
  4516                           ;Config register IDLOC11 @ 0x200016
  4517                           ;	unspecified, using default values
  4518   200016                     	org	2097174
  4519   200016  0FFF               	dw	4095
  4520                           
  4521                           ;Config register IDLOC12 @ 0x200018
  4522                           ;	unspecified, using default values
  4523   200018                     	org	2097176
  4524   200018  0FFF               	dw	4095
  4525                           
  4526                           ;Config register IDLOC13 @ 0x20001A
  4527                           ;	unspecified, using default values
  4528   20001A                     	org	2097178
  4529   20001A  0FFF               	dw	4095
  4530                           
  4531                           ;Config register IDLOC14 @ 0x20001C
  4532                           ;	unspecified, using default values
  4533   20001C                     	org	2097180
  4534   20001C  0FFF               	dw	4095
  4535                           
  4536                           ;Config register IDLOC15 @ 0x20001E
  4537                           ;	unspecified, using default values
  4538   20001E                     	org	2097182
  4539   20001E  0FFF               	dw	4095
  4540                           
  4541                           ;Config register IDLOC16 @ 0x200020
  4542                           ;	unspecified, using default values
  4543   200020                     	org	2097184
  4544   200020  0FFF               	dw	4095
  4545                           
  4546                           ;Config register IDLOC17 @ 0x200022
  4547                           ;	unspecified, using default values
  4548   200022                     	org	2097186
  4549   200022  0FFF               	dw	4095
  4550                           
  4551                           ;Config register IDLOC18 @ 0x200024
  4552                           ;	unspecified, using default values
  4553   200024                     	org	2097188
  4554   200024  0FFF               	dw	4095
  4555                           
  4556                           ;Config register IDLOC19 @ 0x200026
  4557                           ;	unspecified, using default values
  4558   200026                     	org	2097190
  4559   200026  0FFF               	dw	4095
  4560                           
  4561                           ;Config register IDLOC20 @ 0x200028
  4562                           ;	unspecified, using default values
  4563   200028                     	org	2097192
  4564   200028  0FFF               	dw	4095
  4565                           
  4566                           ;Config register IDLOC21 @ 0x20002A
  4567                           ;	unspecified, using default values
  4568   20002A                     	org	2097194
  4569   20002A  0FFF               	dw	4095
  4570                           
  4571                           ;Config register IDLOC22 @ 0x20002C
  4572                           ;	unspecified, using default values
  4573   20002C                     	org	2097196
  4574   20002C  0FFF               	dw	4095
  4575                           
  4576                           ;Config register IDLOC23 @ 0x20002E
  4577                           ;	unspecified, using default values
  4578   20002E                     	org	2097198
  4579   20002E  0FFF               	dw	4095
  4580                           
  4581                           ;Config register IDLOC24 @ 0x200030
  4582                           ;	unspecified, using default values
  4583   200030                     	org	2097200
  4584   200030  0FFF               	dw	4095
  4585                           
  4586                           ;Config register IDLOC25 @ 0x200032
  4587                           ;	unspecified, using default values
  4588   200032                     	org	2097202
  4589   200032  0FFF               	dw	4095
  4590                           
  4591                           ;Config register IDLOC26 @ 0x200034
  4592                           ;	unspecified, using default values
  4593   200034                     	org	2097204
  4594   200034  0FFF               	dw	4095
  4595                           
  4596                           ;Config register IDLOC27 @ 0x200036
  4597                           ;	unspecified, using default values
  4598   200036                     	org	2097206
  4599   200036  0FFF               	dw	4095
  4600                           
  4601                           ;Config register IDLOC28 @ 0x200038
  4602                           ;	unspecified, using default values
  4603   200038                     	org	2097208
  4604   200038  0FFF               	dw	4095
  4605                           
  4606                           ;Config register IDLOC29 @ 0x20003A
  4607                           ;	unspecified, using default values
  4608   20003A                     	org	2097210
  4609   20003A  0FFF               	dw	4095
  4610                           
  4611                           ;Config register IDLOC30 @ 0x20003C
  4612                           ;	unspecified, using default values
  4613   20003C                     	org	2097212
  4614   20003C  0FFF               	dw	4095
  4615                           
  4616                           ;Config register IDLOC31 @ 0x20003E
  4617                           ;	unspecified, using default values
  4618   20003E                     	org	2097214
  4619   20003E  0FFF               	dw	4095
  4620                           
  4621                           	psect	config
  4622                           
  4623                           ;Config register CONFIG1 @ 0x300000
  4624                           ;	External Oscillator Selection
  4625                           ;	FEXTOSC = OFF, Oscillator not enabled
  4626                           ;	Reset Oscillator Selection
  4627                           ;	RSTOSC = HFINTOSC_64MHZ, HFINTOSC with HFFRQ = 64 MHz and CDIV = 1:1
  4628   300000                     	org	3145728
  4629   300000  8C                 	db	140
  4630                           
  4631                           ;Config register CONFIG2 @ 0x300001
  4632                           ;	Clock out Enable bit
  4633                           ;	CLKOUTEN = OFF, CLKOUT function is disabled
  4634                           ;	PRLOCKED One-Way Set Enable bit
  4635                           ;	PR1WAY = OFF, PRLOCKED bit can be set and cleared repeatedly
  4636                           ;	Clock Switch Enable bit
  4637                           ;	CSWEN = OFF, The NOSC and NDIV bits cannot be changed by user software
  4638                           ;	Fail-Safe Clock Monitor Enable bit
  4639                           ;	FCMEN = OFF, Fail-Safe Clock Monitor disabled
  4640   300001                     	org	3145729
  4641   300001  D5                 	db	213
  4642                           
  4643                           ;Config register CONFIG3 @ 0x300002
  4644                           ;	MCLR Enable bit
  4645                           ;	MCLRE = EXTMCLR, If LVP = 0, MCLR pin is MCLR; If LVP = 1, RE3 pin function is MCLR
  4646                           ;	Power-up timer selection bits
  4647                           ;	PWRTS = PWRT_OFF, PWRT is disabled
  4648                           ;	Multi-vector enable bit
  4649                           ;	MVECEN = OFF, Interrupt contoller does not use vector table to prioritze interrupts
  4650                           ;	IVTLOCK bit One-way set enable bit
  4651                           ;	IVT1WAY = OFF, IVTLOCKED bit can be cleared and set repeatedly
  4652                           ;	Low Power BOR Enable bit
  4653                           ;	LPBOREN = OFF, Low-Power BOR disabled
  4654                           ;	Brown-out Reset Enable bits
  4655                           ;	BOREN = SBORDIS, Brown-out Reset enabled , SBOREN bit is ignored
  4656   300002                     	org	3145730
  4657   300002  E7                 	db	231
  4658                           
  4659                           ;Config register CONFIG4 @ 0x300003
  4660                           ;	Brown-out Reset Voltage Selection bits
  4661                           ;	BORV = VBOR_1P9, Brown-out Reset Voltage (VBOR) set to 1.9V
  4662                           ;	ZCD Disable bit
  4663                           ;	ZCD = OFF, ZCD module is disabled. ZCD can be enabled by setting the ZCDSEN bit of ZCD
      +                          CON
  4664                           ;	PPSLOCK bit One-Way Set Enable bit
  4665                           ;	PPS1WAY = OFF, PPSLOCKED bit can be set and cleared repeatedly (subject to the unlock 
      +                          sequence)
  4666                           ;	Stack Full/Underflow Reset Enable bit
  4667                           ;	STVREN = OFF, Stack full/underflow will not cause Reset
  4668                           ;	Low Voltage Programming Enable bit
  4669                           ;	LVP = OFF, HV on MCLR/VPP must be used for programming
  4670                           ;	Extended Instruction Set Enable bit
  4671                           ;	XINST = OFF, Extended Instruction Set and Indexed Addressing Mode disabled
  4672   300003                     	org	3145731
  4673   300003  C7                 	db	199
  4674                           
  4675                           ;Config register CONFIG5 @ 0x300004
  4676                           ;	WDT Period selection bits
  4677                           ;	WDTCPS = WDTCPS_31, Divider ratio 1:65536; software control of WDTPS
  4678                           ;	WDT operating mode
  4679                           ;	WDTE = OFF, WDT Disabled; SWDTEN is ignored
  4680   300004                     	org	3145732
  4681   300004  9F                 	db	159
  4682                           
  4683                           ;Config register CONFIG6 @ 0x300005
  4684                           ;	WDT Window Select bits
  4685                           ;	WDTCWS = WDTCWS_7, window always open (100%); software control; keyed access not requi
      +                          red
  4686                           ;	WDT input clock selector
  4687                           ;	WDTCCS = SC, Software Control
  4688   300005                     	org	3145733
  4689   300005  FF                 	db	255
  4690                           
  4691                           ;Config register CONFIG7 @ 0x300006
  4692                           ;	Boot Block Size selection bits
  4693                           ;	BBSIZE = BBSIZE_512, Boot Block size is 512 words
  4694                           ;	Boot Block enable bit
  4695                           ;	BBEN = OFF, Boot block disabled
  4696                           ;	Storage Area Flash enable bit
  4697                           ;	SAFEN = OFF, SAF disabled
  4698                           ;	Background Debugger
  4699                           ;	DEBUG = OFF, Background Debugger disabled
  4700   300006                     	org	3145734
  4701   300006  FF                 	db	255
  4702                           
  4703                           ;Config register CONFIG8 @ 0x300007
  4704                           ;	Boot Block Write Protection bit
  4705                           ;	WRTB = OFF, Boot Block not Write protected
  4706                           ;	Configuration Register Write Protection bit
  4707                           ;	WRTC = OFF, Configuration registers not Write protected
  4708                           ;	Data EEPROM Write Protection bit
  4709                           ;	WRTD = OFF, Data EEPROM not Write protected
  4710                           ;	SAF Write protection bit
  4711                           ;	WRTSAF = OFF, SAF not Write Protected
  4712                           ;	Application Block write protection bit
  4713                           ;	WRTAPP = OFF, Application Block not write protected
  4714   300007                     	org	3145735
  4715   300007  FF                 	db	255
  4716                           
  4717                           ; Padding undefined space
  4718   300008                     	org	3145736
  4719   300008  FF                 	db	255
  4720                           
  4721                           ;Config register CONFIG10 @ 0x300009
  4722                           ;	PFM and Data EEPROM Code Protection bit
  4723                           ;	CP = OFF, PFM and Data EEPROM code protection disabled
  4724   300009                     	org	3145737
  4725   300009  FF                 	db	255
  4726                           tosu	equ	0x4FF
  4727                           tosh	equ	0x4FE
  4728                           tosl	equ	0x4FD
  4729                           stkptr	equ	0x4FC
  4730                           pclatu	equ	0x4FB
  4731                           pclath	equ	0x4FA
  4732                           pcl	equ	0x4F9
  4733                           tblptru	equ	0x4F8
  4734                           tblptrh	equ	0x4F7
  4735                           tblptrl	equ	0x4F6
  4736                           tablat	equ	0x4F5
  4737                           prodh	equ	0x4F4
  4738                           prodl	equ	0x4F3
  4739                           indf0	equ	0x4EF
  4740                           postinc0	equ	0x4EE
  4741                           postdec0	equ	0x4ED
  4742                           preinc0	equ	0x4EC
  4743                           plusw0	equ	0x4EB
  4744                           fsr0h	equ	0x4EA
  4745                           fsr0l	equ	0x4E9
  4746                           wreg	equ	0x4E8
  4747                           indf1	equ	0x4E7
  4748                           postinc1	equ	0x4E6
  4749                           postdec1	equ	0x4E5
  4750                           preinc1	equ	0x4E4
  4751                           plusw1	equ	0x4E3
  4752                           fsr1h	equ	0x4E2
  4753                           fsr1l	equ	0x4E1
  4754                           bsr	equ	0x4E0
  4755                           indf2	equ	0x4DF
  4756                           postinc2	equ	0x4DE
  4757                           postdec2	equ	0x4DD
  4758                           preinc2	equ	0x4DC
  4759                           plusw2	equ	0x4DB
  4760                           fsr2h	equ	0x4DA
  4761                           fsr2l	equ	0x4D9
  4762                           status	equ	0x4D8

Data Sizes:
    Strings     22
    Constant    0
    Data        0
    BSS         53
    Persistent  0
    Stack       0

Auto Spaces:
    Space          Size  Autos    Used
    COMRAM           95     86      91
    BANK5           160      0      48
    BANK6           256      0       0
    BANK7           256      0       0
    BANK8           256      0       0
    BANK9           256      0       0
    BANK10          256      0       0
    BANK11          256      0       0
    BANK12          256      0       0
    BANK13          256      0       0
    BANK14          256      0       0
    BANK15          256      0       0
    BANK16          256      0       0
    BANK17          256      0       0
    BANK18          256      0       0
    BANK19          256      0       0
    BANK20          256      0       0
    BANK21          256      0       0
    BANK22          256      0       0
    BANK23          256      0       0
    BANK24          256      0       0
    BANK25          256      0       0
    BANK26          256      0       0
    BANK27          256      0       0
    BANK28          256      0       0
    BANK29          256      0       0
    BANK30          256      0       0
    BANK31          256      0       0
    BANK32          256      0       0
    BANK33          256      0       0
    BANK34          256      0       0
    BANK35          256      0       0
    BANK36          256      0       0

Pointer List with Targets:

    fputs@s	PTR const unsigned char  size(2) Largest target is 32
		 -> dbuf(BANK5[32]), 

    fputs@fp	PTR struct _IO_FILE size(2) Largest target is 12
		 -> sprintf@f(COMRAM[12]), 

    fputc@fp...source	PTR const unsigned char  size(2) Largest target is 0

    fputc@fp...buffer	PTR unsigned char  size(2) Largest target is 0

    fputc@fp	PTR struct _IO_FILE size(2) Largest target is 12
		 -> sprintf@f(COMRAM[12]), 

    vfprintf@ap	PTR PTR void  size(2) Largest target is 2
		 -> sprintf@ap(COMRAM[2]), 

    vfprintf@fp	PTR struct _IO_FILE size(2) Largest target is 12
		 -> sprintf@f(COMRAM[12]), 

    vfprintf@fmt	PTR const unsigned char  size(2) Largest target is 9
		 -> STR_2(CODE[9]), 

    vfprintf@cfmt	PTR unsigned char  size(2) Largest target is 9
		 -> STR_2(CODE[9]), 

    vfpfcnvrt@fp	PTR struct _IO_FILE size(2) Largest target is 12
		 -> sprintf@f(COMRAM[12]), 

    vfpfcnvrt@cp	PTR unsigned char  size(2) Largest target is 9
		 -> STR_2(CODE[9]), 

    vfpfcnvrt@ap	PTR PTR void  size(2) Largest target is 2
		 -> sprintf@ap(COMRAM[2]), 

    vfpfcnvrt@fmt	PTR PTR unsigned char  size(2) Largest target is 2
		 -> vfprintf@cfmt(COMRAM[2]), 

    S758$vp	PTR void  size(2) Largest target is 0

    convarg.vp	PTR void  size(2) Largest target is 0

    read_prec_or_width@ap	PTR PTR void [1] size(2) Largest target is 2
		 -> sprintf@ap(COMRAM[2]), 

    read_prec_or_width@fmt	PTR PTR const unsigned char  size(2) Largest target is 2
		 -> vfprintf@cfmt(COMRAM[2]), 

    utoa@fp	PTR struct _IO_FILE size(2) Largest target is 12
		 -> sprintf@f(COMRAM[12]), 

    pad@fp	PTR struct _IO_FILE size(2) Largest target is 12
		 -> sprintf@f(COMRAM[12]), 

    pad@buf	PTR unsigned char  size(2) Largest target is 32
		 -> dbuf(BANK5[32]), 

    sprintf@fmt	PTR const unsigned char  size(2) Largest target is 9
		 -> STR_2(CODE[9]), 

    sprintf@s	PTR unsigned char  size(2) Largest target is 16
		 -> msj(BANK5[16]), 

    sprintf@ap	PTR void [1] size(2) Largest target is 2
		 -> ?_sprintf(COMRAM[2]), 

    S704$source	PTR const unsigned char  size(2) Largest target is 0

    f...source	PTR const unsigned char  size(2) Largest target is 0

    S704$buffer	PTR unsigned char  size(2) Largest target is 0

    f...buffer	PTR unsigned char  size(2) Largest target is 0

    FM_Lcd_Send_String@cadena	PTR unsigned char  size(2) Largest target is 16
		 -> msj(BANK5[16]), STR_1(CODE[13]), 

    FM_Hfintosc_Init@clock_params	PTR struct . size(2) Largest target is 2
		 -> Init_Internal_Oscillator@my_clock(COMRAM[2]), 


Critical Paths under _main in COMRAM

    _main->_sprintf
    _sprintf->_vfprintf
    _vfprintf->_vfpfcnvrt
    _vfpfcnvrt->_utoa
    _utoa->_pad
    _pad->_fputs
    _fputs->_fputc
    _read_prec_or_width->___wmul
    ___fltol->___flmul
    ___flmul->___fldiv
    ___fldiv->___xxtofl
    _Init_Internal_Oscillator->_FM_Hfintosc_Init
    _FM_Lcd_Set_Cursor->_FM_Lcd_Send_Command
    _FM_Lcd_Send_String->_FM_Lcd_Send_Character
    _FM_Lcd_Send_Character->_FM_Lcd_Send_Nibble
    _FM_Lcd_Easy_Init->_FM_Lcd_Send_Command
    _FM_Lcd_Send_Command->_FM_Lcd_Send_Nibble

Critical Paths under _main in BANK5

    None.

Critical Paths under _main in BANK6

    None.

Critical Paths under _main in BANK7

    None.

Critical Paths under _main in BANK8

    None.

Critical Paths under _main in BANK9

    None.

Critical Paths under _main in BANK10

    None.

Critical Paths under _main in BANK11

    None.

Critical Paths under _main in BANK12

    None.

Critical Paths under _main in BANK13

    None.

Critical Paths under _main in BANK14

    None.

Critical Paths under _main in BANK15

    None.

Critical Paths under _main in BANK16

    None.

Critical Paths under _main in BANK17

    None.

Critical Paths under _main in BANK18

    None.

Critical Paths under _main in BANK19

    None.

Critical Paths under _main in BANK20

    None.

Critical Paths under _main in BANK21

    None.

Critical Paths under _main in BANK22

    None.

Critical Paths under _main in BANK23

    None.

Critical Paths under _main in BANK24

    None.

Critical Paths under _main in BANK25

    None.

Critical Paths under _main in BANK26

    None.

Critical Paths under _main in BANK27

    None.

Critical Paths under _main in BANK28

    None.

Critical Paths under _main in BANK29

    None.

Critical Paths under _main in BANK30

    None.

Critical Paths under _main in BANK31

    None.

Critical Paths under _main in BANK32

    None.

Critical Paths under _main in BANK33

    None.

Critical Paths under _main in BANK34

    None.

Critical Paths under _main in BANK35

    None.

Critical Paths under _main in BANK36

    None.

Call Graph Tables:

 ---------------------------------------------------------------------------------
 (Depth) Function   	        Calls       Base Space   Used Autos Params    Refs
 ---------------------------------------------------------------------------------
 (0) _main                                                 5     5      0   11429
                                             81 COMRAM     5     5      0
                   _FM_Lcd_Easy_Init
                 _FM_Lcd_Send_String
                  _FM_Lcd_Set_Cursor
                   _Init_ADCC_Module
                   _Init_Gpio_System
           _Init_Internal_Oscillator
                            ___fldiv
                            ___flmul
                            ___fltol
                           ___xxtofl
                            _sprintf
 ---------------------------------------------------------------------------------
 (1) _sprintf                                             22    16      6    6412
                                             61 COMRAM    20    14      6
                           _vfprintf
 ---------------------------------------------------------------------------------
 (2) _vfprintf                                             8     2      6    6059
                                             53 COMRAM     8     2      6
                          _vfpfcnvrt
 ---------------------------------------------------------------------------------
 (3) _vfpfcnvrt                                           19    13      6    5697
                                             37 COMRAM    16    10      6
                              _fputc
                 _read_prec_or_width
                               _utoa
 ---------------------------------------------------------------------------------
 (4) _utoa                                                10     6      4    3504
                                             27 COMRAM    10     6      4
                            ___lwdiv
                            ___lwmod
                                _pad
 ---------------------------------------------------------------------------------
 (5) _pad                                                 11     5      6    2499
                                             16 COMRAM    11     5      6
                              _fputc
                              _fputs
 ---------------------------------------------------------------------------------
 (6) _fputs                                                7     3      4    1235
                                              9 COMRAM     7     3      4
                              _fputc
 ---------------------------------------------------------------------------------
 (7) _fputc                                                9     5      4     834
                                              0 COMRAM     9     5      4
                              _putch
 ---------------------------------------------------------------------------------
 (8) _putch                                                1     1      0       0
 ---------------------------------------------------------------------------------
 (5) ___lwmod                                              5     1      4     311
                                              0 COMRAM     5     1      4
 ---------------------------------------------------------------------------------
 (5) ___lwdiv                                              7     3      4     314
                                              0 COMRAM     7     3      4
 ---------------------------------------------------------------------------------
 (4) _read_prec_or_width                                   9     5      4     643
                                              6 COMRAM     9     5      4
                             ___wmul
 ---------------------------------------------------------------------------------
 (5) ___wmul                                               6     2      4     311
                                              0 COMRAM     6     2      4
 ---------------------------------------------------------------------------------
 (1) ___xxtofl                                            14    10      4     398
                                              0 COMRAM    14    10      4
 ---------------------------------------------------------------------------------
 (1) ___fltol                                             10     6      4     305
                                             64 COMRAM    10     6      4
                            ___fldiv (ARG)
                            ___flmul (ARG)
                           ___xxtofl (ARG)
 ---------------------------------------------------------------------------------
 (1) ___flmul                                             25    17      8    1744
                                             39 COMRAM    25    17      8
                            ___fldiv (ARG)
                           ___xxtofl (ARG)
 ---------------------------------------------------------------------------------
 (1) ___fldiv                                             25    17      8    1399
                                             14 COMRAM    25    17      8
                           ___xxtofl (ARG)
 ---------------------------------------------------------------------------------
 (1) _Init_Internal_Oscillator                             2     2      0     169
                                              3 COMRAM     2     2      0
                   _FM_Hfintosc_Init
 ---------------------------------------------------------------------------------
 (2) _FM_Hfintosc_Init                                     3     1      2     120
                                              0 COMRAM     3     1      2
 ---------------------------------------------------------------------------------
 (1) _Init_Gpio_System                                     0     0      0       0
 ---------------------------------------------------------------------------------
 (1) _Init_ADCC_Module                                     0     0      0       0
 ---------------------------------------------------------------------------------
 (1) _FM_Lcd_Set_Cursor                                    3     2      1     401
                                              5 COMRAM     3     2      1
                _FM_Lcd_Send_Command
 ---------------------------------------------------------------------------------
 (1) _FM_Lcd_Send_String                                   5     3      2     398
                                              5 COMRAM     5     3      2
              _FM_Lcd_Send_Character
 ---------------------------------------------------------------------------------
 (2) _FM_Lcd_Send_Character                                1     1      0     156
                                              4 COMRAM     1     1      0
                 _FM_Lcd_Send_Nibble
 ---------------------------------------------------------------------------------
 (1) _FM_Lcd_Easy_Init                                     2     2      0     157
                                              5 COMRAM     2     2      0
              _FM_Lcd_Easy_Gpio_Init
                _FM_Lcd_Send_Command
 ---------------------------------------------------------------------------------
 (2) _FM_Lcd_Send_Command                                  1     1      0     156
                                              4 COMRAM     1     1      0
                 _FM_Lcd_Send_Nibble
 ---------------------------------------------------------------------------------
 (3) _FM_Lcd_Send_Nibble                                   4     4      0     134
                                              0 COMRAM     4     4      0
 ---------------------------------------------------------------------------------
 (2) _FM_Lcd_Easy_Gpio_Init                                1     1      0       1
 ---------------------------------------------------------------------------------
 Estimated maximum stack depth 8
 ---------------------------------------------------------------------------------

 Call Graph Graphs:

 _main (ROOT)
   _FM_Lcd_Easy_Init
     _FM_Lcd_Easy_Gpio_Init
     _FM_Lcd_Send_Command
       _FM_Lcd_Send_Nibble
   _FM_Lcd_Send_String
     _FM_Lcd_Send_Character
       _FM_Lcd_Send_Nibble
   _FM_Lcd_Set_Cursor
     _FM_Lcd_Send_Command
   _Init_ADCC_Module
   _Init_Gpio_System
   _Init_Internal_Oscillator
     _FM_Hfintosc_Init
   ___fldiv
     ___xxtofl (ARG)
   ___flmul
     ___fldiv (ARG)
     ___xxtofl (ARG)
   ___fltol
     ___fldiv (ARG)
     ___flmul (ARG)
     ___xxtofl (ARG)
   ___xxtofl
   _sprintf
     _vfprintf
       _vfpfcnvrt
         _fputc
           _putch
         _read_prec_or_width
           ___wmul
         _utoa
           ___lwdiv
           ___lwmod
           _pad
             _fputc
             _fputs
               _fputc

 Address spaces:
Name               Size   Autos  Total    Cost      Usage
BIGRAM            1FFF      0       0      69        0.0%
EEDATA             400      0       0       0        0.0%
BITBIGSFRllhh      338      0       0      80        0.0%
BITBIGSFR_1        100      0       0      68        0.0%
BITBANK36          100      0       0      66        0.0%
BANK36             100      0       0      67        0.0%
BITBANK35          100      0       0      64        0.0%
BANK35             100      0       0      65        0.0%
BITBANK34          100      0       0      62        0.0%
BANK34             100      0       0      63        0.0%
BITBANK33          100      0       0      60        0.0%
BANK33             100      0       0      61        0.0%
BITBANK32          100      0       0      58        0.0%
BANK32             100      0       0      59        0.0%
BITBANK31          100      0       0      56        0.0%
BANK31             100      0       0      57        0.0%
BITBANK30          100      0       0      54        0.0%
BANK30             100      0       0      55        0.0%
BITBANK29          100      0       0      52        0.0%
BANK29             100      0       0      53        0.0%
BITBANK28          100      0       0      50        0.0%
BANK28             100      0       0      51        0.0%
BITBANK27          100      0       0      48        0.0%
BANK27             100      0       0      49        0.0%
BITBANK26          100      0       0      46        0.0%
BANK26             100      0       0      47        0.0%
BITBANK25          100      0       0      44        0.0%
BANK25             100      0       0      45        0.0%
BITBANK24          100      0       0      42        0.0%
BANK24             100      0       0      43        0.0%
BITBANK23          100      0       0      40        0.0%
BANK23             100      0       0      41        0.0%
BITBANK22          100      0       0      38        0.0%
BANK22             100      0       0      39        0.0%
BITBANK21          100      0       0      36        0.0%
BANK21             100      0       0      37        0.0%
BITBANK20          100      0       0      34        0.0%
BANK20             100      0       0      35        0.0%
BITBANK19          100      0       0      32        0.0%
BANK19             100      0       0      33        0.0%
BITBANK18          100      0       0      30        0.0%
BANK18             100      0       0      31        0.0%
BITBANK17          100      0       0      28        0.0%
BANK17             100      0       0      29        0.0%
BITBANK16          100      0       0      26        0.0%
BANK16             100      0       0      27        0.0%
BITBANK15          100      0       0      24        0.0%
BANK15             100      0       0      25        0.0%
BITBANK14          100      0       0      22        0.0%
BANK14             100      0       0      23        0.0%
BITBANK13          100      0       0      20        0.0%
BANK13             100      0       0      21        0.0%
BITBANK12          100      0       0      18        0.0%
BANK12             100      0       0      19        0.0%
BITBANK11          100      0       0      16        0.0%
BANK11             100      0       0      17        0.0%
BITBANK10          100      0       0      14        0.0%
BANK10             100      0       0      15        0.0%
BITBANK9           100      0       0      12        0.0%
BANK9              100      0       0      13        0.0%
BITBANK8           100      0       0      10        0.0%
BANK8              100      0       0      11        0.0%
BITBANK7           100      0       0       8        0.0%
BANK7              100      0       0       9        0.0%
BITBANK6           100      0       0       6        0.0%
BANK6              100      0       0       7        0.0%
BITBIGSFRlll        AD      0       0      82        0.0%
BITBANK5            A0      0       0       4        0.0%
BANK5               A0      0      30       5       30.0%
BITBIGSFRhlhhh      9A      0       0      73        0.0%
BITCOMRAM           5F      0       0       0        0.0%
COMRAM              5F     56      5B       1       95.8%
BITBIGSFRhhhh       34      0       0      70        0.0%
BITBIGSFRhlhhl      27      0       0      74        0.0%
BITBIGSFRhlhl        5      0       0      75        0.0%
BITBIGSFRhhhl        4      0       0      71        0.0%
BITBIGSFRllhl        3      0       0      81        0.0%
BITBIGSFRhhl         2      0       0      72        0.0%
BITBIGSFRhlll        2      0       0      77        0.0%
BITBIGSFRlhh         1      0       0      78        0.0%
BITBIGSFRhllh        1      0       0      76        0.0%
BITBIGSFRlhl         1      0       0      79        0.0%
BIGSFR_1             0      0       0     200        0.0%
BIGSFR               0      0       0     200        0.0%
BITSFR_6             0      0       0     200        0.0%
SFR_6                0      0       0     200        0.0%
BITSFR_5             0      0       0     200        0.0%
SFR_5                0      0       0     200        0.0%
BITSFR_4             0      0       0     200        0.0%
SFR_4                0      0       0     200        0.0%
BITSFR_3             0      0       0     200        0.0%
SFR_3                0      0       0     200        0.0%
BITSFR_2             0      0       0     200        0.0%
SFR_2                0      0       0     200        0.0%
BITSFR_1             0      0       0     200        0.0%
SFR_1                0      0       0     200        0.0%
BITSFR               0      0       0     200        0.0%
SFR                  0      0       0     200        0.0%
STACK                0      0       0       2        0.0%
NULL                 0      0       0       0        0.0%
ABS                  0      0      8B      83        0.0%
DATA                 0      0      8B       3        0.0%
CODE                 0      0       0       0        0.0%


Microchip Technology PIC18 Macro Assembler V2.41 build 20230208172133 
Symbol Table                                                                                   Wed Jun 28 21:01:52 2023

                          ___fldiv@aexp 0527                            ___fldiv@bexp 0526  
                          ___fldiv@sign 051F                                      l70 3B1E  
                                    l64 3A48                                      l56 31F8  
                                    l90 3B2C                                      l67 3B4E  
                                    l93 387C                                      l77 3AC6  
                                    l96 3B44                                      l99 3B38  
                   ___wmul@multiplicand 0503                                     l112 3794  
                                   l104 39FA                                     l106 3A06  
                                   l115 3A8A                                     l118 3AEC  
                                   l415 33E6                                     l700 2DDA  
                                   l702 2C3A                                     l711 2C80  
                                   l616 3808                                     l713 2CF8  
                                   l705 2BFE                                     l609 3800  
                                   l714 2CE6                                     l626 38E0  
                                   l619 38D8                                     l732 26DC  
                                   l820 36F6                                     l741 294A  
                                   l742 2938                                     l822 3718  
                                   l736 2A40                                     l817 36B4  
                                   l842 35A4                                     l834 34D6  
                                   l826 3402                                     l739 28D2  
                                   l780 3108                                     l828 340A  
                                   l749 2A02                                     l773 3070  
                                   l838 359C                                     l776 31CC  
                                   l890 3B50                                     l787 3164  
                                   l859 3018                                     l867 3932  
                                   l796 397E                                     l879 366E  
                                   l887 39C2                                     u930 35B8  
                                   u931 35B4                                     u940 35CA  
                                   u941 35C6                                     u950 35F2  
                                   u951 35EE                                     u960 3628  
                                   u961 3624                                     u970 39C2  
                                   u971 39BE                                     u980 37B0  
                                   u981 37AC                                     u990 37CE  
                                   u991 37CA                                     _pad 3670  
                                   _msj 0580                                     wreg 04E8  
                           main@adc_val 0554                            ___flmul@aexp 0539  
                          ___flmul@bexp 053A                            ___flmul@sign 0534  
                          ___flmul@temp 053F                            ___flmul@prod 053B  
                          ___fltol@exp1 054A                                    l2000 2AF6  
                                  l2010 2B3C                                    l2002 2AFE  
                                  l2020 2B64                                    l2012 2B40  
                                  l2004 2B0E                                    l2030 2BB2  
                                  l2006 2B24                                    l2110 2634  
                                  l2040 2BFC                                    l2032 2BC2  
                                  l2024 2B78                                    l2008 2B34  
                                  l2016 2B54                                    l2200 2930  
                                  l2120 267A                                    l2112 2644  
                                  l2104 2618                                    l2050 2C4A  
                                  l2042 2C08                                    l2034 2BCA  
                                  l2026 2B92                                    l2018 2B64  
                                  l2210 299E                                    l2130 26A6  
                                  l2122 2680                                    l2114 2654  
                                  l2106 2624                                    l2052 2C60  
                                  l2060 2C90                                    l2044 2C26  
                                  l2036 2BDA                                    l2028 2BA2  
                                  l2220 2A06                                    l2204 295A  
                                  l2212 29A2                                    l2140 26FC  
                                  l2132 26B6                                    l2124 2686  
                                  l2116 2664                                    l2108 2632  
                                  l2300 30FE                                    l2062 2C9E  
                                  l2054 2C66                                    l2046 2C28  
                                  l2038 2BEE                                    l2230 2A30  
                                  l2222 2A16                                    l2214 29BC  
                                  l2206 2966                                    l2150 273C  
                                  l2134 26C6                                    l2126 2694  
                                  l2118 266A                                    l2310 3174  
                                  l2302 313A                                    l2072 2D08  
                                  l2080 2D50                                    l2064 2CA2  
                                  l2056 2C70                                    l2048 2C38  
                                  l2224 2A24                                    l2216 29D0  
                                  l2208 2974                                    l2160 2786  
                                  l2152 2748                                    l2144 2710  
                                  l2136 26CC                                    l2128 2696  
                                  l2240 330C                                    l2320 31BC  
                                  l2312 3178                                    l2304 3146  
                                  l2090 2DBA                                    l2082 2D6A  
                                  l2074 2D14                                    l2066 2CB0  
                                  l2058 2C7E                                    l2226 2A26  
                                  l2218 29EA                                    l2170 27D8  
                                  l2162 2792                                    l2154 2760  
                                  l2146 271C                                    l2138 26EC  
                                  l2250 335A                                    l2242 3336  
                                  l2234 32E2                                    l2314 319C  
                                  l2306 3154                                    l2330 31DA  
                                  l2092 2DC8                                    l2084 2D80  
                                  l2076 2D22                                    l2068 2CDE  
                                  l2228 2A2C                                    l2180 2856  
                                  l2172 27E8                                    l2164 27A2  
                                  l2156 276C                                    l2148 2726  
                                  l2260 3386                                    l2244 3338  
                                  l2236 32F8                                    l2316 31AC  
                                  l2308 3172                                    l1700 38AE  
                                  l2340 321C                                    l2332 31DE  
                                  l2324 31CE                                    l2094 2DCE  
                                  l2086 2D9A                                    l2078 2D4C  
                                  l2190 28D0                                    l2182 288C  
                                  l2174 2804                                    l2166 27AE  
                                  l2158 2778                                    l2270 33B6  
                                  l2246 3348                                    l2318 31BA  
                                  l1702 38C4                                    l1710 367E  
                                  l2350 32C2                                    l2342 328E  
                                  l2334 31E8                                    l2326 31D2  
                                  l2096 2DD0                                    l2088 2DB6  
                                  l2192 28E2                                    l2184 289A  
                                  l2176 2810                                    l2168 27BE  
                                  l2272 33C6                                    l2256 3372  
                                  l2248 334C                                    l2280 302C  
                                  l1704 38CC                                    l1720 36D4  
                                  l1712 3692                                    l2344 32A8  
                                  l2336 31F4                                    l2328 31D6  
                                  l2194 28F0                                    l2186 28B8  
                                  l2178 282C                                    l2274 33D6  
                                  l2266 339A                                    l2258 337C  
                                  l2290 30AA                                    l2282 303A  
                                  l1706 38D2                                    l1650 35F2  
                                  l1642 35A6                                    l1722 36D8  
                                  l1714 36A0                                    l1730 3412  
                                  l1810 2EC2                                    l1802 2E4E  
                                  l2346 32B2                                    l2338 3206  
                                  l1900 3A2A                                    l2196 28F4  
                                  l2188 28C2                                    l2268 33A6  
                                  l2292 30B2                                    l2284 3080  
                                  l1652 3628                                    l1644 35B8  
                                  l1660 399E                                    l1724 3704  
                                  l1716 36AC                                    l1708 3670  
                                  l1740 3456                                    l1732 341A  
                                  l1812 2ECC                                    l1804 2E86  
                                  l2348 32BE                                    l1910 3A46  
                                  l1902 3A2E                                    l2198 2902  
                                  l2294 30BE                                    l2286 3096  
                                  l2278 301C                                    l1670 3796  
                                  l1646 35CA                                    l1662 39A2  
                                  l1718 36C0                                    l1750 34B6  
                                  l1742 345C                                    l1734 3424  
                                  l1726 33E8                                    l1830 2FC2  
                                  l1814 2EDC                                    l1806 2E98  
                                  l1920 3A6C                                    l1904 3A30  
                                  l1912 3B46                                    l2296 30F0  
                                  l1664 3AC8                                    l1760 3542  
                                  l1680 37CE                                    l1672 379E  
                                  l1648 35D4                                    l1656 3980  
                                  l1736 342A                                    l1744 3478  
                                  l1728 33F6                                    l1824 2F5C  
                                  l1816 2EFC                                    l1808 2EB4  
                                  l2392 2E78                                    l1770 3836  
                                  l1922 3A72                                    l1914 3A4A  
                                  l1930 39C6                                    l1906 3A34  
                                  l2298 30F2                                    l1666 3AE4  
                                  l1762 3562                                    l1754 34D8  
                                  l1690 37FA                                    l1682 37D4  
                                  l1674 37B0                                    l1658 398C  
                                  l1746 348A                                    l1738 3450  
                                  l1834 2FDA                                    l2394 2F7E  
                                  l1818 2F44                                    l1826 2F8C  
                                  l1860 3B2A                                    l1780 3864  
                                  l1772 3838                                    l1924 3A78  
                                  l1916 3A4E                                    l1940 39FC  
                                  l1932 39CA                                    l1908 3A3E  
                                  l1852 3A8C                                    l1764 3570  
                                  l1756 34E0                                    l1684 37EA  
                                  l1676 37B8                                    l1692 387E  
                                  l1748 349C                                    l1828 2FB4  
                                  l1782 3876                                    l1774 3848  
                                  l1766 380C                                    l1862 3B3C  
                                  l1926 3A7E                                    l1918 3A66  
                                  l1950 3754                                    l1942 3A00  
                                  l1934 39DA                                    l1854 3A96  
                                  l1758 3508                                    l1686 37F2  
                                  l1678 37C0                                    l1694 3890  
                                  l1790 2E1E                                    l1838 2FEC  
                                  l1870 38E2                                    l1776 384E  
                                  l1768 3824                                    l1864 3B3E  
                                  l1928 3A84                                    l1952 3756  
                                  l1944 3A06                                    l1936 39E2  
                                  l1856 3AAC                                    l1880 3B0A  
                                  l1688 37F4                                    l1696 3898  
                                  l1792 2E22                                    l1784 2DDC  
                                  l1872 38EE                                    l1960 3954  
                                  l1858 3B20                                    l1778 3854  
                                  l1866 3B30                                    l1946 371A  
                                  l1938 39F2                                    l1890 3A1A  
                                  l1882 3B12                                    l1970 2A5C  
                                  l1698 38A0                                    l1794 2E2E  
                                  l1786 2E04                                    l1874 390A  
                                  l1962 3970                                    l1954 3934  
                                  l1868 3B32                                    l1948 3722  
                                  l1892 3A1C                                    l1884 3A08  
                                  l1980 2A90                                    l1972 2A5E  
                                  l1796 2E30                                    l1788 2E12  
                                  l1876 392A                                    l1956 3944  
                                  l1894 3A22                                    l1886 3A16  
                                  l1990 2AC2                                    l1974 2A6E  
                                  l1982 2A98                                    l1966 2A42  
                                  l1798 2E42                                    l1958 394C  
                                  ?_pad 0511                                    l1896 3A24  
                                  l1888 3A18                                    l1992 2AC4  
                                  l1984 2AA8                                    l1976 2A7E  
                                  l1968 2A4E                                    l1898 3A26  
                                  l1994 2AD4                                    l1986 2AAE  
                                  l1978 2A8E                                    l1996 2AE4  
                                  l1988 2AB4                                    l1998 2AF4  
                                  STR_1 2601                                    STR_2 260E  
                                  u1000 37EA                                    u1001 37E6  
                                  u1010 3890                                    u1011 388C  
                                  u1020 38AE                                    u1100 349C  
                                  u1021 38AA                                    u1101 3498  
                                  u1030 38C4                                    u1110 34B6  
                                  u1031 38C0                                    u1111 34B2  
                                  u1200 39DA                                    u1120 3508  
                                  u1040 367E                                    u1201 39D6  
                                  u1121 3504                                    u1041 367A  
                                  u1210 39F2                                    u1130 359C  
                                  u1050 36A0                                    u1211 39EE  
                                  u1131 3598                                    u1051 369C  
                                  u1220 3750                                    u1300 2AE4  
                                  u1060 36F6                                    u1140 2E04  
                                  u1301 2AE0                                    u1061 36F2  
                                  u1141 2E00                                    u1230 3784  
                                  u1310 2B24                                    u1070 3704  
                                  u1150 2E98                                    u1311 2B20  
                                  u1071 3700                                    u1151 2E94  
                                  u1240 3794                                    u1400 2CB0  
                                  u1320 2B64                                    u1080 33F6  
                                  u1160 2EC2                                    u1241 3790  
                                  u1401 2CAC                                    u1321 2B60  
                                  u1081 33F2                                    u1161 2EBE  
                                  u1410 2CDE                                    u1330 2BDA  
                                  u1250 2A5C                                    u1090 348A  
                                  u1170 2EFC                                    u1227 3746  
                                  u1411 2CDA                                    u1331 2BD6  
                                  u1251 2A58                                    u1091 3486  
                                  u1171 2EF8                                    u1420 2CF4  
                                  u1340 2BFC                                    u1260 2A6E  
                                  u1500 2654                                    u1180 2FB4  
                                  u1237 377A                                    u1421 2CF0  
                                  u1341 2BF8                                    u1261 2A6A  
                                  u1501 2650                                    u1181 2FB0  
                                  u1430 2D08                                    u1350 2C26  
                                  u1270 2A7E                                    u1510 2694  
                                  u1190 392A                                    u1431 2D04  
                                  u1351 2C22                                    u1271 2A7A  
                                  u1511 2690                                    u1191 3926  
                                  u1440 2D22                                    u1360 2C4A  
                                  u1280 2AC2                                    u1600 2930  
                                  u1520 26A6                                    u1441 2D1E  
                                  u1361 2C46                                    u1281 2ABE  
                                  u1601 292C                                    u1521 26A2  
                                  u1450 2D6A                                    u1370 2C60  
                                  u1290 2AD4                                    u1610 2946  
                                  u1530 26B6                                    _LATF 04C3  
                                  u1451 2D66                                    u1371 2C5C  
                                  u1291 2AD0                                    u1611 2942  
                                  u1531 26B2                                    u1460 2D9A  
                                  u1380 2C7E                                    u1620 295A  
                                  u1540 26EC                                    u1700 336E  
                                  u1461 2D96                                    u1381 2C7A  
                                  u1621 2956                                    u1541 26E8  
                                  u1701 336A                                    u1470 2DC8  
                                  u1390 2C9E                                    u1630 2974  
                                  u1550 26FC                                    u1710 3396  
                                  u1471 2DC4                                    u1391 2C9A  
                                  u1631 2970                                    u1551 26F8  
                                  u1711 3392                                    u1640 29BC  
                                  u1560 2876                                    u1480 2632  
                                  u1720 33B6                                    u1800 3164  
                                  u1641 29B8                                    u1481 262E  
                                  u1721 33B2                                    u1801 3160  
                                  u1650 29EA                                    u1570 28D0  
                                  u1490 2644                                    u1730 33C6  
                                  u1810 3172                                    u1651 29E6  
                                  u1571 28CC                                    u1491 2640  
                                  u1731 33C2                                    u1811 316E  
                                  u1660 2A24                                    u1580 28F0  
                                  u1820 31AC                                    u1740 302C  
                                  u1661 2A20                                    u1581 28EC  
                                  u1565 286C                                    u1821 31A8  
                                  u1741 3028                                    u1590 2902  
                                  u1670 32F8                                    u1830 31BA  
                                  u1750 303A                                    u1591 28FE  
                                  u1671 32F4                                    u1831 31B6  
                                  u1751 3036                                    u1680 332C  
                                  u1760 3096                                    u1840 3206  
                                  u1761 3092                                    u1841 3202  
                                  u1690 335A                                    u1770 30EC  
                                  u1907 386C                                    u1691 3356  
                                  u1771 30E8                                    u1780 3136  
                                  u1685 3322                                    u1781 3132  
                                  u1790 3154                                    u1791 3150  
                                  u1857 32CC                                    u1867 3A58  
                                  u1877 382C                                    u1887 383E  
                                  u1897 385A              __end_of_FM_Lcd_Send_Nibble 387E  
                     ?_FM_Hfintosc_Init 0501                                    _dbuf 0560  
                                  _main 31CE            FM_Lcd_Send_Nibble@upper_bits 0503  
                                  _prec 0559                                    pad@i 0518  
                                  pad@p 0515                                    fsr1h 04E2  
                                  fsr2h 04DA                                    indf1 04E7  
                                  indf2 04DF                                    fsr1l 04E1  
                                  pad@w 051A                                    fsr2l 04D9  
                    ??_FM_Hfintosc_Init 0503              __end_of_FM_Lcd_Send_String 3796  
                                  _utoa 33E8                 ??_FM_Lcd_Send_Character 0505  
                                  prodh 04F4                                    prodl 04F3  
                                  start FFFC  FM_Lcd_Send_Character@character_to_send 0505  
                       ___fldiv@new_exp 0520                   _FM_Lcd_Easy_Gpio_Init 3B20  
                          ___param_bank 0000                                   ??_pad 0517  
              __end_of_Init_ADCC_Module 3A4A                       ?_Init_Gpio_System 0501  
                         ___fltol@sign1 0549                                   _ADACQ 03EE  
                                 ?_main 0501                                   _ADCLK 03FA  
                                 _ADPCH 03EC                         __end_of___fldiv 2DDC  
                                 _ADREF 03F8                                   _ADPRE 03F1  
                       __end_of___flmul 2A42                         __end_of___fltol 33E8  
                                 ?_utoa 051C             __end_of_FM_Lcd_Send_Command 3B46  
                       __end_of___lwdiv 380A                         __end_of___lwmod 38E2  
                    ??_Init_Gpio_System 0501                            vfpfcnvrt@fmt 0528  
                                 _TRISA 04C6                                   _TRISF 04CB  
      Init_Internal_Oscillator@my_clock 0504                                   _flags 055B  
                   read_prec_or_width@c 050D                     read_prec_or_width@n 050E  
                                 _fputc 35A6                                   _fputs 3980  
                                 pad@fp 0511                                   _width 0557  
                                 _putch 3B50                                   tablat 04F5  
                                 utoa@d 051E                                   utoa@i 0524  
                                 utoa@p 0522                                   utoa@w 0520  
                                 status 04D8                         __end_of_sprintf 3980  
                       __initialization 3AEE                            __end_of_main 32E2  
                          __end_of_utoa 34D8                                  ??_main 0552  
                                ??_utoa 0520                           __activetblptr 0003  
            __end_of_read_prec_or_width 35A6                                  _ADCON0 03F3  
                                _ADCON1 03F4                                  _ADCON2 03F5  
                                ?_fputc 0501                                  ?_fputs 050A  
                                _ADRESH 03EB                                  _ADRESL 03EA  
                                _ANSELA 0400                                  ?_putch 0501  
                                _ANSELF 0428                           vfpfcnvrt@done 0532  
                      __end_of___xxtofl 31CE                  ?_FM_Lcd_Easy_Gpio_Init 0501  
                          vfprintf@cfmt 053C                                  ___wmul 3AC8  
                             ??___fldiv 0517                               ??___flmul 0530  
                             ??___fltol 0545                               ??___lwdiv 0505  
                             ??___lwmod 0505                    read_prec_or_width@ap 0509  
                                clear_0 3AF4                                  isa$std 0001  
                                pad@buf 0513                                  fputc@c 0501  
                                fputs@c 050E                                  fputs@i 050F  
                                fputs@s 050A                            __mediumconst 0000  
                                tblptrh 04F7                                  tblptrl 04F6  
                                tblptru 04F8                                  putch@c 0501  
                      __end_of_vfprintf 3934                                  utoa@fp 051C  
                             ??_sprintf 0544                            ___xxtofl@arg 050B  
                          ___xxtofl@exp 050A                            ___xxtofl@val 0501  
                            __accesstop 0560                 __end_of__initialization 3B04  
                         ___rparam_used 0001                              ___fltol@f1 0541  
                        __pcstackCOMRAM 0501                           __end_of_fputc 3670  
                         __end_of_fputs 39C4                           __end_of_putch 3B52  
                      _FM_Lcd_Easy_Init 3A4A            FM_Hfintosc_Init@clock_params 0501  
                               ??_fputc 0505                                 ??_fputs 050E  
                               ??_putch 0501                              __pbssBANK5 0560  
         __end_of_FM_Lcd_Send_Character 3B3A                      _FM_Lcd_Send_Nibble 380A  
                               ?___wmul 0501                      _FM_Lcd_Send_String 371A  
             ?_Init_Internal_Oscillator 0501                       ?_Init_ADCC_Module 0501  
                   ?_FM_Lcd_Send_Nibble 0501                      ??_Init_ADCC_Module 0501  
                             ?___xxtofl 0501                     ?_FM_Lcd_Send_String 0506  
                  ??_FM_Lcd_Send_Nibble 0501                    ??_FM_Lcd_Send_String 0508  
                               __Hparam 0000                                 __Lparam 0000  
                               ___fldiv 2A42                                 ___flmul 2618  
                               ___fltol 32E2                                 ___lwdiv 3796  
                               ___lwmod 387E                               ?_vfprintf 0536  
                          __psmallconst 2600                                 __pcinit 3AEE  
                               __ramtop 2600                                 __ptext0 31CE  
                               __ptext1 3934                                 __ptext2 38E2  
                               __ptext3 2DDC                                 __ptext4 33E8  
                               __ptext5 3670                                 __ptext6 3980  
                               __ptext7 35A6                                 __ptext8 3B50  
                               __ptext9 387E                   read_prec_or_width@fmt 0507  
                            ??___xxtofl 0505                                 _sprintf 3934  
                  end_of_initialization 3B04                 ??_FM_Lcd_Easy_Gpio_Init 0501  
                               fputc@fp 0503                                 fputs@fp 050C  
                    _read_prec_or_width 34D8                       __end_of_vfpfcnvrt 301A  
                               postdec2 04DD                     ?_read_prec_or_width 0507  
                               postinc0 04EE                                 postinc1 04E6  
                               postinc2 04DE                        vfpfcnvrt@convarg 052E  
                            ??_vfprintf 053C                  FM_Lcd_Set_Cursor@filas 0507  
                         ___xxtofl@sign 0509                    ??_read_prec_or_width 050B  
                           ___fldiv@grs 0522                             ___fldiv@rem 051B  
                           ___flmul@grs 0535                __end_of_FM_Lcd_Easy_Init 3A8C  
             FM_Lcd_Set_Cursor@base_pos 0508                        _FM_Hfintosc_Init 3A8C  
                           vfpfcnvrt@ap 052A                             vfpfcnvrt@cp 0534  
                           vfpfcnvrt@fp 0526                          __end_of___wmul 3AEE  
                   start_initialization 3AEE                             __end_of_pad 371A  
                      _Init_Gpio_System 3B46                FM_Lcd_Send_String@cadena 0506  
      __end_of_Init_Internal_Oscillator 3B20                             vfprintf@fmt 0538  
                              ??___wmul 0505                               ___fldiv@a 0513  
                             ___fldiv@b 050F                               ___flmul@a 052C  
                             ___flmul@b 0528                             __pbssCOMRAM 0557  
                      ___lwdiv@dividend 0501                   _FM_Lcd_Send_Character 3B2E  
                              ?___fldiv 050F                                ?___flmul 0528  
                   _FM_Lcd_Send_Command 3B3A                                ?___fltol 0541  
                     _FM_Lcd_Set_Cursor 39C4                                ?___lwdiv 0501  
                              ?___lwmod 0501                      ?_FM_Lcd_Set_Cursor 0506  
    FM_Lcd_Send_Command@command_to_send 0505                             __smallconst 2600  
                   ??_FM_Lcd_Set_Cursor 0507                        ___lwdiv@quotient 0505  
                  ?_FM_Lcd_Send_Command 0501                                ?_sprintf 053E  
                        ___wmul@product 0505           __end_of_FM_Lcd_Easy_Gpio_Init 3B2E  
             __end_of_FM_Lcd_Set_Cursor 3A08                _Init_Internal_Oscillator 3B0A  
                             _vfpfcnvrt 2DDC                       ___wmul@multiplier 0501  
                 ??_FM_Lcd_Send_Command 0505                __end_of_FM_Hfintosc_Init 3AC8  
                     ?_FM_Lcd_Easy_Init 0501                      ??_FM_Lcd_Easy_Init 0506  
               FM_Lcd_Send_String@index 050A                                __Hrparam 0000  
                ?_FM_Lcd_Send_Character 0501                              vfprintf@ap 053A  
                              __Lrparam 0000                              vfprintf@fp 0536  
                            ?_vfpfcnvrt 0526                __end_of_Init_Gpio_System 3B50  
                            sprintf@fmt 0540                                ___xxtofl 301A  
                       ___lwdiv@divisor 0503                         ___lwdiv@counter 0507  
                              __ptext10 3796                                __ptext11 34D8  
                              __ptext20 3A08                                __ptext12 3AC8  
                              __ptext21 39C4                                __ptext13 301A  
                              __ptext22 371A                                __ptext14 32E2  
                              __ptext23 3B2E                                __ptext15 2618  
                              __ptext24 3A4A                                __ptext16 2A42  
                              __ptext25 3B3A                                __ptext17 3B0A  
                              __ptext26 380A                                __ptext18 3A8C  
                              __ptext27 3B20                                __ptext19 3B46  
                      _Init_ADCC_Module 3A08                             _OSCCON1bits 00AD  
                       main@val_percent 0556                                isa$xinst 0000  
                              _vfprintf 38E2                               sprintf@ap 0544  
                      ___lwmod@dividend 0501          FM_Lcd_Send_Nibble@byte_to_send 0502  
                            _OSCFRQbits 00B1                             ??_vfpfcnvrt 052C  
                              sprintf@f 0546                                sprintf@s 053E  
                       ___lwmod@divisor 0503                         ___lwmod@counter 0505  
              FM_Lcd_Set_Cursor@columna 0506              ??_Init_Internal_Oscillator 0504  
          FM_Lcd_Send_Nibble@lower_bits 0504  
