

Microchip MPLAB XC8 Assembler V2.32 build 20210201212658 
                                                                                               Sun Jul 02 18:51:20 2023

Microchip MPLAB XC8 C Compiler v2.32 (Free license) build 20210201212658 Og1 
     1                           	processor	18F57Q43
     2                           	fnconf	rparam,??,?,0
     3                           	pagewidth 120
     4                           	opt	flic
     5                           	psect	smallconst,global,reloc=2,class=SMALLCONST,delta=1,noexec
     6                           	psect	cinit,global,reloc=2,class=CODE,delta=1
     7                           	psect	bssCOMRAM,global,class=COMRAM,space=1,delta=1,lowdata,noexec
     8                           	psect	bssBANK5,global,class=BANK5,space=1,delta=1,lowdata,noexec
     9                           	psect	cstackBANK5,global,class=BANK5,space=1,delta=1,lowdata,noexec
    10                           	psect	cstackCOMRAM,global,class=COMRAM,space=1,delta=1,lowdata,noexec
    11                           	psect	text0,global,reloc=2,class=CODE,delta=1
    12                           	psect	text1,global,reloc=2,class=CODE,delta=1,group=3
    13                           	psect	text2,global,reloc=2,class=CODE,delta=1,group=1
    14                           	psect	text3,global,reloc=2,class=CODE,delta=1,group=1
    15                           	psect	text4,global,reloc=2,class=CODE,delta=1,group=1
    16                           	psect	text5,global,reloc=2,class=CODE,delta=1,group=1
    17                           	psect	text6,global,reloc=2,class=CODE,delta=1,group=3
    18                           	psect	text7,global,reloc=2,class=CODE,delta=1,group=3
    19                           	psect	text8,global,reloc=2,class=CODE,delta=1,group=3
    20                           	psect	text9,global,reloc=2,class=CODE,delta=1,group=3
    21                           	psect	text10,global,reloc=2,class=CODE,delta=1,group=2
    22                           	psect	text11,global,reloc=2,class=CODE,delta=1,group=2
    23                           	psect	text12,global,reloc=2,class=CODE,delta=1,group=3
    24                           	psect	text13,global,reloc=2,class=CODE,delta=1,group=3
    25                           	psect	text14,global,reloc=2,class=CODE,delta=1,group=3
    26                           	psect	text15,global,reloc=2,class=CODE,delta=1,group=2
    27                           	psect	text16,global,reloc=2,class=CODE,delta=1,group=2
    28                           	psect	text17,global,reloc=2,class=CODE,delta=1,group=2
    29                           	psect	text18,global,reloc=2,class=CODE,delta=1,group=2
    30                           	psect	text19,global,reloc=2,class=CODE,delta=1,group=2
    31                           	psect	text20,global,reloc=2,class=CODE,delta=1
    32                           	psect	text21,global,reloc=2,class=CODE,delta=1
    33                           	psect	text22,global,reloc=2,class=CODE,delta=1
    34                           	psect	text23,global,reloc=2,class=CODE,delta=1
    35                           	psect	text24,global,reloc=2,class=CODE,delta=1
    36                           	psect	text25,global,reloc=2,class=CODE,delta=1
    37                           	psect	text26,global,reloc=2,class=CODE,delta=1
    38                           	psect	text27,global,reloc=2,class=CODE,delta=1
    39                           	psect	text28,global,reloc=2,class=CODE,delta=1
    40                           	psect	text29,global,reloc=2,class=CODE,delta=1
    41                           	psect	text30,global,reloc=2,class=CODE,delta=1
    42                           	psect	text31,global,reloc=2,class=CODE,delta=1
    43                           	psect	text32,global,reloc=2,class=CODE,delta=1
    44                           	psect	text33,global,reloc=2,class=CODE,delta=1
    45                           	psect	text34,global,reloc=2,class=CODE,delta=1
    46                           	psect	ivt0x8,global,reloc=2,class=CODE,delta=1,noexec,keep,optim=
    47                           	psect	intsave_regs,global,class=BIGRAM,space=1,delta=1,noexec
    48                           	psect	rparam,global,class=COMRAM,space=1,delta=1,noexec
    49                           	psect	idloc,global,abs,ovrld,class=IDLOC,space=5,delta=1,noexec
    50                           	psect	config,global,abs,ovrld,class=CONFIG,space=4,delta=1,noexec
    51  0000                     
    52                           ; Generated 17/06/2022 GMT
    53                           ; 
    54                           ; Copyright © 2022, Microchip Technology Inc. and its subsidiaries ("Microchip")
    55                           ; All rights reserved.
    56                           ; 
    57                           ; This software is developed by Microchip Technology Inc. and its subsidiaries ("Microch
      +                          ip").
    58                           ; 
    59                           ; Redistribution and use in source and binary forms, with or without modification, are
    60                           ; permitted provided that the following conditions are met:
    61                           ; 
    62                           ;     1. Redistributions of source code must retain the above copyright notice, this lis
      +                          t of
    63                           ;        conditions and the following disclaimer.
    64                           ; 
    65                           ;     2. Redistributions in binary form must reproduce the above copyright notice, this 
      +                          list
    66                           ;        of conditions and the following disclaimer in the documentation and/or other
    67                           ;        materials provided with the distribution. Publication is not required when
    68                           ;        this file is used in an embedded application.
    69                           ; 
    70                           ;     3. Microchip's name may not be used to endorse or promote products derived from th
      +                          is
    71                           ;        software without specific prior written permission.
    72                           ; 
    73                           ; THIS SOFTWARE IS PROVIDED BY MICROCHIP "AS IS" AND ANY EXPRESS OR IMPLIED WARRANTIES,
    74                           ; INCLUDING, BUT NOT LIMITED TO, THE IMPLIED WARRANTIES OF MERCHANTABILITY AND FITNESS F
      +                          OR
    75                           ; PURPOSE ARE DISCLAIMED.  IN NO EVENT SHALL MICROCHIP BE LIABLE FOR ANY DIRECT, INDIREC
      +                          T,
    76                           ; INCIDENTAL, SPECIAL, EXEMPLARY, OR CONSEQUENTIAL DAMAGES (INCLUDING BUT NOT LIMITED TO
    77                           ; PROCUREMENT OF SUBSTITUTE GOODS OR SERVICES; LOSS OF USE, DATA OR PROFITS; OR BUSINESS
    78                           ; INTERRUPTION) HOWSOEVER CAUSED AND ON ANY THEORY OF LIABILITY, WHETHER IN CONTRACT, ST
      +                          RICT
    79                           ; LIABILITY, OR TORT (INCLUDING NEGLIGENCE OR OTHERWISE) ARISING IN ANY WAY OUT OF THE U
      +                          SE OF
    80                           ; THIS SOFTWARE, EVEN IF ADVISED OF THE POSSIBILITY OF SUCH DAMAGE.
    81                           ; 
    82                           ; 
    83                           ; Code-generator required, PIC18F57Q43 Definitions
    84                           ; 
    85                           ; SFR Addresses
    86  0000                     _OSCFRQbits	set	177
    87  0000                     _OSCCON1bits	set	173
    88  0000                     _ADACQ	set	1006
    89  0000                     _ADPRE	set	1009
    90  0000                     _ADPCH	set	1004
    91  0000                     _ADREF	set	1016
    92  0000                     _ADCLK	set	1018
    93  0000                     _ADCON2	set	1013
    94  0000                     _ADCON1	set	1012
    95  0000                     _T0CON1	set	795
    96  0000                     _T0CON0	set	794
    97  0000                     _ADRESL	set	1002
    98  0000                     _ADRESH	set	1003
    99  0000                     _ADCON0	set	1011
   100  0000                     _TMR0	set	792
   101  0000                     _ANSELB	set	1032
   102  0000                     _ANSELF	set	1064
   103  0000                     _ANSELA	set	1024
   104  0000                     _TRISB	set	1223
   105  0000                     _TRISF	set	1227
   106  0000                     _TRISA	set	1222
   107  0000                     _PIE3	set	1185
   108  0000                     _PIE1	set	1183
   109  0000                     _INTCON0	set	1238
   110  0000                     _PIR1	set	1199
   111  0000                     _LATF	set	1219
   112  0000                     _PIR3	set	1201
   113                           
   114                           	psect	smallconst
   115  002500                     __psmallconst:
   116                           	callstack 0
   117  002500  00                 	db	0
   118  002501                     STR_2:
   119  002501  56                 	db	86	;'V'
   120  002502  3D                 	db	61	;'='
   121  002503  25                 	db	37
   122  002504  2D                 	db	45
   123  002505  33                 	db	51	;'3'
   124  002506  75                 	db	117	;'u'
   125  002507  25                 	db	37
   126  002508  25                 	db	37
   127  002509  20                 	db	32
   128  00250A  54                 	db	84	;'T'
   129  00250B  3D                 	db	61	;'='
   130  00250C  25                 	db	37
   131  00250D  2D                 	db	45
   132  00250E  33                 	db	51	;'3'
   133  00250F  75                 	db	117	;'u'
   134  002510  00                 	db	0
   135  002511                     STR_1:
   136  002511  50                 	db	80	;'P'
   137  002512  46                 	db	70	;'F'
   138  002513  20                 	db	32
   139  002514  4D                 	db	77	;'M'
   140  002515  4F                 	db	79	;'O'
   141  002516  54                 	db	84	;'T'
   142  002517  4F                 	db	79	;'O'
   143  002518  52                 	db	82	;'R'
   144  002519  20                 	db	32
   145  00251A  52                 	db	82	;'R'
   146  00251B  50                 	db	80	;'P'
   147  00251C  4D                 	db	77	;'M'
   148  00251D  00                 	db	0
   149  00251E  00                 	db	0	; dummy byte at the end
   150  0000                     
   151                           ; #config settings
   152                           
   153                           	psect	cinit
   154  0040C8                     __pcinit:
   155                           	callstack 0
   156  0040C8                     start_initialization:
   157                           	callstack 0
   158  0040C8                     __initialization:
   159                           	callstack 0
   160                           
   161                           ; Clear objects allocated to BANK5 (82 bytes)
   162  0040C8  EE01  F160         	lfsr	0,__pbssBANK5
   163  0040CC  0E52               	movlw	82
   164  0040CE                     clear_0:
   165  0040CE  6AEE               	clrf	postinc0,c
   166  0040D0  06E8               	decf	wreg,f,c
   167  0040D2  E1FD               	bnz	clear_0
   168                           
   169                           ; Clear objects allocated to COMRAM (1 bytes)
   170  0040D4  6A5F               	clrf	__pbssCOMRAM& (0+255),c
   171                           
   172                           ;
   173                           ; Setup IVTBASE
   174                           ;
   175  0040D6  0104               	movlb	4
   176  0040D8  0E08               	movlw	(ivt0x8_base shr 0)& (0+255)
   177  0040DA  6F5D               	movwf	93,b
   178  0040DC  0E00               	movlw	(ivt0x8_base shr (0+8))& (0+255)
   179  0040DE  6F5E               	movwf	94,b
   180  0040E0  0E00               	movlw	(ivt0x8_base shr (0+16))& (0+255)
   181  0040E2  6F5F               	movwf	95,b
   182  0040E4                     end_of_initialization:
   183                           	callstack 0
   184  0040E4                     __end_of__initialization:
   185                           	callstack 0
   186  0040E4  0100               	movlb	0
   187  0040E6  EF25  F01B         	goto	_main	;jump to C main() function
   188                           
   189                           	psect	bssCOMRAM
   190  00055F                     __pbssCOMRAM:
   191                           	callstack 0
   192  00055F                     _print_flag:
   193                           	callstack 0
   194  00055F                     	ds	1
   195                           
   196                           	psect	bssBANK5
   197  000560                     __pbssBANK5:
   198                           	callstack 0
   199  000560                     _rpm_counter:
   200                           	callstack 0
   201  000560                     	ds	8
   202  000568                     _led_counter:
   203                           	callstack 0
   204  000568                     	ds	8
   205  000570                     _nout:
   206                           	callstack 0
   207  000570                     	ds	2
   208  000572                     _width:
   209                           	callstack 0
   210  000572                     	ds	2
   211  000574                     _prec:
   212                           	callstack 0
   213  000574                     	ds	2
   214  000576                     _flags:
   215                           	callstack 0
   216  000576                     	ds	2
   217  000578                     _average_ms:
   218                           	callstack 0
   219  000578                     	ds	2
   220  00057A                     _sample_counter:
   221                           	callstack 0
   222  00057A                     	ds	2
   223  00057C                     _indicador_ms:
   224                           	callstack 0
   225  00057C                     	ds	2
   226  00057E                     _contador_ms:
   227                           	callstack 0
   228  00057E                     	ds	2
   229  000580                     _print_counter:
   230                           	callstack 0
   231  000580                     	ds	2
   232  000582                     _dbuf:
   233                           	callstack 0
   234  000582                     	ds	32
   235  0005A2                     _msj:
   236                           	callstack 0
   237  0005A2                     	ds	16
   238                           
   239                           	psect	cstackBANK5
   240  0005B2                     __pcstackBANK5:
   241                           	callstack 0
   242  0005B2                     ?_sprintf:
   243                           	callstack 0
   244  0005B2                     sprintf@s:
   245                           	callstack 0
   246                           
   247                           ; 2 bytes @ 0x0
   248  0005B2                     	ds	2
   249  0005B4                     sprintf@fmt:
   250                           	callstack 0
   251                           
   252                           ; 2 bytes @ 0x2
   253  0005B4                     	ds	6
   254  0005BA                     sprintf@ap:
   255                           	callstack 0
   256                           
   257                           ; 2 bytes @ 0x8
   258  0005BA                     	ds	2
   259  0005BC                     sprintf@f:
   260                           	callstack 0
   261                           
   262                           ; 6 bytes @ 0xA
   263  0005BC                     	ds	6
   264                           
   265                           	psect	cstackCOMRAM
   266  000501                     __pcstackCOMRAM:
   267                           	callstack 0
   268  000501                     ??_FM_Lcd_Send_Nibble:
   269  000501                     ?_strlen:
   270                           	callstack 0
   271  000501                     ?_isdigit:
   272                           	callstack 0
   273  000501                     ?_isspace:
   274                           	callstack 0
   275  000501                     ?___wmul:
   276                           	callstack 0
   277  000501                     ?___xxtofl:
   278                           	callstack 0
   279  000501                     ?___lodiv:
   280                           	callstack 0
   281  000501                     ?___lomod:
   282                           	callstack 0
   283  000501                     FM_Hfintosc_Init@clock_params:
   284                           	callstack 0
   285  000501                     ___wmul@multiplier:
   286                           	callstack 0
   287  000501                     isdigit@c:
   288                           	callstack 0
   289  000501                     isspace@c:
   290                           	callstack 0
   291  000501                     fputc@c:
   292                           	callstack 0
   293  000501                     strlen@s:
   294                           	callstack 0
   295  000501                     ___xxtofl@val:
   296                           	callstack 0
   297  000501                     ___lodiv@dividend:
   298                           	callstack 0
   299  000501                     ___lomod@dividend:
   300                           	callstack 0
   301                           
   302                           ; 8 bytes @ 0x0
   303  000501                     	ds	1
   304  000502                     FM_Lcd_Send_Nibble@byte_to_send:
   305                           	callstack 0
   306                           
   307                           ; 1 bytes @ 0x1
   308  000502                     	ds	1
   309  000503                     ??_FM_Hfintosc_Init:
   310  000503                     ??_isdigit:
   311  000503                     ??_isspace:
   312  000503                     FM_Lcd_Send_Nibble@upper_bits:
   313                           	callstack 0
   314  000503                     ___wmul@multiplicand:
   315                           	callstack 0
   316  000503                     fputc@fp:
   317                           	callstack 0
   318  000503                     strlen@a:
   319                           	callstack 0
   320                           
   321                           ; 2 bytes @ 0x2
   322  000503                     	ds	1
   323  000504                     FM_Lcd_Send_Nibble@lower_bits:
   324                           	callstack 0
   325  000504                     Init_Internal_Oscillator@my_clock:
   326                           	callstack 0
   327                           
   328                           ; 2 bytes @ 0x3
   329  000504                     	ds	1
   330  000505                     ??_fputc:
   331  000505                     ??___xxtofl:
   332  000505                     FM_Lcd_Send_Command@command_to_send:
   333                           	callstack 0
   334  000505                     FM_Lcd_Send_Character@character_to_send:
   335                           	callstack 0
   336  000505                     ___wmul@product:
   337                           	callstack 0
   338                           
   339                           ; 2 bytes @ 0x4
   340  000505                     	ds	1
   341  000506                     ??_FM_Lcd_Easy_Init:
   342  000506                     FM_Lcd_Set_Cursor@columna:
   343                           	callstack 0
   344  000506                     FM_Lcd_Send_String@cadena:
   345                           	callstack 0
   346                           
   347                           ; 2 bytes @ 0x5
   348  000506                     	ds	1
   349  000507                     FM_Lcd_Set_Cursor@filas:
   350                           	callstack 0
   351  000507                     _isspace$867:
   352                           	callstack 0
   353                           
   354                           ; 1 bytes @ 0x6
   355  000507                     	ds	1
   356  000508                     ??_FM_Lcd_Send_String:
   357  000508                     ?_atoi:
   358                           	callstack 0
   359  000508                     FM_Lcd_Set_Cursor@base_pos:
   360                           	callstack 0
   361  000508                     atoi@s:
   362                           	callstack 0
   363                           
   364                           ; 2 bytes @ 0x7
   365  000508                     	ds	1
   366  000509                     ___xxtofl@sign:
   367                           	callstack 0
   368  000509                     ___lodiv@divisor:
   369                           	callstack 0
   370  000509                     ___lomod@divisor:
   371                           	callstack 0
   372                           
   373                           ; 8 bytes @ 0x8
   374  000509                     	ds	1
   375  00050A                     ??_atoi:
   376  00050A                     FM_Lcd_Send_String@index:
   377                           	callstack 0
   378  00050A                     ___xxtofl@exp:
   379                           	callstack 0
   380  00050A                     fputs@s:
   381                           	callstack 0
   382                           
   383                           ; 2 bytes @ 0x9
   384  00050A                     	ds	1
   385  00050B                     ___xxtofl@arg:
   386                           	callstack 0
   387                           
   388                           ; 4 bytes @ 0xA
   389  00050B                     	ds	1
   390  00050C                     fputs@fp:
   391                           	callstack 0
   392                           
   393                           ; 2 bytes @ 0xB
   394  00050C                     	ds	2
   395  00050E                     fputs@c:
   396                           	callstack 0
   397  00050E                     atoi@neg:
   398                           	callstack 0
   399                           
   400                           ; 2 bytes @ 0xD
   401  00050E                     	ds	1
   402  00050F                     ?___fldiv:
   403                           	callstack 0
   404  00050F                     fputs@i:
   405                           	callstack 0
   406  00050F                     ___fldiv@b:
   407                           	callstack 0
   408                           
   409                           ; 4 bytes @ 0xE
   410  00050F                     	ds	1
   411  000510                     _atoi$849:
   412                           	callstack 0
   413                           
   414                           ; 2 bytes @ 0xF
   415  000510                     	ds	1
   416  000511                     ?_pad:
   417                           	callstack 0
   418  000511                     ___lomod@counter:
   419                           	callstack 0
   420  000511                     pad@fp:
   421                           	callstack 0
   422  000511                     ___lodiv@quotient:
   423                           	callstack 0
   424                           
   425                           ; 8 bytes @ 0x10
   426  000511                     	ds	1
   427  000512                     _atoi$851:
   428                           	callstack 0
   429                           
   430                           ; 2 bytes @ 0x11
   431  000512                     	ds	1
   432  000513                     pad@buf:
   433                           	callstack 0
   434  000513                     ___fldiv@a:
   435                           	callstack 0
   436                           
   437                           ; 4 bytes @ 0x12
   438  000513                     	ds	1
   439  000514                     _atoi$850:
   440                           	callstack 0
   441                           
   442                           ; 1 bytes @ 0x13
   443  000514                     	ds	1
   444  000515                     pad@p:
   445                           	callstack 0
   446  000515                     atoi@n:
   447                           	callstack 0
   448                           
   449                           ; 2 bytes @ 0x14
   450  000515                     	ds	2
   451  000517                     ??___fldiv:
   452  000517                     ??_pad:
   453                           
   454                           ; 1 bytes @ 0x16
   455  000517                     	ds	1
   456  000518                     pad@i:
   457                           	callstack 0
   458                           
   459                           ; 2 bytes @ 0x17
   460  000518                     	ds	1
   461  000519                     ___lodiv@counter:
   462                           	callstack 0
   463                           
   464                           ; 1 bytes @ 0x18
   465  000519                     	ds	1
   466  00051A                     pad@w:
   467                           	callstack 0
   468                           
   469                           ; 2 bytes @ 0x19
   470  00051A                     	ds	1
   471  00051B                     ___fldiv@rem:
   472                           	callstack 0
   473                           
   474                           ; 4 bytes @ 0x1A
   475  00051B                     	ds	1
   476  00051C                     ?_utoa:
   477                           	callstack 0
   478  00051C                     utoa@fp:
   479                           	callstack 0
   480                           
   481                           ; 2 bytes @ 0x1B
   482  00051C                     	ds	2
   483  00051E                     utoa@d:
   484                           	callstack 0
   485                           
   486                           ; 8 bytes @ 0x1D
   487  00051E                     	ds	1
   488  00051F                     ___fldiv@sign:
   489                           	callstack 0
   490                           
   491                           ; 1 bytes @ 0x1E
   492  00051F                     	ds	1
   493  000520                     ___fldiv@new_exp:
   494                           	callstack 0
   495                           
   496                           ; 2 bytes @ 0x1F
   497  000520                     	ds	2
   498  000522                     ___fldiv@grs:
   499                           	callstack 0
   500                           
   501                           ; 4 bytes @ 0x21
   502  000522                     	ds	4
   503  000526                     ??_utoa:
   504  000526                     ___fldiv@bexp:
   505                           	callstack 0
   506                           
   507                           ; 1 bytes @ 0x25
   508  000526                     	ds	1
   509  000527                     ___fldiv@aexp:
   510                           	callstack 0
   511                           
   512                           ; 1 bytes @ 0x26
   513  000527                     	ds	1
   514  000528                     ?___flmul:
   515                           	callstack 0
   516  000528                     ___flmul@b:
   517                           	callstack 0
   518                           
   519                           ; 4 bytes @ 0x27
   520  000528                     	ds	4
   521  00052C                     ___flmul@a:
   522                           	callstack 0
   523                           
   524                           ; 4 bytes @ 0x2B
   525  00052C                     	ds	2
   526  00052E                     utoa@p:
   527                           	callstack 0
   528                           
   529                           ; 2 bytes @ 0x2D
   530  00052E                     	ds	2
   531  000530                     ??___flmul:
   532  000530                     utoa@w:
   533                           	callstack 0
   534                           
   535                           ; 2 bytes @ 0x2F
   536  000530                     	ds	2
   537  000532                     utoa@n:
   538                           	callstack 0
   539                           
   540                           ; 8 bytes @ 0x31
   541  000532                     	ds	2
   542  000534                     ___flmul@sign:
   543                           	callstack 0
   544                           
   545                           ; 1 bytes @ 0x33
   546  000534                     	ds	1
   547  000535                     ___flmul@grs:
   548                           	callstack 0
   549                           
   550                           ; 4 bytes @ 0x34
   551  000535                     	ds	4
   552  000539                     ___flmul@aexp:
   553                           	callstack 0
   554                           
   555                           ; 1 bytes @ 0x38
   556  000539                     	ds	1
   557  00053A                     ___flmul@bexp:
   558                           	callstack 0
   559  00053A                     utoa@i:
   560                           	callstack 0
   561                           
   562                           ; 2 bytes @ 0x39
   563  00053A                     	ds	1
   564  00053B                     ___flmul@prod:
   565                           	callstack 0
   566                           
   567                           ; 4 bytes @ 0x3A
   568  00053B                     	ds	1
   569  00053C                     ?_vfpfcnvrt:
   570                           	callstack 0
   571  00053C                     vfpfcnvrt@fp:
   572                           	callstack 0
   573                           
   574                           ; 2 bytes @ 0x3B
   575  00053C                     	ds	2
   576  00053E                     vfpfcnvrt@fmt:
   577                           	callstack 0
   578                           
   579                           ; 2 bytes @ 0x3D
   580  00053E                     	ds	1
   581  00053F                     ___flmul@temp:
   582                           	callstack 0
   583                           
   584                           ; 2 bytes @ 0x3E
   585  00053F                     	ds	1
   586  000540                     vfpfcnvrt@ap:
   587                           	callstack 0
   588                           
   589                           ; 2 bytes @ 0x3F
   590  000540                     	ds	1
   591  000541                     ?___fltol:
   592                           	callstack 0
   593  000541                     ___fltol@f1:
   594                           	callstack 0
   595                           
   596                           ; 4 bytes @ 0x40
   597  000541                     	ds	1
   598  000542                     ??_vfpfcnvrt:
   599                           
   600                           ; 1 bytes @ 0x41
   601  000542                     	ds	3
   602  000545                     ??___fltol:
   603                           
   604                           ; 1 bytes @ 0x44
   605  000545                     	ds	1
   606  000546                     vfpfcnvrt@llu:
   607                           	callstack 0
   608                           
   609                           ; 8 bytes @ 0x45
   610  000546                     	ds	3
   611  000549                     ___fltol@sign1:
   612                           	callstack 0
   613                           
   614                           ; 1 bytes @ 0x48
   615  000549                     	ds	1
   616  00054A                     ___fltol@exp1:
   617                           	callstack 0
   618                           
   619                           ; 1 bytes @ 0x49
   620  00054A                     	ds	4
   621  00054E                     vfpfcnvrt@done:
   622                           	callstack 0
   623                           
   624                           ; 2 bytes @ 0x4D
   625  00054E                     	ds	2
   626  000550                     _vfpfcnvrt$831:
   627                           	callstack 0
   628                           
   629                           ; 2 bytes @ 0x4F
   630  000550                     	ds	2
   631  000552                     ?_vfprintf:
   632                           	callstack 0
   633  000552                     vfprintf@fp:
   634                           	callstack 0
   635                           
   636                           ; 2 bytes @ 0x51
   637  000552                     	ds	2
   638  000554                     vfprintf@fmt:
   639                           	callstack 0
   640                           
   641                           ; 2 bytes @ 0x53
   642  000554                     	ds	2
   643  000556                     vfprintf@ap:
   644                           	callstack 0
   645                           
   646                           ; 2 bytes @ 0x55
   647  000556                     	ds	2
   648  000558                     vfprintf@cfmt:
   649                           	callstack 0
   650                           
   651                           ; 2 bytes @ 0x57
   652  000558                     	ds	2
   653  00055A                     ??_main:
   654                           
   655                           ; 1 bytes @ 0x59
   656  00055A                     	ds	2
   657  00055C                     main@adc_val:
   658                           	callstack 0
   659                           
   660                           ; 2 bytes @ 0x5B
   661  00055C                     	ds	2
   662  00055E                     main@val_percent:
   663                           	callstack 0
   664                           
   665                           ; 1 bytes @ 0x5D
   666  00055E                     	ds	1
   667                           
   668 ;;
   669 ;;Main: autosize = 0, tempsize = 2, incstack = 0, save=0
   670 ;;
   671 ;; *************** function _main *****************
   672 ;; Defined at:
   673 ;;		line 84 in file "main.c"
   674 ;; Parameters:    Size  Location     Type
   675 ;;		None
   676 ;; Auto vars:     Size  Location     Type
   677 ;;  adc_val         2   91[COMRAM] unsigned short 
   678 ;;  val_percent     1   93[COMRAM] unsigned char 
   679 ;; Return value:  Size  Location     Type
   680 ;;                  2  103[None  ] int 
   681 ;; Registers used:
   682 ;;		wreg, fsr1l, fsr1h, fsr2l, fsr2h, status,2, status,0, tblptrl, tblptrh, tblptru, prodl, prodh, cstack
   683 ;; Tracked objects:
   684 ;;		On entry : 0/0
   685 ;;		On exit  : 0/0
   686 ;;		Unchanged: 0/0
   687 ;; Data sizes:     COMRAM   BANK5   BANK6   BANK7   BANK8   BANK9  BANK10  BANK11  BANK12  BANK13  BANK14  BANK15  BANK1
      +6  BANK17  BANK18  BANK19  BANK20  BANK21  BANK22  BANK23  BANK24  BANK25  BANK26  BANK27  BANK28  BANK29  BANK30  BANK3
      +1  BANK32  BANK33  BANK34  BANK35  BANK36
   688 ;;      Params:         0       0       0       0       0       0       0       0       0       0       0       0       
      +0       0       0       0       0       0       0       0       0       0       0       0       0       0       0       
      +0       0       0       0       0       0
   689 ;;      Locals:         3       0       0       0       0       0       0       0       0       0       0       0       
      +0       0       0       0       0       0       0       0       0       0       0       0       0       0       0       
      +0       0       0       0       0       0
   690 ;;      Temps:          2       0       0       0       0       0       0       0       0       0       0       0       
      +0       0       0       0       0       0       0       0       0       0       0       0       0       0       0       
      +0       0       0       0       0       0
   691 ;;      Totals:         5       0       0       0       0       0       0       0       0       0       0       0       
      +0       0       0       0       0       0       0       0       0       0       0       0       0       0       0       
      +0       0       0       0       0       0
   692 ;;Total ram usage:        5 bytes
   693 ;; Hardware stack levels required when called: 9
   694 ;; This function calls:
   695 ;;		_FM_Lcd_Send_String
   696 ;;		_FM_Lcd_Set_Cursor
   697 ;;		_System_Init
   698 ;;		___fldiv
   699 ;;		___flmul
   700 ;;		___fltol
   701 ;;		___xxtofl
   702 ;;		_sprintf
   703 ;; This function is called by:
   704 ;;		Startup code after reset
   705 ;; This function uses a non-reentrant model
   706 ;;
   707                           
   708                           	psect	text0
   709  00364A                     __ptext0:
   710                           	callstack 0
   711  00364A                     _main:
   712                           	callstack 118
   713  00364A                     
   714                           ;main.c: 86:     System_Init();
   715  00364A  EC84  F020         	call	_System_Init	;wreg free
   716  00364E                     
   717                           ;main.c: 88:     FM_Lcd_Set_Cursor(ROW_1, COL_3);
   718  00364E  0E02               	movlw	2
   719  003650  6E06               	movwf	FM_Lcd_Set_Cursor@columna^(0+1280),c
   720  003652  0E00               	movlw	0
   721  003654  EC92  F01F         	call	_FM_Lcd_Set_Cursor
   722  003658                     
   723                           ;main.c: 89:     FM_Lcd_Send_String("PF MOTOR RPM");
   724  003658  0E11               	movlw	low STR_1
   725  00365A  6E06               	movwf	FM_Lcd_Send_String@cadena^(0+1280),c
   726  00365C  0E25               	movlw	high STR_1
   727  00365E  6E07               	movwf	(FM_Lcd_Send_String@cadena+1)^(0+1280),c
   728  003660  EC6D  F01E         	call	_FM_Lcd_Send_String	;wreg free
   729  003664                     l2797:
   730                           
   731                           ;main.c: 93:         ADCON0 |= (1 << 0x0);
   732  003664  0103               	movlb	3	; () banked
   733  003666  81F3               	bsf	243,0,b	;volatile
   734  003668                     l105:
   735                           
   736                           ; BSR set to: 3
   737  003668  B1F3               	btfsc	243,0,b	;volatile
   738  00366A  EF39  F01B         	goto	u2401
   739  00366E  EF3B  F01B         	goto	u2400
   740  003672                     u2401:
   741  003672  EF34  F01B         	goto	l105
   742  003676                     u2400:
   743  003676                     
   744                           ; BSR set to: 3
   745                           ;main.c: 96:         uint16_t adc_val = (ADRESH << 8) | ADRESL;
   746  003676  51EA               	movf	234,w,b	;volatile
   747  003678  0060 FFAC  F55A    	movff	1003,??_main	;volatile
   748  00367E  6A5B               	clrf	(??_main+1)^(0+1280),c
   749  003680  C55A  F55B         	movff	??_main,??_main+1
   750  003684  6A5A               	clrf	??_main^(0+1280),c
   751  003686  105A               	iorwf	??_main^(0+1280),w,c
   752  003688  6E5C               	movwf	main@adc_val^(0+1280),c
   753  00368A  505B               	movf	(??_main+1)^(0+1280),w,c
   754  00368C  6E5D               	movwf	(main@adc_val+1)^(0+1280),c
   755  00368E                     
   756                           ; BSR set to: 3
   757                           ;main.c: 97:         uint8_t val_percent = ((float) adc_val / 4095.0) * 100.0;
   758  00368E  0E00               	movlw	0
   759  003690  6E2C               	movwf	___flmul@a^(0+1280),c
   760  003692  0E00               	movlw	0
   761  003694  6E2D               	movwf	(___flmul@a+1)^(0+1280),c
   762  003696  0EC8               	movlw	200
   763  003698  6E2E               	movwf	(___flmul@a+2)^(0+1280),c
   764  00369A  0E42               	movlw	66
   765  00369C  6E2F               	movwf	(___flmul@a+3)^(0+1280),c
   766  00369E  0E00               	movlw	0
   767  0036A0  6E13               	movwf	___fldiv@a^(0+1280),c
   768  0036A2  0EF0               	movlw	240
   769  0036A4  6E14               	movwf	(___fldiv@a+1)^(0+1280),c
   770  0036A6  0E7F               	movlw	127
   771  0036A8  6E15               	movwf	(___fldiv@a+2)^(0+1280),c
   772  0036AA  0E45               	movlw	69
   773  0036AC  6E16               	movwf	(___fldiv@a+3)^(0+1280),c
   774  0036AE  C55C  F501         	movff	main@adc_val,___xxtofl@val
   775  0036B2  C55D  F502         	movff	main@adc_val+1,___xxtofl@val+1
   776  0036B6  6A03               	clrf	(___xxtofl@val+2)^(0+1280),c
   777  0036B8  6A04               	clrf	(___xxtofl@val+3)^(0+1280),c
   778  0036BA  0E00               	movlw	0
   779  0036BC  EC4B  F01A         	call	___xxtofl
   780  0036C0  C501  F50F         	movff	?___xxtofl,___fldiv@b
   781  0036C4  C502  F510         	movff	?___xxtofl+1,___fldiv@b+1
   782  0036C8  C503  F511         	movff	?___xxtofl+2,___fldiv@b+2
   783  0036CC  C504  F512         	movff	?___xxtofl+3,___fldiv@b+3
   784  0036D0  ECA1  F016         	call	___fldiv	;wreg free
   785  0036D4  C50F  F528         	movff	?___fldiv,___flmul@b
   786  0036D8  C510  F529         	movff	?___fldiv+1,___flmul@b+1
   787  0036DC  C511  F52A         	movff	?___fldiv+2,___flmul@b+2
   788  0036E0  C512  F52B         	movff	?___fldiv+3,___flmul@b+3
   789  0036E4  EC90  F012         	call	___flmul	;wreg free
   790  0036E8  C528  F541         	movff	?___flmul,___fltol@f1
   791  0036EC  C529  F542         	movff	?___flmul+1,___fltol@f1+1
   792  0036F0  C52A  F543         	movff	?___flmul+2,___fltol@f1+2
   793  0036F4  C52B  F544         	movff	?___flmul+3,___fltol@f1+3
   794  0036F8  ECD2  F01B         	call	___fltol	;wreg free
   795  0036FC  5041               	movf	?___fltol^(0+1280),w,c
   796  0036FE  6E5E               	movwf	main@val_percent^(0+1280),c
   797  003700                     
   798                           ;main.c: 99:         INTCON0 &= ~(1 << 0x7);
   799  003700  9ED6               	bcf	214,7,c	;volatile
   800  003702                     
   801                           ;main.c: 100:         average_ms += contador_ms;
   802  003702  0105               	movlb	5	; () banked
   803  003704  517E               	movf	_contador_ms& (0+255),w,b	;volatile
   804  003706  2778               	addwf	_average_ms& (0+255),f,b	;volatile
   805  003708  517F               	movf	(_contador_ms+1)& (0+255),w,b	;volatile
   806  00370A  2379               	addwfc	(_average_ms+1)& (0+255),f,b	;volatile
   807  00370C                     
   808                           ; BSR set to: 5
   809                           ;main.c: 101:         sample_counter++;
   810  00370C  4B7A               	infsnz	_sample_counter& (0+255),f,b	;volatile
   811  00370E  2B7B               	incf	(_sample_counter+1)& (0+255),f,b	;volatile
   812  003710                     
   813                           ; BSR set to: 5
   814                           ;main.c: 103:         INTCON0 |= (1 << 0x7);
   815  003710  8ED6               	bsf	214,7,c	;volatile
   816  003712                     
   817                           ; BSR set to: 5
   818                           ;main.c: 104:         if(sample_counter >= 4)
   819  003712  517B               	movf	(_sample_counter+1)& (0+255),w,b	;volatile
   820  003714  E109               	bnz	u2410
   821  003716  0E04               	movlw	4
   822  003718  5D7A               	subwf	_sample_counter& (0+255),w,b	;volatile
   823  00371A  A0D8               	btfss	status,0,c
   824  00371C  EF92  F01B         	goto	u2411
   825  003720  EF94  F01B         	goto	u2410
   826  003724                     u2411:
   827  003724  EFAA  F01B         	goto	l2819
   828  003728                     u2410:
   829  003728                     
   830                           ; BSR set to: 5
   831                           ;main.c: 105:         {;main.c: 106:             indicador_ms = average_ms / 4;
   832  003728  C578  F55A         	movff	_average_ms,??_main	;volatile
   833  00372C  C579  F55B         	movff	_average_ms+1,??_main+1	;volatile
   834  003730  90D8               	bcf	status,0,c
   835  003732  325B               	rrcf	(??_main+1)^(0+1280),f,c
   836  003734  325A               	rrcf	??_main^(0+1280),f,c
   837  003736  90D8               	bcf	status,0,c
   838  003738  325B               	rrcf	(??_main+1)^(0+1280),f,c
   839  00373A  325A               	rrcf	??_main^(0+1280),f,c
   840  00373C  C55A  F57C         	movff	??_main,_indicador_ms	;volatile
   841  003740  C55B  F57D         	movff	??_main+1,_indicador_ms+1	;volatile
   842  003744                     
   843                           ; BSR set to: 5
   844                           ;main.c: 107:             sample_counter = 0;
   845  003744  0E00               	movlw	0
   846  003746  6F7B               	movwf	(_sample_counter+1)& (0+255),b	;volatile
   847  003748  0E00               	movlw	0
   848  00374A  6F7A               	movwf	_sample_counter& (0+255),b	;volatile
   849  00374C                     
   850                           ; BSR set to: 5
   851                           ;main.c: 108:             average_ms = 0;
   852  00374C  0E00               	movlw	0
   853  00374E  6F79               	movwf	(_average_ms+1)& (0+255),b	;volatile
   854  003750  0E00               	movlw	0
   855  003752  6F78               	movwf	_average_ms& (0+255),b	;volatile
   856  003754                     l2819:
   857                           
   858                           ; BSR set to: 5
   859                           ;main.c: 111:         if(print_flag)
   860  003754  505F               	movf	_print_flag^(0+1280),w,c
   861  003756  B4D8               	btfsc	status,2,c
   862  003758  EFB0  F01B         	goto	u2421
   863  00375C  EFB2  F01B         	goto	u2420
   864  003760                     u2421:
   865  003760  EF32  F01B         	goto	l2797
   866  003764                     u2420:
   867  003764                     
   868                           ; BSR set to: 5
   869                           ;main.c: 112:         {;main.c: 113:             sprintf(msj, "V=%-3u%% T=%-3u", val_per
      +                          cent, indicador_ms);
   870  003764  0EA2               	movlw	low _msj
   871  003766  6FB2               	movwf	sprintf@s& (0+255),b
   872  003768  0E05               	movlw	high _msj
   873  00376A  6FB3               	movwf	(sprintf@s+1)& (0+255),b
   874  00376C  0E01               	movlw	low STR_2
   875  00376E  6FB4               	movwf	sprintf@fmt& (0+255),b
   876  003770  0E25               	movlw	high STR_2
   877  003772  6FB5               	movwf	(sprintf@fmt+1)& (0+255),b
   878  003774  C55E  F5B6         	movff	main@val_percent,?_sprintf+4
   879  003778  6BB7               	clrf	(?_sprintf+5)& (0+255),b
   880  00377A  C57C  F5B8         	movff	_indicador_ms,?_sprintf+6	;volatile
   881  00377E  C57D  F5B9         	movff	_indicador_ms+1,?_sprintf+7	;volatile
   882  003782  EC1E  F01F         	call	_sprintf	;wreg free
   883  003786                     
   884                           ;main.c: 114:             FM_Lcd_Set_Cursor(ROW_2, COL_1);
   885  003786  0E00               	movlw	0
   886  003788  6E06               	movwf	FM_Lcd_Set_Cursor@columna^(0+1280),c
   887  00378A  0E01               	movlw	1
   888  00378C  EC92  F01F         	call	_FM_Lcd_Set_Cursor
   889  003790                     
   890                           ;main.c: 115:             FM_Lcd_Send_String(msj);
   891  003790  0EA2               	movlw	low _msj
   892  003792  6E06               	movwf	FM_Lcd_Send_String@cadena^(0+1280),c
   893  003794  0E05               	movlw	high _msj
   894  003796  6E07               	movwf	(FM_Lcd_Send_String@cadena+1)^(0+1280),c
   895  003798  EC6D  F01E         	call	_FM_Lcd_Send_String	;wreg free
   896  00379C  EF32  F01B         	goto	l2797
   897  0037A0  EF0D  F000         	goto	start
   898  0037A4                     __end_of_main:
   899                           	callstack 0
   900                           
   901 ;; *************** function _sprintf *****************
   902 ;; Defined at:
   903 ;;		line 9 in file "C:\Program Files\Microchip\xc8\v2.32\pic\sources\c99\common\nf_sprintf.c"
   904 ;; Parameters:    Size  Location     Type
   905 ;;  s               2    0[BANK5 ] PTR unsigned char 
   906 ;;		 -> msj(16), 
   907 ;;  fmt             2    2[BANK5 ] PTR const unsigned char 
   908 ;;		 -> STR_2(16), 
   909 ;; Auto vars:     Size  Location     Type
   910 ;;  f               6   10[BANK5 ] struct _IO_FILE
   911 ;;  ap              2    8[BANK5 ] PTR void [1]
   912 ;;		 -> ?_sprintf(2), 
   913 ;;  ret             2    0        int 
   914 ;; Return value:  Size  Location     Type
   915 ;;                  2    0[BANK5 ] int 
   916 ;; Registers used:
   917 ;;		wreg, fsr1l, fsr1h, fsr2l, fsr2h, status,2, status,0, tblptrl, tblptrh, tblptru, prodl, prodh, cstack
   918 ;; Tracked objects:
   919 ;;		On entry : 0/0
   920 ;;		On exit  : 0/0
   921 ;;		Unchanged: 0/0
   922 ;; Data sizes:     COMRAM   BANK5   BANK6   BANK7   BANK8   BANK9  BANK10  BANK11  BANK12  BANK13  BANK14  BANK15  BANK1
      +6  BANK17  BANK18  BANK19  BANK20  BANK21  BANK22  BANK23  BANK24  BANK25  BANK26  BANK27  BANK28  BANK29  BANK30  BANK3
      +1  BANK32  BANK33  BANK34  BANK35  BANK36
   923 ;;      Params:         0       8       0       0       0       0       0       0       0       0       0       0       
      +0       0       0       0       0       0       0       0       0       0       0       0       0       0       0       
      +0       0       0       0       0       0
   924 ;;      Locals:         0       8       0       0       0       0       0       0       0       0       0       0       
      +0       0       0       0       0       0       0       0       0       0       0       0       0       0       0       
      +0       0       0       0       0       0
   925 ;;      Temps:          0       0       0       0       0       0       0       0       0       0       0       0       
      +0       0       0       0       0       0       0       0       0       0       0       0       0       0       0       
      +0       0       0       0       0       0
   926 ;;      Totals:         0      16       0       0       0       0       0       0       0       0       0       0       
      +0       0       0       0       0       0       0       0       0       0       0       0       0       0       0       
      +0       0       0       0       0       0
   927 ;;Total ram usage:       16 bytes
   928 ;; Hardware stack levels used: 1
   929 ;; Hardware stack levels required when called: 8
   930 ;; This function calls:
   931 ;;		_vfprintf
   932 ;; This function is called by:
   933 ;;		_main
   934 ;; This function uses a non-reentrant model
   935 ;;
   936                           
   937                           	psect	text1
   938  003E3C                     __ptext1:
   939                           	callstack 0
   940  003E3C                     _sprintf:
   941                           	callstack 118
   942  003E3C  0EB6               	movlw	low (?_sprintf+4)
   943  003E3E  0105               	movlb	5	; () banked
   944  003E40  6FBA               	movwf	sprintf@ap& (0+255),b
   945  003E42  0E05               	movlw	high (?_sprintf+4)
   946  003E44  6FBB               	movwf	(sprintf@ap+1)& (0+255),b
   947  003E46  C5B2  F5BC         	movff	sprintf@s,sprintf@f
   948  003E4A  C5B3  F5BD         	movff	sprintf@s+1,sprintf@f+1
   949  003E4E                     
   950                           ; BSR set to: 5
   951  003E4E  0E00               	movlw	0
   952  003E50  6FBF               	movwf	(sprintf@f+3)& (0+255),b
   953  003E52  0E00               	movlw	0
   954  003E54  6FBE               	movwf	(sprintf@f+2)& (0+255),b
   955  003E56                     
   956                           ; BSR set to: 5
   957  003E56  0E00               	movlw	0
   958  003E58  6FC1               	movwf	(sprintf@f+5)& (0+255),b
   959  003E5A  0E00               	movlw	0
   960  003E5C  6FC0               	movwf	(sprintf@f+4)& (0+255),b
   961  003E5E                     
   962                           ; BSR set to: 5
   963  003E5E  0EBC               	movlw	low sprintf@f
   964  003E60  6E52               	movwf	vfprintf@fp^(0+1280),c
   965  003E62  0E05               	movlw	high sprintf@f
   966  003E64  6E53               	movwf	(vfprintf@fp+1)^(0+1280),c
   967  003E66  C5B4  F554         	movff	sprintf@fmt,vfprintf@fmt
   968  003E6A  C5B5  F555         	movff	sprintf@fmt+1,vfprintf@fmt+1
   969  003E6E  0EBA               	movlw	low sprintf@ap
   970  003E70  6E56               	movwf	vfprintf@ap^(0+1280),c
   971  003E72  0E05               	movlw	high sprintf@ap
   972  003E74  6E57               	movwf	(vfprintf@ap+1)^(0+1280),c
   973  003E76  ECE9  F01E         	call	_vfprintf	;wreg free
   974  003E7A  0105               	movlb	5	; () banked
   975  003E7C  51BE               	movf	(sprintf@f+2)& (0+255),w,b
   976  003E7E  25B2               	addwf	sprintf@s& (0+255),w,b
   977  003E80  6ED9               	movwf	fsr2l,c
   978  003E82  51BF               	movf	(sprintf@f+3)& (0+255),w,b
   979  003E84  21B3               	addwfc	(sprintf@s+1)& (0+255),w,b
   980  003E86  6EDA               	movwf	fsr2h,c
   981  003E88  0E00               	movlw	0
   982  003E8A  6EDF               	movwf	indf2,c
   983  003E8C                     
   984                           ; BSR set to: 5
   985  003E8C  0012               	return		;funcret
   986  003E8E                     __end_of_sprintf:
   987                           	callstack 0
   988                           
   989 ;; *************** function _vfprintf *****************
   990 ;; Defined at:
   991 ;;		line 1390 in file "C:\Program Files\Microchip\xc8\v2.32\pic\sources\c99\common\doprnt.c"
   992 ;; Parameters:    Size  Location     Type
   993 ;;  fp              2   81[COMRAM] PTR struct _IO_FILE
   994 ;;		 -> sprintf@f(6), 
   995 ;;  fmt             2   83[COMRAM] PTR const unsigned char 
   996 ;;		 -> STR_2(16), 
   997 ;;  ap              2   85[COMRAM] PTR PTR void 
   998 ;;		 -> sprintf@ap(2), 
   999 ;; Auto vars:     Size  Location     Type
  1000 ;;  cfmt            2   87[COMRAM] PTR unsigned char 
  1001 ;;		 -> STR_2(16), 
  1002 ;; Return value:  Size  Location     Type
  1003 ;;                  2   81[COMRAM] int 
  1004 ;; Registers used:
  1005 ;;		wreg, fsr1l, fsr1h, fsr2l, fsr2h, status,2, status,0, tblptrl, tblptrh, tblptru, prodl, prodh, cstack
  1006 ;; Tracked objects:
  1007 ;;		On entry : 0/0
  1008 ;;		On exit  : 0/0
  1009 ;;		Unchanged: 0/0
  1010 ;; Data sizes:     COMRAM   BANK5   BANK6   BANK7   BANK8   BANK9  BANK10  BANK11  BANK12  BANK13  BANK14  BANK15  BANK1
      +6  BANK17  BANK18  BANK19  BANK20  BANK21  BANK22  BANK23  BANK24  BANK25  BANK26  BANK27  BANK28  BANK29  BANK30  BANK3
      +1  BANK32  BANK33  BANK34  BANK35  BANK36
  1011 ;;      Params:         6       0       0       0       0       0       0       0       0       0       0       0       
      +0       0       0       0       0       0       0       0       0       0       0       0       0       0       0       
      +0       0       0       0       0       0
  1012 ;;      Locals:         2       0       0       0       0       0       0       0       0       0       0       0       
      +0       0       0       0       0       0       0       0       0       0       0       0       0       0       0       
      +0       0       0       0       0       0
  1013 ;;      Temps:          0       0       0       0       0       0       0       0       0       0       0       0       
      +0       0       0       0       0       0       0       0       0       0       0       0       0       0       0       
      +0       0       0       0       0       0
  1014 ;;      Totals:         8       0       0       0       0       0       0       0       0       0       0       0       
      +0       0       0       0       0       0       0       0       0       0       0       0       0       0       0       
      +0       0       0       0       0       0
  1015 ;;Total ram usage:        8 bytes
  1016 ;; Hardware stack levels used: 1
  1017 ;; Hardware stack levels required when called: 7
  1018 ;; This function calls:
  1019 ;;		_vfpfcnvrt
  1020 ;; This function is called by:
  1021 ;;		_sprintf
  1022 ;; This function uses a non-reentrant model
  1023 ;;
  1024                           
  1025                           	psect	text2
  1026  003DD2                     __ptext2:
  1027                           	callstack 0
  1028  003DD2                     _vfprintf:
  1029                           	callstack 118
  1030  003DD2                     
  1031                           ;C:\Program Files\Microchip\xc8\v2.32\pic\sources\c99\common\doprnt.c: 1390: int vfprint
      +                          f(FILE *fp, const char *fmt, va_list ap);C:\Program Files\Microchip\xc8\v2.32\pic\source
      +                          s\c99\common\doprnt.c: 1391: {;C:\Program Files\Microchip\xc8\v2.32\pic\sources\c99\comm
      +                          on\doprnt.c: 1393:     char *cfmt;;C:\Program Files\Microchip\xc8\v2.32\pic\sources\c99\
      +                          common\doprnt.c: 1395:     cfmt = (char *)fmt;
  1032  003DD2  C554  F558         	movff	vfprintf@fmt,vfprintf@cfmt
  1033  003DD6  C555  F559         	movff	vfprintf@fmt+1,vfprintf@cfmt+1
  1034  003DDA                     
  1035                           ;C:\Program Files\Microchip\xc8\v2.32\pic\sources\c99\common\doprnt.c: 1396:     nout = 
      +                          0;
  1036  003DDA  0E00               	movlw	0
  1037  003DDC  0105               	movlb	5	; () banked
  1038  003DDE  6F71               	movwf	(_nout+1)& (0+255),b
  1039  003DE0  0E00               	movlw	0
  1040  003DE2  6F70               	movwf	_nout& (0+255),b
  1041                           
  1042                           ;C:\Program Files\Microchip\xc8\v2.32\pic\sources\c99\common\doprnt.c: 1397:     while (
      +                          *cfmt) {
  1043  003DE4  EF07  F01F         	goto	l2355
  1044  003DE8                     l2353:
  1045                           
  1046                           ; BSR set to: 5
  1047                           ;C:\Program Files\Microchip\xc8\v2.32\pic\sources\c99\common\doprnt.c: 1398:         nou
      +                          t += vfpfcnvrt(fp, &cfmt, ap);
  1048  003DE8  C552  F53C         	movff	vfprintf@fp,vfpfcnvrt@fp
  1049  003DEC  C553  F53D         	movff	vfprintf@fp+1,vfpfcnvrt@fp+1
  1050  003DF0  0E58               	movlw	low vfprintf@cfmt
  1051  003DF2  6E3E               	movwf	vfpfcnvrt@fmt^(0+1280),c
  1052  003DF4  0E05               	movlw	high vfprintf@cfmt
  1053  003DF6  6E3F               	movwf	(vfpfcnvrt@fmt+1)^(0+1280),c
  1054  003DF8  C556  F540         	movff	vfprintf@ap,vfpfcnvrt@ap
  1055  003DFC  C557  F541         	movff	vfprintf@ap+1,vfpfcnvrt@ap+1
  1056  003E00  ECB7  F014         	call	_vfpfcnvrt	;wreg free
  1057  003E04  503C               	movf	?_vfpfcnvrt^(0+1280),w,c
  1058  003E06  0105               	movlb	5	; () banked
  1059  003E08  2770               	addwf	_nout& (0+255),f,b
  1060  003E0A  503D               	movf	(?_vfpfcnvrt+1)^(0+1280),w,c
  1061  003E0C  2371               	addwfc	(_nout+1)& (0+255),f,b
  1062  003E0E                     l2355:
  1063                           
  1064                           ; BSR set to: 5
  1065                           ;C:\Program Files\Microchip\xc8\v2.32\pic\sources\c99\common\doprnt.c: 1397:     while (
      +                          *cfmt) {
  1066  003E0E  0061  F560  F4F6   	movff	vfprintf@cfmt,tblptrl
  1067  003E14  0061  F564  F4F7   	movff	vfprintf@cfmt+1,tblptrh
  1068  003E1A                     	if	0	;tblptru may be non-zero
  1069  003E1A                     	endif
  1070  003E1A                     	if	1	;Program memory is > 0xFFFF, there are 3 active tblptr bytes
  1071  003E1A  0E00               	movlw	low (__mediumconst shr (0+16))
  1072  003E1C  6EF8               	movwf	tblptru,c
  1073  003E1E                     	endif
  1074  003E1E  0008               	tblrd		*
  1075  003E20  50F5               	movf	tablat,w,c
  1076  003E22  0900               	iorlw	0
  1077  003E24  A4D8               	btfss	status,2,c
  1078  003E26  EF17  F01F         	goto	u1671
  1079  003E2A  EF19  F01F         	goto	u1670
  1080  003E2E                     u1671:
  1081  003E2E  EFF4  F01E         	goto	l2353
  1082  003E32                     u1670:
  1083  003E32                     
  1084                           ; BSR set to: 5
  1085                           ;C:\Program Files\Microchip\xc8\v2.32\pic\sources\c99\common\doprnt.c: 1400:     return 
      +                          nout;
  1086  003E32  C570  F552         	movff	_nout,?_vfprintf
  1087  003E36  C571  F553         	movff	_nout+1,?_vfprintf+1
  1088  003E3A                     
  1089                           ; BSR set to: 5
  1090  003E3A  0012               	return		;funcret
  1091  003E3C                     __end_of_vfprintf:
  1092                           	callstack 0
  1093                           
  1094 ;; *************** function _vfpfcnvrt *****************
  1095 ;; Defined at:
  1096 ;;		line 692 in file "C:\Program Files\Microchip\xc8\v2.32\pic\sources\c99\common\doprnt.c"
  1097 ;; Parameters:    Size  Location     Type
  1098 ;;  fp              2   59[COMRAM] PTR struct _IO_FILE
  1099 ;;		 -> sprintf@f(6), 
  1100 ;;  fmt             2   61[COMRAM] PTR PTR unsigned char 
  1101 ;;		 -> vfprintf@cfmt(2), 
  1102 ;;  ap              2   63[COMRAM] PTR PTR void 
  1103 ;;		 -> sprintf@ap(2), 
  1104 ;; Auto vars:     Size  Location     Type
  1105 ;;  llu             8   69[COMRAM] unsigned long long 
  1106 ;;  ll              8    0        long long 
  1107 ;;  f               4    0        long long 
  1108 ;;  vp              3    0        PTR void 
  1109 ;;  ct              3    0        unsigned char [3]
  1110 ;;  cp              3    0        PTR unsigned char 
  1111 ;;  done            2   77[COMRAM] int 
  1112 ;;  i               2    0        int 
  1113 ;;  c               1    0        unsigned char 
  1114 ;; Return value:  Size  Location     Type
  1115 ;;                  2   59[COMRAM] int 
  1116 ;; Registers used:
  1117 ;;		wreg, fsr1l, fsr1h, fsr2l, fsr2h, status,2, status,0, tblptrl, tblptrh, tblptru, prodl, prodh, cstack
  1118 ;; Tracked objects:
  1119 ;;		On entry : 0/0
  1120 ;;		On exit  : 0/0
  1121 ;;		Unchanged: 0/0
  1122 ;; Data sizes:     COMRAM   BANK5   BANK6   BANK7   BANK8   BANK9  BANK10  BANK11  BANK12  BANK13  BANK14  BANK15  BANK1
      +6  BANK17  BANK18  BANK19  BANK20  BANK21  BANK22  BANK23  BANK24  BANK25  BANK26  BANK27  BANK28  BANK29  BANK30  BANK3
      +1  BANK32  BANK33  BANK34  BANK35  BANK36
  1123 ;;      Params:         6       0       0       0       0       0       0       0       0       0       0       0       
      +0       0       0       0       0       0       0       0       0       0       0       0       0       0       0       
      +0       0       0       0       0       0
  1124 ;;      Locals:        12       0       0       0       0       0       0       0       0       0       0       0       
      +0       0       0       0       0       0       0       0       0       0       0       0       0       0       0       
      +0       0       0       0       0       0
  1125 ;;      Temps:          4       0       0       0       0       0       0       0       0       0       0       0       
      +0       0       0       0       0       0       0       0       0       0       0       0       0       0       0       
      +0       0       0       0       0       0
  1126 ;;      Totals:        22       0       0       0       0       0       0       0       0       0       0       0       
      +0       0       0       0       0       0       0       0       0       0       0       0       0       0       0       
      +0       0       0       0       0       0
  1127 ;;Total ram usage:       22 bytes
  1128 ;; Hardware stack levels used: 1
  1129 ;; Hardware stack levels required when called: 6
  1130 ;; This function calls:
  1131 ;;		_atoi
  1132 ;;		_fputc
  1133 ;;		_isdigit
  1134 ;;		_utoa
  1135 ;; This function is called by:
  1136 ;;		_vfprintf
  1137 ;; This function uses a non-reentrant model
  1138 ;;
  1139                           
  1140                           	psect	text3
  1141  00296E                     __ptext3:
  1142                           	callstack 0
  1143  00296E                     _vfpfcnvrt:
  1144                           	callstack 118
  1145  00296E                     
  1146                           ;C:\Program Files\Microchip\xc8\v2.32\pic\sources\c99\common\doprnt.c: 692: static int v
      +                          fpfcnvrt(FILE *fp, char *fmt[], va_list ap);C:\Program Files\Microchip\xc8\v2.32\pic\sou
      +                          rces\c99\common\doprnt.c: 693: {;C:\Program Files\Microchip\xc8\v2.32\pic\sources\c99\co
      +                          mmon\doprnt.c: 694:     char c, *cp, ct[3];;C:\Program Files\Microchip\xc8\v2.32\pic\sou
      +                          rces\c99\common\doprnt.c: 695:     int done, i;;C:\Program Files\Microchip\xc8\v2.32\pic
      +                          \sources\c99\common\doprnt.c: 696:     long long ll;;C:\Program Files\Microchip\xc8\v2.3
      +                          2\pic\sources\c99\common\doprnt.c: 697:     unsigned long long llu;
  1147  00296E  0061  F4F8  F4D9   	movff	vfpfcnvrt@fmt,fsr2l
  1148  002974  0061  F4FC  F4DA   	movff	vfpfcnvrt@fmt+1,fsr2h
  1149  00297A  C4DE F4F6          	movff	postinc2,tblptrl
  1150  00297E  C4DD F4F7          	movff	postdec2,tblptrh
  1151  002982                     	if	0	;tblptru may be non-zero
  1152  002982                     	endif
  1153  002982                     	if	1	;Program memory is > 0xFFFF, there are 3 active tblptr bytes
  1154  002982  0E00               	movlw	low (__mediumconst shr (0+16))
  1155  002984  6EF8               	movwf	tblptru,c
  1156  002986                     	endif
  1157  002986  0008               	tblrd		*
  1158  002988  50F5               	movf	tablat,w,c
  1159  00298A  0A25               	xorlw	37
  1160  00298C  A4D8               	btfss	status,2,c
  1161  00298E  EFCB  F014         	goto	u1571
  1162  002992  EFCD  F014         	goto	u1570
  1163  002996                     u1571:
  1164  002996  EF7F  F016         	goto	l2245
  1165  00299A                     u1570:
  1166  00299A                     
  1167                           ;C:\Program Files\Microchip\xc8\v2.32\pic\sources\c99\common\doprnt.c: 703:         ++*f
      +                          mt;
  1168  00299A  0061  F4F8  F4D9   	movff	vfpfcnvrt@fmt,fsr2l
  1169  0029A0  0061  F4FC  F4DA   	movff	vfpfcnvrt@fmt+1,fsr2h
  1170  0029A6  2ADE               	incf	postinc2,f,c
  1171  0029A8  0E00               	movlw	0
  1172  0029AA  22DD               	addwfc	postdec2,f,c
  1173  0029AC                     
  1174                           ;C:\Program Files\Microchip\xc8\v2.32\pic\sources\c99\common\doprnt.c: 705:         flag
      +                          s = width = 0;
  1175  0029AC  0E00               	movlw	0
  1176  0029AE  0105               	movlb	5	; () banked
  1177  0029B0  6F73               	movwf	(_width+1)& (0+255),b
  1178  0029B2  0E00               	movlw	0
  1179  0029B4  6F72               	movwf	_width& (0+255),b
  1180  0029B6  C572  F576         	movff	_width,_flags
  1181  0029BA  C573  F577         	movff	_width+1,_flags+1
  1182  0029BE                     
  1183                           ; BSR set to: 5
  1184                           ;C:\Program Files\Microchip\xc8\v2.32\pic\sources\c99\common\doprnt.c: 706:         prec
      +                           = -1;
  1185  0029BE  6974               	setf	_prec& (0+255),b
  1186  0029C0  6975               	setf	(_prec+1)& (0+255),b
  1187  0029C2                     
  1188                           ; BSR set to: 5
  1189                           ;C:\Program Files\Microchip\xc8\v2.32\pic\sources\c99\common\doprnt.c: 710:         done
      +                           = 0;
  1190  0029C2  0E00               	movlw	0
  1191  0029C4  6E4F               	movwf	(vfpfcnvrt@done+1)^(0+1280),c
  1192  0029C6  0E00               	movlw	0
  1193  0029C8  6E4E               	movwf	vfpfcnvrt@done^(0+1280),c
  1194                           
  1195                           ;C:\Program Files\Microchip\xc8\v2.32\pic\sources\c99\common\doprnt.c: 711:         whil
      +                          e (!done) {
  1196  0029CA  EF38  F015         	goto	l2199
  1197  0029CE                     l2173:
  1198                           
  1199                           ;C:\Program Files\Microchip\xc8\v2.32\pic\sources\c99\common\doprnt.c: 714:             
      +                                  flags |= (1 << 0);
  1200  0029CE  0105               	movlb	5	; () banked
  1201  0029D0  8176               	bsf	_flags& (0+255),0,b
  1202  0029D2                     l2175:
  1203                           
  1204                           ; BSR set to: 5
  1205                           ;C:\Program Files\Microchip\xc8\v2.32\pic\sources\c99\common\doprnt.c: 715:             
      +                                  ++*fmt;
  1206  0029D2  0061  F4F8  F4D9   	movff	vfpfcnvrt@fmt,fsr2l
  1207  0029D8  0061  F4FC  F4DA   	movff	vfpfcnvrt@fmt+1,fsr2h
  1208  0029DE  2ADE               	incf	postinc2,f,c
  1209  0029E0  0E00               	movlw	0
  1210  0029E2  22DD               	addwfc	postdec2,f,c
  1211                           
  1212                           ;C:\Program Files\Microchip\xc8\v2.32\pic\sources\c99\common\doprnt.c: 716:             
      +                                  break;
  1213  0029E4  EF38  F015         	goto	l2199
  1214  0029E8                     l2177:
  1215                           
  1216                           ;C:\Program Files\Microchip\xc8\v2.32\pic\sources\c99\common\doprnt.c: 718:             
      +                                  flags |= (1 << 1);
  1217  0029E8  0105               	movlb	5	; () banked
  1218  0029EA  8376               	bsf	_flags& (0+255),1,b
  1219  0029EC  EFE9  F014         	goto	l2175
  1220  0029F0                     l2181:
  1221                           
  1222                           ;C:\Program Files\Microchip\xc8\v2.32\pic\sources\c99\common\doprnt.c: 722:             
      +                                  flags |= (1 << 2);
  1223  0029F0  0105               	movlb	5	; () banked
  1224  0029F2  8576               	bsf	_flags& (0+255),2,b
  1225  0029F4  EFE9  F014         	goto	l2175
  1226  0029F8                     l2185:
  1227                           
  1228                           ;C:\Program Files\Microchip\xc8\v2.32\pic\sources\c99\common\doprnt.c: 726:             
      +                                  flags |= (1 << 3);
  1229  0029F8  0105               	movlb	5	; () banked
  1230  0029FA  8776               	bsf	_flags& (0+255),3,b
  1231  0029FC  EFE9  F014         	goto	l2175
  1232  002A00                     l2189:
  1233                           
  1234                           ;C:\Program Files\Microchip\xc8\v2.32\pic\sources\c99\common\doprnt.c: 730:             
      +                                  flags |= (1 << 4);
  1235  002A00  0105               	movlb	5	; () banked
  1236  002A02  8976               	bsf	_flags& (0+255),4,b
  1237  002A04  EFE9  F014         	goto	l2175
  1238  002A08                     l2193:
  1239                           
  1240                           ;C:\Program Files\Microchip\xc8\v2.32\pic\sources\c99\common\doprnt.c: 734:             
      +                                  done = 1;
  1241  002A08  0E00               	movlw	0
  1242  002A0A  6E4F               	movwf	(vfpfcnvrt@done+1)^(0+1280),c
  1243  002A0C  0E01               	movlw	1
  1244  002A0E  6E4E               	movwf	vfpfcnvrt@done^(0+1280),c
  1245                           
  1246                           ;C:\Program Files\Microchip\xc8\v2.32\pic\sources\c99\common\doprnt.c: 735:             
      +                                  break;
  1247  002A10  EF38  F015         	goto	l2199
  1248  002A14                     l2197:
  1249  002A14  0061  F4F8  F4D9   	movff	vfpfcnvrt@fmt,fsr2l
  1250  002A1A  0061  F4FC  F4DA   	movff	vfpfcnvrt@fmt+1,fsr2h
  1251  002A20  C4DE F4F6          	movff	postinc2,tblptrl
  1252  002A24  C4DD F4F7          	movff	postdec2,tblptrh
  1253  002A28                     	if	0	;tblptru may be non-zero
  1254  002A28                     	endif
  1255  002A28                     	if	1	;Program memory is > 0xFFFF, there are 3 active tblptr bytes
  1256  002A28  0E00               	movlw	low (__mediumconst shr (0+16))
  1257  002A2A  6EF8               	movwf	tblptru,c
  1258  002A2C                     	endif
  1259  002A2C  0008               	tblrd		*
  1260  002A2E  50F5               	movf	tablat,w,c
  1261  002A30  6E42               	movwf	??_vfpfcnvrt^(0+1280),c
  1262  002A32  6A43               	clrf	(??_vfpfcnvrt+1)^(0+1280),c
  1263                           
  1264                           ; Switch on 2 bytes has been partitioned into a top level switch of size 1, and 1 sub-sw
      +                          itches
  1265                           ; Switch size 1, requested type "simple"
  1266                           ; Number of cases is 1, Range of values is 0 to 0
  1267                           ; switch strategies available:
  1268                           ; Name         Instructions Cycles
  1269                           ; simple_byte            4     3 (average)
  1270                           ;	Chosen strategy is simple_byte
  1271  002A34  5043               	movf	(??_vfpfcnvrt+1)^(0+1280),w,c
  1272  002A36  0A00               	xorlw	0	; case 0
  1273  002A38  B4D8               	btfsc	status,2,c
  1274  002A3A  EF21  F015         	goto	l2887
  1275  002A3E  EF04  F015         	goto	l2193
  1276  002A42                     l2887:
  1277                           
  1278                           ; Switch size 1, requested type "simple"
  1279                           ; Number of cases is 5, Range of values is 32 to 48
  1280                           ; switch strategies available:
  1281                           ; Name         Instructions Cycles
  1282                           ; simple_byte           16     9 (average)
  1283                           ;	Chosen strategy is simple_byte
  1284  002A42  5042               	movf	??_vfpfcnvrt^(0+1280),w,c
  1285  002A44  0A20               	xorlw	32	; case 32
  1286  002A46  B4D8               	btfsc	status,2,c
  1287  002A48  EFFC  F014         	goto	l2185
  1288  002A4C  0A03               	xorlw	3	; case 35
  1289  002A4E  B4D8               	btfsc	status,2,c
  1290  002A50  EF00  F015         	goto	l2189
  1291  002A54  0A08               	xorlw	8	; case 43
  1292  002A56  B4D8               	btfsc	status,2,c
  1293  002A58  EFF8  F014         	goto	l2181
  1294  002A5C  0A06               	xorlw	6	; case 45
  1295  002A5E  B4D8               	btfsc	status,2,c
  1296  002A60  EFE7  F014         	goto	l2173
  1297  002A64  0A1D               	xorlw	29	; case 48
  1298  002A66  B4D8               	btfsc	status,2,c
  1299  002A68  EFF4  F014         	goto	l2177
  1300  002A6C  EF04  F015         	goto	l2193
  1301  002A70                     l2199:
  1302                           
  1303                           ;C:\Program Files\Microchip\xc8\v2.32\pic\sources\c99\common\doprnt.c: 711:         whil
      +                          e (!done) {
  1304  002A70  504E               	movf	vfpfcnvrt@done^(0+1280),w,c
  1305  002A72  104F               	iorwf	(vfpfcnvrt@done+1)^(0+1280),w,c
  1306  002A74  B4D8               	btfsc	status,2,c
  1307  002A76  EF3F  F015         	goto	u1581
  1308  002A7A  EF41  F015         	goto	u1580
  1309  002A7E                     u1581:
  1310  002A7E  EF0A  F015         	goto	l2197
  1311  002A82                     u1580:
  1312  002A82                     
  1313                           ;C:\Program Files\Microchip\xc8\v2.32\pic\sources\c99\common\doprnt.c: 738:         if (
      +                          flags & (1 << 0)) {
  1314  002A82  0105               	movlb	5	; () banked
  1315  002A84  A176               	btfss	_flags& (0+255),0,b
  1316  002A86  EF47  F015         	goto	u1591
  1317  002A8A  EF49  F015         	goto	u1590
  1318  002A8E                     u1591:
  1319  002A8E  EF4A  F015         	goto	l2203
  1320  002A92                     u1590:
  1321  002A92                     
  1322                           ; BSR set to: 5
  1323                           ;C:\Program Files\Microchip\xc8\v2.32\pic\sources\c99\common\doprnt.c: 739:             
      +                          flags &= ~(1 << 1);
  1324  002A92  9376               	bcf	_flags& (0+255),1,b
  1325  002A94                     l2203:
  1326                           
  1327                           ; BSR set to: 5
  1328                           ;C:\Program Files\Microchip\xc8\v2.32\pic\sources\c99\common\doprnt.c: 745:         if (
      +                          (*fmt)[0] == '*') {
  1329  002A94  0061  F4F8  F4D9   	movff	vfpfcnvrt@fmt,fsr2l
  1330  002A9A  0061  F4FC  F4DA   	movff	vfpfcnvrt@fmt+1,fsr2h
  1331  002AA0  C4DE F4F6          	movff	postinc2,tblptrl
  1332  002AA4  C4DD F4F7          	movff	postdec2,tblptrh
  1333  002AA8                     	if	0	;tblptru may be non-zero
  1334  002AA8                     	endif
  1335  002AA8                     	if	1	;Program memory is > 0xFFFF, there are 3 active tblptr bytes
  1336  002AA8  0E00               	movlw	low (__mediumconst shr (0+16))
  1337  002AAA  6EF8               	movwf	tblptru,c
  1338  002AAC                     	endif
  1339  002AAC  0008               	tblrd		*
  1340  002AAE  50F5               	movf	tablat,w,c
  1341  002AB0  0A2A               	xorlw	42
  1342  002AB2  A4D8               	btfss	status,2,c
  1343  002AB4  EF5E  F015         	goto	u1601
  1344  002AB8  EF60  F015         	goto	u1600
  1345  002ABC                     u1601:
  1346  002ABC  EF93  F015         	goto	l2211
  1347  002AC0                     u1600:
  1348  002AC0                     
  1349                           ; BSR set to: 5
  1350                           ;C:\Program Files\Microchip\xc8\v2.32\pic\sources\c99\common\doprnt.c: 746:             
      +                          ++*fmt;
  1351  002AC0  0061  F4F8  F4D9   	movff	vfpfcnvrt@fmt,fsr2l
  1352  002AC6  0061  F4FC  F4DA   	movff	vfpfcnvrt@fmt+1,fsr2h
  1353  002ACC  2ADE               	incf	postinc2,f,c
  1354  002ACE  0E00               	movlw	0
  1355  002AD0  22DD               	addwfc	postdec2,f,c
  1356                           
  1357                           ;C:\Program Files\Microchip\xc8\v2.32\pic\sources\c99\common\doprnt.c: 747:             
      +                          width = (*(int *)__va_arg(*(int **)ap, (int)0));
  1358  002AD2  0061  F500  F4D9   	movff	vfpfcnvrt@ap,fsr2l
  1359  002AD8  0061  F504  F4DA   	movff	vfpfcnvrt@ap+1,fsr2h
  1360  002ADE  0061 F37C  F542    	movff	indf2,??_vfpfcnvrt
  1361  002AE4  0E02               	movlw	2
  1362  002AE6  26DE               	addwf	postinc2,f,c
  1363  002AE8  0061 F37C  F543    	movff	indf2,??_vfpfcnvrt+1
  1364  002AEE  0E00               	movlw	0
  1365  002AF0  22DD               	addwfc	postdec2,f,c
  1366  002AF2  0061  F508  F4D9   	movff	??_vfpfcnvrt,fsr2l
  1367  002AF8  0061  F50C  F4DA   	movff	??_vfpfcnvrt+1,fsr2h
  1368  002AFE  0061 F378  F572    	movff	postinc2,_width
  1369  002B04  0061 F374  F573    	movff	postdec2,_width+1
  1370  002B0A                     
  1371                           ; BSR set to: 5
  1372                           ;C:\Program Files\Microchip\xc8\v2.32\pic\sources\c99\common\doprnt.c: 748:             
      +                          if (width < 0) {
  1373  002B0A  BF73               	btfsc	(_width+1)& (0+255),7,b
  1374  002B0C  EF8C  F015         	goto	u1610
  1375  002B10  EF8A  F015         	goto	u1611
  1376  002B14                     u1611:
  1377  002B14  EFE0  F015         	goto	l2221
  1378  002B18                     u1610:
  1379  002B18                     
  1380                           ; BSR set to: 5
  1381                           ;C:\Program Files\Microchip\xc8\v2.32\pic\sources\c99\common\doprnt.c: 749:             
      +                              flags |= (1 << 0);
  1382  002B18  8176               	bsf	_flags& (0+255),0,b
  1383                           
  1384                           ;C:\Program Files\Microchip\xc8\v2.32\pic\sources\c99\common\doprnt.c: 750:             
      +                              width = -width;
  1385  002B1A  6D72               	negf	_width& (0+255),b
  1386  002B1C  1F73               	comf	(_width+1)& (0+255),f,b
  1387  002B1E  B0D8               	btfsc	status,0,c
  1388  002B20  2B73               	incf	(_width+1)& (0+255),f,b
  1389  002B22  EFE0  F015         	goto	l2221
  1390  002B26                     l2211:
  1391                           
  1392                           ; BSR set to: 5
  1393                           ;C:\Program Files\Microchip\xc8\v2.32\pic\sources\c99\common\doprnt.c: 753:             
      +                          width = atoi(*fmt);
  1394  002B26  0061  F4F8  F4D9   	movff	vfpfcnvrt@fmt,fsr2l
  1395  002B2C  0061  F4FC  F4DA   	movff	vfpfcnvrt@fmt+1,fsr2h
  1396  002B32  0061 F378  F508    	movff	postinc2,atoi@s
  1397  002B38  0061 F374  F509    	movff	postdec2,atoi@s+1
  1398  002B3E  EC6F  F019         	call	_atoi	;wreg free
  1399  002B42  C508  F572         	movff	?_atoi,_width
  1400  002B46  C509  F573         	movff	?_atoi+1,_width+1
  1401                           
  1402                           ;C:\Program Files\Microchip\xc8\v2.32\pic\sources\c99\common\doprnt.c: 754:             
      +                          while ((0 ? isdigit((*fmt)[0]) : ((unsigned)((*fmt)[0])-'0') < 10)) {
  1403  002B4A  EFB0  F015         	goto	l2215
  1404  002B4E                     l2213:
  1405                           
  1406                           ;C:\Program Files\Microchip\xc8\v2.32\pic\sources\c99\common\doprnt.c: 755:             
      +                              ++*fmt;
  1407  002B4E  0061  F4F8  F4D9   	movff	vfpfcnvrt@fmt,fsr2l
  1408  002B54  0061  F4FC  F4DA   	movff	vfpfcnvrt@fmt+1,fsr2h
  1409  002B5A  2ADE               	incf	postinc2,f,c
  1410  002B5C  0E00               	movlw	0
  1411  002B5E  22DD               	addwfc	postdec2,f,c
  1412  002B60                     l2215:
  1413  002B60  0ED0               	movlw	208
  1414  002B62  6E42               	movwf	??_vfpfcnvrt^(0+1280),c
  1415  002B64  0EFF               	movlw	255
  1416  002B66  6E43               	movwf	(??_vfpfcnvrt+1)^(0+1280),c
  1417  002B68  0061  F4F8  F4D9   	movff	vfpfcnvrt@fmt,fsr2l
  1418  002B6E  0061  F4FC  F4DA   	movff	vfpfcnvrt@fmt+1,fsr2h
  1419  002B74  C4DE F4F6          	movff	postinc2,tblptrl
  1420  002B78  C4DD F4F7          	movff	postdec2,tblptrh
  1421  002B7C                     	if	0	;tblptru may be non-zero
  1422  002B7C                     	endif
  1423  002B7C                     	if	1	;Program memory is > 0xFFFF, there are 3 active tblptr bytes
  1424  002B7C  0E00               	movlw	low (__mediumconst shr (0+16))
  1425  002B7E  6EF8               	movwf	tblptru,c
  1426  002B80                     	endif
  1427  002B80  0008               	tblrd		*
  1428  002B82  50F5               	movf	tablat,w,c
  1429  002B84  6E44               	movwf	(??_vfpfcnvrt+2)^(0+1280),c
  1430  002B86  6A45               	clrf	(??_vfpfcnvrt+3)^(0+1280),c
  1431  002B88  5042               	movf	??_vfpfcnvrt^(0+1280),w,c
  1432  002B8A  2644               	addwf	(??_vfpfcnvrt+2)^(0+1280),f,c
  1433  002B8C  5043               	movf	(??_vfpfcnvrt+1)^(0+1280),w,c
  1434  002B8E  2245               	addwfc	(??_vfpfcnvrt+3)^(0+1280),f,c
  1435  002B90  5045               	movf	(??_vfpfcnvrt+3)^(0+1280),w,c
  1436  002B92  E10A               	bnz	u1620
  1437  002B94  0E0A               	movlw	10
  1438  002B96  5C44               	subwf	(??_vfpfcnvrt+2)^(0+1280),w,c
  1439  002B98  A0D8               	btfss	status,0,c
  1440  002B9A  EFD1  F015         	goto	u1621
  1441  002B9E  EFD4  F015         	goto	u1620
  1442  002BA2                     u1621:
  1443  002BA2  0E01               	movlw	1
  1444  002BA4  EFD5  F015         	goto	u1630
  1445  002BA8                     u1620:
  1446  002BA8  0E00               	movlw	0
  1447  002BAA                     u1630:
  1448  002BAA  6E50               	movwf	_vfpfcnvrt$831^(0+1280),c
  1449  002BAC  6A51               	clrf	(_vfpfcnvrt$831+1)^(0+1280),c
  1450  002BAE  5050               	movf	_vfpfcnvrt$831^(0+1280),w,c
  1451  002BB0  1051               	iorwf	(_vfpfcnvrt$831+1)^(0+1280),w,c
  1452  002BB2  A4D8               	btfss	status,2,c
  1453  002BB4  EFDE  F015         	goto	u1641
  1454  002BB8  EFE0  F015         	goto	u1640
  1455  002BBC                     u1641:
  1456  002BBC  EFA7  F015         	goto	l2213
  1457  002BC0                     u1640:
  1458  002BC0                     l2221:
  1459                           
  1460                           ;C:\Program Files\Microchip\xc8\v2.32\pic\sources\c99\common\doprnt.c: 1204:         if 
      +                          (*fmt[0] == 'u') {
  1461  002BC0  0061  F4F8  F4D9   	movff	vfpfcnvrt@fmt,fsr2l
  1462  002BC6  0061  F4FC  F4DA   	movff	vfpfcnvrt@fmt+1,fsr2h
  1463  002BCC  C4DE F4F6          	movff	postinc2,tblptrl
  1464  002BD0  C4DD F4F7          	movff	postdec2,tblptrh
  1465  002BD4                     	if	0	;tblptru may be non-zero
  1466  002BD4                     	endif
  1467  002BD4                     	if	1	;Program memory is > 0xFFFF, there are 3 active tblptr bytes
  1468  002BD4  0E00               	movlw	low (__mediumconst shr (0+16))
  1469  002BD6  6EF8               	movwf	tblptru,c
  1470  002BD8                     	endif
  1471  002BD8  0008               	tblrd		*
  1472  002BDA  50F5               	movf	tablat,w,c
  1473  002BDC  0A75               	xorlw	117
  1474  002BDE  A4D8               	btfss	status,2,c
  1475  002BE0  EFF4  F015         	goto	u1651
  1476  002BE4  EFF6  F015         	goto	u1650
  1477  002BE8                     u1651:
  1478  002BE8  EF41  F016         	goto	l2229
  1479  002BEC                     u1650:
  1480  002BEC                     
  1481                           ;C:\Program Files\Microchip\xc8\v2.32\pic\sources\c99\common\doprnt.c: 1206:            
      +                           ++*fmt;
  1482  002BEC  0061  F4F8  F4D9   	movff	vfpfcnvrt@fmt,fsr2l
  1483  002BF2  0061  F4FC  F4DA   	movff	vfpfcnvrt@fmt+1,fsr2h
  1484  002BF8  2ADE               	incf	postinc2,f,c
  1485  002BFA  0E00               	movlw	0
  1486  002BFC  22DD               	addwfc	postdec2,f,c
  1487                           
  1488                           ;C:\Program Files\Microchip\xc8\v2.32\pic\sources\c99\common\doprnt.c: 1207:            
      +                           llu = (unsigned long long)(*(unsigned int *)__va_arg(*(unsigned int **)ap, (unsigned in
      +                          t)0));
  1489  002BFE  0061  F500  F4D9   	movff	vfpfcnvrt@ap,fsr2l
  1490  002C04  0061  F504  F4DA   	movff	vfpfcnvrt@ap+1,fsr2h
  1491  002C0A  0061 F37C  F542    	movff	indf2,??_vfpfcnvrt
  1492  002C10  0E02               	movlw	2
  1493  002C12  26DE               	addwf	postinc2,f,c
  1494  002C14  0061 F37C  F543    	movff	indf2,??_vfpfcnvrt+1
  1495  002C1A  0E00               	movlw	0
  1496  002C1C  22DD               	addwfc	postdec2,f,c
  1497  002C1E  0061  F508  F4D9   	movff	??_vfpfcnvrt,fsr2l
  1498  002C24  0061  F50C  F4DA   	movff	??_vfpfcnvrt+1,fsr2h
  1499  002C2A  0061 F378  F544    	movff	postinc2,??_vfpfcnvrt+2
  1500  002C30  0061 F374  F545    	movff	postdec2,??_vfpfcnvrt+3
  1501  002C36  C544  F546         	movff	??_vfpfcnvrt+2,vfpfcnvrt@llu
  1502  002C3A  C545  F547         	movff	??_vfpfcnvrt+3,vfpfcnvrt@llu+1
  1503  002C3E  6A48               	clrf	(vfpfcnvrt@llu+2)^(0+1280),c
  1504  002C40  6A49               	clrf	(vfpfcnvrt@llu+3)^(0+1280),c
  1505  002C42  6A4A               	clrf	(vfpfcnvrt@llu+4)^(0+1280),c
  1506  002C44  6A4B               	clrf	(vfpfcnvrt@llu+5)^(0+1280),c
  1507  002C46  6A4C               	clrf	(vfpfcnvrt@llu+6)^(0+1280),c
  1508  002C48  6A4D               	clrf	(vfpfcnvrt@llu+7)^(0+1280),c
  1509  002C4A                     
  1510                           ;C:\Program Files\Microchip\xc8\v2.32\pic\sources\c99\common\doprnt.c: 1209:            
      +                           return utoa(fp, llu);
  1511  002C4A  C53C  F51C         	movff	vfpfcnvrt@fp,utoa@fp
  1512  002C4E  C53D  F51D         	movff	vfpfcnvrt@fp+1,utoa@fp+1
  1513  002C52  C546  F51E         	movff	vfpfcnvrt@llu,utoa@d
  1514  002C56  C547  F51F         	movff	vfpfcnvrt@llu+1,utoa@d+1
  1515  002C5A  C548  F520         	movff	vfpfcnvrt@llu+2,utoa@d+2
  1516  002C5E  C549  F521         	movff	vfpfcnvrt@llu+3,utoa@d+3
  1517  002C62  C54A  F522         	movff	vfpfcnvrt@llu+4,utoa@d+4
  1518  002C66  C54B  F523         	movff	vfpfcnvrt@llu+5,utoa@d+5
  1519  002C6A  C54C  F524         	movff	vfpfcnvrt@llu+6,utoa@d+6
  1520  002C6E  C54D  F525         	movff	vfpfcnvrt@llu+7,utoa@d+7
  1521  002C72  EC6E  F018         	call	_utoa	;wreg free
  1522  002C76  C51C  F53C         	movff	?_utoa,?_vfpfcnvrt
  1523  002C7A  C51D  F53D         	movff	?_utoa+1,?_vfpfcnvrt+1
  1524  002C7E  EFA0  F016         	goto	l932
  1525  002C82                     l2229:
  1526                           
  1527                           ;C:\Program Files\Microchip\xc8\v2.32\pic\sources\c99\common\doprnt.c: 1372:         if 
      +                          ((*fmt)[0] == '%') {
  1528  002C82  0061  F4F8  F4D9   	movff	vfpfcnvrt@fmt,fsr2l
  1529  002C88  0061  F4FC  F4DA   	movff	vfpfcnvrt@fmt+1,fsr2h
  1530  002C8E  C4DE F4F6          	movff	postinc2,tblptrl
  1531  002C92  C4DD F4F7          	movff	postdec2,tblptrh
  1532  002C96                     	if	0	;tblptru may be non-zero
  1533  002C96                     	endif
  1534  002C96                     	if	1	;Program memory is > 0xFFFF, there are 3 active tblptr bytes
  1535  002C96  0E00               	movlw	low (__mediumconst shr (0+16))
  1536  002C98  6EF8               	movwf	tblptru,c
  1537  002C9A                     	endif
  1538  002C9A  0008               	tblrd		*
  1539  002C9C  50F5               	movf	tablat,w,c
  1540  002C9E  0A25               	xorlw	37
  1541  002CA0  A4D8               	btfss	status,2,c
  1542  002CA2  EF55  F016         	goto	u1661
  1543  002CA6  EF57  F016         	goto	u1660
  1544  002CAA                     u1661:
  1545  002CAA  EF70  F016         	goto	l2239
  1546  002CAE                     u1660:
  1547  002CAE                     
  1548                           ;C:\Program Files\Microchip\xc8\v2.32\pic\sources\c99\common\doprnt.c: 1373:            
      +                           ++*fmt;
  1549  002CAE  0061  F4F8  F4D9   	movff	vfpfcnvrt@fmt,fsr2l
  1550  002CB4  0061  F4FC  F4DA   	movff	vfpfcnvrt@fmt+1,fsr2h
  1551  002CBA  2ADE               	incf	postinc2,f,c
  1552  002CBC  0E00               	movlw	0
  1553  002CBE  22DD               	addwfc	postdec2,f,c
  1554  002CC0                     
  1555                           ;C:\Program Files\Microchip\xc8\v2.32\pic\sources\c99\common\doprnt.c: 1374:            
      +                           fputc((int)'%', fp);
  1556  002CC0  0E00               	movlw	0
  1557  002CC2  6E02               	movwf	(fputc@c+1)^(0+1280),c
  1558  002CC4  0E25               	movlw	37
  1559  002CC6  6E01               	movwf	fputc@c^(0+1280),c
  1560  002CC8  C53C  F503         	movff	vfpfcnvrt@fp,fputc@fp
  1561  002CCC  C53D  F504         	movff	vfpfcnvrt@fp+1,fputc@fp+1
  1562  002CD0  ECCD  F01C         	call	_fputc	;wreg free
  1563  002CD4                     l2235:
  1564                           
  1565                           ;C:\Program Files\Microchip\xc8\v2.32\pic\sources\c99\common\doprnt.c: 1375:            
      +                           return 1;
  1566  002CD4  0E00               	movlw	0
  1567  002CD6  6E3D               	movwf	(?_vfpfcnvrt+1)^(0+1280),c
  1568  002CD8  0E01               	movlw	1
  1569  002CDA  6E3C               	movwf	?_vfpfcnvrt^(0+1280),c
  1570  002CDC  EFA0  F016         	goto	l932
  1571  002CE0                     l2239:
  1572                           
  1573                           ;C:\Program Files\Microchip\xc8\v2.32\pic\sources\c99\common\doprnt.c: 1379:         ++*
      +                          fmt;
  1574  002CE0  0061  F4F8  F4D9   	movff	vfpfcnvrt@fmt,fsr2l
  1575  002CE6  0061  F4FC  F4DA   	movff	vfpfcnvrt@fmt+1,fsr2h
  1576  002CEC  2ADE               	incf	postinc2,f,c
  1577  002CEE  0E00               	movlw	0
  1578  002CF0  22DD               	addwfc	postdec2,f,c
  1579  002CF2                     
  1580                           ;C:\Program Files\Microchip\xc8\v2.32\pic\sources\c99\common\doprnt.c: 1380:         ret
      +                          urn 0;
  1581  002CF2  0E00               	movlw	0
  1582  002CF4  6E3D               	movwf	(?_vfpfcnvrt+1)^(0+1280),c
  1583  002CF6  0E00               	movlw	0
  1584  002CF8  6E3C               	movwf	?_vfpfcnvrt^(0+1280),c
  1585  002CFA  EFA0  F016         	goto	l932
  1586  002CFE                     l2245:
  1587                           
  1588                           ;C:\Program Files\Microchip\xc8\v2.32\pic\sources\c99\common\doprnt.c: 1384:     fputc((
      +                          int)(*fmt)[0], fp);
  1589  002CFE  0061  F4F8  F4D9   	movff	vfpfcnvrt@fmt,fsr2l
  1590  002D04  0061  F4FC  F4DA   	movff	vfpfcnvrt@fmt+1,fsr2h
  1591  002D0A  C4DE F4F6          	movff	postinc2,tblptrl
  1592  002D0E  C4DD F4F7          	movff	postdec2,tblptrh
  1593  002D12                     	if	0	;tblptru may be non-zero
  1594  002D12                     	endif
  1595  002D12                     	if	1	;Program memory is > 0xFFFF, there are 3 active tblptr bytes
  1596  002D12  0E00               	movlw	low (__mediumconst shr (0+16))
  1597  002D14  6EF8               	movwf	tblptru,c
  1598  002D16                     	endif
  1599  002D16  0008               	tblrd		*
  1600  002D18  50F5               	movf	tablat,w,c
  1601  002D1A  6E01               	movwf	fputc@c^(0+1280),c
  1602  002D1C  6A02               	clrf	(fputc@c+1)^(0+1280),c
  1603  002D1E  C53C  F503         	movff	vfpfcnvrt@fp,fputc@fp
  1604  002D22  C53D  F504         	movff	vfpfcnvrt@fp+1,fputc@fp+1
  1605  002D26  ECCD  F01C         	call	_fputc	;wreg free
  1606  002D2A                     
  1607                           ;C:\Program Files\Microchip\xc8\v2.32\pic\sources\c99\common\doprnt.c: 1385:     ++*fmt;
  1608  002D2A  0061  F4F8  F4D9   	movff	vfpfcnvrt@fmt,fsr2l
  1609  002D30  0061  F4FC  F4DA   	movff	vfpfcnvrt@fmt+1,fsr2h
  1610  002D36  2ADE               	incf	postinc2,f,c
  1611  002D38  0E00               	movlw	0
  1612  002D3A  22DD               	addwfc	postdec2,f,c
  1613  002D3C  EF6A  F016         	goto	l2235
  1614  002D40                     l932:
  1615  002D40  0012               	return		;funcret
  1616  002D42                     __end_of_vfpfcnvrt:
  1617                           	callstack 0
  1618                           
  1619 ;; *************** function _utoa *****************
  1620 ;; Defined at:
  1621 ;;		line 615 in file "C:\Program Files\Microchip\xc8\v2.32\pic\sources\c99\common\doprnt.c"
  1622 ;; Parameters:    Size  Location     Type
  1623 ;;  fp              2   27[COMRAM] PTR struct _IO_FILE
  1624 ;;		 -> sprintf@f(6), 
  1625 ;;  d               8   29[COMRAM] unsigned long long 
  1626 ;; Auto vars:     Size  Location     Type
  1627 ;;  n               8   49[COMRAM] unsigned long long 
  1628 ;;  i               2   57[COMRAM] int 
  1629 ;;  w               2   47[COMRAM] int 
  1630 ;;  p               2   45[COMRAM] int 
  1631 ;; Return value:  Size  Location     Type
  1632 ;;                  2   27[COMRAM] int 
  1633 ;; Registers used:
  1634 ;;		wreg, fsr1l, fsr1h, fsr2l, fsr2h, status,2, status,0, cstack
  1635 ;; Tracked objects:
  1636 ;;		On entry : 0/0
  1637 ;;		On exit  : 0/0
  1638 ;;		Unchanged: 0/0
  1639 ;; Data sizes:     COMRAM   BANK5   BANK6   BANK7   BANK8   BANK9  BANK10  BANK11  BANK12  BANK13  BANK14  BANK15  BANK1
      +6  BANK17  BANK18  BANK19  BANK20  BANK21  BANK22  BANK23  BANK24  BANK25  BANK26  BANK27  BANK28  BANK29  BANK30  BANK3
      +1  BANK32  BANK33  BANK34  BANK35  BANK36
  1640 ;;      Params:        10       0       0       0       0       0       0       0       0       0       0       0       
      +0       0       0       0       0       0       0       0       0       0       0       0       0       0       0       
      +0       0       0       0       0       0
  1641 ;;      Locals:        14       0       0       0       0       0       0       0       0       0       0       0       
      +0       0       0       0       0       0       0       0       0       0       0       0       0       0       0       
      +0       0       0       0       0       0
  1642 ;;      Temps:          8       0       0       0       0       0       0       0       0       0       0       0       
      +0       0       0       0       0       0       0       0       0       0       0       0       0       0       0       
      +0       0       0       0       0       0
  1643 ;;      Totals:        32       0       0       0       0       0       0       0       0       0       0       0       
      +0       0       0       0       0       0       0       0       0       0       0       0       0       0       0       
      +0       0       0       0       0       0
  1644 ;;Total ram usage:       32 bytes
  1645 ;; Hardware stack levels used: 1
  1646 ;; Hardware stack levels required when called: 5
  1647 ;; This function calls:
  1648 ;;		___lodiv
  1649 ;;		___lomod
  1650 ;;		_pad
  1651 ;; This function is called by:
  1652 ;;		_vfpfcnvrt
  1653 ;; This function uses a non-reentrant model
  1654 ;;
  1655                           
  1656                           	psect	text4
  1657  0030DC                     __ptext4:
  1658                           	callstack 0
  1659  0030DC                     _utoa:
  1660                           	callstack 118
  1661  0030DC                     
  1662                           ;C:\Program Files\Microchip\xc8\v2.32\pic\sources\c99\common\doprnt.c: 615: static int u
      +                          toa(FILE *fp, unsigned long long d);C:\Program Files\Microchip\xc8\v2.32\pic\sources\c99
      +                          \common\doprnt.c: 616: {;C:\Program Files\Microchip\xc8\v2.32\pic\sources\c99\common\dop
      +                          rnt.c: 617:     int i, p, w;;C:\Program Files\Microchip\xc8\v2.32\pic\sources\c99\common
      +                          \doprnt.c: 618:     unsigned long long n;;C:\Program Files\Microchip\xc8\v2.32\pic\sourc
      +                          es\c99\common\doprnt.c: 621:     if (!(prec < 0)) {
  1663  0030DC  0105               	movlb	5	; () banked
  1664  0030DE  BF75               	btfsc	(_prec+1)& (0+255),7,b
  1665  0030E0  EF74  F018         	goto	u1431
  1666  0030E4  EF76  F018         	goto	u1430
  1667  0030E8                     u1431:
  1668  0030E8  EF77  F018         	goto	l2075
  1669  0030EC                     u1430:
  1670  0030EC                     
  1671                           ; BSR set to: 5
  1672                           ;C:\Program Files\Microchip\xc8\v2.32\pic\sources\c99\common\doprnt.c: 622:         flag
      +                          s &= ~(1 << 1);
  1673  0030EC  9376               	bcf	_flags& (0+255),1,b
  1674  0030EE                     l2075:
  1675                           
  1676                           ; BSR set to: 5
  1677                           ;C:\Program Files\Microchip\xc8\v2.32\pic\sources\c99\common\doprnt.c: 624:     p = (0 <
      +                           prec) ? prec : 1;
  1678  0030EE  BF75               	btfsc	(_prec+1)& (0+255),7,b
  1679  0030F0  EF84  F018         	goto	u1440
  1680  0030F4  5175               	movf	(_prec+1)& (0+255),w,b
  1681  0030F6  E106               	bnz	u1441
  1682  0030F8  0574               	decf	_prec& (0+255),w,b
  1683  0030FA  B0D8               	btfsc	status,0,c
  1684  0030FC  EF82  F018         	goto	u1441
  1685  003100  EF84  F018         	goto	u1440
  1686  003104                     u1441:
  1687  003104  EF8A  F018         	goto	l895
  1688  003108                     u1440:
  1689  003108                     
  1690                           ; BSR set to: 5
  1691  003108  0E00               	movlw	0
  1692  00310A  6E2F               	movwf	(utoa@p+1)^(0+1280),c
  1693  00310C  0E01               	movlw	1
  1694  00310E  6E2E               	movwf	utoa@p^(0+1280),c
  1695  003110  EF8E  F018         	goto	l897
  1696  003114                     l895:
  1697                           
  1698                           ; BSR set to: 5
  1699  003114  C574  F52E         	movff	_prec,utoa@p
  1700  003118  C575  F52F         	movff	_prec+1,utoa@p+1
  1701  00311C                     l897:
  1702                           
  1703                           ; BSR set to: 5
  1704                           ;C:\Program Files\Microchip\xc8\v2.32\pic\sources\c99\common\doprnt.c: 625:     w = widt
      +                          h;
  1705  00311C  C572  F530         	movff	_width,utoa@w
  1706  003120  C573  F531         	movff	_width+1,utoa@w+1
  1707                           
  1708                           ;C:\Program Files\Microchip\xc8\v2.32\pic\sources\c99\common\doprnt.c: 628:     n = d;
  1709  003124  C51E  F532         	movff	utoa@d,utoa@n
  1710  003128  C51F  F533         	movff	utoa@d+1,utoa@n+1
  1711  00312C  C520  F534         	movff	utoa@d+2,utoa@n+2
  1712  003130  C521  F535         	movff	utoa@d+3,utoa@n+3
  1713  003134  C522  F536         	movff	utoa@d+4,utoa@n+4
  1714  003138  C523  F537         	movff	utoa@d+5,utoa@n+5
  1715  00313C  C524  F538         	movff	utoa@d+6,utoa@n+6
  1716  003140  C525  F539         	movff	utoa@d+7,utoa@n+7
  1717  003144                     
  1718                           ; BSR set to: 5
  1719                           ;C:\Program Files\Microchip\xc8\v2.32\pic\sources\c99\common\doprnt.c: 629:     i = size
      +                          of(dbuf) - 1;
  1720  003144  0E00               	movlw	0
  1721  003146  6E3B               	movwf	(utoa@i+1)^(0+1280),c
  1722  003148  0E1F               	movlw	31
  1723  00314A  6E3A               	movwf	utoa@i^(0+1280),c
  1724  00314C                     
  1725                           ; BSR set to: 5
  1726                           ;C:\Program Files\Microchip\xc8\v2.32\pic\sources\c99\common\doprnt.c: 630:     dbuf[i] 
      +                          = '\0';
  1727  00314C  0E00               	movlw	0
  1728  00314E  6FA1               	movwf	(_dbuf+31)& (0+255),b
  1729                           
  1730                           ;C:\Program Files\Microchip\xc8\v2.32\pic\sources\c99\common\doprnt.c: 631:     while (i
      +                           && (n || (0 < p) || ((0 < w) && (flags & (1 << 1))))) {
  1731  003150  EF20  F019         	goto	l2093
  1732  003154                     l2083:
  1733                           
  1734                           ;C:\Program Files\Microchip\xc8\v2.32\pic\sources\c99\common\doprnt.c: 632:         --i;
  1735  003154  063A               	decf	utoa@i^(0+1280),f,c
  1736  003156  A0D8               	btfss	status,0,c
  1737  003158  063B               	decf	(utoa@i+1)^(0+1280),f,c
  1738  00315A                     
  1739                           ;C:\Program Files\Microchip\xc8\v2.32\pic\sources\c99\common\doprnt.c: 633:         dbuf
      +                          [i] = '0' + (n % 10);
  1740  00315A  0E82               	movlw	low _dbuf
  1741  00315C  243A               	addwf	utoa@i^(0+1280),w,c
  1742  00315E  6ED9               	movwf	fsr2l,c
  1743  003160  0E05               	movlw	high _dbuf
  1744  003162  203B               	addwfc	(utoa@i+1)^(0+1280),w,c
  1745  003164  6EDA               	movwf	fsr2h,c
  1746  003166  C532  F501         	movff	utoa@n,___lomod@dividend
  1747  00316A  C533  F502         	movff	utoa@n+1,___lomod@dividend+1
  1748  00316E  C534  F503         	movff	utoa@n+2,___lomod@dividend+2
  1749  003172  C535  F504         	movff	utoa@n+3,___lomod@dividend+3
  1750  003176  C536  F505         	movff	utoa@n+4,___lomod@dividend+4
  1751  00317A  C537  F506         	movff	utoa@n+5,___lomod@dividend+5
  1752  00317E  C538  F507         	movff	utoa@n+6,___lomod@dividend+6
  1753  003182  C539  F508         	movff	utoa@n+7,___lomod@dividend+7
  1754  003186  0E0A               	movlw	10
  1755  003188  6E09               	movwf	___lomod@divisor^(0+1280),c
  1756  00318A  0E00               	movlw	0
  1757  00318C  6E0A               	movwf	(___lomod@divisor+1)^(0+1280),c
  1758  00318E  0E00               	movlw	0
  1759  003190  6E0B               	movwf	(___lomod@divisor+2)^(0+1280),c
  1760  003192  0E00               	movlw	0
  1761  003194  6E0C               	movwf	(___lomod@divisor+3)^(0+1280),c
  1762  003196  0E00               	movlw	0
  1763  003198  6E0D               	movwf	(___lomod@divisor+4)^(0+1280),c
  1764  00319A  0E00               	movlw	0
  1765  00319C  6E0E               	movwf	(___lomod@divisor+5)^(0+1280),c
  1766  00319E  0E00               	movlw	0
  1767  0031A0  6E0F               	movwf	(___lomod@divisor+6)^(0+1280),c
  1768  0031A2  0E00               	movlw	0
  1769  0031A4  6E10               	movwf	(___lomod@divisor+7)^(0+1280),c
  1770  0031A6  ECA2  F01D         	call	___lomod	;wreg free
  1771  0031AA  C501  F526         	movff	?___lomod,??_utoa
  1772  0031AE  C502  F527         	movff	?___lomod+1,??_utoa+1
  1773  0031B2  C503  F528         	movff	?___lomod+2,??_utoa+2
  1774  0031B6  C504  F529         	movff	?___lomod+3,??_utoa+3
  1775  0031BA  C505  F52A         	movff	?___lomod+4,??_utoa+4
  1776  0031BE  C506  F52B         	movff	?___lomod+5,??_utoa+5
  1777  0031C2  C507  F52C         	movff	?___lomod+6,??_utoa+6
  1778  0031C6  C508  F52D         	movff	?___lomod+7,??_utoa+7
  1779  0031CA  5026               	movf	??_utoa^(0+1280),w,c
  1780  0031CC  0F30               	addlw	48
  1781  0031CE  6EDF               	movwf	indf2,c
  1782  0031D0                     
  1783                           ;C:\Program Files\Microchip\xc8\v2.32\pic\sources\c99\common\doprnt.c: 634:         --p;
  1784  0031D0  062E               	decf	utoa@p^(0+1280),f,c
  1785  0031D2  A0D8               	btfss	status,0,c
  1786  0031D4  062F               	decf	(utoa@p+1)^(0+1280),f,c
  1787  0031D6                     
  1788                           ;C:\Program Files\Microchip\xc8\v2.32\pic\sources\c99\common\doprnt.c: 635:         --w;
  1789  0031D6  0630               	decf	utoa@w^(0+1280),f,c
  1790  0031D8  A0D8               	btfss	status,0,c
  1791  0031DA  0631               	decf	(utoa@w+1)^(0+1280),f,c
  1792  0031DC                     
  1793                           ;C:\Program Files\Microchip\xc8\v2.32\pic\sources\c99\common\doprnt.c: 636:         n = 
      +                          n / 10;
  1794  0031DC  C532  F501         	movff	utoa@n,___lodiv@dividend
  1795  0031E0  C533  F502         	movff	utoa@n+1,___lodiv@dividend+1
  1796  0031E4  C534  F503         	movff	utoa@n+2,___lodiv@dividend+2
  1797  0031E8  C535  F504         	movff	utoa@n+3,___lodiv@dividend+3
  1798  0031EC  C536  F505         	movff	utoa@n+4,___lodiv@dividend+4
  1799  0031F0  C537  F506         	movff	utoa@n+5,___lodiv@dividend+5
  1800  0031F4  C538  F507         	movff	utoa@n+6,___lodiv@dividend+6
  1801  0031F8  C539  F508         	movff	utoa@n+7,___lodiv@dividend+7
  1802  0031FC  0E0A               	movlw	10
  1803  0031FE  6E09               	movwf	___lodiv@divisor^(0+1280),c
  1804  003200  0E00               	movlw	0
  1805  003202  6E0A               	movwf	(___lodiv@divisor+1)^(0+1280),c
  1806  003204  0E00               	movlw	0
  1807  003206  6E0B               	movwf	(___lodiv@divisor+2)^(0+1280),c
  1808  003208  0E00               	movlw	0
  1809  00320A  6E0C               	movwf	(___lodiv@divisor+3)^(0+1280),c
  1810  00320C  0E00               	movlw	0
  1811  00320E  6E0D               	movwf	(___lodiv@divisor+4)^(0+1280),c
  1812  003210  0E00               	movlw	0
  1813  003212  6E0E               	movwf	(___lodiv@divisor+5)^(0+1280),c
  1814  003214  0E00               	movlw	0
  1815  003216  6E0F               	movwf	(___lodiv@divisor+6)^(0+1280),c
  1816  003218  0E00               	movlw	0
  1817  00321A  6E10               	movwf	(___lodiv@divisor+7)^(0+1280),c
  1818  00321C  EC55  F01C         	call	___lodiv	;wreg free
  1819  003220  C501  F532         	movff	?___lodiv,utoa@n
  1820  003224  C502  F533         	movff	?___lodiv+1,utoa@n+1
  1821  003228  C503  F534         	movff	?___lodiv+2,utoa@n+2
  1822  00322C  C504  F535         	movff	?___lodiv+3,utoa@n+3
  1823  003230  C505  F536         	movff	?___lodiv+4,utoa@n+4
  1824  003234  C506  F537         	movff	?___lodiv+5,utoa@n+5
  1825  003238  C507  F538         	movff	?___lodiv+6,utoa@n+6
  1826  00323C  C508  F539         	movff	?___lodiv+7,utoa@n+7
  1827  003240                     l2093:
  1828                           
  1829                           ;C:\Program Files\Microchip\xc8\v2.32\pic\sources\c99\common\doprnt.c: 631:     while (i
      +                           && (n || (0 < p) || ((0 < w) && (flags & (1 << 1))))) {
  1830  003240  503A               	movf	utoa@i^(0+1280),w,c
  1831  003242  103B               	iorwf	(utoa@i+1)^(0+1280),w,c
  1832  003244  B4D8               	btfsc	status,2,c
  1833  003246  EF27  F019         	goto	u1451
  1834  00324A  EF29  F019         	goto	u1450
  1835  00324E                     u1451:
  1836  00324E  EF5A  F019         	goto	l2103
  1837  003252                     u1450:
  1838  003252  5032               	movf	utoa@n^(0+1280),w,c
  1839  003254  1033               	iorwf	(utoa@n+1)^(0+1280),w,c
  1840  003256  1034               	iorwf	(utoa@n+2)^(0+1280),w,c
  1841  003258  1035               	iorwf	(utoa@n+3)^(0+1280),w,c
  1842  00325A  1036               	iorwf	(utoa@n+4)^(0+1280),w,c
  1843  00325C  1037               	iorwf	(utoa@n+5)^(0+1280),w,c
  1844  00325E  1038               	iorwf	(utoa@n+6)^(0+1280),w,c
  1845  003260  1039               	iorwf	(utoa@n+7)^(0+1280),w,c
  1846  003262  A4D8               	btfss	status,2,c
  1847  003264  EF36  F019         	goto	u1461
  1848  003268  EF38  F019         	goto	u1460
  1849  00326C                     u1461:
  1850  00326C  EFAA  F018         	goto	l2083
  1851  003270                     u1460:
  1852  003270  BE2F               	btfsc	(utoa@p+1)^(0+1280),7,c
  1853  003272  EF45  F019         	goto	u1470
  1854  003276  502F               	movf	(utoa@p+1)^(0+1280),w,c
  1855  003278  E106               	bnz	u1471
  1856  00327A  042E               	decf	utoa@p^(0+1280),w,c
  1857  00327C  B0D8               	btfsc	status,0,c
  1858  00327E  EF43  F019         	goto	u1471
  1859  003282  EF45  F019         	goto	u1470
  1860  003286                     u1471:
  1861  003286  EFAA  F018         	goto	l2083
  1862  00328A                     u1470:
  1863  00328A  BE31               	btfsc	(utoa@w+1)^(0+1280),7,c
  1864  00328C  EF50  F019         	goto	u1481
  1865  003290  5031               	movf	(utoa@w+1)^(0+1280),w,c
  1866  003292  E108               	bnz	u1480
  1867  003294  0430               	decf	utoa@w^(0+1280),w,c
  1868  003296  A0D8               	btfss	status,0,c
  1869  003298  EF50  F019         	goto	u1481
  1870  00329C  EF52  F019         	goto	u1480
  1871  0032A0                     u1481:
  1872  0032A0  EF5A  F019         	goto	l2103
  1873  0032A4                     u1480:
  1874  0032A4  0105               	movlb	5	; () banked
  1875  0032A6  B376               	btfsc	_flags& (0+255),1,b
  1876  0032A8  EF58  F019         	goto	u1491
  1877  0032AC  EF5A  F019         	goto	u1490
  1878  0032B0                     u1491:
  1879  0032B0  EFAA  F018         	goto	l2083
  1880  0032B4                     u1490:
  1881  0032B4                     l2103:
  1882                           
  1883                           ;C:\Program Files\Microchip\xc8\v2.32\pic\sources\c99\common\doprnt.c: 640:     return p
      +                          ad(fp, &dbuf[i], w);
  1884  0032B4  C51C  F511         	movff	utoa@fp,pad@fp
  1885  0032B8  C51D  F512         	movff	utoa@fp+1,pad@fp+1
  1886  0032BC  0E82               	movlw	low _dbuf
  1887  0032BE  243A               	addwf	utoa@i^(0+1280),w,c
  1888  0032C0  6E13               	movwf	pad@buf^(0+1280),c
  1889  0032C2  0E05               	movlw	high _dbuf
  1890  0032C4  203B               	addwfc	(utoa@i+1)^(0+1280),w,c
  1891  0032C6  6E14               	movwf	(pad@buf+1)^(0+1280),c
  1892  0032C8  C530  F515         	movff	utoa@w,pad@p
  1893  0032CC  C531  F516         	movff	utoa@w+1,pad@p+1
  1894  0032D0  EC0A  F01E         	call	_pad	;wreg free
  1895  0032D4  C511  F51C         	movff	?_pad,?_utoa
  1896  0032D8  C512  F51D         	movff	?_pad+1,?_utoa+1
  1897  0032DC  0012               	return		;funcret
  1898  0032DE                     __end_of_utoa:
  1899                           	callstack 0
  1900                           
  1901 ;; *************** function _pad *****************
  1902 ;; Defined at:
  1903 ;;		line 72 in file "C:\Program Files\Microchip\xc8\v2.32\pic\sources\c99\common\doprnt.c"
  1904 ;; Parameters:    Size  Location     Type
  1905 ;;  fp              2   16[COMRAM] PTR struct _IO_FILE
  1906 ;;		 -> sprintf@f(6), 
  1907 ;;  buf             2   18[COMRAM] PTR unsigned char 
  1908 ;;		 -> dbuf(32), 
  1909 ;;  p               2   20[COMRAM] int 
  1910 ;; Auto vars:     Size  Location     Type
  1911 ;;  w               2   25[COMRAM] int 
  1912 ;;  i               2   23[COMRAM] int 
  1913 ;; Return value:  Size  Location     Type
  1914 ;;                  2   16[COMRAM] int 
  1915 ;; Registers used:
  1916 ;;		wreg, fsr1l, fsr1h, fsr2l, fsr2h, status,2, status,0, cstack
  1917 ;; Tracked objects:
  1918 ;;		On entry : 0/0
  1919 ;;		On exit  : 0/0
  1920 ;;		Unchanged: 0/0
  1921 ;; Data sizes:     COMRAM   BANK5   BANK6   BANK7   BANK8   BANK9  BANK10  BANK11  BANK12  BANK13  BANK14  BANK15  BANK1
      +6  BANK17  BANK18  BANK19  BANK20  BANK21  BANK22  BANK23  BANK24  BANK25  BANK26  BANK27  BANK28  BANK29  BANK30  BANK3
      +1  BANK32  BANK33  BANK34  BANK35  BANK36
  1922 ;;      Params:         6       0       0       0       0       0       0       0       0       0       0       0       
      +0       0       0       0       0       0       0       0       0       0       0       0       0       0       0       
      +0       0       0       0       0       0
  1923 ;;      Locals:         4       0       0       0       0       0       0       0       0       0       0       0       
      +0       0       0       0       0       0       0       0       0       0       0       0       0       0       0       
      +0       0       0       0       0       0
  1924 ;;      Temps:          1       0       0       0       0       0       0       0       0       0       0       0       
      +0       0       0       0       0       0       0       0       0       0       0       0       0       0       0       
      +0       0       0       0       0       0
  1925 ;;      Totals:        11       0       0       0       0       0       0       0       0       0       0       0       
      +0       0       0       0       0       0       0       0       0       0       0       0       0       0       0       
      +0       0       0       0       0       0
  1926 ;;Total ram usage:       11 bytes
  1927 ;; Hardware stack levels used: 1
  1928 ;; Hardware stack levels required when called: 4
  1929 ;; This function calls:
  1930 ;;		_fputc
  1931 ;;		_fputs
  1932 ;;		_strlen
  1933 ;; This function is called by:
  1934 ;;		_utoa
  1935 ;; This function uses a non-reentrant model
  1936 ;;
  1937                           
  1938                           	psect	text5
  1939  003C14                     __ptext5:
  1940                           	callstack 0
  1941  003C14                     _pad:
  1942                           	callstack 118
  1943  003C14                     
  1944                           ;C:\Program Files\Microchip\xc8\v2.32\pic\sources\c99\common\doprnt.c: 72: static int pa
      +                          d(FILE *fp, char *buf, int p);C:\Program Files\Microchip\xc8\v2.32\pic\sources\c99\commo
      +                          n\doprnt.c: 73: {;C:\Program Files\Microchip\xc8\v2.32\pic\sources\c99\common\doprnt.c: 
      +                          74:     int i, w;;C:\Program Files\Microchip\xc8\v2.32\pic\sources\c99\common\doprnt.c: 
      +                          77:     if (flags & (1 << 0)) {
  1945  003C14  0105               	movlb	5	; () banked
  1946  003C16  A176               	btfss	_flags& (0+255),0,b
  1947  003C18  EF10  F01E         	goto	u1351
  1948  003C1C  EF12  F01E         	goto	u1350
  1949  003C20                     u1351:
  1950  003C20  EF1C  F01E         	goto	l2019
  1951  003C24                     u1350:
  1952  003C24                     
  1953                           ; BSR set to: 5
  1954                           ;C:\Program Files\Microchip\xc8\v2.32\pic\sources\c99\common\doprnt.c: 78:         fputs
      +                          ((const char *)buf, fp);
  1955  003C24  C513  F50A         	movff	pad@buf,fputs@s
  1956  003C28  C514  F50B         	movff	pad@buf+1,fputs@s+1
  1957  003C2C  C511  F50C         	movff	pad@fp,fputs@fp
  1958  003C30  C512  F50D         	movff	pad@fp+1,fputs@fp+1
  1959  003C34  EC70  F01F         	call	_fputs	;wreg free
  1960  003C38                     l2019:
  1961                           
  1962                           ;C:\Program Files\Microchip\xc8\v2.32\pic\sources\c99\common\doprnt.c: 82:     w = (p < 
      +                          0) ? 0 : p;
  1963  003C38  BE16               	btfsc	(pad@p+1)^(0+1280),7,c
  1964  003C3A  EF21  F01E         	goto	u1361
  1965  003C3E  EF23  F01E         	goto	u1360
  1966  003C42                     u1361:
  1967  003C42  EF29  F01E         	goto	l2023
  1968  003C46                     u1360:
  1969  003C46  C515  F51A         	movff	pad@p,pad@w
  1970  003C4A  C516  F51B         	movff	pad@p+1,pad@w+1
  1971  003C4E  EF2D  F01E         	goto	l885
  1972  003C52                     l2023:
  1973  003C52  0E00               	movlw	0
  1974  003C54  6E1B               	movwf	(pad@w+1)^(0+1280),c
  1975  003C56  0E00               	movlw	0
  1976  003C58  6E1A               	movwf	pad@w^(0+1280),c
  1977  003C5A                     l885:
  1978                           
  1979                           ;C:\Program Files\Microchip\xc8\v2.32\pic\sources\c99\common\doprnt.c: 83:     i = 0;
  1980  003C5A  0E00               	movlw	0
  1981  003C5C  6E19               	movwf	(pad@i+1)^(0+1280),c
  1982  003C5E  0E00               	movlw	0
  1983  003C60  6E18               	movwf	pad@i^(0+1280),c
  1984                           
  1985                           ;C:\Program Files\Microchip\xc8\v2.32\pic\sources\c99\common\doprnt.c: 84:     while (i 
      +                          < w) {
  1986  003C62  EF3F  F01E         	goto	l2029
  1987  003C66                     l2025:
  1988                           
  1989                           ;C:\Program Files\Microchip\xc8\v2.32\pic\sources\c99\common\doprnt.c: 85:         fputc
      +                          (' ', fp);
  1990  003C66  0E00               	movlw	0
  1991  003C68  6E02               	movwf	(fputc@c+1)^(0+1280),c
  1992  003C6A  0E20               	movlw	32
  1993  003C6C  6E01               	movwf	fputc@c^(0+1280),c
  1994  003C6E  C511  F503         	movff	pad@fp,fputc@fp
  1995  003C72  C512  F504         	movff	pad@fp+1,fputc@fp+1
  1996  003C76  ECCD  F01C         	call	_fputc	;wreg free
  1997  003C7A                     
  1998                           ;C:\Program Files\Microchip\xc8\v2.32\pic\sources\c99\common\doprnt.c: 86:         ++i;
  1999  003C7A  4A18               	infsnz	pad@i^(0+1280),f,c
  2000  003C7C  2A19               	incf	(pad@i+1)^(0+1280),f,c
  2001  003C7E                     l2029:
  2002                           
  2003                           ;C:\Program Files\Microchip\xc8\v2.32\pic\sources\c99\common\doprnt.c: 84:     while (i 
      +                          < w) {
  2004  003C7E  501A               	movf	pad@w^(0+1280),w,c
  2005  003C80  5C18               	subwf	pad@i^(0+1280),w,c
  2006  003C82  5019               	movf	(pad@i+1)^(0+1280),w,c
  2007  003C84  0A80               	xorlw	128
  2008  003C86  6E17               	movwf	??_pad^(0+1280),c
  2009  003C88  501B               	movf	(pad@w+1)^(0+1280),w,c
  2010  003C8A  0A80               	xorlw	128
  2011  003C8C  5817               	subwfb	??_pad^(0+1280),w,c
  2012  003C8E  A0D8               	btfss	status,0,c
  2013  003C90  EF4C  F01E         	goto	u1371
  2014  003C94  EF4E  F01E         	goto	u1370
  2015  003C98                     u1371:
  2016  003C98  EF33  F01E         	goto	l2025
  2017  003C9C                     u1370:
  2018  003C9C                     
  2019                           ;C:\Program Files\Microchip\xc8\v2.32\pic\sources\c99\common\doprnt.c: 90:     if (!(fla
      +                          gs & (1 << 0))) {
  2020  003C9C  0105               	movlb	5	; () banked
  2021  003C9E  B176               	btfsc	_flags& (0+255),0,b
  2022  003CA0  EF54  F01E         	goto	u1381
  2023  003CA4  EF56  F01E         	goto	u1380
  2024  003CA8                     u1381:
  2025  003CA8  EF60  F01E         	goto	l2033
  2026  003CAC                     u1380:
  2027  003CAC                     
  2028                           ; BSR set to: 5
  2029                           ;C:\Program Files\Microchip\xc8\v2.32\pic\sources\c99\common\doprnt.c: 91:         fputs
      +                          ((const char *)buf, fp);
  2030  003CAC  C513  F50A         	movff	pad@buf,fputs@s
  2031  003CB0  C514  F50B         	movff	pad@buf+1,fputs@s+1
  2032  003CB4  C511  F50C         	movff	pad@fp,fputs@fp
  2033  003CB8  C512  F50D         	movff	pad@fp+1,fputs@fp+1
  2034  003CBC  EC70  F01F         	call	_fputs	;wreg free
  2035  003CC0                     l2033:
  2036                           
  2037                           ;C:\Program Files\Microchip\xc8\v2.32\pic\sources\c99\common\doprnt.c: 94:     return (i
      +                          nt)(strlen(buf) + (size_t)w);
  2038  003CC0  C513  F501         	movff	pad@buf,strlen@s
  2039  003CC4  C514  F502         	movff	pad@buf+1,strlen@s+1
  2040  003CC8  EC16  F020         	call	_strlen	;wreg free
  2041  003CCC  501A               	movf	pad@w^(0+1280),w,c
  2042  003CCE  2401               	addwf	?_strlen^(0+1280),w,c
  2043  003CD0  6E11               	movwf	?_pad^(0+1280),c
  2044  003CD2  501B               	movf	(pad@w+1)^(0+1280),w,c
  2045  003CD4  2002               	addwfc	(?_strlen+1)^(0+1280),w,c
  2046  003CD6  6E12               	movwf	(?_pad+1)^(0+1280),c
  2047  003CD8  0012               	return		;funcret
  2048  003CDA                     __end_of_pad:
  2049                           	callstack 0
  2050                           
  2051 ;; *************** function _strlen *****************
  2052 ;; Defined at:
  2053 ;;		line 5 in file "C:\Program Files\Microchip\xc8\v2.32\pic\sources\c99\common\strlen.c"
  2054 ;; Parameters:    Size  Location     Type
  2055 ;;  s               2    0[COMRAM] PTR const unsigned char 
  2056 ;;		 -> dbuf(32), 
  2057 ;; Auto vars:     Size  Location     Type
  2058 ;;  a               2    2[COMRAM] PTR const unsigned char 
  2059 ;;		 -> dbuf(32), 
  2060 ;; Return value:  Size  Location     Type
  2061 ;;                  2    0[COMRAM] unsigned int 
  2062 ;; Registers used:
  2063 ;;		wreg, fsr2l, fsr2h, status,2, status,0
  2064 ;; Tracked objects:
  2065 ;;		On entry : 0/0
  2066 ;;		On exit  : 0/0
  2067 ;;		Unchanged: 0/0
  2068 ;; Data sizes:     COMRAM   BANK5   BANK6   BANK7   BANK8   BANK9  BANK10  BANK11  BANK12  BANK13  BANK14  BANK15  BANK1
      +6  BANK17  BANK18  BANK19  BANK20  BANK21  BANK22  BANK23  BANK24  BANK25  BANK26  BANK27  BANK28  BANK29  BANK30  BANK3
      +1  BANK32  BANK33  BANK34  BANK35  BANK36
  2069 ;;      Params:         2       0       0       0       0       0       0       0       0       0       0       0       
      +0       0       0       0       0       0       0       0       0       0       0       0       0       0       0       
      +0       0       0       0       0       0
  2070 ;;      Locals:         2       0       0       0       0       0       0       0       0       0       0       0       
      +0       0       0       0       0       0       0       0       0       0       0       0       0       0       0       
      +0       0       0       0       0       0
  2071 ;;      Temps:          0       0       0       0       0       0       0       0       0       0       0       0       
      +0       0       0       0       0       0       0       0       0       0       0       0       0       0       0       
      +0       0       0       0       0       0
  2072 ;;      Totals:         4       0       0       0       0       0       0       0       0       0       0       0       
      +0       0       0       0       0       0       0       0       0       0       0       0       0       0       0       
      +0       0       0       0       0       0
  2073 ;;Total ram usage:        4 bytes
  2074 ;; Hardware stack levels used: 1
  2075 ;; Hardware stack levels required when called: 1
  2076 ;; This function calls:
  2077 ;;		Nothing
  2078 ;; This function is called by:
  2079 ;;		_pad
  2080 ;; This function uses a non-reentrant model
  2081 ;;
  2082                           
  2083                           	psect	text6
  2084  00402C                     __ptext6:
  2085                           	callstack 0
  2086  00402C                     _strlen:
  2087                           	callstack 120
  2088  00402C  C501  F503         	movff	strlen@s,strlen@a
  2089  004030  C502  F504         	movff	strlen@s+1,strlen@a+1
  2090  004034  EF1E  F020         	goto	l1965
  2091  004038                     l1963:
  2092  004038  4A01               	infsnz	strlen@s^(0+1280),f,c
  2093  00403A  2A02               	incf	(strlen@s+1)^(0+1280),f,c
  2094  00403C                     l1965:
  2095  00403C  0061  F404  F4D9   	movff	strlen@s,fsr2l
  2096  004042  0061  F408  F4DA   	movff	strlen@s+1,fsr2h
  2097  004048  50DF               	movf	indf2,w,c
  2098  00404A  A4D8               	btfss	status,2,c
  2099  00404C  EF2A  F020         	goto	u1271
  2100  004050  EF2C  F020         	goto	u1270
  2101  004054                     u1271:
  2102  004054  EF1C  F020         	goto	l1963
  2103  004058                     u1270:
  2104  004058  5003               	movf	strlen@a^(0+1280),w,c
  2105  00405A  5C01               	subwf	strlen@s^(0+1280),w,c
  2106  00405C  6E01               	movwf	?_strlen^(0+1280),c
  2107  00405E  5004               	movf	(strlen@a+1)^(0+1280),w,c
  2108  004060  5802               	subwfb	(strlen@s+1)^(0+1280),w,c
  2109  004062  6E02               	movwf	(?_strlen+1)^(0+1280),c
  2110  004064  0012               	return		;funcret
  2111  004066                     __end_of_strlen:
  2112                           	callstack 0
  2113                           
  2114 ;; *************** function _fputs *****************
  2115 ;; Defined at:
  2116 ;;		line 8 in file "C:\Program Files\Microchip\xc8\v2.32\pic\sources\c99\common\nf_fputs.c"
  2117 ;; Parameters:    Size  Location     Type
  2118 ;;  s               2    9[COMRAM] PTR const unsigned char 
  2119 ;;		 -> dbuf(32), 
  2120 ;;  fp              2   11[COMRAM] PTR struct _IO_FILE
  2121 ;;		 -> sprintf@f(6), 
  2122 ;; Auto vars:     Size  Location     Type
  2123 ;;  i               2   14[COMRAM] int 
  2124 ;;  c               1   13[COMRAM] unsigned char 
  2125 ;; Return value:  Size  Location     Type
  2126 ;;                  2    9[COMRAM] int 
  2127 ;; Registers used:
  2128 ;;		wreg, fsr1l, fsr1h, fsr2l, fsr2h, status,2, status,0, cstack
  2129 ;; Tracked objects:
  2130 ;;		On entry : 0/0
  2131 ;;		On exit  : 0/0
  2132 ;;		Unchanged: 0/0
  2133 ;; Data sizes:     COMRAM   BANK5   BANK6   BANK7   BANK8   BANK9  BANK10  BANK11  BANK12  BANK13  BANK14  BANK15  BANK1
      +6  BANK17  BANK18  BANK19  BANK20  BANK21  BANK22  BANK23  BANK24  BANK25  BANK26  BANK27  BANK28  BANK29  BANK30  BANK3
      +1  BANK32  BANK33  BANK34  BANK35  BANK36
  2134 ;;      Params:         4       0       0       0       0       0       0       0       0       0       0       0       
      +0       0       0       0       0       0       0       0       0       0       0       0       0       0       0       
      +0       0       0       0       0       0
  2135 ;;      Locals:         3       0       0       0       0       0       0       0       0       0       0       0       
      +0       0       0       0       0       0       0       0       0       0       0       0       0       0       0       
      +0       0       0       0       0       0
  2136 ;;      Temps:          0       0       0       0       0       0       0       0       0       0       0       0       
      +0       0       0       0       0       0       0       0       0       0       0       0       0       0       0       
      +0       0       0       0       0       0
  2137 ;;      Totals:         7       0       0       0       0       0       0       0       0       0       0       0       
      +0       0       0       0       0       0       0       0       0       0       0       0       0       0       0       
      +0       0       0       0       0       0
  2138 ;;Total ram usage:        7 bytes
  2139 ;; Hardware stack levels used: 1
  2140 ;; Hardware stack levels required when called: 3
  2141 ;; This function calls:
  2142 ;;		_fputc
  2143 ;; This function is called by:
  2144 ;;		_pad
  2145 ;; This function uses a non-reentrant model
  2146 ;;
  2147                           
  2148                           	psect	text7
  2149  003EE0                     __ptext7:
  2150                           	callstack 0
  2151  003EE0                     _fputs:
  2152                           	callstack 118
  2153  003EE0  0E00               	movlw	0
  2154  003EE2  6E10               	movwf	(fputs@i+1)^(0+1280),c
  2155  003EE4  0E00               	movlw	0
  2156  003EE6  6E0F               	movwf	fputs@i^(0+1280),c
  2157  003EE8  EF81  F01F         	goto	l1959
  2158  003EEC                     l1955:
  2159  003EEC  C50E  F501         	movff	fputs@c,fputc@c
  2160  003EF0  6A02               	clrf	(fputc@c+1)^(0+1280),c
  2161  003EF2  C50C  F503         	movff	fputs@fp,fputc@fp
  2162  003EF6  C50D  F504         	movff	fputs@fp+1,fputc@fp+1
  2163  003EFA  ECCD  F01C         	call	_fputc	;wreg free
  2164  003EFE  4A0F               	infsnz	fputs@i^(0+1280),f,c
  2165  003F00  2A10               	incf	(fputs@i+1)^(0+1280),f,c
  2166  003F02                     l1959:
  2167  003F02  500F               	movf	fputs@i^(0+1280),w,c
  2168  003F04  240A               	addwf	fputs@s^(0+1280),w,c
  2169  003F06  6ED9               	movwf	fsr2l,c
  2170  003F08  5010               	movf	(fputs@i+1)^(0+1280),w,c
  2171  003F0A  200B               	addwfc	(fputs@s+1)^(0+1280),w,c
  2172  003F0C  6EDA               	movwf	fsr2h,c
  2173  003F0E  50DF               	movf	indf2,w,c
  2174  003F10  6E0E               	movwf	fputs@c^(0+1280),c
  2175  003F12  500E               	movf	fputs@c^(0+1280),w,c
  2176  003F14  A4D8               	btfss	status,2,c
  2177  003F16  EF8F  F01F         	goto	u1261
  2178  003F1A  EF91  F01F         	goto	u1260
  2179  003F1E                     u1261:
  2180  003F1E  EF76  F01F         	goto	l1955
  2181  003F22                     u1260:
  2182  003F22  0012               	return		;funcret
  2183  003F24                     __end_of_fputs:
  2184                           	callstack 0
  2185                           
  2186 ;; *************** function _fputc *****************
  2187 ;; Defined at:
  2188 ;;		line 8 in file "C:\Program Files\Microchip\xc8\v2.32\pic\sources\c99\common\nf_fputc.c"
  2189 ;; Parameters:    Size  Location     Type
  2190 ;;  c               2    0[COMRAM] int 
  2191 ;;  fp              2    2[COMRAM] PTR struct _IO_FILE
  2192 ;;		 -> sprintf@f(6), 
  2193 ;; Auto vars:     Size  Location     Type
  2194 ;;		None
  2195 ;; Return value:  Size  Location     Type
  2196 ;;                  2    0[COMRAM] int 
  2197 ;; Registers used:
  2198 ;;		wreg, fsr1l, fsr1h, fsr2l, fsr2h, status,2, status,0, cstack
  2199 ;; Tracked objects:
  2200 ;;		On entry : 0/0
  2201 ;;		On exit  : 0/0
  2202 ;;		Unchanged: 0/0
  2203 ;; Data sizes:     COMRAM   BANK5   BANK6   BANK7   BANK8   BANK9  BANK10  BANK11  BANK12  BANK13  BANK14  BANK15  BANK1
      +6  BANK17  BANK18  BANK19  BANK20  BANK21  BANK22  BANK23  BANK24  BANK25  BANK26  BANK27  BANK28  BANK29  BANK30  BANK3
      +1  BANK32  BANK33  BANK34  BANK35  BANK36
  2204 ;;      Params:         4       0       0       0       0       0       0       0       0       0       0       0       
      +0       0       0       0       0       0       0       0       0       0       0       0       0       0       0       
      +0       0       0       0       0       0
  2205 ;;      Locals:         0       0       0       0       0       0       0       0       0       0       0       0       
      +0       0       0       0       0       0       0       0       0       0       0       0       0       0       0       
      +0       0       0       0       0       0
  2206 ;;      Temps:          5       0       0       0       0       0       0       0       0       0       0       0       
      +0       0       0       0       0       0       0       0       0       0       0       0       0       0       0       
      +0       0       0       0       0       0
  2207 ;;      Totals:         9       0       0       0       0       0       0       0       0       0       0       0       
      +0       0       0       0       0       0       0       0       0       0       0       0       0       0       0       
      +0       0       0       0       0       0
  2208 ;;Total ram usage:        9 bytes
  2209 ;; Hardware stack levels used: 1
  2210 ;; Hardware stack levels required when called: 2
  2211 ;; This function calls:
  2212 ;;		_putch
  2213 ;; This function is called by:
  2214 ;;		_pad
  2215 ;;		_vfpfcnvrt
  2216 ;;		_fputs
  2217 ;; This function uses a non-reentrant model
  2218 ;;
  2219                           
  2220                           	psect	text8
  2221  00399A                     __ptext8:
  2222                           	callstack 0
  2223  00399A                     _fputc:
  2224                           	callstack 118
  2225  00399A  5003               	movf	fputc@fp^(0+1280),w,c
  2226  00399C  1004               	iorwf	(fputc@fp+1)^(0+1280),w,c
  2227  00399E  B4D8               	btfsc	status,2,c
  2228  0039A0  EFD4  F01C         	goto	u1221
  2229  0039A4  EFD6  F01C         	goto	u1220
  2230  0039A8                     u1221:
  2231  0039A8  EFDF  F01C         	goto	l1943
  2232  0039AC                     u1220:
  2233  0039AC  5003               	movf	fputc@fp^(0+1280),w,c
  2234  0039AE  1004               	iorwf	(fputc@fp+1)^(0+1280),w,c
  2235  0039B0  A4D8               	btfss	status,2,c
  2236  0039B2  EFDD  F01C         	goto	u1231
  2237  0039B6  EFDF  F01C         	goto	u1230
  2238  0039BA                     u1231:
  2239  0039BA  EFE4  F01C         	goto	l1945
  2240  0039BE                     u1230:
  2241  0039BE                     l1943:
  2242  0039BE  5001               	movf	fputc@c^(0+1280),w,c
  2243  0039C0  ECC2  F020         	call	_putch
  2244  0039C4  EF38  F01D         	goto	l996
  2245  0039C8                     l1945:
  2246  0039C8  EE20 F004          	lfsr	2,4
  2247  0039CC  5003               	movf	fputc@fp^(0+1280),w,c
  2248  0039CE  26D9               	addwf	fsr2l,f,c
  2249  0039D0  5004               	movf	(fputc@fp+1)^(0+1280),w,c
  2250  0039D2  22DA               	addwfc	fsr2h,f,c
  2251  0039D4  50DE               	movf	postinc2,w,c
  2252  0039D6  10DE               	iorwf	postinc2,w,c
  2253  0039D8  B4D8               	btfsc	status,2,c
  2254  0039DA  EFF1  F01C         	goto	u1241
  2255  0039DE  EFF3  F01C         	goto	u1240
  2256  0039E2                     u1241:
  2257  0039E2  EF0E  F01D         	goto	l1949
  2258  0039E6                     u1240:
  2259  0039E6  EE20 F004          	lfsr	2,4
  2260  0039EA  5003               	movf	fputc@fp^(0+1280),w,c
  2261  0039EC  26D9               	addwf	fsr2l,f,c
  2262  0039EE  5004               	movf	(fputc@fp+1)^(0+1280),w,c
  2263  0039F0  22DA               	addwfc	fsr2h,f,c
  2264  0039F2  EE10 F002          	lfsr	1,2
  2265  0039F6  5003               	movf	fputc@fp^(0+1280),w,c
  2266  0039F8  26E1               	addwf	fsr1l,f,c
  2267  0039FA  5004               	movf	(fputc@fp+1)^(0+1280),w,c
  2268  0039FC  22E2               	addwfc	fsr1h,f,c
  2269  0039FE  50DE               	movf	postinc2,w,c
  2270  003A00  5CE6               	subwf	postinc1,w,c
  2271  003A02  50E6               	movf	postinc1,w,c
  2272  003A04  0A80               	xorlw	128
  2273  003A06  6E09               	movwf	(??_fputc+4)^(0+1280),c
  2274  003A08  50DE               	movf	postinc2,w,c
  2275  003A0A  0A80               	xorlw	128
  2276  003A0C  5809               	subwfb	(??_fputc+4)^(0+1280),w,c
  2277  003A0E  B0D8               	btfsc	status,0,c
  2278  003A10  EF0C  F01D         	goto	u1251
  2279  003A14  EF0E  F01D         	goto	u1250
  2280  003A18                     u1251:
  2281  003A18  EF38  F01D         	goto	l996
  2282  003A1C                     u1250:
  2283  003A1C                     l1949:
  2284  003A1C  EE20 F002          	lfsr	2,2
  2285  003A20  5003               	movf	fputc@fp^(0+1280),w,c
  2286  003A22  26D9               	addwf	fsr2l,f,c
  2287  003A24  5004               	movf	(fputc@fp+1)^(0+1280),w,c
  2288  003A26  22DA               	addwfc	fsr2h,f,c
  2289  003A28  0061 F378  F505    	movff	postinc2,??_fputc
  2290  003A2E  0061 F374  F506    	movff	postdec2,??_fputc+1
  2291  003A34  0061  F40C  F4D9   	movff	fputc@fp,fsr2l
  2292  003A3A  0061  F410  F4DA   	movff	fputc@fp+1,fsr2h
  2293  003A40  0061 F378  F507    	movff	postinc2,??_fputc+2
  2294  003A46  0061 F374  F508    	movff	postdec2,??_fputc+3
  2295  003A4C  5005               	movf	??_fputc^(0+1280),w,c
  2296  003A4E  2407               	addwf	(??_fputc+2)^(0+1280),w,c
  2297  003A50  6ED9               	movwf	fsr2l,c
  2298  003A52  5006               	movf	(??_fputc+1)^(0+1280),w,c
  2299  003A54  2008               	addwfc	(??_fputc+3)^(0+1280),w,c
  2300  003A56  6EDA               	movwf	fsr2h,c
  2301  003A58  0061  F404  F4DF   	movff	fputc@c,indf2
  2302  003A5E  EE20 F002          	lfsr	2,2
  2303  003A62  5003               	movf	fputc@fp^(0+1280),w,c
  2304  003A64  26D9               	addwf	fsr2l,f,c
  2305  003A66  5004               	movf	(fputc@fp+1)^(0+1280),w,c
  2306  003A68  22DA               	addwfc	fsr2h,f,c
  2307  003A6A  2ADE               	incf	postinc2,f,c
  2308  003A6C  0E00               	movlw	0
  2309  003A6E  22DD               	addwfc	postdec2,f,c
  2310  003A70                     l996:
  2311  003A70  0012               	return		;funcret
  2312  003A72                     __end_of_fputc:
  2313                           	callstack 0
  2314                           
  2315 ;; *************** function _putch *****************
  2316 ;; Defined at:
  2317 ;;		line 7 in file "C:\Program Files\Microchip\xc8\v2.32\pic\sources\c99\common\putch.c"
  2318 ;; Parameters:    Size  Location     Type
  2319 ;;  c               1    wreg     unsigned char 
  2320 ;; Auto vars:     Size  Location     Type
  2321 ;;  c               1    0[COMRAM] unsigned char 
  2322 ;; Return value:  Size  Location     Type
  2323 ;;                  1    wreg      void 
  2324 ;; Registers used:
  2325 ;;		wreg
  2326 ;; Tracked objects:
  2327 ;;		On entry : 0/0
  2328 ;;		On exit  : 0/0
  2329 ;;		Unchanged: 0/0
  2330 ;; Data sizes:     COMRAM   BANK5   BANK6   BANK7   BANK8   BANK9  BANK10  BANK11  BANK12  BANK13  BANK14  BANK15  BANK1
      +6  BANK17  BANK18  BANK19  BANK20  BANK21  BANK22  BANK23  BANK24  BANK25  BANK26  BANK27  BANK28  BANK29  BANK30  BANK3
      +1  BANK32  BANK33  BANK34  BANK35  BANK36
  2331 ;;      Params:         0       0       0       0       0       0       0       0       0       0       0       0       
      +0       0       0       0       0       0       0       0       0       0       0       0       0       0       0       
      +0       0       0       0       0       0
  2332 ;;      Locals:         0       0       0       0       0       0       0       0       0       0       0       0       
      +0       0       0       0       0       0       0       0       0       0       0       0       0       0       0       
      +0       0       0       0       0       0
  2333 ;;      Temps:          0       0       0       0       0       0       0       0       0       0       0       0       
      +0       0       0       0       0       0       0       0       0       0       0       0       0       0       0       
      +0       0       0       0       0       0
  2334 ;;      Totals:         0       0       0       0       0       0       0       0       0       0       0       0       
      +0       0       0       0       0       0       0       0       0       0       0       0       0       0       0       
      +0       0       0       0       0       0
  2335 ;;Total ram usage:        0 bytes
  2336 ;; Hardware stack levels used: 1
  2337 ;; Hardware stack levels required when called: 1
  2338 ;; This function calls:
  2339 ;;		Nothing
  2340 ;; This function is called by:
  2341 ;;		_fputc
  2342 ;; This function uses a non-reentrant model
  2343 ;;
  2344                           
  2345                           	psect	text9
  2346  004184                     __ptext9:
  2347                           	callstack 0
  2348  004184                     _putch:
  2349                           	callstack 118
  2350  004184  0012               	return		;funcret
  2351  004186                     __end_of_putch:
  2352                           	callstack 0
  2353                           
  2354 ;; *************** function ___lomod *****************
  2355 ;; Defined at:
  2356 ;;		line 9 in file "C:\Program Files\Microchip\xc8\v2.32\pic\sources\c99\common\lomod.c"
  2357 ;; Parameters:    Size  Location     Type
  2358 ;;  dividend        8    0[COMRAM] unsigned long long 
  2359 ;;  divisor         8    8[COMRAM] unsigned long long 
  2360 ;; Auto vars:     Size  Location     Type
  2361 ;;  counter         1   16[COMRAM] unsigned char 
  2362 ;; Return value:  Size  Location     Type
  2363 ;;                  8    0[COMRAM] unsigned long long 
  2364 ;; Registers used:
  2365 ;;		wreg, status,2, status,0
  2366 ;; Tracked objects:
  2367 ;;		On entry : 0/0
  2368 ;;		On exit  : 0/0
  2369 ;;		Unchanged: 0/0
  2370 ;; Data sizes:     COMRAM   BANK5   BANK6   BANK7   BANK8   BANK9  BANK10  BANK11  BANK12  BANK13  BANK14  BANK15  BANK1
      +6  BANK17  BANK18  BANK19  BANK20  BANK21  BANK22  BANK23  BANK24  BANK25  BANK26  BANK27  BANK28  BANK29  BANK30  BANK3
      +1  BANK32  BANK33  BANK34  BANK35  BANK36
  2371 ;;      Params:        16       0       0       0       0       0       0       0       0       0       0       0       
      +0       0       0       0       0       0       0       0       0       0       0       0       0       0       0       
      +0       0       0       0       0       0
  2372 ;;      Locals:         1       0       0       0       0       0       0       0       0       0       0       0       
      +0       0       0       0       0       0       0       0       0       0       0       0       0       0       0       
      +0       0       0       0       0       0
  2373 ;;      Temps:          0       0       0       0       0       0       0       0       0       0       0       0       
      +0       0       0       0       0       0       0       0       0       0       0       0       0       0       0       
      +0       0       0       0       0       0
  2374 ;;      Totals:        17       0       0       0       0       0       0       0       0       0       0       0       
      +0       0       0       0       0       0       0       0       0       0       0       0       0       0       0       
      +0       0       0       0       0       0
  2375 ;;Total ram usage:       17 bytes
  2376 ;; Hardware stack levels used: 1
  2377 ;; Hardware stack levels required when called: 1
  2378 ;; This function calls:
  2379 ;;		Nothing
  2380 ;; This function is called by:
  2381 ;;		_utoa
  2382 ;; This function uses a non-reentrant model
  2383 ;;
  2384                           
  2385                           	psect	text10
  2386  003B44                     __ptext10:
  2387                           	callstack 0
  2388  003B44                     ___lomod:
  2389                           	callstack 121
  2390  003B44  5009               	movf	___lomod@divisor^(0+1280),w,c
  2391  003B46  100A               	iorwf	(___lomod@divisor+1)^(0+1280),w,c
  2392  003B48  100B               	iorwf	(___lomod@divisor+2)^(0+1280),w,c
  2393  003B4A  100C               	iorwf	(___lomod@divisor+3)^(0+1280),w,c
  2394  003B4C  100D               	iorwf	(___lomod@divisor+4)^(0+1280),w,c
  2395  003B4E  100E               	iorwf	(___lomod@divisor+5)^(0+1280),w,c
  2396  003B50  100F               	iorwf	(___lomod@divisor+6)^(0+1280),w,c
  2397  003B52  1010               	iorwf	(___lomod@divisor+7)^(0+1280),w,c
  2398  003B54  B4D8               	btfsc	status,2,c
  2399  003B56  EFAF  F01D         	goto	u1321
  2400  003B5A  EFB1  F01D         	goto	u1320
  2401  003B5E                     u1321:
  2402  003B5E  EFF9  F01D         	goto	l626
  2403  003B62                     u1320:
  2404  003B62  0E01               	movlw	1
  2405  003B64  6E11               	movwf	___lomod@counter^(0+1280),c
  2406  003B66  EFBF  F01D         	goto	l2005
  2407  003B6A                     l2003:
  2408  003B6A  90D8               	bcf	status,0,c
  2409  003B6C  3609               	rlcf	___lomod@divisor^(0+1280),f,c
  2410  003B6E  360A               	rlcf	(___lomod@divisor+1)^(0+1280),f,c
  2411  003B70  360B               	rlcf	(___lomod@divisor+2)^(0+1280),f,c
  2412  003B72  360C               	rlcf	(___lomod@divisor+3)^(0+1280),f,c
  2413  003B74  360D               	rlcf	(___lomod@divisor+4)^(0+1280),f,c
  2414  003B76  360E               	rlcf	(___lomod@divisor+5)^(0+1280),f,c
  2415  003B78  360F               	rlcf	(___lomod@divisor+6)^(0+1280),f,c
  2416  003B7A  3610               	rlcf	(___lomod@divisor+7)^(0+1280),f,c
  2417  003B7C  2A11               	incf	___lomod@counter^(0+1280),f,c
  2418  003B7E                     l2005:
  2419  003B7E  AE10               	btfss	(___lomod@divisor+7)^(0+1280),7,c
  2420  003B80  EFC4  F01D         	goto	u1331
  2421  003B84  EFC6  F01D         	goto	u1330
  2422  003B88                     u1331:
  2423  003B88  EFB5  F01D         	goto	l2003
  2424  003B8C                     u1330:
  2425  003B8C                     l2007:
  2426  003B8C  5009               	movf	___lomod@divisor^(0+1280),w,c
  2427  003B8E  5C01               	subwf	___lomod@dividend^(0+1280),w,c
  2428  003B90  500A               	movf	(___lomod@divisor+1)^(0+1280),w,c
  2429  003B92  5802               	subwfb	(___lomod@dividend+1)^(0+1280),w,c
  2430  003B94  500B               	movf	(___lomod@divisor+2)^(0+1280),w,c
  2431  003B96  5803               	subwfb	(___lomod@dividend+2)^(0+1280),w,c
  2432  003B98  500C               	movf	(___lomod@divisor+3)^(0+1280),w,c
  2433  003B9A  5804               	subwfb	(___lomod@dividend+3)^(0+1280),w,c
  2434  003B9C  500D               	movf	(___lomod@divisor+4)^(0+1280),w,c
  2435  003B9E  5805               	subwfb	(___lomod@dividend+4)^(0+1280),w,c
  2436  003BA0  500E               	movf	(___lomod@divisor+5)^(0+1280),w,c
  2437  003BA2  5806               	subwfb	(___lomod@dividend+5)^(0+1280),w,c
  2438  003BA4  500F               	movf	(___lomod@divisor+6)^(0+1280),w,c
  2439  003BA6  5807               	subwfb	(___lomod@dividend+6)^(0+1280),w,c
  2440  003BA8  5010               	movf	(___lomod@divisor+7)^(0+1280),w,c
  2441  003BAA  5808               	subwfb	(___lomod@dividend+7)^(0+1280),w,c
  2442  003BAC  A0D8               	btfss	status,0,c
  2443  003BAE  EFDB  F01D         	goto	u1341
  2444  003BB2  EFDD  F01D         	goto	u1340
  2445  003BB6                     u1341:
  2446  003BB6  EFED  F01D         	goto	l2011
  2447  003BBA                     u1340:
  2448  003BBA  5009               	movf	___lomod@divisor^(0+1280),w,c
  2449  003BBC  5E01               	subwf	___lomod@dividend^(0+1280),f,c
  2450  003BBE  500A               	movf	(___lomod@divisor+1)^(0+1280),w,c
  2451  003BC0  5A02               	subwfb	(___lomod@dividend+1)^(0+1280),f,c
  2452  003BC2  500B               	movf	(___lomod@divisor+2)^(0+1280),w,c
  2453  003BC4  5A03               	subwfb	(___lomod@dividend+2)^(0+1280),f,c
  2454  003BC6  500C               	movf	(___lomod@divisor+3)^(0+1280),w,c
  2455  003BC8  5A04               	subwfb	(___lomod@dividend+3)^(0+1280),f,c
  2456  003BCA  500D               	movf	(___lomod@divisor+4)^(0+1280),w,c
  2457  003BCC  5A05               	subwfb	(___lomod@dividend+4)^(0+1280),f,c
  2458  003BCE  500E               	movf	(___lomod@divisor+5)^(0+1280),w,c
  2459  003BD0  5A06               	subwfb	(___lomod@dividend+5)^(0+1280),f,c
  2460  003BD2  500F               	movf	(___lomod@divisor+6)^(0+1280),w,c
  2461  003BD4  5A07               	subwfb	(___lomod@dividend+6)^(0+1280),f,c
  2462  003BD6  5010               	movf	(___lomod@divisor+7)^(0+1280),w,c
  2463  003BD8  5A08               	subwfb	(___lomod@dividend+7)^(0+1280),f,c
  2464  003BDA                     l2011:
  2465  003BDA  90D8               	bcf	status,0,c
  2466  003BDC  3210               	rrcf	(___lomod@divisor+7)^(0+1280),f,c
  2467  003BDE  320F               	rrcf	(___lomod@divisor+6)^(0+1280),f,c
  2468  003BE0  320E               	rrcf	(___lomod@divisor+5)^(0+1280),f,c
  2469  003BE2  320D               	rrcf	(___lomod@divisor+4)^(0+1280),f,c
  2470  003BE4  320C               	rrcf	(___lomod@divisor+3)^(0+1280),f,c
  2471  003BE6  320B               	rrcf	(___lomod@divisor+2)^(0+1280),f,c
  2472  003BE8  320A               	rrcf	(___lomod@divisor+1)^(0+1280),f,c
  2473  003BEA  3209               	rrcf	___lomod@divisor^(0+1280),f,c
  2474  003BEC  2E11               	decfsz	___lomod@counter^(0+1280),f,c
  2475  003BEE  EFC6  F01D         	goto	l2007
  2476  003BF2                     l626:
  2477  003BF2  C501  F501         	movff	___lomod@dividend,?___lomod
  2478  003BF6  C502  F502         	movff	___lomod@dividend+1,?___lomod+1
  2479  003BFA  C503  F503         	movff	___lomod@dividend+2,?___lomod+2
  2480  003BFE  C504  F504         	movff	___lomod@dividend+3,?___lomod+3
  2481  003C02  C505  F505         	movff	___lomod@dividend+4,?___lomod+4
  2482  003C06  C506  F506         	movff	___lomod@dividend+5,?___lomod+5
  2483  003C0A  C507  F507         	movff	___lomod@dividend+6,?___lomod+6
  2484  003C0E  C508  F508         	movff	___lomod@dividend+7,?___lomod+7
  2485  003C12  0012               	return		;funcret
  2486  003C14                     __end_of___lomod:
  2487                           	callstack 0
  2488                           
  2489 ;; *************** function ___lodiv *****************
  2490 ;; Defined at:
  2491 ;;		line 9 in file "C:\Program Files\Microchip\xc8\v2.32\pic\sources\c99\common\lodiv.c"
  2492 ;; Parameters:    Size  Location     Type
  2493 ;;  dividend        8    0[COMRAM] unsigned long long 
  2494 ;;  divisor         8    8[COMRAM] unsigned long long 
  2495 ;; Auto vars:     Size  Location     Type
  2496 ;;  quotient        8   16[COMRAM] unsigned long long 
  2497 ;;  counter         1   24[COMRAM] unsigned char 
  2498 ;; Return value:  Size  Location     Type
  2499 ;;                  8    0[COMRAM] unsigned long long 
  2500 ;; Registers used:
  2501 ;;		wreg, fsr2l, fsr2h, status,2, status,0
  2502 ;; Tracked objects:
  2503 ;;		On entry : 0/0
  2504 ;;		On exit  : 0/0
  2505 ;;		Unchanged: 0/0
  2506 ;; Data sizes:     COMRAM   BANK5   BANK6   BANK7   BANK8   BANK9  BANK10  BANK11  BANK12  BANK13  BANK14  BANK15  BANK1
      +6  BANK17  BANK18  BANK19  BANK20  BANK21  BANK22  BANK23  BANK24  BANK25  BANK26  BANK27  BANK28  BANK29  BANK30  BANK3
      +1  BANK32  BANK33  BANK34  BANK35  BANK36
  2507 ;;      Params:        16       0       0       0       0       0       0       0       0       0       0       0       
      +0       0       0       0       0       0       0       0       0       0       0       0       0       0       0       
      +0       0       0       0       0       0
  2508 ;;      Locals:         9       0       0       0       0       0       0       0       0       0       0       0       
      +0       0       0       0       0       0       0       0       0       0       0       0       0       0       0       
      +0       0       0       0       0       0
  2509 ;;      Temps:          0       0       0       0       0       0       0       0       0       0       0       0       
      +0       0       0       0       0       0       0       0       0       0       0       0       0       0       0       
      +0       0       0       0       0       0
  2510 ;;      Totals:        25       0       0       0       0       0       0       0       0       0       0       0       
      +0       0       0       0       0       0       0       0       0       0       0       0       0       0       0       
      +0       0       0       0       0       0
  2511 ;;Total ram usage:       25 bytes
  2512 ;; Hardware stack levels used: 1
  2513 ;; Hardware stack levels required when called: 1
  2514 ;; This function calls:
  2515 ;;		Nothing
  2516 ;; This function is called by:
  2517 ;;		_utoa
  2518 ;; This function uses a non-reentrant model
  2519 ;;
  2520                           
  2521                           	psect	text11
  2522  0038AA                     __ptext11:
  2523                           	callstack 0
  2524  0038AA                     ___lodiv:
  2525                           	callstack 121
  2526  0038AA  EE21  F111         	lfsr	2,___lodiv@quotient
  2527  0038AE  0E07               	movlw	7
  2528  0038B0                     u1281:
  2529  0038B0  6ADE               	clrf	postinc2,c
  2530  0038B2  06E8               	decf	wreg,f,c
  2531  0038B4  E2FD               	bc	u1281
  2532  0038B6  5009               	movf	___lodiv@divisor^(0+1280),w,c
  2533  0038B8  100A               	iorwf	(___lodiv@divisor+1)^(0+1280),w,c
  2534  0038BA  100B               	iorwf	(___lodiv@divisor+2)^(0+1280),w,c
  2535  0038BC  100C               	iorwf	(___lodiv@divisor+3)^(0+1280),w,c
  2536  0038BE  100D               	iorwf	(___lodiv@divisor+4)^(0+1280),w,c
  2537  0038C0  100E               	iorwf	(___lodiv@divisor+5)^(0+1280),w,c
  2538  0038C2  100F               	iorwf	(___lodiv@divisor+6)^(0+1280),w,c
  2539  0038C4  1010               	iorwf	(___lodiv@divisor+7)^(0+1280),w,c
  2540  0038C6  B4D8               	btfsc	status,2,c
  2541  0038C8  EF68  F01C         	goto	u1291
  2542  0038CC  EF6A  F01C         	goto	u1290
  2543  0038D0                     u1291:
  2544  0038D0  EFBC  F01C         	goto	l616
  2545  0038D4                     u1290:
  2546  0038D4  0E01               	movlw	1
  2547  0038D6  6E19               	movwf	___lodiv@counter^(0+1280),c
  2548  0038D8  EF78  F01C         	goto	l1985
  2549  0038DC                     l1983:
  2550  0038DC  90D8               	bcf	status,0,c
  2551  0038DE  3609               	rlcf	___lodiv@divisor^(0+1280),f,c
  2552  0038E0  360A               	rlcf	(___lodiv@divisor+1)^(0+1280),f,c
  2553  0038E2  360B               	rlcf	(___lodiv@divisor+2)^(0+1280),f,c
  2554  0038E4  360C               	rlcf	(___lodiv@divisor+3)^(0+1280),f,c
  2555  0038E6  360D               	rlcf	(___lodiv@divisor+4)^(0+1280),f,c
  2556  0038E8  360E               	rlcf	(___lodiv@divisor+5)^(0+1280),f,c
  2557  0038EA  360F               	rlcf	(___lodiv@divisor+6)^(0+1280),f,c
  2558  0038EC  3610               	rlcf	(___lodiv@divisor+7)^(0+1280),f,c
  2559  0038EE  2A19               	incf	___lodiv@counter^(0+1280),f,c
  2560  0038F0                     l1985:
  2561  0038F0  AE10               	btfss	(___lodiv@divisor+7)^(0+1280),7,c
  2562  0038F2  EF7D  F01C         	goto	u1301
  2563  0038F6  EF7F  F01C         	goto	u1300
  2564  0038FA                     u1301:
  2565  0038FA  EF6E  F01C         	goto	l1983
  2566  0038FE                     u1300:
  2567  0038FE                     l1987:
  2568  0038FE  90D8               	bcf	status,0,c
  2569  003900  3611               	rlcf	___lodiv@quotient^(0+1280),f,c
  2570  003902  3612               	rlcf	(___lodiv@quotient+1)^(0+1280),f,c
  2571  003904  3613               	rlcf	(___lodiv@quotient+2)^(0+1280),f,c
  2572  003906  3614               	rlcf	(___lodiv@quotient+3)^(0+1280),f,c
  2573  003908  3615               	rlcf	(___lodiv@quotient+4)^(0+1280),f,c
  2574  00390A  3616               	rlcf	(___lodiv@quotient+5)^(0+1280),f,c
  2575  00390C  3617               	rlcf	(___lodiv@quotient+6)^(0+1280),f,c
  2576  00390E  3618               	rlcf	(___lodiv@quotient+7)^(0+1280),f,c
  2577  003910  5009               	movf	___lodiv@divisor^(0+1280),w,c
  2578  003912  5C01               	subwf	___lodiv@dividend^(0+1280),w,c
  2579  003914  500A               	movf	(___lodiv@divisor+1)^(0+1280),w,c
  2580  003916  5802               	subwfb	(___lodiv@dividend+1)^(0+1280),w,c
  2581  003918  500B               	movf	(___lodiv@divisor+2)^(0+1280),w,c
  2582  00391A  5803               	subwfb	(___lodiv@dividend+2)^(0+1280),w,c
  2583  00391C  500C               	movf	(___lodiv@divisor+3)^(0+1280),w,c
  2584  00391E  5804               	subwfb	(___lodiv@dividend+3)^(0+1280),w,c
  2585  003920  500D               	movf	(___lodiv@divisor+4)^(0+1280),w,c
  2586  003922  5805               	subwfb	(___lodiv@dividend+4)^(0+1280),w,c
  2587  003924  500E               	movf	(___lodiv@divisor+5)^(0+1280),w,c
  2588  003926  5806               	subwfb	(___lodiv@dividend+5)^(0+1280),w,c
  2589  003928  500F               	movf	(___lodiv@divisor+6)^(0+1280),w,c
  2590  00392A  5807               	subwfb	(___lodiv@dividend+6)^(0+1280),w,c
  2591  00392C  5010               	movf	(___lodiv@divisor+7)^(0+1280),w,c
  2592  00392E  5808               	subwfb	(___lodiv@dividend+7)^(0+1280),w,c
  2593  003930  A0D8               	btfss	status,0,c
  2594  003932  EF9D  F01C         	goto	u1311
  2595  003936  EF9F  F01C         	goto	u1310
  2596  00393A                     u1311:
  2597  00393A  EFB0  F01C         	goto	l1995
  2598  00393E                     u1310:
  2599  00393E  5009               	movf	___lodiv@divisor^(0+1280),w,c
  2600  003940  5E01               	subwf	___lodiv@dividend^(0+1280),f,c
  2601  003942  500A               	movf	(___lodiv@divisor+1)^(0+1280),w,c
  2602  003944  5A02               	subwfb	(___lodiv@dividend+1)^(0+1280),f,c
  2603  003946  500B               	movf	(___lodiv@divisor+2)^(0+1280),w,c
  2604  003948  5A03               	subwfb	(___lodiv@dividend+2)^(0+1280),f,c
  2605  00394A  500C               	movf	(___lodiv@divisor+3)^(0+1280),w,c
  2606  00394C  5A04               	subwfb	(___lodiv@dividend+3)^(0+1280),f,c
  2607  00394E  500D               	movf	(___lodiv@divisor+4)^(0+1280),w,c
  2608  003950  5A05               	subwfb	(___lodiv@dividend+4)^(0+1280),f,c
  2609  003952  500E               	movf	(___lodiv@divisor+5)^(0+1280),w,c
  2610  003954  5A06               	subwfb	(___lodiv@dividend+5)^(0+1280),f,c
  2611  003956  500F               	movf	(___lodiv@divisor+6)^(0+1280),w,c
  2612  003958  5A07               	subwfb	(___lodiv@dividend+6)^(0+1280),f,c
  2613  00395A  5010               	movf	(___lodiv@divisor+7)^(0+1280),w,c
  2614  00395C  5A08               	subwfb	(___lodiv@dividend+7)^(0+1280),f,c
  2615  00395E  8011               	bsf	___lodiv@quotient^(0+1280),0,c
  2616  003960                     l1995:
  2617  003960  90D8               	bcf	status,0,c
  2618  003962  3210               	rrcf	(___lodiv@divisor+7)^(0+1280),f,c
  2619  003964  320F               	rrcf	(___lodiv@divisor+6)^(0+1280),f,c
  2620  003966  320E               	rrcf	(___lodiv@divisor+5)^(0+1280),f,c
  2621  003968  320D               	rrcf	(___lodiv@divisor+4)^(0+1280),f,c
  2622  00396A  320C               	rrcf	(___lodiv@divisor+3)^(0+1280),f,c
  2623  00396C  320B               	rrcf	(___lodiv@divisor+2)^(0+1280),f,c
  2624  00396E  320A               	rrcf	(___lodiv@divisor+1)^(0+1280),f,c
  2625  003970  3209               	rrcf	___lodiv@divisor^(0+1280),f,c
  2626  003972  2E19               	decfsz	___lodiv@counter^(0+1280),f,c
  2627  003974  EF7F  F01C         	goto	l1987
  2628  003978                     l616:
  2629  003978  C511  F501         	movff	___lodiv@quotient,?___lodiv
  2630  00397C  C512  F502         	movff	___lodiv@quotient+1,?___lodiv+1
  2631  003980  C513  F503         	movff	___lodiv@quotient+2,?___lodiv+2
  2632  003984  C514  F504         	movff	___lodiv@quotient+3,?___lodiv+3
  2633  003988  C515  F505         	movff	___lodiv@quotient+4,?___lodiv+4
  2634  00398C  C516  F506         	movff	___lodiv@quotient+5,?___lodiv+5
  2635  003990  C517  F507         	movff	___lodiv@quotient+6,?___lodiv+6
  2636  003994  C518  F508         	movff	___lodiv@quotient+7,?___lodiv+7
  2637  003998  0012               	return		;funcret
  2638  00399A                     __end_of___lodiv:
  2639                           	callstack 0
  2640                           
  2641 ;; *************** function _atoi *****************
  2642 ;; Defined at:
  2643 ;;		line 4 in file "C:\Program Files\Microchip\xc8\v2.32\pic\sources\c99\common\atoi.c"
  2644 ;; Parameters:    Size  Location     Type
  2645 ;;  s               2    7[COMRAM] PTR const unsigned char 
  2646 ;;		 -> STR_2(16), 
  2647 ;; Auto vars:     Size  Location     Type
  2648 ;;  n               2   20[COMRAM] int 
  2649 ;;  neg             2   13[COMRAM] int 
  2650 ;; Return value:  Size  Location     Type
  2651 ;;                  2    7[COMRAM] int 
  2652 ;; Registers used:
  2653 ;;		wreg, status,2, status,0, tblptrl, tblptrh, tblptru, prodl, prodh, cstack
  2654 ;; Tracked objects:
  2655 ;;		On entry : 0/0
  2656 ;;		On exit  : 0/0
  2657 ;;		Unchanged: 0/0
  2658 ;; Data sizes:     COMRAM   BANK5   BANK6   BANK7   BANK8   BANK9  BANK10  BANK11  BANK12  BANK13  BANK14  BANK15  BANK1
      +6  BANK17  BANK18  BANK19  BANK20  BANK21  BANK22  BANK23  BANK24  BANK25  BANK26  BANK27  BANK28  BANK29  BANK30  BANK3
      +1  BANK32  BANK33  BANK34  BANK35  BANK36
  2659 ;;      Params:         2       0       0       0       0       0       0       0       0       0       0       0       
      +0       0       0       0       0       0       0       0       0       0       0       0       0       0       0       
      +0       0       0       0       0       0
  2660 ;;      Locals:         9       0       0       0       0       0       0       0       0       0       0       0       
      +0       0       0       0       0       0       0       0       0       0       0       0       0       0       0       
      +0       0       0       0       0       0
  2661 ;;      Temps:          4       0       0       0       0       0       0       0       0       0       0       0       
      +0       0       0       0       0       0       0       0       0       0       0       0       0       0       0       
      +0       0       0       0       0       0
  2662 ;;      Totals:        15       0       0       0       0       0       0       0       0       0       0       0       
      +0       0       0       0       0       0       0       0       0       0       0       0       0       0       0       
      +0       0       0       0       0       0
  2663 ;;Total ram usage:       15 bytes
  2664 ;; Hardware stack levels used: 1
  2665 ;; Hardware stack levels required when called: 2
  2666 ;; This function calls:
  2667 ;;		___wmul
  2668 ;;		_isdigit
  2669 ;;		_isspace
  2670 ;; This function is called by:
  2671 ;;		_vfpfcnvrt
  2672 ;; This function uses a non-reentrant model
  2673 ;;
  2674                           
  2675                           	psect	text12
  2676  0032DE                     __ptext12:
  2677                           	callstack 0
  2678  0032DE                     _atoi:
  2679                           	callstack 121
  2680  0032DE  0E00               	movlw	0
  2681  0032E0  6E16               	movwf	(atoi@n+1)^(0+1280),c
  2682  0032E2  0E00               	movlw	0
  2683  0032E4  6E15               	movwf	atoi@n^(0+1280),c
  2684  0032E6  0E00               	movlw	0
  2685  0032E8  6E0F               	movwf	(atoi@neg+1)^(0+1280),c
  2686  0032EA  0E00               	movlw	0
  2687  0032EC  6E0E               	movwf	atoi@neg^(0+1280),c
  2688  0032EE  EF7B  F019         	goto	l2111
  2689  0032F2                     l2109:
  2690  0032F2  4A08               	infsnz	atoi@s^(0+1280),f,c
  2691  0032F4  2A09               	incf	(atoi@s+1)^(0+1280),f,c
  2692  0032F6                     l2111:
  2693  0032F6  0E01               	movlw	1
  2694  0032F8  6E14               	movwf	_atoi$850^(0+1280),c
  2695  0032FA  0061  F420  F4F6   	movff	atoi@s,tblptrl
  2696  003300  0061  F424  F4F7   	movff	atoi@s+1,tblptrh
  2697  003306                     	if	0	;tblptru may be non-zero
  2698  003306                     	endif
  2699  003306                     	if	1	;Program memory is > 0xFFFF, there are 3 active tblptr bytes
  2700  003306  0E00               	movlw	low (__mediumconst shr (0+16))
  2701  003308  6EF8               	movwf	tblptru,c
  2702  00330A                     	endif
  2703  00330A  0008               	tblrd		*
  2704  00330C  50F5               	movf	tablat,w,c
  2705  00330E  0A20               	xorlw	32
  2706  003310  B4D8               	btfsc	status,2,c
  2707  003312  EF8D  F019         	goto	u1501
  2708  003316  EF8F  F019         	goto	u1500
  2709  00331A                     u1501:
  2710  00331A  EFB0  F019         	goto	l2119
  2711  00331E                     u1500:
  2712  00331E  0EF7               	movlw	247
  2713  003320  6E0A               	movwf	??_atoi^(0+1280),c
  2714  003322  0EFF               	movlw	255
  2715  003324  6E0B               	movwf	(??_atoi+1)^(0+1280),c
  2716  003326  0061  F420  F4F6   	movff	atoi@s,tblptrl
  2717  00332C  0061  F424  F4F7   	movff	atoi@s+1,tblptrh
  2718  003332                     	if	0	;tblptru may be non-zero
  2719  003332                     	endif
  2720  003332                     	if	1	;Program memory is > 0xFFFF, there are 3 active tblptr bytes
  2721  003332  0E00               	movlw	low (__mediumconst shr (0+16))
  2722  003334  6EF8               	movwf	tblptru,c
  2723  003336                     	endif
  2724  003336  0008               	tblrd		*
  2725  003338  50F5               	movf	tablat,w,c
  2726  00333A  6E0C               	movwf	(??_atoi+2)^(0+1280),c
  2727  00333C  6A0D               	clrf	(??_atoi+3)^(0+1280),c
  2728  00333E  500A               	movf	??_atoi^(0+1280),w,c
  2729  003340  260C               	addwf	(??_atoi+2)^(0+1280),f,c
  2730  003342  500B               	movf	(??_atoi+1)^(0+1280),w,c
  2731  003344  220D               	addwfc	(??_atoi+3)^(0+1280),f,c
  2732  003346  500D               	movf	(??_atoi+3)^(0+1280),w,c
  2733  003348  E109               	bnz	u1510
  2734  00334A  0E05               	movlw	5
  2735  00334C  5C0C               	subwf	(??_atoi+2)^(0+1280),w,c
  2736  00334E  A0D8               	btfss	status,0,c
  2737  003350  EFAC  F019         	goto	u1511
  2738  003354  EFAE  F019         	goto	u1510
  2739  003358                     u1511:
  2740  003358  EFB0  F019         	goto	l2119
  2741  00335C                     u1510:
  2742  00335C  0E00               	movlw	0
  2743  00335E  6E14               	movwf	_atoi$850^(0+1280),c
  2744  003360                     l2119:
  2745  003360  C514  F510         	movff	_atoi$850,_atoi$849
  2746  003364  6A11               	clrf	(_atoi$849+1)^(0+1280),c
  2747  003366  5010               	movf	_atoi$849^(0+1280),w,c
  2748  003368  1011               	iorwf	(_atoi$849+1)^(0+1280),w,c
  2749  00336A  A4D8               	btfss	status,2,c
  2750  00336C  EFBA  F019         	goto	u1521
  2751  003370  EFBC  F019         	goto	u1520
  2752  003374                     u1521:
  2753  003374  EF79  F019         	goto	l2109
  2754  003378                     u1520:
  2755  003378  EFC6  F019         	goto	l2129
  2756  00337C                     l2125:
  2757  00337C  0E00               	movlw	0
  2758  00337E  6E0F               	movwf	(atoi@neg+1)^(0+1280),c
  2759  003380  0E01               	movlw	1
  2760  003382  6E0E               	movwf	atoi@neg^(0+1280),c
  2761  003384                     l2127:
  2762  003384  4A08               	infsnz	atoi@s^(0+1280),f,c
  2763  003386  2A09               	incf	(atoi@s+1)^(0+1280),f,c
  2764  003388  EF03  F01A         	goto	l2135
  2765  00338C                     l2129:
  2766  00338C  0061  F420  F4F6   	movff	atoi@s,tblptrl
  2767  003392  0061  F424  F4F7   	movff	atoi@s+1,tblptrh
  2768  003398                     	if	0	;tblptru may be non-zero
  2769  003398                     	endif
  2770  003398                     	if	1	;Program memory is > 0xFFFF, there are 3 active tblptr bytes
  2771  003398  0E00               	movlw	low (__mediumconst shr (0+16))
  2772  00339A  6EF8               	movwf	tblptru,c
  2773  00339C                     	endif
  2774  00339C  0008               	tblrd		*
  2775  00339E  50F5               	movf	tablat,w,c
  2776  0033A0  6E0A               	movwf	??_atoi^(0+1280),c
  2777  0033A2  6A0B               	clrf	(??_atoi+1)^(0+1280),c
  2778                           
  2779                           ; Switch on 2 bytes has been partitioned into a top level switch of size 1, and 1 sub-sw
      +                          itches
  2780                           ; Switch size 1, requested type "simple"
  2781                           ; Number of cases is 1, Range of values is 0 to 0
  2782                           ; switch strategies available:
  2783                           ; Name         Instructions Cycles
  2784                           ; simple_byte            4     3 (average)
  2785                           ;	Chosen strategy is simple_byte
  2786  0033A4  500B               	movf	(??_atoi+1)^(0+1280),w,c
  2787  0033A6  0A00               	xorlw	0	; case 0
  2788  0033A8  B4D8               	btfsc	status,2,c
  2789  0033AA  EFD9  F019         	goto	l2889
  2790  0033AE  EF03  F01A         	goto	l2135
  2791  0033B2                     l2889:
  2792                           
  2793                           ; Switch size 1, requested type "simple"
  2794                           ; Number of cases is 2, Range of values is 43 to 45
  2795                           ; switch strategies available:
  2796                           ; Name         Instructions Cycles
  2797                           ; simple_byte            7     4 (average)
  2798                           ;	Chosen strategy is simple_byte
  2799  0033B2  500A               	movf	??_atoi^(0+1280),w,c
  2800  0033B4  0A2B               	xorlw	43	; case 43
  2801  0033B6  B4D8               	btfsc	status,2,c
  2802  0033B8  EFC2  F019         	goto	l2127
  2803  0033BC  0A06               	xorlw	6	; case 45
  2804  0033BE  B4D8               	btfsc	status,2,c
  2805  0033C0  EFBE  F019         	goto	l2125
  2806  0033C4  EF03  F01A         	goto	l2135
  2807  0033C8                     l2131:
  2808  0033C8  C515  F501         	movff	atoi@n,___wmul@multiplier
  2809  0033CC  C516  F502         	movff	atoi@n+1,___wmul@multiplier+1
  2810  0033D0  0E00               	movlw	0
  2811  0033D2  6E04               	movwf	(___wmul@multiplicand+1)^(0+1280),c
  2812  0033D4  0E0A               	movlw	10
  2813  0033D6  6E03               	movwf	___wmul@multiplicand^(0+1280),c
  2814  0033D8  EC4F  F020         	call	___wmul	;wreg free
  2815  0033DC  0061  F420  F4F6   	movff	atoi@s,tblptrl
  2816  0033E2  0061  F424  F4F7   	movff	atoi@s+1,tblptrh
  2817  0033E8                     	if	0	;tblptru may be non-zero
  2818  0033E8                     	endif
  2819  0033E8                     	if	1	;Program memory is > 0xFFFF, there are 3 active tblptr bytes
  2820  0033E8  0E00               	movlw	low (__mediumconst shr (0+16))
  2821  0033EA  6EF8               	movwf	tblptru,c
  2822  0033EC                     	endif
  2823  0033EC  0008               	tblrd		*
  2824  0033EE  50F5               	movf	tablat,w,c
  2825  0033F0  5E01               	subwf	?___wmul^(0+1280),f,c
  2826  0033F2  0E00               	movlw	0
  2827  0033F4  5A02               	subwfb	(?___wmul+1)^(0+1280),f,c
  2828  0033F6  0E30               	movlw	48
  2829  0033F8  2401               	addwf	?___wmul^(0+1280),w,c
  2830  0033FA  6E15               	movwf	atoi@n^(0+1280),c
  2831  0033FC  0E00               	movlw	0
  2832  0033FE  2002               	addwfc	(?___wmul+1)^(0+1280),w,c
  2833  003400  6E16               	movwf	(atoi@n+1)^(0+1280),c
  2834  003402  EFC2  F019         	goto	l2127
  2835  003406                     l2135:
  2836  003406  0ED0               	movlw	208
  2837  003408  6E0A               	movwf	??_atoi^(0+1280),c
  2838  00340A  0EFF               	movlw	255
  2839  00340C  6E0B               	movwf	(??_atoi+1)^(0+1280),c
  2840  00340E  0061  F420  F4F6   	movff	atoi@s,tblptrl
  2841  003414  0061  F424  F4F7   	movff	atoi@s+1,tblptrh
  2842  00341A                     	if	0	;tblptru may be non-zero
  2843  00341A                     	endif
  2844  00341A                     	if	1	;Program memory is > 0xFFFF, there are 3 active tblptr bytes
  2845  00341A  0E00               	movlw	low (__mediumconst shr (0+16))
  2846  00341C  6EF8               	movwf	tblptru,c
  2847  00341E                     	endif
  2848  00341E  0008               	tblrd		*
  2849  003420  50F5               	movf	tablat,w,c
  2850  003422  6E0C               	movwf	(??_atoi+2)^(0+1280),c
  2851  003424  6A0D               	clrf	(??_atoi+3)^(0+1280),c
  2852  003426  500A               	movf	??_atoi^(0+1280),w,c
  2853  003428  260C               	addwf	(??_atoi+2)^(0+1280),f,c
  2854  00342A  500B               	movf	(??_atoi+1)^(0+1280),w,c
  2855  00342C  220D               	addwfc	(??_atoi+3)^(0+1280),f,c
  2856  00342E  500D               	movf	(??_atoi+3)^(0+1280),w,c
  2857  003430  E10A               	bnz	u1530
  2858  003432  0E0A               	movlw	10
  2859  003434  5C0C               	subwf	(??_atoi+2)^(0+1280),w,c
  2860  003436  A0D8               	btfss	status,0,c
  2861  003438  EF20  F01A         	goto	u1531
  2862  00343C  EF23  F01A         	goto	u1530
  2863  003440                     u1531:
  2864  003440  0E01               	movlw	1
  2865  003442  EF24  F01A         	goto	u1540
  2866  003446                     u1530:
  2867  003446  0E00               	movlw	0
  2868  003448                     u1540:
  2869  003448  6E12               	movwf	_atoi$851^(0+1280),c
  2870  00344A  6A13               	clrf	(_atoi$851+1)^(0+1280),c
  2871  00344C  5012               	movf	_atoi$851^(0+1280),w,c
  2872  00344E  1013               	iorwf	(_atoi$851+1)^(0+1280),w,c
  2873  003450  A4D8               	btfss	status,2,c
  2874  003452  EF2D  F01A         	goto	u1551
  2875  003456  EF2F  F01A         	goto	u1550
  2876  00345A                     u1551:
  2877  00345A  EFE4  F019         	goto	l2131
  2878  00345E                     u1550:
  2879  00345E  500E               	movf	atoi@neg^(0+1280),w,c
  2880  003460  100F               	iorwf	(atoi@neg+1)^(0+1280),w,c
  2881  003462  A4D8               	btfss	status,2,c
  2882  003464  EF36  F01A         	goto	u1561
  2883  003468  EF38  F01A         	goto	u1560
  2884  00346C                     u1561:
  2885  00346C  EF46  F01A         	goto	l967
  2886  003470                     u1560:
  2887  003470  C515  F50A         	movff	atoi@n,??_atoi
  2888  003474  C516  F50B         	movff	atoi@n+1,??_atoi+1
  2889  003478  1E0A               	comf	??_atoi^(0+1280),f,c
  2890  00347A  1E0B               	comf	(??_atoi+1)^(0+1280),f,c
  2891  00347C  4A0A               	infsnz	??_atoi^(0+1280),f,c
  2892  00347E  2A0B               	incf	(??_atoi+1)^(0+1280),f,c
  2893  003480  C50A  F508         	movff	??_atoi,?_atoi
  2894  003484  C50B  F509         	movff	??_atoi+1,?_atoi+1
  2895  003488  EF4A  F01A         	goto	l970
  2896  00348C                     l967:
  2897  00348C  C515  F508         	movff	atoi@n,?_atoi
  2898  003490  C516  F509         	movff	atoi@n+1,?_atoi+1
  2899  003494                     l970:
  2900  003494  0012               	return		;funcret
  2901  003496                     __end_of_atoi:
  2902                           	callstack 0
  2903                           
  2904 ;; *************** function _isspace *****************
  2905 ;; Defined at:
  2906 ;;		line 5 in file "C:\Program Files\Microchip\xc8\v2.32\pic\sources\c99\common\isspace.c"
  2907 ;; Parameters:    Size  Location     Type
  2908 ;;  c               2    0[COMRAM] int 
  2909 ;; Auto vars:     Size  Location     Type
  2910 ;;		None
  2911 ;; Return value:  Size  Location     Type
  2912 ;;                  2    0[COMRAM] int 
  2913 ;; Registers used:
  2914 ;;		wreg, status,2, status,0
  2915 ;; Tracked objects:
  2916 ;;		On entry : 0/0
  2917 ;;		On exit  : 0/0
  2918 ;;		Unchanged: 0/0
  2919 ;; Data sizes:     COMRAM   BANK5   BANK6   BANK7   BANK8   BANK9  BANK10  BANK11  BANK12  BANK13  BANK14  BANK15  BANK1
      +6  BANK17  BANK18  BANK19  BANK20  BANK21  BANK22  BANK23  BANK24  BANK25  BANK26  BANK27  BANK28  BANK29  BANK30  BANK3
      +1  BANK32  BANK33  BANK34  BANK35  BANK36
  2920 ;;      Params:         2       0       0       0       0       0       0       0       0       0       0       0       
      +0       0       0       0       0       0       0       0       0       0       0       0       0       0       0       
      +0       0       0       0       0       0
  2921 ;;      Locals:         1       0       0       0       0       0       0       0       0       0       0       0       
      +0       0       0       0       0       0       0       0       0       0       0       0       0       0       0       
      +0       0       0       0       0       0
  2922 ;;      Temps:          4       0       0       0       0       0       0       0       0       0       0       0       
      +0       0       0       0       0       0       0       0       0       0       0       0       0       0       0       
      +0       0       0       0       0       0
  2923 ;;      Totals:         7       0       0       0       0       0       0       0       0       0       0       0       
      +0       0       0       0       0       0       0       0       0       0       0       0       0       0       0       
      +0       0       0       0       0       0
  2924 ;;Total ram usage:        7 bytes
  2925 ;; Hardware stack levels used: 1
  2926 ;; Hardware stack levels required when called: 1
  2927 ;; This function calls:
  2928 ;;		Nothing
  2929 ;; This function is called by:
  2930 ;;		_atoi
  2931 ;; This function uses a non-reentrant model
  2932 ;;
  2933                           
  2934                           	psect	text13
  2935  003E8E                     __ptext13:
  2936                           	callstack 0
  2937  003E8E                     _isspace:
  2938                           	callstack 121
  2939  003E8E  0E01               	movlw	1
  2940  003E90  6E07               	movwf	_isspace$867^(0+1280),c
  2941  003E92  0E20               	movlw	32
  2942  003E94  1801               	xorwf	isspace@c^(0+1280),w,c
  2943  003E96  1002               	iorwf	(isspace@c+1)^(0+1280),w,c
  2944  003E98  B4D8               	btfsc	status,2,c
  2945  003E9A  EF51  F01F         	goto	u1411
  2946  003E9E  EF53  F01F         	goto	u1410
  2947  003EA2                     u1411:
  2948  003EA2  EF6C  F01F         	goto	l2049
  2949  003EA6                     u1410:
  2950  003EA6  0EF7               	movlw	247
  2951  003EA8  6E03               	movwf	??_isspace^(0+1280),c
  2952  003EAA  0EFF               	movlw	255
  2953  003EAC  6E04               	movwf	(??_isspace+1)^(0+1280),c
  2954  003EAE  C501  F505         	movff	isspace@c,??_isspace+2
  2955  003EB2  C502  F506         	movff	isspace@c+1,??_isspace+3
  2956  003EB6  5003               	movf	??_isspace^(0+1280),w,c
  2957  003EB8  2605               	addwf	(??_isspace+2)^(0+1280),f,c
  2958  003EBA  5004               	movf	(??_isspace+1)^(0+1280),w,c
  2959  003EBC  2206               	addwfc	(??_isspace+3)^(0+1280),f,c
  2960  003EBE  5006               	movf	(??_isspace+3)^(0+1280),w,c
  2961  003EC0  E109               	bnz	u1420
  2962  003EC2  0E05               	movlw	5
  2963  003EC4  5C05               	subwf	(??_isspace+2)^(0+1280),w,c
  2964  003EC6  A0D8               	btfss	status,0,c
  2965  003EC8  EF68  F01F         	goto	u1421
  2966  003ECC  EF6A  F01F         	goto	u1420
  2967  003ED0                     u1421:
  2968  003ED0  EF6C  F01F         	goto	l2049
  2969  003ED4                     u1420:
  2970  003ED4  0E00               	movlw	0
  2971  003ED6  6E07               	movwf	_isspace$867^(0+1280),c
  2972  003ED8                     l2049:
  2973  003ED8  C507  F501         	movff	_isspace$867,?_isspace
  2974  003EDC  6A02               	clrf	(?_isspace+1)^(0+1280),c
  2975  003EDE  0012               	return		;funcret
  2976  003EE0                     __end_of_isspace:
  2977                           	callstack 0
  2978                           
  2979 ;; *************** function _isdigit *****************
  2980 ;; Defined at:
  2981 ;;		line 5 in file "C:\Program Files\Microchip\xc8\v2.32\pic\sources\c99\common\isdigit.c"
  2982 ;; Parameters:    Size  Location     Type
  2983 ;;  c               2    0[COMRAM] int 
  2984 ;; Auto vars:     Size  Location     Type
  2985 ;;		None
  2986 ;; Return value:  Size  Location     Type
  2987 ;;                  2    0[COMRAM] int 
  2988 ;; Registers used:
  2989 ;;		wreg, status,2, status,0
  2990 ;; Tracked objects:
  2991 ;;		On entry : 0/0
  2992 ;;		On exit  : 0/0
  2993 ;;		Unchanged: 0/0
  2994 ;; Data sizes:     COMRAM   BANK5   BANK6   BANK7   BANK8   BANK9  BANK10  BANK11  BANK12  BANK13  BANK14  BANK15  BANK1
      +6  BANK17  BANK18  BANK19  BANK20  BANK21  BANK22  BANK23  BANK24  BANK25  BANK26  BANK27  BANK28  BANK29  BANK30  BANK3
      +1  BANK32  BANK33  BANK34  BANK35  BANK36
  2995 ;;      Params:         2       0       0       0       0       0       0       0       0       0       0       0       
      +0       0       0       0       0       0       0       0       0       0       0       0       0       0       0       
      +0       0       0       0       0       0
  2996 ;;      Locals:         0       0       0       0       0       0       0       0       0       0       0       0       
      +0       0       0       0       0       0       0       0       0       0       0       0       0       0       0       
      +0       0       0       0       0       0
  2997 ;;      Temps:          4       0       0       0       0       0       0       0       0       0       0       0       
      +0       0       0       0       0       0       0       0       0       0       0       0       0       0       0       
      +0       0       0       0       0       0
  2998 ;;      Totals:         6       0       0       0       0       0       0       0       0       0       0       0       
      +0       0       0       0       0       0       0       0       0       0       0       0       0       0       0       
      +0       0       0       0       0       0
  2999 ;;Total ram usage:        6 bytes
  3000 ;; Hardware stack levels used: 1
  3001 ;; Hardware stack levels required when called: 1
  3002 ;; This function calls:
  3003 ;;		Nothing
  3004 ;; This function is called by:
  3005 ;;		_vfpfcnvrt
  3006 ;;		_atoi
  3007 ;; This function uses a non-reentrant model
  3008 ;;
  3009                           
  3010                           	psect	text14
  3011  004066                     __ptext14:
  3012                           	callstack 0
  3013  004066                     _isdigit:
  3014                           	callstack 122
  3015  004066  0ED0               	movlw	208
  3016  004068  6E03               	movwf	??_isdigit^(0+1280),c
  3017  00406A  0EFF               	movlw	255
  3018  00406C  6E04               	movwf	(??_isdigit+1)^(0+1280),c
  3019  00406E  C501  F505         	movff	isdigit@c,??_isdigit+2
  3020  004072  C502  F506         	movff	isdigit@c+1,??_isdigit+3
  3021  004076  5003               	movf	??_isdigit^(0+1280),w,c
  3022  004078  2605               	addwf	(??_isdigit+2)^(0+1280),f,c
  3023  00407A  5004               	movf	(??_isdigit+1)^(0+1280),w,c
  3024  00407C  2206               	addwfc	(??_isdigit+3)^(0+1280),f,c
  3025  00407E  5006               	movf	(??_isdigit+3)^(0+1280),w,c
  3026  004080  E10A               	bnz	u1390
  3027  004082  0E0A               	movlw	10
  3028  004084  5C05               	subwf	(??_isdigit+2)^(0+1280),w,c
  3029  004086  A0D8               	btfss	status,0,c
  3030  004088  EF48  F020         	goto	u1391
  3031  00408C  EF4B  F020         	goto	u1390
  3032  004090                     u1391:
  3033  004090  0E01               	movlw	1
  3034  004092  EF4C  F020         	goto	u1400
  3035  004096                     u1390:
  3036  004096  0E00               	movlw	0
  3037  004098                     u1400:
  3038  004098  6E01               	movwf	?_isdigit^(0+1280),c
  3039  00409A  6A02               	clrf	(?_isdigit+1)^(0+1280),c
  3040  00409C  0012               	return		;funcret
  3041  00409E                     __end_of_isdigit:
  3042                           	callstack 0
  3043                           
  3044 ;; *************** function ___wmul *****************
  3045 ;; Defined at:
  3046 ;;		line 15 in file "C:\Program Files\Microchip\xc8\v2.32\pic\sources\c99\common\Umul16.c"
  3047 ;; Parameters:    Size  Location     Type
  3048 ;;  multiplier      2    0[COMRAM] unsigned int 
  3049 ;;  multiplicand    2    2[COMRAM] unsigned int 
  3050 ;; Auto vars:     Size  Location     Type
  3051 ;;  product         2    4[COMRAM] unsigned int 
  3052 ;; Return value:  Size  Location     Type
  3053 ;;                  2    0[COMRAM] unsigned int 
  3054 ;; Registers used:
  3055 ;;		wreg, status,2, status,0, prodl, prodh
  3056 ;; Tracked objects:
  3057 ;;		On entry : 0/0
  3058 ;;		On exit  : 0/0
  3059 ;;		Unchanged: 0/0
  3060 ;; Data sizes:     COMRAM   BANK5   BANK6   BANK7   BANK8   BANK9  BANK10  BANK11  BANK12  BANK13  BANK14  BANK15  BANK1
      +6  BANK17  BANK18  BANK19  BANK20  BANK21  BANK22  BANK23  BANK24  BANK25  BANK26  BANK27  BANK28  BANK29  BANK30  BANK3
      +1  BANK32  BANK33  BANK34  BANK35  BANK36
  3061 ;;      Params:         4       0       0       0       0       0       0       0       0       0       0       0       
      +0       0       0       0       0       0       0       0       0       0       0       0       0       0       0       
      +0       0       0       0       0       0
  3062 ;;      Locals:         2       0       0       0       0       0       0       0       0       0       0       0       
      +0       0       0       0       0       0       0       0       0       0       0       0       0       0       0       
      +0       0       0       0       0       0
  3063 ;;      Temps:          0       0       0       0       0       0       0       0       0       0       0       0       
      +0       0       0       0       0       0       0       0       0       0       0       0       0       0       0       
      +0       0       0       0       0       0
  3064 ;;      Totals:         6       0       0       0       0       0       0       0       0       0       0       0       
      +0       0       0       0       0       0       0       0       0       0       0       0       0       0       0       
      +0       0       0       0       0       0
  3065 ;;Total ram usage:        6 bytes
  3066 ;; Hardware stack levels used: 1
  3067 ;; Hardware stack levels required when called: 1
  3068 ;; This function calls:
  3069 ;;		Nothing
  3070 ;; This function is called by:
  3071 ;;		_atoi
  3072 ;; This function uses a non-reentrant model
  3073 ;;
  3074                           
  3075                           	psect	text15
  3076  00409E                     __ptext15:
  3077                           	callstack 0
  3078  00409E                     ___wmul:
  3079                           	callstack 121
  3080  00409E  5001               	movf	___wmul@multiplier^(0+1280),w,c
  3081  0040A0  0203               	mulwf	___wmul@multiplicand^(0+1280),c
  3082  0040A2  0061 F3CC  F505    	movff	prodl,___wmul@product
  3083  0040A8  0061 F3D0  F506    	movff	prodh,___wmul@product+1
  3084  0040AE  5001               	movf	___wmul@multiplier^(0+1280),w,c
  3085  0040B0  0204               	mulwf	(___wmul@multiplicand+1)^(0+1280),c
  3086  0040B2  50F3               	movf	243,w,c
  3087  0040B4  2606               	addwf	(___wmul@product+1)^(0+1280),f,c
  3088  0040B6  5002               	movf	(___wmul@multiplier+1)^(0+1280),w,c
  3089  0040B8  0203               	mulwf	___wmul@multiplicand^(0+1280),c
  3090  0040BA  50F3               	movf	243,w,c
  3091  0040BC  2606               	addwf	(___wmul@product+1)^(0+1280),f,c
  3092  0040BE  C505  F501         	movff	___wmul@product,?___wmul
  3093  0040C2  C506  F502         	movff	___wmul@product+1,?___wmul+1
  3094  0040C6  0012               	return		;funcret
  3095  0040C8                     __end_of___wmul:
  3096                           	callstack 0
  3097                           
  3098 ;; *************** function ___xxtofl *****************
  3099 ;; Defined at:
  3100 ;;		line 10 in file "C:\Program Files\Microchip\xc8\v2.32\pic\sources\c99\common\xxtofl.c"
  3101 ;; Parameters:    Size  Location     Type
  3102 ;;  sign            1    wreg     unsigned char 
  3103 ;;  val             4    0[COMRAM] long 
  3104 ;; Auto vars:     Size  Location     Type
  3105 ;;  sign            1    8[COMRAM] unsigned char 
  3106 ;;  arg             4   10[COMRAM] unsigned long 
  3107 ;;  exp             1    9[COMRAM] unsigned char 
  3108 ;; Return value:  Size  Location     Type
  3109 ;;                  4    0[COMRAM] unsigned char 
  3110 ;; Registers used:
  3111 ;;		wreg, status,2, status,0
  3112 ;; Tracked objects:
  3113 ;;		On entry : 0/0
  3114 ;;		On exit  : 0/0
  3115 ;;		Unchanged: 0/0
  3116 ;; Data sizes:     COMRAM   BANK5   BANK6   BANK7   BANK8   BANK9  BANK10  BANK11  BANK12  BANK13  BANK14  BANK15  BANK1
      +6  BANK17  BANK18  BANK19  BANK20  BANK21  BANK22  BANK23  BANK24  BANK25  BANK26  BANK27  BANK28  BANK29  BANK30  BANK3
      +1  BANK32  BANK33  BANK34  BANK35  BANK36
  3117 ;;      Params:         4       0       0       0       0       0       0       0       0       0       0       0       
      +0       0       0       0       0       0       0       0       0       0       0       0       0       0       0       
      +0       0       0       0       0       0
  3118 ;;      Locals:         6       0       0       0       0       0       0       0       0       0       0       0       
      +0       0       0       0       0       0       0       0       0       0       0       0       0       0       0       
      +0       0       0       0       0       0
  3119 ;;      Temps:          4       0       0       0       0       0       0       0       0       0       0       0       
      +0       0       0       0       0       0       0       0       0       0       0       0       0       0       0       
      +0       0       0       0       0       0
  3120 ;;      Totals:        14       0       0       0       0       0       0       0       0       0       0       0       
      +0       0       0       0       0       0       0       0       0       0       0       0       0       0       0       
      +0       0       0       0       0       0
  3121 ;;Total ram usage:       14 bytes
  3122 ;; Hardware stack levels used: 1
  3123 ;; Hardware stack levels required when called: 1
  3124 ;; This function calls:
  3125 ;;		Nothing
  3126 ;; This function is called by:
  3127 ;;		_main
  3128 ;; This function uses a non-reentrant model
  3129 ;;
  3130                           
  3131                           	psect	text16
  3132  003496                     __ptext16:
  3133                           	callstack 0
  3134  003496                     ___xxtofl:
  3135                           	callstack 125
  3136                           
  3137                           ;incstack = 0
  3138                           ;___xxtofl@sign stored from wreg
  3139  003496  6E09               	movwf	___xxtofl@sign^(0+1280),c
  3140  003498  5009               	movf	___xxtofl@sign^(0+1280),w,c
  3141  00349A  B4D8               	btfsc	status,2,c
  3142  00349C  EF52  F01A         	goto	u2221
  3143  0034A0  EF54  F01A         	goto	u2220
  3144  0034A4                     u2221:
  3145  0034A4  EF76  F01A         	goto	l833
  3146  0034A8                     u2220:
  3147  0034A8  BE04               	btfsc	(___xxtofl@val+3)^(0+1280),7,c
  3148  0034AA  EF5B  F01A         	goto	u2230
  3149  0034AE  EF59  F01A         	goto	u2231
  3150  0034B2                     u2231:
  3151  0034B2  EF76  F01A         	goto	l833
  3152  0034B6                     u2230:
  3153  0034B6  C501  F505         	movff	___xxtofl@val,??___xxtofl
  3154  0034BA  C502  F506         	movff	___xxtofl@val+1,??___xxtofl+1
  3155  0034BE  C503  F507         	movff	___xxtofl@val+2,??___xxtofl+2
  3156  0034C2  C504  F508         	movff	___xxtofl@val+3,??___xxtofl+3
  3157  0034C6  1E05               	comf	??___xxtofl^(0+1280),f,c
  3158  0034C8  1E06               	comf	(??___xxtofl+1)^(0+1280),f,c
  3159  0034CA  1E07               	comf	(??___xxtofl+2)^(0+1280),f,c
  3160  0034CC  1E08               	comf	(??___xxtofl+3)^(0+1280),f,c
  3161  0034CE  2A05               	incf	??___xxtofl^(0+1280),f,c
  3162  0034D0  0E00               	movlw	0
  3163  0034D2  2206               	addwfc	(??___xxtofl+1)^(0+1280),f,c
  3164  0034D4  2207               	addwfc	(??___xxtofl+2)^(0+1280),f,c
  3165  0034D6  2208               	addwfc	(??___xxtofl+3)^(0+1280),f,c
  3166  0034D8  C505  F50B         	movff	??___xxtofl,___xxtofl@arg
  3167  0034DC  C506  F50C         	movff	??___xxtofl+1,___xxtofl@arg+1
  3168  0034E0  C507  F50D         	movff	??___xxtofl+2,___xxtofl@arg+2
  3169  0034E4  C508  F50E         	movff	??___xxtofl+3,___xxtofl@arg+3
  3170  0034E8  EF7E  F01A         	goto	l2723
  3171  0034EC                     l833:
  3172  0034EC  C501  F50B         	movff	___xxtofl@val,___xxtofl@arg
  3173  0034F0  C502  F50C         	movff	___xxtofl@val+1,___xxtofl@arg+1
  3174  0034F4  C503  F50D         	movff	___xxtofl@val+2,___xxtofl@arg+2
  3175  0034F8  C504  F50E         	movff	___xxtofl@val+3,___xxtofl@arg+3
  3176  0034FC                     l2723:
  3177  0034FC  5001               	movf	___xxtofl@val^(0+1280),w,c
  3178  0034FE  1002               	iorwf	(___xxtofl@val+1)^(0+1280),w,c
  3179  003500  1003               	iorwf	(___xxtofl@val+2)^(0+1280),w,c
  3180  003502  1004               	iorwf	(___xxtofl@val+3)^(0+1280),w,c
  3181  003504  A4D8               	btfss	status,2,c
  3182  003506  EF87  F01A         	goto	u2241
  3183  00350A  EF89  F01A         	goto	u2240
  3184  00350E                     u2241:
  3185  00350E  EF93  F01A         	goto	l2729
  3186  003512                     u2240:
  3187  003512  0E00               	movlw	0
  3188  003514  6E01               	movwf	?___xxtofl^(0+1280),c
  3189  003516  0E00               	movlw	0
  3190  003518  6E02               	movwf	(?___xxtofl+1)^(0+1280),c
  3191  00351A  0E00               	movlw	0
  3192  00351C  6E03               	movwf	(?___xxtofl+2)^(0+1280),c
  3193  00351E  0E00               	movlw	0
  3194  003520  6E04               	movwf	(?___xxtofl+3)^(0+1280),c
  3195  003522  EF24  F01B         	goto	l836
  3196  003526                     l2729:
  3197  003526  0E96               	movlw	150
  3198  003528  6E0A               	movwf	___xxtofl@exp^(0+1280),c
  3199  00352A  EF9D  F01A         	goto	l2733
  3200  00352E                     l2731:
  3201  00352E  2A0A               	incf	___xxtofl@exp^(0+1280),f,c
  3202  003530  90D8               	bcf	status,0,c
  3203  003532  320E               	rrcf	(___xxtofl@arg+3)^(0+1280),f,c
  3204  003534  320D               	rrcf	(___xxtofl@arg+2)^(0+1280),f,c
  3205  003536  320C               	rrcf	(___xxtofl@arg+1)^(0+1280),f,c
  3206  003538  320B               	rrcf	___xxtofl@arg^(0+1280),f,c
  3207  00353A                     l2733:
  3208  00353A  0E00               	movlw	0
  3209  00353C  140B               	andwf	___xxtofl@arg^(0+1280),w,c
  3210  00353E  6E05               	movwf	??___xxtofl^(0+1280),c
  3211  003540  0E00               	movlw	0
  3212  003542  140C               	andwf	(___xxtofl@arg+1)^(0+1280),w,c
  3213  003544  6E06               	movwf	(??___xxtofl+1)^(0+1280),c
  3214  003546  0E00               	movlw	0
  3215  003548  140D               	andwf	(___xxtofl@arg+2)^(0+1280),w,c
  3216  00354A  6E07               	movwf	(??___xxtofl+2)^(0+1280),c
  3217  00354C  0EFE               	movlw	254
  3218  00354E  140E               	andwf	(___xxtofl@arg+3)^(0+1280),w,c
  3219  003550  6E08               	movwf	(??___xxtofl+3)^(0+1280),c
  3220  003552  5005               	movf	??___xxtofl^(0+1280),w,c
  3221  003554  1006               	iorwf	(??___xxtofl+1)^(0+1280),w,c
  3222  003556  1007               	iorwf	(??___xxtofl+2)^(0+1280),w,c
  3223  003558  1008               	iorwf	(??___xxtofl+3)^(0+1280),w,c
  3224  00355A  A4D8               	btfss	status,2,c
  3225  00355C  EFB2  F01A         	goto	u2251
  3226  003560  EFB4  F01A         	goto	u2250
  3227  003564                     u2251:
  3228  003564  EF97  F01A         	goto	l2731
  3229  003568                     u2250:
  3230  003568  EFC2  F01A         	goto	l840
  3231  00356C                     l2735:
  3232  00356C  2A0A               	incf	___xxtofl@exp^(0+1280),f,c
  3233  00356E  0E01               	movlw	1
  3234  003570  260B               	addwf	___xxtofl@arg^(0+1280),f,c
  3235  003572  0E00               	movlw	0
  3236  003574  220C               	addwfc	(___xxtofl@arg+1)^(0+1280),f,c
  3237  003576  220D               	addwfc	(___xxtofl@arg+2)^(0+1280),f,c
  3238  003578  220E               	addwfc	(___xxtofl@arg+3)^(0+1280),f,c
  3239  00357A  90D8               	bcf	status,0,c
  3240  00357C  320E               	rrcf	(___xxtofl@arg+3)^(0+1280),f,c
  3241  00357E  320D               	rrcf	(___xxtofl@arg+2)^(0+1280),f,c
  3242  003580  320C               	rrcf	(___xxtofl@arg+1)^(0+1280),f,c
  3243  003582  320B               	rrcf	___xxtofl@arg^(0+1280),f,c
  3244  003584                     l840:
  3245  003584  0E00               	movlw	0
  3246  003586  140B               	andwf	___xxtofl@arg^(0+1280),w,c
  3247  003588  6E05               	movwf	??___xxtofl^(0+1280),c
  3248  00358A  0E00               	movlw	0
  3249  00358C  140C               	andwf	(___xxtofl@arg+1)^(0+1280),w,c
  3250  00358E  6E06               	movwf	(??___xxtofl+1)^(0+1280),c
  3251  003590  0E00               	movlw	0
  3252  003592  140D               	andwf	(___xxtofl@arg+2)^(0+1280),w,c
  3253  003594  6E07               	movwf	(??___xxtofl+2)^(0+1280),c
  3254  003596  0EFF               	movlw	255
  3255  003598  140E               	andwf	(___xxtofl@arg+3)^(0+1280),w,c
  3256  00359A  6E08               	movwf	(??___xxtofl+3)^(0+1280),c
  3257  00359C  5005               	movf	??___xxtofl^(0+1280),w,c
  3258  00359E  1006               	iorwf	(??___xxtofl+1)^(0+1280),w,c
  3259  0035A0  1007               	iorwf	(??___xxtofl+2)^(0+1280),w,c
  3260  0035A2  1008               	iorwf	(??___xxtofl+3)^(0+1280),w,c
  3261  0035A4  A4D8               	btfss	status,2,c
  3262  0035A6  EFD7  F01A         	goto	u2261
  3263  0035AA  EFD9  F01A         	goto	u2260
  3264  0035AE                     u2261:
  3265  0035AE  EFB6  F01A         	goto	l2735
  3266  0035B2                     u2260:
  3267  0035B2  EFE1  F01A         	goto	l2743
  3268  0035B6                     l2741:
  3269  0035B6  060A               	decf	___xxtofl@exp^(0+1280),f,c
  3270  0035B8  90D8               	bcf	status,0,c
  3271  0035BA  360B               	rlcf	___xxtofl@arg^(0+1280),f,c
  3272  0035BC  360C               	rlcf	(___xxtofl@arg+1)^(0+1280),f,c
  3273  0035BE  360D               	rlcf	(___xxtofl@arg+2)^(0+1280),f,c
  3274  0035C0  360E               	rlcf	(___xxtofl@arg+3)^(0+1280),f,c
  3275  0035C2                     l2743:
  3276  0035C2  BE0D               	btfsc	(___xxtofl@arg+2)^(0+1280),7,c
  3277  0035C4  EFE6  F01A         	goto	u2271
  3278  0035C8  EFE8  F01A         	goto	u2270
  3279  0035CC                     u2271:
  3280  0035CC  EFF0  F01A         	goto	l847
  3281  0035D0                     u2270:
  3282  0035D0  0E02               	movlw	2
  3283  0035D2  600A               	cpfslt	___xxtofl@exp^(0+1280),c
  3284  0035D4  EFEE  F01A         	goto	u2281
  3285  0035D8  EFF0  F01A         	goto	u2280
  3286  0035DC                     u2281:
  3287  0035DC  EFDB  F01A         	goto	l2741
  3288  0035E0                     u2280:
  3289  0035E0                     l847:
  3290  0035E0  B00A               	btfsc	___xxtofl@exp^(0+1280),0,c
  3291  0035E2  EFF5  F01A         	goto	u2291
  3292  0035E6  EFF7  F01A         	goto	u2290
  3293  0035EA                     u2291:
  3294  0035EA  EFF8  F01A         	goto	l2749
  3295  0035EE                     u2290:
  3296  0035EE  9E0D               	bcf	(___xxtofl@arg+2)^(0+1280),7,c
  3297  0035F0                     l2749:
  3298  0035F0  90D8               	bcf	status,0,c
  3299  0035F2  320A               	rrcf	___xxtofl@exp^(0+1280),f,c
  3300  0035F4  C50A  F505         	movff	___xxtofl@exp,??___xxtofl
  3301  0035F8  6A06               	clrf	(??___xxtofl+1)^(0+1280),c
  3302  0035FA  6A07               	clrf	(??___xxtofl+2)^(0+1280),c
  3303  0035FC  6A08               	clrf	(??___xxtofl+3)^(0+1280),c
  3304  0035FE  C505  F508         	movff	??___xxtofl,??___xxtofl+3
  3305  003602  6A07               	clrf	(??___xxtofl+2)^(0+1280),c
  3306  003604  6A06               	clrf	(??___xxtofl+1)^(0+1280),c
  3307  003606  6A05               	clrf	??___xxtofl^(0+1280),c
  3308  003608  5005               	movf	??___xxtofl^(0+1280),w,c
  3309  00360A  120B               	iorwf	___xxtofl@arg^(0+1280),f,c
  3310  00360C  5006               	movf	(??___xxtofl+1)^(0+1280),w,c
  3311  00360E  120C               	iorwf	(___xxtofl@arg+1)^(0+1280),f,c
  3312  003610  5007               	movf	(??___xxtofl+2)^(0+1280),w,c
  3313  003612  120D               	iorwf	(___xxtofl@arg+2)^(0+1280),f,c
  3314  003614  5008               	movf	(??___xxtofl+3)^(0+1280),w,c
  3315  003616  120E               	iorwf	(___xxtofl@arg+3)^(0+1280),f,c
  3316  003618  5009               	movf	___xxtofl@sign^(0+1280),w,c
  3317  00361A  B4D8               	btfsc	status,2,c
  3318  00361C  EF12  F01B         	goto	u2301
  3319  003620  EF14  F01B         	goto	u2300
  3320  003624                     u2301:
  3321  003624  EF1C  F01B         	goto	l2759
  3322  003628                     u2300:
  3323  003628  BE04               	btfsc	(___xxtofl@val+3)^(0+1280),7,c
  3324  00362A  EF1B  F01B         	goto	u2310
  3325  00362E  EF19  F01B         	goto	u2311
  3326  003632                     u2311:
  3327  003632  EF1C  F01B         	goto	l2759
  3328  003636                     u2310:
  3329  003636  8E0E               	bsf	(___xxtofl@arg+3)^(0+1280),7,c
  3330  003638                     l2759:
  3331  003638  C50B  F501         	movff	___xxtofl@arg,?___xxtofl
  3332  00363C  C50C  F502         	movff	___xxtofl@arg+1,?___xxtofl+1
  3333  003640  C50D  F503         	movff	___xxtofl@arg+2,?___xxtofl+2
  3334  003644  C50E  F504         	movff	___xxtofl@arg+3,?___xxtofl+3
  3335  003648                     l836:
  3336  003648  0012               	return		;funcret
  3337  00364A                     __end_of___xxtofl:
  3338                           	callstack 0
  3339                           
  3340 ;; *************** function ___fltol *****************
  3341 ;; Defined at:
  3342 ;;		line 43 in file "C:\Program Files\Microchip\xc8\v2.32\pic\sources\c99\common\fltol.c"
  3343 ;; Parameters:    Size  Location     Type
  3344 ;;  f1              4   64[COMRAM] unsigned char 
  3345 ;; Auto vars:     Size  Location     Type
  3346 ;;  exp1            1   73[COMRAM] unsigned char 
  3347 ;;  sign1           1   72[COMRAM] unsigned char 
  3348 ;; Return value:  Size  Location     Type
  3349 ;;                  4   64[COMRAM] long 
  3350 ;; Registers used:
  3351 ;;		wreg, status,2, status,0
  3352 ;; Tracked objects:
  3353 ;;		On entry : 0/0
  3354 ;;		On exit  : 0/0
  3355 ;;		Unchanged: 0/0
  3356 ;; Data sizes:     COMRAM   BANK5   BANK6   BANK7   BANK8   BANK9  BANK10  BANK11  BANK12  BANK13  BANK14  BANK15  BANK1
      +6  BANK17  BANK18  BANK19  BANK20  BANK21  BANK22  BANK23  BANK24  BANK25  BANK26  BANK27  BANK28  BANK29  BANK30  BANK3
      +1  BANK32  BANK33  BANK34  BANK35  BANK36
  3357 ;;      Params:         4       0       0       0       0       0       0       0       0       0       0       0       
      +0       0       0       0       0       0       0       0       0       0       0       0       0       0       0       
      +0       0       0       0       0       0
  3358 ;;      Locals:         2       0       0       0       0       0       0       0       0       0       0       0       
      +0       0       0       0       0       0       0       0       0       0       0       0       0       0       0       
      +0       0       0       0       0       0
  3359 ;;      Temps:          4       0       0       0       0       0       0       0       0       0       0       0       
      +0       0       0       0       0       0       0       0       0       0       0       0       0       0       0       
      +0       0       0       0       0       0
  3360 ;;      Totals:        10       0       0       0       0       0       0       0       0       0       0       0       
      +0       0       0       0       0       0       0       0       0       0       0       0       0       0       0       
      +0       0       0       0       0       0
  3361 ;;Total ram usage:       10 bytes
  3362 ;; Hardware stack levels used: 1
  3363 ;; Hardware stack levels required when called: 1
  3364 ;; This function calls:
  3365 ;;		Nothing
  3366 ;; This function is called by:
  3367 ;;		_main
  3368 ;; This function uses a non-reentrant model
  3369 ;;
  3370                           
  3371                           	psect	text17
  3372  0037A4                     __ptext17:
  3373                           	callstack 0
  3374  0037A4                     ___fltol:
  3375                           	callstack 125
  3376  0037A4  3443               	rlcf	(___fltol@f1+2)^(0+1280),w,c
  3377  0037A6  3444               	rlcf	(___fltol@f1+3)^(0+1280),w,c
  3378  0037A8  6E4A               	movwf	___fltol@exp1^(0+1280),c
  3379  0037AA  504A               	movf	___fltol@exp1^(0+1280),w,c
  3380  0037AC  A4D8               	btfss	status,2,c
  3381  0037AE  EFDB  F01B         	goto	u2151
  3382  0037B2  EFDD  F01B         	goto	u2150
  3383  0037B6                     u2151:
  3384  0037B6  EFE7  F01B         	goto	l2679
  3385  0037BA                     u2150:
  3386  0037BA                     l2675:
  3387  0037BA  0E00               	movlw	0
  3388  0037BC  6E41               	movwf	?___fltol^(0+1280),c
  3389  0037BE  0E00               	movlw	0
  3390  0037C0  6E42               	movwf	(?___fltol+1)^(0+1280),c
  3391  0037C2  0E00               	movlw	0
  3392  0037C4  6E43               	movwf	(?___fltol+2)^(0+1280),c
  3393  0037C6  0E00               	movlw	0
  3394  0037C8  6E44               	movwf	(?___fltol+3)^(0+1280),c
  3395  0037CA  EF54  F01C         	goto	l475
  3396  0037CE                     l2679:
  3397  0037CE  C541  F545         	movff	___fltol@f1,??___fltol
  3398  0037D2  C542  F546         	movff	___fltol@f1+1,??___fltol+1
  3399  0037D6  C543  F547         	movff	___fltol@f1+2,??___fltol+2
  3400  0037DA  C544  F548         	movff	___fltol@f1+3,??___fltol+3
  3401  0037DE  0E20               	movlw	32
  3402  0037E0  EFF7  F01B         	goto	u2160
  3403  0037E4                     u2165:
  3404  0037E4  90D8               	bcf	status,0,c
  3405  0037E6  3248               	rrcf	(??___fltol+3)^(0+1280),f,c
  3406  0037E8  3247               	rrcf	(??___fltol+2)^(0+1280),f,c
  3407  0037EA  3246               	rrcf	(??___fltol+1)^(0+1280),f,c
  3408  0037EC  3245               	rrcf	??___fltol^(0+1280),f,c
  3409  0037EE                     u2160:
  3410  0037EE  2EE8               	decfsz	wreg,f,c
  3411  0037F0  EFF2  F01B         	goto	u2165
  3412  0037F4  5045               	movf	??___fltol^(0+1280),w,c
  3413  0037F6  6E49               	movwf	___fltol@sign1^(0+1280),c
  3414  0037F8  8E43               	bsf	(___fltol@f1+2)^(0+1280),7,c
  3415  0037FA  0EFF               	movlw	255
  3416  0037FC  1641               	andwf	___fltol@f1^(0+1280),f,c
  3417  0037FE  0EFF               	movlw	255
  3418  003800  1642               	andwf	(___fltol@f1+1)^(0+1280),f,c
  3419  003802  0EFF               	movlw	255
  3420  003804  1643               	andwf	(___fltol@f1+2)^(0+1280),f,c
  3421  003806  0E00               	movlw	0
  3422  003808  1644               	andwf	(___fltol@f1+3)^(0+1280),f,c
  3423  00380A  0E96               	movlw	150
  3424  00380C  5E4A               	subwf	___fltol@exp1^(0+1280),f,c
  3425  00380E  BE4A               	btfsc	___fltol@exp1^(0+1280),7,c
  3426  003810  EF0E  F01C         	goto	u2170
  3427  003814  EF0C  F01C         	goto	u2171
  3428  003818                     u2171:
  3429  003818  EF24  F01C         	goto	l2699
  3430  00381C                     u2170:
  3431  00381C  504A               	movf	___fltol@exp1^(0+1280),w,c
  3432  00381E  0A80               	xorlw	128
  3433  003820  0F97               	addlw	151
  3434  003822  B0D8               	btfsc	status,0,c
  3435  003824  EF16  F01C         	goto	u2181
  3436  003828  EF18  F01C         	goto	u2180
  3437  00382C                     u2181:
  3438  00382C  EF1A  F01C         	goto	l2695
  3439  003830                     u2180:
  3440  003830  EFDD  F01B         	goto	l2675
  3441  003834                     l2695:
  3442  003834  90D8               	bcf	status,0,c
  3443  003836  3244               	rrcf	(___fltol@f1+3)^(0+1280),f,c
  3444  003838  3243               	rrcf	(___fltol@f1+2)^(0+1280),f,c
  3445  00383A  3242               	rrcf	(___fltol@f1+1)^(0+1280),f,c
  3446  00383C  3241               	rrcf	___fltol@f1^(0+1280),f,c
  3447  00383E  3E4A               	incfsz	___fltol@exp1^(0+1280),f,c
  3448  003840  EF1A  F01C         	goto	l2695
  3449  003844  EF3C  F01C         	goto	l2709
  3450  003848                     l2699:
  3451  003848  0E1F               	movlw	31
  3452  00384A  644A               	cpfsgt	___fltol@exp1^(0+1280),c
  3453  00384C  EF2A  F01C         	goto	u2191
  3454  003850  EF2C  F01C         	goto	u2190
  3455  003854                     u2191:
  3456  003854  EF34  F01C         	goto	l2707
  3457  003858                     u2190:
  3458  003858  EFDD  F01B         	goto	l2675
  3459  00385C                     l2705:
  3460  00385C  90D8               	bcf	status,0,c
  3461  00385E  3641               	rlcf	___fltol@f1^(0+1280),f,c
  3462  003860  3642               	rlcf	(___fltol@f1+1)^(0+1280),f,c
  3463  003862  3643               	rlcf	(___fltol@f1+2)^(0+1280),f,c
  3464  003864  3644               	rlcf	(___fltol@f1+3)^(0+1280),f,c
  3465  003866  064A               	decf	___fltol@exp1^(0+1280),f,c
  3466  003868                     l2707:
  3467  003868  504A               	movf	___fltol@exp1^(0+1280),w,c
  3468  00386A  A4D8               	btfss	status,2,c
  3469  00386C  EF3A  F01C         	goto	u2201
  3470  003870  EF3C  F01C         	goto	u2200
  3471  003874                     u2201:
  3472  003874  EF2E  F01C         	goto	l2705
  3473  003878                     u2200:
  3474  003878                     l2709:
  3475  003878  5049               	movf	___fltol@sign1^(0+1280),w,c
  3476  00387A  B4D8               	btfsc	status,2,c
  3477  00387C  EF42  F01C         	goto	u2211
  3478  003880  EF44  F01C         	goto	u2210
  3479  003884                     u2211:
  3480  003884  EF4C  F01C         	goto	l2713
  3481  003888                     u2210:
  3482  003888  1E44               	comf	(___fltol@f1+3)^(0+1280),f,c
  3483  00388A  1E43               	comf	(___fltol@f1+2)^(0+1280),f,c
  3484  00388C  1E42               	comf	(___fltol@f1+1)^(0+1280),f,c
  3485  00388E  6C41               	negf	___fltol@f1^(0+1280),c
  3486  003890  0E00               	movlw	0
  3487  003892  2242               	addwfc	(___fltol@f1+1)^(0+1280),f,c
  3488  003894  2243               	addwfc	(___fltol@f1+2)^(0+1280),f,c
  3489  003896  2244               	addwfc	(___fltol@f1+3)^(0+1280),f,c
  3490  003898                     l2713:
  3491  003898  C541  F541         	movff	___fltol@f1,?___fltol
  3492  00389C  C542  F542         	movff	___fltol@f1+1,?___fltol+1
  3493  0038A0  C543  F543         	movff	___fltol@f1+2,?___fltol+2
  3494  0038A4  C544  F544         	movff	___fltol@f1+3,?___fltol+3
  3495  0038A8                     l475:
  3496  0038A8  0012               	return		;funcret
  3497  0038AA                     __end_of___fltol:
  3498                           	callstack 0
  3499                           
  3500 ;; *************** function ___flmul *****************
  3501 ;; Defined at:
  3502 ;;		line 8 in file "C:\Program Files\Microchip\xc8\v2.32\pic\sources\c99\common\sprcmul.c"
  3503 ;; Parameters:    Size  Location     Type
  3504 ;;  b               4   39[COMRAM] long 
  3505 ;;  a               4   43[COMRAM] long 
  3506 ;; Auto vars:     Size  Location     Type
  3507 ;;  prod            4   58[COMRAM] struct .
  3508 ;;  grs             4   52[COMRAM] unsigned long 
  3509 ;;  temp            2   62[COMRAM] struct .
  3510 ;;  bexp            1   57[COMRAM] unsigned char 
  3511 ;;  aexp            1   56[COMRAM] unsigned char 
  3512 ;;  sign            1   51[COMRAM] unsigned char 
  3513 ;; Return value:  Size  Location     Type
  3514 ;;                  4   39[COMRAM] unsigned char 
  3515 ;; Registers used:
  3516 ;;		wreg, status,2, status,0, prodl, prodh
  3517 ;; Tracked objects:
  3518 ;;		On entry : 0/0
  3519 ;;		On exit  : 0/0
  3520 ;;		Unchanged: 0/0
  3521 ;; Data sizes:     COMRAM   BANK5   BANK6   BANK7   BANK8   BANK9  BANK10  BANK11  BANK12  BANK13  BANK14  BANK15  BANK1
      +6  BANK17  BANK18  BANK19  BANK20  BANK21  BANK22  BANK23  BANK24  BANK25  BANK26  BANK27  BANK28  BANK29  BANK30  BANK3
      +1  BANK32  BANK33  BANK34  BANK35  BANK36
  3522 ;;      Params:         8       0       0       0       0       0       0       0       0       0       0       0       
      +0       0       0       0       0       0       0       0       0       0       0       0       0       0       0       
      +0       0       0       0       0       0
  3523 ;;      Locals:        13       0       0       0       0       0       0       0       0       0       0       0       
      +0       0       0       0       0       0       0       0       0       0       0       0       0       0       0       
      +0       0       0       0       0       0
  3524 ;;      Temps:          4       0       0       0       0       0       0       0       0       0       0       0       
      +0       0       0       0       0       0       0       0       0       0       0       0       0       0       0       
      +0       0       0       0       0       0
  3525 ;;      Totals:        25       0       0       0       0       0       0       0       0       0       0       0       
      +0       0       0       0       0       0       0       0       0       0       0       0       0       0       0       
      +0       0       0       0       0       0
  3526 ;;Total ram usage:       25 bytes
  3527 ;; Hardware stack levels used: 1
  3528 ;; Hardware stack levels required when called: 1
  3529 ;; This function calls:
  3530 ;;		Nothing
  3531 ;; This function is called by:
  3532 ;;		_main
  3533 ;; This function uses a non-reentrant model
  3534 ;;
  3535                           
  3536                           	psect	text18
  3537  002520                     __ptext18:
  3538                           	callstack 0
  3539  002520                     ___flmul:
  3540                           	callstack 125
  3541  002520  502B               	movf	(___flmul@b+3)^(0+1280),w,c
  3542  002522  0B80               	andlw	128
  3543  002524  6E34               	movwf	___flmul@sign^(0+1280),c
  3544  002526  502B               	movf	(___flmul@b+3)^(0+1280),w,c
  3545  002528  242B               	addwf	(___flmul@b+3)^(0+1280),w,c
  3546  00252A  6E3A               	movwf	___flmul@bexp^(0+1280),c
  3547  00252C  AE2A               	btfss	(___flmul@b+2)^(0+1280),7,c
  3548  00252E  EF9B  F012         	goto	u1961
  3549  002532  EF9D  F012         	goto	u1960
  3550  002536                     u1961:
  3551  002536  EF9E  F012         	goto	l2549
  3552  00253A                     u1960:
  3553  00253A  803A               	bsf	___flmul@bexp^(0+1280),0,c
  3554  00253C                     l2549:
  3555  00253C  503A               	movf	___flmul@bexp^(0+1280),w,c
  3556  00253E  B4D8               	btfsc	status,2,c
  3557  002540  EFA4  F012         	goto	u1971
  3558  002544  EFA6  F012         	goto	u1970
  3559  002548                     u1971:
  3560  002548  EFB9  F012         	goto	l2557
  3561  00254C                     u1970:
  3562  00254C  283A               	incf	___flmul@bexp^(0+1280),w,c
  3563  00254E  A4D8               	btfss	status,2,c
  3564  002550  EFAC  F012         	goto	u1981
  3565  002554  EFAE  F012         	goto	u1980
  3566  002558                     u1981:
  3567  002558  EFB6  F012         	goto	l2555
  3568  00255C                     u1980:
  3569  00255C  0E00               	movlw	0
  3570  00255E  6E28               	movwf	___flmul@b^(0+1280),c
  3571  002560  0E00               	movlw	0
  3572  002562  6E29               	movwf	(___flmul@b+1)^(0+1280),c
  3573  002564  0E00               	movlw	0
  3574  002566  6E2A               	movwf	(___flmul@b+2)^(0+1280),c
  3575  002568  0E00               	movlw	0
  3576  00256A  6E2B               	movwf	(___flmul@b+3)^(0+1280),c
  3577  00256C                     l2555:
  3578  00256C  8E2A               	bsf	(___flmul@b+2)^(0+1280),7,c
  3579  00256E  EFC1  F012         	goto	l2559
  3580  002572                     l2557:
  3581  002572  0E00               	movlw	0
  3582  002574  6E28               	movwf	___flmul@b^(0+1280),c
  3583  002576  0E00               	movlw	0
  3584  002578  6E29               	movwf	(___flmul@b+1)^(0+1280),c
  3585  00257A  0E00               	movlw	0
  3586  00257C  6E2A               	movwf	(___flmul@b+2)^(0+1280),c
  3587  00257E  0E00               	movlw	0
  3588  002580  6E2B               	movwf	(___flmul@b+3)^(0+1280),c
  3589  002582                     l2559:
  3590  002582  502F               	movf	(___flmul@a+3)^(0+1280),w,c
  3591  002584  0B80               	andlw	128
  3592  002586  1A34               	xorwf	___flmul@sign^(0+1280),f,c
  3593  002588  502F               	movf	(___flmul@a+3)^(0+1280),w,c
  3594  00258A  242F               	addwf	(___flmul@a+3)^(0+1280),w,c
  3595  00258C  6E39               	movwf	___flmul@aexp^(0+1280),c
  3596  00258E  AE2E               	btfss	(___flmul@a+2)^(0+1280),7,c
  3597  002590  EFCC  F012         	goto	u1991
  3598  002594  EFCE  F012         	goto	u1990
  3599  002598                     u1991:
  3600  002598  EFCF  F012         	goto	l2567
  3601  00259C                     u1990:
  3602  00259C  8039               	bsf	___flmul@aexp^(0+1280),0,c
  3603  00259E                     l2567:
  3604  00259E  5039               	movf	___flmul@aexp^(0+1280),w,c
  3605  0025A0  B4D8               	btfsc	status,2,c
  3606  0025A2  EFD5  F012         	goto	u2001
  3607  0025A6  EFD7  F012         	goto	u2000
  3608  0025AA                     u2001:
  3609  0025AA  EFEA  F012         	goto	l2575
  3610  0025AE                     u2000:
  3611  0025AE  2839               	incf	___flmul@aexp^(0+1280),w,c
  3612  0025B0  A4D8               	btfss	status,2,c
  3613  0025B2  EFDD  F012         	goto	u2011
  3614  0025B6  EFDF  F012         	goto	u2010
  3615  0025BA                     u2011:
  3616  0025BA  EFE7  F012         	goto	l2573
  3617  0025BE                     u2010:
  3618  0025BE  0E00               	movlw	0
  3619  0025C0  6E2C               	movwf	___flmul@a^(0+1280),c
  3620  0025C2  0E00               	movlw	0
  3621  0025C4  6E2D               	movwf	(___flmul@a+1)^(0+1280),c
  3622  0025C6  0E00               	movlw	0
  3623  0025C8  6E2E               	movwf	(___flmul@a+2)^(0+1280),c
  3624  0025CA  0E00               	movlw	0
  3625  0025CC  6E2F               	movwf	(___flmul@a+3)^(0+1280),c
  3626  0025CE                     l2573:
  3627  0025CE  8E2E               	bsf	(___flmul@a+2)^(0+1280),7,c
  3628  0025D0  EFF2  F012         	goto	l792
  3629  0025D4                     l2575:
  3630  0025D4  0E00               	movlw	0
  3631  0025D6  6E2C               	movwf	___flmul@a^(0+1280),c
  3632  0025D8  0E00               	movlw	0
  3633  0025DA  6E2D               	movwf	(___flmul@a+1)^(0+1280),c
  3634  0025DC  0E00               	movlw	0
  3635  0025DE  6E2E               	movwf	(___flmul@a+2)^(0+1280),c
  3636  0025E0  0E00               	movlw	0
  3637  0025E2  6E2F               	movwf	(___flmul@a+3)^(0+1280),c
  3638  0025E4                     l792:
  3639  0025E4  5039               	movf	___flmul@aexp^(0+1280),w,c
  3640  0025E6  B4D8               	btfsc	status,2,c
  3641  0025E8  EFF8  F012         	goto	u2021
  3642  0025EC  EFFA  F012         	goto	u2020
  3643  0025F0                     u2021:
  3644  0025F0  EF02  F013         	goto	l2579
  3645  0025F4                     u2020:
  3646  0025F4  503A               	movf	___flmul@bexp^(0+1280),w,c
  3647  0025F6  A4D8               	btfss	status,2,c
  3648  0025F8  EF00  F013         	goto	u2031
  3649  0025FC  EF02  F013         	goto	u2030
  3650  002600                     u2031:
  3651  002600  EF0C  F013         	goto	l2583
  3652  002604                     u2030:
  3653  002604                     l2579:
  3654  002604  0E00               	movlw	0
  3655  002606  6E28               	movwf	?___flmul^(0+1280),c
  3656  002608  0E00               	movlw	0
  3657  00260A  6E29               	movwf	(?___flmul+1)^(0+1280),c
  3658  00260C  0E00               	movlw	0
  3659  00260E  6E2A               	movwf	(?___flmul+2)^(0+1280),c
  3660  002610  0E00               	movlw	0
  3661  002612  6E2B               	movwf	(?___flmul+3)^(0+1280),c
  3662  002614  EFB6  F014         	goto	l796
  3663  002618                     l2583:
  3664  002618  502E               	movf	(___flmul@a+2)^(0+1280),w,c
  3665  00261A  0228               	mulwf	___flmul@b^(0+1280),c
  3666  00261C  0061 F3CC  F53F    	movff	prodl,___flmul@temp
  3667  002622  0061 F3D0  F540    	movff	prodh,___flmul@temp+1
  3668  002628  503F               	movf	___flmul@temp^(0+1280),w,c
  3669  00262A  6E35               	movwf	___flmul@grs^(0+1280),c
  3670  00262C  6A36               	clrf	(___flmul@grs+1)^(0+1280),c
  3671  00262E  6A37               	clrf	(___flmul@grs+2)^(0+1280),c
  3672  002630  6A38               	clrf	(___flmul@grs+3)^(0+1280),c
  3673  002632  5040               	movf	(___flmul@temp+1)^(0+1280),w,c
  3674  002634  6E3B               	movwf	___flmul@prod^(0+1280),c
  3675  002636  6A3C               	clrf	(___flmul@prod+1)^(0+1280),c
  3676  002638  6A3D               	clrf	(___flmul@prod+2)^(0+1280),c
  3677  00263A  6A3E               	clrf	(___flmul@prod+3)^(0+1280),c
  3678  00263C  502D               	movf	(___flmul@a+1)^(0+1280),w,c
  3679  00263E  0229               	mulwf	(___flmul@b+1)^(0+1280),c
  3680  002640  0061 F3CC  F53F    	movff	prodl,___flmul@temp
  3681  002646  0061 F3D0  F540    	movff	prodh,___flmul@temp+1
  3682  00264C  503F               	movf	___flmul@temp^(0+1280),w,c
  3683  00264E  2635               	addwf	___flmul@grs^(0+1280),f,c
  3684  002650  0E00               	movlw	0
  3685  002652  2236               	addwfc	(___flmul@grs+1)^(0+1280),f,c
  3686  002654  2237               	addwfc	(___flmul@grs+2)^(0+1280),f,c
  3687  002656  2238               	addwfc	(___flmul@grs+3)^(0+1280),f,c
  3688  002658  5040               	movf	(___flmul@temp+1)^(0+1280),w,c
  3689  00265A  263B               	addwf	___flmul@prod^(0+1280),f,c
  3690  00265C  0E00               	movlw	0
  3691  00265E  223C               	addwfc	(___flmul@prod+1)^(0+1280),f,c
  3692  002660  223D               	addwfc	(___flmul@prod+2)^(0+1280),f,c
  3693  002662  223E               	addwfc	(___flmul@prod+3)^(0+1280),f,c
  3694  002664  502C               	movf	___flmul@a^(0+1280),w,c
  3695  002666  022A               	mulwf	(___flmul@b+2)^(0+1280),c
  3696  002668  0061 F3CC  F53F    	movff	prodl,___flmul@temp
  3697  00266E  0061 F3D0  F540    	movff	prodh,___flmul@temp+1
  3698  002674  503F               	movf	___flmul@temp^(0+1280),w,c
  3699  002676  2635               	addwf	___flmul@grs^(0+1280),f,c
  3700  002678  0E00               	movlw	0
  3701  00267A  2236               	addwfc	(___flmul@grs+1)^(0+1280),f,c
  3702  00267C  2237               	addwfc	(___flmul@grs+2)^(0+1280),f,c
  3703  00267E  2238               	addwfc	(___flmul@grs+3)^(0+1280),f,c
  3704  002680  5040               	movf	(___flmul@temp+1)^(0+1280),w,c
  3705  002682  263B               	addwf	___flmul@prod^(0+1280),f,c
  3706  002684  0E00               	movlw	0
  3707  002686  223C               	addwfc	(___flmul@prod+1)^(0+1280),f,c
  3708  002688  223D               	addwfc	(___flmul@prod+2)^(0+1280),f,c
  3709  00268A  223E               	addwfc	(___flmul@prod+3)^(0+1280),f,c
  3710  00268C  C537  F538         	movff	___flmul@grs+2,___flmul@grs+3
  3711  002690  C536  F537         	movff	___flmul@grs+1,___flmul@grs+2
  3712  002694  C535  F536         	movff	___flmul@grs,___flmul@grs+1
  3713  002698  6A35               	clrf	___flmul@grs^(0+1280),c
  3714  00269A  502C               	movf	___flmul@a^(0+1280),w,c
  3715  00269C  0229               	mulwf	(___flmul@b+1)^(0+1280),c
  3716  00269E  0061 F3CC  F53F    	movff	prodl,___flmul@temp
  3717  0026A4  0061 F3D0  F540    	movff	prodh,___flmul@temp+1
  3718  0026AA  503F               	movf	___flmul@temp^(0+1280),w,c
  3719  0026AC  2635               	addwf	___flmul@grs^(0+1280),f,c
  3720  0026AE  5040               	movf	(___flmul@temp+1)^(0+1280),w,c
  3721  0026B0  2236               	addwfc	(___flmul@grs+1)^(0+1280),f,c
  3722  0026B2  0E00               	movlw	0
  3723  0026B4  2237               	addwfc	(___flmul@grs+2)^(0+1280),f,c
  3724  0026B6  0E00               	movlw	0
  3725  0026B8  2238               	addwfc	(___flmul@grs+3)^(0+1280),f,c
  3726  0026BA  502D               	movf	(___flmul@a+1)^(0+1280),w,c
  3727  0026BC  0228               	mulwf	___flmul@b^(0+1280),c
  3728  0026BE  0061 F3CC  F53F    	movff	prodl,___flmul@temp
  3729  0026C4  0061 F3D0  F540    	movff	prodh,___flmul@temp+1
  3730  0026CA  503F               	movf	___flmul@temp^(0+1280),w,c
  3731  0026CC  2635               	addwf	___flmul@grs^(0+1280),f,c
  3732  0026CE  5040               	movf	(___flmul@temp+1)^(0+1280),w,c
  3733  0026D0  2236               	addwfc	(___flmul@grs+1)^(0+1280),f,c
  3734  0026D2  0E00               	movlw	0
  3735  0026D4  2237               	addwfc	(___flmul@grs+2)^(0+1280),f,c
  3736  0026D6  0E00               	movlw	0
  3737  0026D8  2238               	addwfc	(___flmul@grs+3)^(0+1280),f,c
  3738  0026DA  C537  F538         	movff	___flmul@grs+2,___flmul@grs+3
  3739  0026DE  C536  F537         	movff	___flmul@grs+1,___flmul@grs+2
  3740  0026E2  C535  F536         	movff	___flmul@grs,___flmul@grs+1
  3741  0026E6  6A35               	clrf	___flmul@grs^(0+1280),c
  3742  0026E8  502C               	movf	___flmul@a^(0+1280),w,c
  3743  0026EA  0228               	mulwf	___flmul@b^(0+1280),c
  3744  0026EC  0061 F3CC  F53F    	movff	prodl,___flmul@temp
  3745  0026F2  0061 F3D0  F540    	movff	prodh,___flmul@temp+1
  3746  0026F8  503F               	movf	___flmul@temp^(0+1280),w,c
  3747  0026FA  2635               	addwf	___flmul@grs^(0+1280),f,c
  3748  0026FC  5040               	movf	(___flmul@temp+1)^(0+1280),w,c
  3749  0026FE  2236               	addwfc	(___flmul@grs+1)^(0+1280),f,c
  3750  002700  0E00               	movlw	0
  3751  002702  2237               	addwfc	(___flmul@grs+2)^(0+1280),f,c
  3752  002704  0E00               	movlw	0
  3753  002706  2238               	addwfc	(___flmul@grs+3)^(0+1280),f,c
  3754  002708  502E               	movf	(___flmul@a+2)^(0+1280),w,c
  3755  00270A  0229               	mulwf	(___flmul@b+1)^(0+1280),c
  3756  00270C  0061 F3CC  F53F    	movff	prodl,___flmul@temp
  3757  002712  0061 F3D0  F540    	movff	prodh,___flmul@temp+1
  3758  002718  503F               	movf	___flmul@temp^(0+1280),w,c
  3759  00271A  263B               	addwf	___flmul@prod^(0+1280),f,c
  3760  00271C  5040               	movf	(___flmul@temp+1)^(0+1280),w,c
  3761  00271E  223C               	addwfc	(___flmul@prod+1)^(0+1280),f,c
  3762  002720  0E00               	movlw	0
  3763  002722  223D               	addwfc	(___flmul@prod+2)^(0+1280),f,c
  3764  002724  0E00               	movlw	0
  3765  002726  223E               	addwfc	(___flmul@prod+3)^(0+1280),f,c
  3766  002728  502D               	movf	(___flmul@a+1)^(0+1280),w,c
  3767  00272A  022A               	mulwf	(___flmul@b+2)^(0+1280),c
  3768  00272C  0061 F3CC  F53F    	movff	prodl,___flmul@temp
  3769  002732  0061 F3D0  F540    	movff	prodh,___flmul@temp+1
  3770  002738  503F               	movf	___flmul@temp^(0+1280),w,c
  3771  00273A  263B               	addwf	___flmul@prod^(0+1280),f,c
  3772  00273C  5040               	movf	(___flmul@temp+1)^(0+1280),w,c
  3773  00273E  223C               	addwfc	(___flmul@prod+1)^(0+1280),f,c
  3774  002740  0E00               	movlw	0
  3775  002742  223D               	addwfc	(___flmul@prod+2)^(0+1280),f,c
  3776  002744  0E00               	movlw	0
  3777  002746  223E               	addwfc	(___flmul@prod+3)^(0+1280),f,c
  3778  002748  502E               	movf	(___flmul@a+2)^(0+1280),w,c
  3779  00274A  022A               	mulwf	(___flmul@b+2)^(0+1280),c
  3780  00274C  0061 F3CC  F53F    	movff	prodl,___flmul@temp
  3781  002752  0061 F3D0  F540    	movff	prodh,___flmul@temp+1
  3782  002758  503F               	movf	___flmul@temp^(0+1280),w,c
  3783  00275A  6E30               	movwf	??___flmul^(0+1280),c
  3784  00275C  5040               	movf	(___flmul@temp+1)^(0+1280),w,c
  3785  00275E  6E31               	movwf	(??___flmul+1)^(0+1280),c
  3786  002760  6A32               	clrf	(??___flmul+2)^(0+1280),c
  3787  002762  6A33               	clrf	(??___flmul+3)^(0+1280),c
  3788  002764  C532  F533         	movff	??___flmul+2,??___flmul+3
  3789  002768  C531  F532         	movff	??___flmul+1,??___flmul+2
  3790  00276C  C530  F531         	movff	??___flmul,??___flmul+1
  3791  002770  6A30               	clrf	??___flmul^(0+1280),c
  3792  002772  5030               	movf	??___flmul^(0+1280),w,c
  3793  002774  263B               	addwf	___flmul@prod^(0+1280),f,c
  3794  002776  5031               	movf	(??___flmul+1)^(0+1280),w,c
  3795  002778  223C               	addwfc	(___flmul@prod+1)^(0+1280),f,c
  3796  00277A  5032               	movf	(??___flmul+2)^(0+1280),w,c
  3797  00277C  223D               	addwfc	(___flmul@prod+2)^(0+1280),f,c
  3798  00277E  5033               	movf	(??___flmul+3)^(0+1280),w,c
  3799  002780  223E               	addwfc	(___flmul@prod+3)^(0+1280),f,c
  3800  002782  C535  F530         	movff	___flmul@grs,??___flmul
  3801  002786  C536  F531         	movff	___flmul@grs+1,??___flmul+1
  3802  00278A  C537  F532         	movff	___flmul@grs+2,??___flmul+2
  3803  00278E  C538  F533         	movff	___flmul@grs+3,??___flmul+3
  3804  002792  0E19               	movlw	25
  3805  002794  EFD1  F013         	goto	u2040
  3806  002798                     u2045:
  3807  002798  90D8               	bcf	status,0,c
  3808  00279A  3233               	rrcf	(??___flmul+3)^(0+1280),f,c
  3809  00279C  3232               	rrcf	(??___flmul+2)^(0+1280),f,c
  3810  00279E  3231               	rrcf	(??___flmul+1)^(0+1280),f,c
  3811  0027A0  3230               	rrcf	??___flmul^(0+1280),f,c
  3812  0027A2                     u2040:
  3813  0027A2  2EE8               	decfsz	wreg,f,c
  3814  0027A4  EFCC  F013         	goto	u2045
  3815  0027A8  5030               	movf	??___flmul^(0+1280),w,c
  3816  0027AA  263B               	addwf	___flmul@prod^(0+1280),f,c
  3817  0027AC  5031               	movf	(??___flmul+1)^(0+1280),w,c
  3818  0027AE  223C               	addwfc	(___flmul@prod+1)^(0+1280),f,c
  3819  0027B0  5032               	movf	(??___flmul+2)^(0+1280),w,c
  3820  0027B2  223D               	addwfc	(___flmul@prod+2)^(0+1280),f,c
  3821  0027B4  5033               	movf	(??___flmul+3)^(0+1280),w,c
  3822  0027B6  223E               	addwfc	(___flmul@prod+3)^(0+1280),f,c
  3823  0027B8  C537  F538         	movff	___flmul@grs+2,___flmul@grs+3
  3824  0027BC  C536  F537         	movff	___flmul@grs+1,___flmul@grs+2
  3825  0027C0  C535  F536         	movff	___flmul@grs,___flmul@grs+1
  3826  0027C4  6A35               	clrf	___flmul@grs^(0+1280),c
  3827  0027C6  5039               	movf	___flmul@aexp^(0+1280),w,c
  3828  0027C8  C53A  F530         	movff	___flmul@bexp,??___flmul
  3829  0027CC  6A31               	clrf	(??___flmul+1)^(0+1280),c
  3830  0027CE  2630               	addwf	??___flmul^(0+1280),f,c
  3831  0027D0  0E00               	movlw	0
  3832  0027D2  2231               	addwfc	(??___flmul+1)^(0+1280),f,c
  3833  0027D4  0E82               	movlw	130
  3834  0027D6  2430               	addwf	??___flmul^(0+1280),w,c
  3835  0027D8  6E3F               	movwf	___flmul@temp^(0+1280),c
  3836  0027DA  0EFF               	movlw	255
  3837  0027DC  2031               	addwfc	(??___flmul+1)^(0+1280),w,c
  3838  0027DE  6E40               	movwf	(___flmul@temp+1)^(0+1280),c
  3839  0027E0  EF07  F014         	goto	l2631
  3840  0027E4                     l2625:
  3841  0027E4  90D8               	bcf	status,0,c
  3842  0027E6  363B               	rlcf	___flmul@prod^(0+1280),f,c
  3843  0027E8  363C               	rlcf	(___flmul@prod+1)^(0+1280),f,c
  3844  0027EA  363D               	rlcf	(___flmul@prod+2)^(0+1280),f,c
  3845  0027EC  363E               	rlcf	(___flmul@prod+3)^(0+1280),f,c
  3846  0027EE  AE38               	btfss	(___flmul@grs+3)^(0+1280),7,c
  3847  0027F0  EFFC  F013         	goto	u2051
  3848  0027F4  EFFE  F013         	goto	u2050
  3849  0027F8                     u2051:
  3850  0027F8  EFFF  F013         	goto	l799
  3851  0027FC                     u2050:
  3852  0027FC  803B               	bsf	___flmul@prod^(0+1280),0,c
  3853  0027FE                     l799:
  3854  0027FE  90D8               	bcf	status,0,c
  3855  002800  3635               	rlcf	___flmul@grs^(0+1280),f,c
  3856  002802  3636               	rlcf	(___flmul@grs+1)^(0+1280),f,c
  3857  002804  3637               	rlcf	(___flmul@grs+2)^(0+1280),f,c
  3858  002806  3638               	rlcf	(___flmul@grs+3)^(0+1280),f,c
  3859  002808  063F               	decf	___flmul@temp^(0+1280),f,c
  3860  00280A  A0D8               	btfss	status,0,c
  3861  00280C  0640               	decf	(___flmul@temp+1)^(0+1280),f,c
  3862  00280E                     l2631:
  3863  00280E  AE3D               	btfss	(___flmul@prod+2)^(0+1280),7,c
  3864  002810  EF0C  F014         	goto	u2061
  3865  002814  EF0E  F014         	goto	u2060
  3866  002818                     u2061:
  3867  002818  EFF2  F013         	goto	l2625
  3868  00281C                     u2060:
  3869  00281C  0E00               	movlw	0
  3870  00281E  6E39               	movwf	___flmul@aexp^(0+1280),c
  3871  002820  AE38               	btfss	(___flmul@grs+3)^(0+1280),7,c
  3872  002822  EF15  F014         	goto	u2071
  3873  002826  EF17  F014         	goto	u2070
  3874  00282A                     u2071:
  3875  00282A  EF3B  F014         	goto	l801
  3876  00282E                     u2070:
  3877  00282E  0EFF               	movlw	255
  3878  002830  1435               	andwf	___flmul@grs^(0+1280),w,c
  3879  002832  6E30               	movwf	??___flmul^(0+1280),c
  3880  002834  0EFF               	movlw	255
  3881  002836  1436               	andwf	(___flmul@grs+1)^(0+1280),w,c
  3882  002838  6E31               	movwf	(??___flmul+1)^(0+1280),c
  3883  00283A  0EFF               	movlw	255
  3884  00283C  1437               	andwf	(___flmul@grs+2)^(0+1280),w,c
  3885  00283E  6E32               	movwf	(??___flmul+2)^(0+1280),c
  3886  002840  0E7F               	movlw	127
  3887  002842  1438               	andwf	(___flmul@grs+3)^(0+1280),w,c
  3888  002844  6E33               	movwf	(??___flmul+3)^(0+1280),c
  3889  002846  5030               	movf	??___flmul^(0+1280),w,c
  3890  002848  1031               	iorwf	(??___flmul+1)^(0+1280),w,c
  3891  00284A  1032               	iorwf	(??___flmul+2)^(0+1280),w,c
  3892  00284C  1033               	iorwf	(??___flmul+3)^(0+1280),w,c
  3893  00284E  B4D8               	btfsc	status,2,c
  3894  002850  EF2C  F014         	goto	u2081
  3895  002854  EF2E  F014         	goto	u2080
  3896  002858                     u2081:
  3897  002858  EF32  F014         	goto	l802
  3898  00285C                     u2080:
  3899  00285C                     l2639:
  3900  00285C  0E01               	movlw	1
  3901  00285E  6E39               	movwf	___flmul@aexp^(0+1280),c
  3902  002860  EF3B  F014         	goto	l801
  3903  002864                     l802:
  3904  002864  A03B               	btfss	___flmul@prod^(0+1280),0,c
  3905  002866  EF37  F014         	goto	u2091
  3906  00286A  EF39  F014         	goto	u2090
  3907  00286E                     u2091:
  3908  00286E  EF3B  F014         	goto	l801
  3909  002872                     u2090:
  3910  002872  EF2E  F014         	goto	l2639
  3911  002876                     l801:
  3912  002876  5039               	movf	___flmul@aexp^(0+1280),w,c
  3913  002878  B4D8               	btfsc	status,2,c
  3914  00287A  EF41  F014         	goto	u2101
  3915  00287E  EF43  F014         	goto	u2100
  3916  002882                     u2101:
  3917  002882  EF67  F014         	goto	l2651
  3918  002886                     u2100:
  3919  002886  0E01               	movlw	1
  3920  002888  263B               	addwf	___flmul@prod^(0+1280),f,c
  3921  00288A  0E00               	movlw	0
  3922  00288C  223C               	addwfc	(___flmul@prod+1)^(0+1280),f,c
  3923  00288E  223D               	addwfc	(___flmul@prod+2)^(0+1280),f,c
  3924  002890  223E               	addwfc	(___flmul@prod+3)^(0+1280),f,c
  3925  002892  A03E               	btfss	(___flmul@prod+3)^(0+1280),0,c
  3926  002894  EF4E  F014         	goto	u2111
  3927  002898  EF50  F014         	goto	u2110
  3928  00289C                     u2111:
  3929  00289C  EF67  F014         	goto	l2651
  3930  0028A0                     u2110:
  3931  0028A0  C53B  F530         	movff	___flmul@prod,??___flmul
  3932  0028A4  C53C  F531         	movff	___flmul@prod+1,??___flmul+1
  3933  0028A8  C53D  F532         	movff	___flmul@prod+2,??___flmul+2
  3934  0028AC  C53E  F533         	movff	___flmul@prod+3,??___flmul+3
  3935  0028B0  3433               	rlcf	(??___flmul+3)^(0+1280),w,c
  3936  0028B2  3233               	rrcf	(??___flmul+3)^(0+1280),f,c
  3937  0028B4  3232               	rrcf	(??___flmul+2)^(0+1280),f,c
  3938  0028B6  3231               	rrcf	(??___flmul+1)^(0+1280),f,c
  3939  0028B8  3230               	rrcf	??___flmul^(0+1280),f,c
  3940  0028BA  C530  F53B         	movff	??___flmul,___flmul@prod
  3941  0028BE  C531  F53C         	movff	??___flmul+1,___flmul@prod+1
  3942  0028C2  C532  F53D         	movff	??___flmul+2,___flmul@prod+2
  3943  0028C6  C533  F53E         	movff	??___flmul+3,___flmul@prod+3
  3944  0028CA  4A3F               	infsnz	___flmul@temp^(0+1280),f,c
  3945  0028CC  2A40               	incf	(___flmul@temp+1)^(0+1280),f,c
  3946  0028CE                     l2651:
  3947  0028CE  BE40               	btfsc	(___flmul@temp+1)^(0+1280),7,c
  3948  0028D0  EF72  F014         	goto	u2121
  3949  0028D4  5040               	movf	(___flmul@temp+1)^(0+1280),w,c
  3950  0028D6  E108               	bnz	u2120
  3951  0028D8  283F               	incf	___flmul@temp^(0+1280),w,c
  3952  0028DA  A0D8               	btfss	status,0,c
  3953  0028DC  EF72  F014         	goto	u2121
  3954  0028E0  EF74  F014         	goto	u2120
  3955  0028E4                     u2121:
  3956  0028E4  EF7E  F014         	goto	l2655
  3957  0028E8                     u2120:
  3958  0028E8  0E00               	movlw	0
  3959  0028EA  6E3B               	movwf	___flmul@prod^(0+1280),c
  3960  0028EC  0E00               	movlw	0
  3961  0028EE  6E3C               	movwf	(___flmul@prod+1)^(0+1280),c
  3962  0028F0  0E80               	movlw	128
  3963  0028F2  6E3D               	movwf	(___flmul@prod+2)^(0+1280),c
  3964  0028F4  0E7F               	movlw	127
  3965  0028F6  6E3E               	movwf	(___flmul@prod+3)^(0+1280),c
  3966  0028F8  EFAC  F014         	goto	l2667
  3967  0028FC                     l2655:
  3968  0028FC  BE40               	btfsc	(___flmul@temp+1)^(0+1280),7,c
  3969  0028FE  EF8B  F014         	goto	u2130
  3970  002902  5040               	movf	(___flmul@temp+1)^(0+1280),w,c
  3971  002904  E106               	bnz	u2131
  3972  002906  043F               	decf	___flmul@temp^(0+1280),w,c
  3973  002908  B0D8               	btfsc	status,0,c
  3974  00290A  EF89  F014         	goto	u2131
  3975  00290E  EF8B  F014         	goto	u2130
  3976  002912                     u2131:
  3977  002912  EF97  F014         	goto	l809
  3978  002916                     u2130:
  3979  002916  0E00               	movlw	0
  3980  002918  6E3B               	movwf	___flmul@prod^(0+1280),c
  3981  00291A  0E00               	movlw	0
  3982  00291C  6E3C               	movwf	(___flmul@prod+1)^(0+1280),c
  3983  00291E  0E00               	movlw	0
  3984  002920  6E3D               	movwf	(___flmul@prod+2)^(0+1280),c
  3985  002922  0E00               	movlw	0
  3986  002924  6E3E               	movwf	(___flmul@prod+3)^(0+1280),c
  3987  002926  0E00               	movlw	0
  3988  002928  6E34               	movwf	___flmul@sign^(0+1280),c
  3989  00292A  EFAC  F014         	goto	l2667
  3990  00292E                     l809:
  3991  00292E  C53F  F53A         	movff	___flmul@temp,___flmul@bexp
  3992  002932  0EFF               	movlw	255
  3993  002934  163B               	andwf	___flmul@prod^(0+1280),f,c
  3994  002936  0EFF               	movlw	255
  3995  002938  163C               	andwf	(___flmul@prod+1)^(0+1280),f,c
  3996  00293A  0E7F               	movlw	127
  3997  00293C  163D               	andwf	(___flmul@prod+2)^(0+1280),f,c
  3998  00293E  0E00               	movlw	0
  3999  002940  163E               	andwf	(___flmul@prod+3)^(0+1280),f,c
  4000  002942  A03A               	btfss	___flmul@bexp^(0+1280),0,c
  4001  002944  EFA6  F014         	goto	u2141
  4002  002948  EFA8  F014         	goto	u2140
  4003  00294C                     u2141:
  4004  00294C  EFA9  F014         	goto	l2665
  4005  002950                     u2140:
  4006  002950  8E3D               	bsf	(___flmul@prod+2)^(0+1280),7,c
  4007  002952                     l2665:
  4008  002952  90D8               	bcf	status,0,c
  4009  002954  303A               	rrcf	___flmul@bexp^(0+1280),w,c
  4010  002956  6E3E               	movwf	(___flmul@prod+3)^(0+1280),c
  4011  002958                     l2667:
  4012  002958  5034               	movf	___flmul@sign^(0+1280),w,c
  4013  00295A  123E               	iorwf	(___flmul@prod+3)^(0+1280),f,c
  4014  00295C  C53B  F528         	movff	___flmul@prod,?___flmul
  4015  002960  C53C  F529         	movff	___flmul@prod+1,?___flmul+1
  4016  002964  C53D  F52A         	movff	___flmul@prod+2,?___flmul+2
  4017  002968  C53E  F52B         	movff	___flmul@prod+3,?___flmul+3
  4018  00296C                     l796:
  4019  00296C  0012               	return		;funcret
  4020  00296E                     __end_of___flmul:
  4021                           	callstack 0
  4022                           
  4023 ;; *************** function ___fldiv *****************
  4024 ;; Defined at:
  4025 ;;		line 11 in file "C:\Program Files\Microchip\xc8\v2.32\pic\sources\c99\common\sprcdiv.c"
  4026 ;; Parameters:    Size  Location     Type
  4027 ;;  b               4   14[COMRAM] unsigned char 
  4028 ;;  a               4   18[COMRAM] unsigned char 
  4029 ;; Auto vars:     Size  Location     Type
  4030 ;;  grs             4   33[COMRAM] unsigned long 
  4031 ;;  rem             4   26[COMRAM] unsigned long 
  4032 ;;  new_exp         2   31[COMRAM] short 
  4033 ;;  aexp            1   38[COMRAM] unsigned char 
  4034 ;;  bexp            1   37[COMRAM] unsigned char 
  4035 ;;  sign            1   30[COMRAM] unsigned char 
  4036 ;; Return value:  Size  Location     Type
  4037 ;;                  4   14[COMRAM] unsigned char 
  4038 ;; Registers used:
  4039 ;;		wreg, status,2, status,0
  4040 ;; Tracked objects:
  4041 ;;		On entry : 0/0
  4042 ;;		On exit  : 0/0
  4043 ;;		Unchanged: 0/0
  4044 ;; Data sizes:     COMRAM   BANK5   BANK6   BANK7   BANK8   BANK9  BANK10  BANK11  BANK12  BANK13  BANK14  BANK15  BANK1
      +6  BANK17  BANK18  BANK19  BANK20  BANK21  BANK22  BANK23  BANK24  BANK25  BANK26  BANK27  BANK28  BANK29  BANK30  BANK3
      +1  BANK32  BANK33  BANK34  BANK35  BANK36
  4045 ;;      Params:         8       0       0       0       0       0       0       0       0       0       0       0       
      +0       0       0       0       0       0       0       0       0       0       0       0       0       0       0       
      +0       0       0       0       0       0
  4046 ;;      Locals:        13       0       0       0       0       0       0       0       0       0       0       0       
      +0       0       0       0       0       0       0       0       0       0       0       0       0       0       0       
      +0       0       0       0       0       0
  4047 ;;      Temps:          4       0       0       0       0       0       0       0       0       0       0       0       
      +0       0       0       0       0       0       0       0       0       0       0       0       0       0       0       
      +0       0       0       0       0       0
  4048 ;;      Totals:        25       0       0       0       0       0       0       0       0       0       0       0       
      +0       0       0       0       0       0       0       0       0       0       0       0       0       0       0       
      +0       0       0       0       0       0
  4049 ;;Total ram usage:       25 bytes
  4050 ;; Hardware stack levels used: 1
  4051 ;; Hardware stack levels required when called: 1
  4052 ;; This function calls:
  4053 ;;		Nothing
  4054 ;; This function is called by:
  4055 ;;		_main
  4056 ;; This function uses a non-reentrant model
  4057 ;;
  4058                           
  4059                           	psect	text19
  4060  002D42                     __ptext19:
  4061                           	callstack 0
  4062  002D42                     ___fldiv:
  4063                           	callstack 125
  4064  002D42  5012               	movf	(___fldiv@b+3)^(0+1280),w,c
  4065  002D44  0B80               	andlw	128
  4066  002D46  6E1F               	movwf	___fldiv@sign^(0+1280),c
  4067  002D48  5012               	movf	(___fldiv@b+3)^(0+1280),w,c
  4068  002D4A  2412               	addwf	(___fldiv@b+3)^(0+1280),w,c
  4069  002D4C  6E26               	movwf	___fldiv@bexp^(0+1280),c
  4070  002D4E  AE11               	btfss	(___fldiv@b+2)^(0+1280),7,c
  4071  002D50  EFAC  F016         	goto	u1731
  4072  002D54  EFAE  F016         	goto	u1730
  4073  002D58                     u1731:
  4074  002D58  EFAF  F016         	goto	l2411
  4075  002D5C                     u1730:
  4076  002D5C  8026               	bsf	___fldiv@bexp^(0+1280),0,c
  4077  002D5E                     l2411:
  4078  002D5E  5026               	movf	___fldiv@bexp^(0+1280),w,c
  4079  002D60  B4D8               	btfsc	status,2,c
  4080  002D62  EFB5  F016         	goto	u1741
  4081  002D66  EFB7  F016         	goto	u1740
  4082  002D6A                     u1741:
  4083  002D6A  EFCC  F016         	goto	l2421
  4084  002D6E                     u1740:
  4085  002D6E  2826               	incf	___fldiv@bexp^(0+1280),w,c
  4086  002D70  A4D8               	btfss	status,2,c
  4087  002D72  EFBD  F016         	goto	u1751
  4088  002D76  EFBF  F016         	goto	u1750
  4089  002D7A                     u1751:
  4090  002D7A  EFC7  F016         	goto	l2417
  4091  002D7E                     u1750:
  4092  002D7E  0E00               	movlw	0
  4093  002D80  6E0F               	movwf	___fldiv@b^(0+1280),c
  4094  002D82  0E00               	movlw	0
  4095  002D84  6E10               	movwf	(___fldiv@b+1)^(0+1280),c
  4096  002D86  0E00               	movlw	0
  4097  002D88  6E11               	movwf	(___fldiv@b+2)^(0+1280),c
  4098  002D8A  0E00               	movlw	0
  4099  002D8C  6E12               	movwf	(___fldiv@b+3)^(0+1280),c
  4100  002D8E                     l2417:
  4101  002D8E  8E11               	bsf	(___fldiv@b+2)^(0+1280),7,c
  4102  002D90  0E00               	movlw	0
  4103  002D92  6E12               	movwf	(___fldiv@b+3)^(0+1280),c
  4104  002D94  EFD4  F016         	goto	l2423
  4105  002D98                     l2421:
  4106  002D98  0E00               	movlw	0
  4107  002D9A  6E0F               	movwf	___fldiv@b^(0+1280),c
  4108  002D9C  0E00               	movlw	0
  4109  002D9E  6E10               	movwf	(___fldiv@b+1)^(0+1280),c
  4110  002DA0  0E00               	movlw	0
  4111  002DA2  6E11               	movwf	(___fldiv@b+2)^(0+1280),c
  4112  002DA4  0E00               	movlw	0
  4113  002DA6  6E12               	movwf	(___fldiv@b+3)^(0+1280),c
  4114  002DA8                     l2423:
  4115  002DA8  5016               	movf	(___fldiv@a+3)^(0+1280),w,c
  4116  002DAA  0B80               	andlw	128
  4117  002DAC  1A1F               	xorwf	___fldiv@sign^(0+1280),f,c
  4118  002DAE  5016               	movf	(___fldiv@a+3)^(0+1280),w,c
  4119  002DB0  2416               	addwf	(___fldiv@a+3)^(0+1280),w,c
  4120  002DB2  6E27               	movwf	___fldiv@aexp^(0+1280),c
  4121  002DB4  AE15               	btfss	(___fldiv@a+2)^(0+1280),7,c
  4122  002DB6  EFDF  F016         	goto	u1761
  4123  002DBA  EFE1  F016         	goto	u1760
  4124  002DBE                     u1761:
  4125  002DBE  EFE2  F016         	goto	l2431
  4126  002DC2                     u1760:
  4127  002DC2  8027               	bsf	___fldiv@aexp^(0+1280),0,c
  4128  002DC4                     l2431:
  4129  002DC4  5027               	movf	___fldiv@aexp^(0+1280),w,c
  4130  002DC6  B4D8               	btfsc	status,2,c
  4131  002DC8  EFE8  F016         	goto	u1771
  4132  002DCC  EFEA  F016         	goto	u1770
  4133  002DD0                     u1771:
  4134  002DD0  EFFF  F016         	goto	l2441
  4135  002DD4                     u1770:
  4136  002DD4  2827               	incf	___fldiv@aexp^(0+1280),w,c
  4137  002DD6  A4D8               	btfss	status,2,c
  4138  002DD8  EFF0  F016         	goto	u1781
  4139  002DDC  EFF2  F016         	goto	u1780
  4140  002DE0                     u1781:
  4141  002DE0  EFFA  F016         	goto	l2437
  4142  002DE4                     u1780:
  4143  002DE4  0E00               	movlw	0
  4144  002DE6  6E13               	movwf	___fldiv@a^(0+1280),c
  4145  002DE8  0E00               	movlw	0
  4146  002DEA  6E14               	movwf	(___fldiv@a+1)^(0+1280),c
  4147  002DEC  0E00               	movlw	0
  4148  002DEE  6E15               	movwf	(___fldiv@a+2)^(0+1280),c
  4149  002DF0  0E00               	movlw	0
  4150  002DF2  6E16               	movwf	(___fldiv@a+3)^(0+1280),c
  4151  002DF4                     l2437:
  4152  002DF4  8E15               	bsf	(___fldiv@a+2)^(0+1280),7,c
  4153  002DF6  0E00               	movlw	0
  4154  002DF8  6E16               	movwf	(___fldiv@a+3)^(0+1280),c
  4155  002DFA  EF07  F017         	goto	l2443
  4156  002DFE                     l2441:
  4157  002DFE  0E00               	movlw	0
  4158  002E00  6E13               	movwf	___fldiv@a^(0+1280),c
  4159  002E02  0E00               	movlw	0
  4160  002E04  6E14               	movwf	(___fldiv@a+1)^(0+1280),c
  4161  002E06  0E00               	movlw	0
  4162  002E08  6E15               	movwf	(___fldiv@a+2)^(0+1280),c
  4163  002E0A  0E00               	movlw	0
  4164  002E0C  6E16               	movwf	(___fldiv@a+3)^(0+1280),c
  4165  002E0E                     l2443:
  4166  002E0E  5013               	movf	___fldiv@a^(0+1280),w,c
  4167  002E10  1014               	iorwf	(___fldiv@a+1)^(0+1280),w,c
  4168  002E12  1015               	iorwf	(___fldiv@a+2)^(0+1280),w,c
  4169  002E14  1016               	iorwf	(___fldiv@a+3)^(0+1280),w,c
  4170  002E16  A4D8               	btfss	status,2,c
  4171  002E18  EF10  F017         	goto	u1791
  4172  002E1C  EF12  F017         	goto	u1790
  4173  002E20                     u1791:
  4174  002E20  EF2A  F017         	goto	l2455
  4175  002E24                     u1790:
  4176  002E24  0E00               	movlw	0
  4177  002E26  6E0F               	movwf	___fldiv@b^(0+1280),c
  4178  002E28  0E00               	movlw	0
  4179  002E2A  6E10               	movwf	(___fldiv@b+1)^(0+1280),c
  4180  002E2C  0E00               	movlw	0
  4181  002E2E  6E11               	movwf	(___fldiv@b+2)^(0+1280),c
  4182  002E30  0E00               	movlw	0
  4183  002E32  6E12               	movwf	(___fldiv@b+3)^(0+1280),c
  4184  002E34  0E80               	movlw	128
  4185  002E36  1211               	iorwf	(___fldiv@b+2)^(0+1280),f,c
  4186  002E38  0E7F               	movlw	127
  4187  002E3A  1212               	iorwf	(___fldiv@b+3)^(0+1280),f,c
  4188  002E3C                     l2449:
  4189  002E3C  501F               	movf	___fldiv@sign^(0+1280),w,c
  4190  002E3E  1212               	iorwf	(___fldiv@b+3)^(0+1280),f,c
  4191  002E40  C50F  F50F         	movff	___fldiv@b,?___fldiv
  4192  002E44  C510  F510         	movff	___fldiv@b+1,?___fldiv+1
  4193  002E48  C511  F511         	movff	___fldiv@b+2,?___fldiv+2
  4194  002E4C  C512  F512         	movff	___fldiv@b+3,?___fldiv+3
  4195  002E50  EF6D  F018         	goto	l760
  4196  002E54                     l2455:
  4197  002E54  5026               	movf	___fldiv@bexp^(0+1280),w,c
  4198  002E56  A4D8               	btfss	status,2,c
  4199  002E58  EF30  F017         	goto	u1801
  4200  002E5C  EF32  F017         	goto	u1800
  4201  002E60                     u1801:
  4202  002E60  EF3C  F017         	goto	l2463
  4203  002E64                     u1800:
  4204  002E64  0E00               	movlw	0
  4205  002E66  6E0F               	movwf	?___fldiv^(0+1280),c
  4206  002E68  0E00               	movlw	0
  4207  002E6A  6E10               	movwf	(?___fldiv+1)^(0+1280),c
  4208  002E6C  0E00               	movlw	0
  4209  002E6E  6E11               	movwf	(?___fldiv+2)^(0+1280),c
  4210  002E70  0E00               	movlw	0
  4211  002E72  6E12               	movwf	(?___fldiv+3)^(0+1280),c
  4212  002E74  EF6D  F018         	goto	l760
  4213  002E78                     l2463:
  4214  002E78  5027               	movf	___fldiv@aexp^(0+1280),w,c
  4215  002E7A  C526  F517         	movff	___fldiv@bexp,??___fldiv
  4216  002E7E  6A18               	clrf	(??___fldiv+1)^(0+1280),c
  4217  002E80  5E17               	subwf	??___fldiv^(0+1280),f,c
  4218  002E82  0E00               	movlw	0
  4219  002E84  5A18               	subwfb	(??___fldiv+1)^(0+1280),f,c
  4220  002E86  0E7F               	movlw	127
  4221  002E88  2417               	addwf	??___fldiv^(0+1280),w,c
  4222  002E8A  6E20               	movwf	___fldiv@new_exp^(0+1280),c
  4223  002E8C  0E00               	movlw	0
  4224  002E8E  2018               	addwfc	(??___fldiv+1)^(0+1280),w,c
  4225  002E90  6E21               	movwf	(___fldiv@new_exp+1)^(0+1280),c
  4226  002E92  C50F  F51B         	movff	___fldiv@b,___fldiv@rem
  4227  002E96  C510  F51C         	movff	___fldiv@b+1,___fldiv@rem+1
  4228  002E9A  C511  F51D         	movff	___fldiv@b+2,___fldiv@rem+2
  4229  002E9E  C512  F51E         	movff	___fldiv@b+3,___fldiv@rem+3
  4230  002EA2  0E00               	movlw	0
  4231  002EA4  6E0F               	movwf	___fldiv@b^(0+1280),c
  4232  002EA6  0E00               	movlw	0
  4233  002EA8  6E10               	movwf	(___fldiv@b+1)^(0+1280),c
  4234  002EAA  0E00               	movlw	0
  4235  002EAC  6E11               	movwf	(___fldiv@b+2)^(0+1280),c
  4236  002EAE  0E00               	movlw	0
  4237  002EB0  6E12               	movwf	(___fldiv@b+3)^(0+1280),c
  4238  002EB2  0E00               	movlw	0
  4239  002EB4  6E22               	movwf	___fldiv@grs^(0+1280),c
  4240  002EB6  0E00               	movlw	0
  4241  002EB8  6E23               	movwf	(___fldiv@grs+1)^(0+1280),c
  4242  002EBA  0E00               	movlw	0
  4243  002EBC  6E24               	movwf	(___fldiv@grs+2)^(0+1280),c
  4244  002EBE  0E00               	movlw	0
  4245  002EC0  6E25               	movwf	(___fldiv@grs+3)^(0+1280),c
  4246  002EC2  0E00               	movlw	0
  4247  002EC4  6E27               	movwf	___fldiv@aexp^(0+1280),c
  4248  002EC6  EF9D  F017         	goto	l762
  4249  002ECA                     l2473:
  4250  002ECA  5027               	movf	___fldiv@aexp^(0+1280),w,c
  4251  002ECC  B4D8               	btfsc	status,2,c
  4252  002ECE  EF6B  F017         	goto	u1811
  4253  002ED2  EF6D  F017         	goto	u1810
  4254  002ED6                     u1811:
  4255  002ED6  EF84  F017         	goto	l2481
  4256  002EDA                     u1810:
  4257  002EDA  90D8               	bcf	status,0,c
  4258  002EDC  361B               	rlcf	___fldiv@rem^(0+1280),f,c
  4259  002EDE  361C               	rlcf	(___fldiv@rem+1)^(0+1280),f,c
  4260  002EE0  361D               	rlcf	(___fldiv@rem+2)^(0+1280),f,c
  4261  002EE2  361E               	rlcf	(___fldiv@rem+3)^(0+1280),f,c
  4262  002EE4  90D8               	bcf	status,0,c
  4263  002EE6  360F               	rlcf	___fldiv@b^(0+1280),f,c
  4264  002EE8  3610               	rlcf	(___fldiv@b+1)^(0+1280),f,c
  4265  002EEA  3611               	rlcf	(___fldiv@b+2)^(0+1280),f,c
  4266  002EEC  3612               	rlcf	(___fldiv@b+3)^(0+1280),f,c
  4267  002EEE  AE25               	btfss	(___fldiv@grs+3)^(0+1280),7,c
  4268  002EF0  EF7C  F017         	goto	u1821
  4269  002EF4  EF7E  F017         	goto	u1820
  4270  002EF8                     u1821:
  4271  002EF8  EF7F  F017         	goto	l765
  4272  002EFC                     u1820:
  4273  002EFC  800F               	bsf	___fldiv@b^(0+1280),0,c
  4274  002EFE                     l765:
  4275  002EFE  90D8               	bcf	status,0,c
  4276  002F00  3622               	rlcf	___fldiv@grs^(0+1280),f,c
  4277  002F02  3623               	rlcf	(___fldiv@grs+1)^(0+1280),f,c
  4278  002F04  3624               	rlcf	(___fldiv@grs+2)^(0+1280),f,c
  4279  002F06  3625               	rlcf	(___fldiv@grs+3)^(0+1280),f,c
  4280  002F08                     l2481:
  4281  002F08  5013               	movf	___fldiv@a^(0+1280),w,c
  4282  002F0A  5C1B               	subwf	___fldiv@rem^(0+1280),w,c
  4283  002F0C  5014               	movf	(___fldiv@a+1)^(0+1280),w,c
  4284  002F0E  581C               	subwfb	(___fldiv@rem+1)^(0+1280),w,c
  4285  002F10  5015               	movf	(___fldiv@a+2)^(0+1280),w,c
  4286  002F12  581D               	subwfb	(___fldiv@rem+2)^(0+1280),w,c
  4287  002F14  5016               	movf	(___fldiv@a+3)^(0+1280),w,c
  4288  002F16  581E               	subwfb	(___fldiv@rem+3)^(0+1280),w,c
  4289  002F18  A0D8               	btfss	status,0,c
  4290  002F1A  EF91  F017         	goto	u1831
  4291  002F1E  EF93  F017         	goto	u1830
  4292  002F22                     u1831:
  4293  002F22  EF9C  F017         	goto	l2487
  4294  002F26                     u1830:
  4295  002F26  8C25               	bsf	(___fldiv@grs+3)^(0+1280),6,c
  4296  002F28  5013               	movf	___fldiv@a^(0+1280),w,c
  4297  002F2A  5E1B               	subwf	___fldiv@rem^(0+1280),f,c
  4298  002F2C  5014               	movf	(___fldiv@a+1)^(0+1280),w,c
  4299  002F2E  5A1C               	subwfb	(___fldiv@rem+1)^(0+1280),f,c
  4300  002F30  5015               	movf	(___fldiv@a+2)^(0+1280),w,c
  4301  002F32  5A1D               	subwfb	(___fldiv@rem+2)^(0+1280),f,c
  4302  002F34  5016               	movf	(___fldiv@a+3)^(0+1280),w,c
  4303  002F36  5A1E               	subwfb	(___fldiv@rem+3)^(0+1280),f,c
  4304  002F38                     l2487:
  4305  002F38  2A27               	incf	___fldiv@aexp^(0+1280),f,c
  4306  002F3A                     l762:
  4307  002F3A  0E19               	movlw	25
  4308  002F3C  6427               	cpfsgt	___fldiv@aexp^(0+1280),c
  4309  002F3E  EFA3  F017         	goto	u1841
  4310  002F42  EFA5  F017         	goto	u1840
  4311  002F46                     u1841:
  4312  002F46  EF65  F017         	goto	l2473
  4313  002F4A                     u1840:
  4314  002F4A  501B               	movf	___fldiv@rem^(0+1280),w,c
  4315  002F4C  101C               	iorwf	(___fldiv@rem+1)^(0+1280),w,c
  4316  002F4E  101D               	iorwf	(___fldiv@rem+2)^(0+1280),w,c
  4317  002F50  101E               	iorwf	(___fldiv@rem+3)^(0+1280),w,c
  4318  002F52  B4D8               	btfsc	status,2,c
  4319  002F54  EFAE  F017         	goto	u1851
  4320  002F58  EFB0  F017         	goto	u1850
  4321  002F5C                     u1851:
  4322  002F5C  EFC8  F017         	goto	l2499
  4323  002F60                     u1850:
  4324  002F60  8022               	bsf	___fldiv@grs^(0+1280),0,c
  4325  002F62  EFC8  F017         	goto	l2499
  4326  002F66                     l2493:
  4327  002F66  90D8               	bcf	status,0,c
  4328  002F68  360F               	rlcf	___fldiv@b^(0+1280),f,c
  4329  002F6A  3610               	rlcf	(___fldiv@b+1)^(0+1280),f,c
  4330  002F6C  3611               	rlcf	(___fldiv@b+2)^(0+1280),f,c
  4331  002F6E  3612               	rlcf	(___fldiv@b+3)^(0+1280),f,c
  4332  002F70  AE25               	btfss	(___fldiv@grs+3)^(0+1280),7,c
  4333  002F72  EFBD  F017         	goto	u1861
  4334  002F76  EFBF  F017         	goto	u1860
  4335  002F7A                     u1861:
  4336  002F7A  EFC0  F017         	goto	l771
  4337  002F7E                     u1860:
  4338  002F7E  800F               	bsf	___fldiv@b^(0+1280),0,c
  4339  002F80                     l771:
  4340  002F80  90D8               	bcf	status,0,c
  4341  002F82  3622               	rlcf	___fldiv@grs^(0+1280),f,c
  4342  002F84  3623               	rlcf	(___fldiv@grs+1)^(0+1280),f,c
  4343  002F86  3624               	rlcf	(___fldiv@grs+2)^(0+1280),f,c
  4344  002F88  3625               	rlcf	(___fldiv@grs+3)^(0+1280),f,c
  4345  002F8A  0620               	decf	___fldiv@new_exp^(0+1280),f,c
  4346  002F8C  A0D8               	btfss	status,0,c
  4347  002F8E  0621               	decf	(___fldiv@new_exp+1)^(0+1280),f,c
  4348  002F90                     l2499:
  4349  002F90  AE11               	btfss	(___fldiv@b+2)^(0+1280),7,c
  4350  002F92  EFCD  F017         	goto	u1871
  4351  002F96  EFCF  F017         	goto	u1870
  4352  002F9A                     u1871:
  4353  002F9A  EFB3  F017         	goto	l2493
  4354  002F9E                     u1870:
  4355  002F9E  0E00               	movlw	0
  4356  002FA0  6E27               	movwf	___fldiv@aexp^(0+1280),c
  4357  002FA2  AE25               	btfss	(___fldiv@grs+3)^(0+1280),7,c
  4358  002FA4  EFD6  F017         	goto	u1881
  4359  002FA8  EFD8  F017         	goto	u1880
  4360  002FAC                     u1881:
  4361  002FAC  EFFC  F017         	goto	l773
  4362  002FB0                     u1880:
  4363  002FB0  0EFF               	movlw	255
  4364  002FB2  1422               	andwf	___fldiv@grs^(0+1280),w,c
  4365  002FB4  6E17               	movwf	??___fldiv^(0+1280),c
  4366  002FB6  0EFF               	movlw	255
  4367  002FB8  1423               	andwf	(___fldiv@grs+1)^(0+1280),w,c
  4368  002FBA  6E18               	movwf	(??___fldiv+1)^(0+1280),c
  4369  002FBC  0EFF               	movlw	255
  4370  002FBE  1424               	andwf	(___fldiv@grs+2)^(0+1280),w,c
  4371  002FC0  6E19               	movwf	(??___fldiv+2)^(0+1280),c
  4372  002FC2  0E7F               	movlw	127
  4373  002FC4  1425               	andwf	(___fldiv@grs+3)^(0+1280),w,c
  4374  002FC6  6E1A               	movwf	(??___fldiv+3)^(0+1280),c
  4375  002FC8  5017               	movf	??___fldiv^(0+1280),w,c
  4376  002FCA  1018               	iorwf	(??___fldiv+1)^(0+1280),w,c
  4377  002FCC  1019               	iorwf	(??___fldiv+2)^(0+1280),w,c
  4378  002FCE  101A               	iorwf	(??___fldiv+3)^(0+1280),w,c
  4379  002FD0  B4D8               	btfsc	status,2,c
  4380  002FD2  EFED  F017         	goto	u1891
  4381  002FD6  EFEF  F017         	goto	u1890
  4382  002FDA                     u1891:
  4383  002FDA  EFF3  F017         	goto	l774
  4384  002FDE                     u1890:
  4385  002FDE                     l2507:
  4386  002FDE  0E01               	movlw	1
  4387  002FE0  6E27               	movwf	___fldiv@aexp^(0+1280),c
  4388  002FE2  EFFC  F017         	goto	l773
  4389  002FE6                     l774:
  4390  002FE6  A00F               	btfss	___fldiv@b^(0+1280),0,c
  4391  002FE8  EFF8  F017         	goto	u1901
  4392  002FEC  EFFA  F017         	goto	u1900
  4393  002FF0                     u1901:
  4394  002FF0  EFFC  F017         	goto	l773
  4395  002FF4                     u1900:
  4396  002FF4  EFEF  F017         	goto	l2507
  4397  002FF8                     l773:
  4398  002FF8  5027               	movf	___fldiv@aexp^(0+1280),w,c
  4399  002FFA  B4D8               	btfsc	status,2,c
  4400  002FFC  EF02  F018         	goto	u1911
  4401  003000  EF04  F018         	goto	u1910
  4402  003004                     u1911:
  4403  003004  EF28  F018         	goto	l2519
  4404  003008                     u1910:
  4405  003008  0E01               	movlw	1
  4406  00300A  260F               	addwf	___fldiv@b^(0+1280),f,c
  4407  00300C  0E00               	movlw	0
  4408  00300E  2210               	addwfc	(___fldiv@b+1)^(0+1280),f,c
  4409  003010  2211               	addwfc	(___fldiv@b+2)^(0+1280),f,c
  4410  003012  2212               	addwfc	(___fldiv@b+3)^(0+1280),f,c
  4411  003014  A012               	btfss	(___fldiv@b+3)^(0+1280),0,c
  4412  003016  EF0F  F018         	goto	u1921
  4413  00301A  EF11  F018         	goto	u1920
  4414  00301E                     u1921:
  4415  00301E  EF28  F018         	goto	l2519
  4416  003022                     u1920:
  4417  003022  C50F  F517         	movff	___fldiv@b,??___fldiv
  4418  003026  C510  F518         	movff	___fldiv@b+1,??___fldiv+1
  4419  00302A  C511  F519         	movff	___fldiv@b+2,??___fldiv+2
  4420  00302E  C512  F51A         	movff	___fldiv@b+3,??___fldiv+3
  4421  003032  341A               	rlcf	(??___fldiv+3)^(0+1280),w,c
  4422  003034  321A               	rrcf	(??___fldiv+3)^(0+1280),f,c
  4423  003036  3219               	rrcf	(??___fldiv+2)^(0+1280),f,c
  4424  003038  3218               	rrcf	(??___fldiv+1)^(0+1280),f,c
  4425  00303A  3217               	rrcf	??___fldiv^(0+1280),f,c
  4426  00303C  C517  F50F         	movff	??___fldiv,___fldiv@b
  4427  003040  C518  F510         	movff	??___fldiv+1,___fldiv@b+1
  4428  003044  C519  F511         	movff	??___fldiv+2,___fldiv@b+2
  4429  003048  C51A  F512         	movff	??___fldiv+3,___fldiv@b+3
  4430  00304C  4A20               	infsnz	___fldiv@new_exp^(0+1280),f,c
  4431  00304E  2A21               	incf	(___fldiv@new_exp+1)^(0+1280),f,c
  4432  003050                     l2519:
  4433  003050  BE21               	btfsc	(___fldiv@new_exp+1)^(0+1280),7,c
  4434  003052  EF33  F018         	goto	u1931
  4435  003056  5021               	movf	(___fldiv@new_exp+1)^(0+1280),w,c
  4436  003058  E108               	bnz	u1930
  4437  00305A  2820               	incf	___fldiv@new_exp^(0+1280),w,c
  4438  00305C  A0D8               	btfss	status,0,c
  4439  00305E  EF33  F018         	goto	u1931
  4440  003062  EF35  F018         	goto	u1930
  4441  003066                     u1931:
  4442  003066  EF40  F018         	goto	l2523
  4443  00306A                     u1930:
  4444  00306A  0E00               	movlw	0
  4445  00306C  6E21               	movwf	(___fldiv@new_exp+1)^(0+1280),c
  4446  00306E  6820               	setf	___fldiv@new_exp^(0+1280),c
  4447  003070  0E00               	movlw	0
  4448  003072  6E0F               	movwf	___fldiv@b^(0+1280),c
  4449  003074  0E00               	movlw	0
  4450  003076  6E10               	movwf	(___fldiv@b+1)^(0+1280),c
  4451  003078  0E00               	movlw	0
  4452  00307A  6E11               	movwf	(___fldiv@b+2)^(0+1280),c
  4453  00307C  0E00               	movlw	0
  4454  00307E  6E12               	movwf	(___fldiv@b+3)^(0+1280),c
  4455  003080                     l2523:
  4456  003080  BE21               	btfsc	(___fldiv@new_exp+1)^(0+1280),7,c
  4457  003082  EF4D  F018         	goto	u1940
  4458  003086  5021               	movf	(___fldiv@new_exp+1)^(0+1280),w,c
  4459  003088  E106               	bnz	u1941
  4460  00308A  0420               	decf	___fldiv@new_exp^(0+1280),w,c
  4461  00308C  B0D8               	btfsc	status,0,c
  4462  00308E  EF4B  F018         	goto	u1941
  4463  003092  EF4D  F018         	goto	u1940
  4464  003096                     u1941:
  4465  003096  EF5B  F018         	goto	l2527
  4466  00309A                     u1940:
  4467  00309A  0E00               	movlw	0
  4468  00309C  6E21               	movwf	(___fldiv@new_exp+1)^(0+1280),c
  4469  00309E  0E00               	movlw	0
  4470  0030A0  6E20               	movwf	___fldiv@new_exp^(0+1280),c
  4471  0030A2  0E00               	movlw	0
  4472  0030A4  6E0F               	movwf	___fldiv@b^(0+1280),c
  4473  0030A6  0E00               	movlw	0
  4474  0030A8  6E10               	movwf	(___fldiv@b+1)^(0+1280),c
  4475  0030AA  0E00               	movlw	0
  4476  0030AC  6E11               	movwf	(___fldiv@b+2)^(0+1280),c
  4477  0030AE  0E00               	movlw	0
  4478  0030B0  6E12               	movwf	(___fldiv@b+3)^(0+1280),c
  4479  0030B2  0E00               	movlw	0
  4480  0030B4  6E1F               	movwf	___fldiv@sign^(0+1280),c
  4481  0030B6                     l2527:
  4482  0030B6  C520  F526         	movff	___fldiv@new_exp,___fldiv@bexp
  4483  0030BA  A026               	btfss	___fldiv@bexp^(0+1280),0,c
  4484  0030BC  EF62  F018         	goto	u1951
  4485  0030C0  EF64  F018         	goto	u1950
  4486  0030C4                     u1951:
  4487  0030C4  EF67  F018         	goto	l2533
  4488  0030C8                     u1950:
  4489  0030C8  8E11               	bsf	(___fldiv@b+2)^(0+1280),7,c
  4490  0030CA  EF68  F018         	goto	l2535
  4491  0030CE                     l2533:
  4492  0030CE  9E11               	bcf	(___fldiv@b+2)^(0+1280),7,c
  4493  0030D0                     l2535:
  4494  0030D0  90D8               	bcf	status,0,c
  4495  0030D2  3026               	rrcf	___fldiv@bexp^(0+1280),w,c
  4496  0030D4  6E12               	movwf	(___fldiv@b+3)^(0+1280),c
  4497  0030D6  EF1E  F017         	goto	l2449
  4498  0030DA                     l760:
  4499  0030DA  0012               	return		;funcret
  4500  0030DC                     __end_of___fldiv:
  4501                           	callstack 0
  4502                           
  4503 ;; *************** function _System_Init *****************
  4504 ;; Defined at:
  4505 ;;		line 125 in file "main.c"
  4506 ;; Parameters:    Size  Location     Type
  4507 ;;		None
  4508 ;; Auto vars:     Size  Location     Type
  4509 ;;		None
  4510 ;; Return value:  Size  Location     Type
  4511 ;;                  1    wreg      void 
  4512 ;; Registers used:
  4513 ;;		wreg, fsr2l, fsr2h, status,2, status,0, cstack
  4514 ;; Tracked objects:
  4515 ;;		On entry : 0/0
  4516 ;;		On exit  : 0/0
  4517 ;;		Unchanged: 0/0
  4518 ;; Data sizes:     COMRAM   BANK5   BANK6   BANK7   BANK8   BANK9  BANK10  BANK11  BANK12  BANK13  BANK14  BANK15  BANK1
      +6  BANK17  BANK18  BANK19  BANK20  BANK21  BANK22  BANK23  BANK24  BANK25  BANK26  BANK27  BANK28  BANK29  BANK30  BANK3
      +1  BANK32  BANK33  BANK34  BANK35  BANK36
  4519 ;;      Params:         0       0       0       0       0       0       0       0       0       0       0       0       
      +0       0       0       0       0       0       0       0       0       0       0       0       0       0       0       
      +0       0       0       0       0       0
  4520 ;;      Locals:         0       0       0       0       0       0       0       0       0       0       0       0       
      +0       0       0       0       0       0       0       0       0       0       0       0       0       0       0       
      +0       0       0       0       0       0
  4521 ;;      Temps:          0       0       0       0       0       0       0       0       0       0       0       0       
      +0       0       0       0       0       0       0       0       0       0       0       0       0       0       0       
      +0       0       0       0       0       0
  4522 ;;      Totals:         0       0       0       0       0       0       0       0       0       0       0       0       
      +0       0       0       0       0       0       0       0       0       0       0       0       0       0       0       
      +0       0       0       0       0       0
  4523 ;;Total ram usage:        0 bytes
  4524 ;; Hardware stack levels used: 1
  4525 ;; Hardware stack levels required when called: 4
  4526 ;; This function calls:
  4527 ;;		_FM_Lcd_Easy_Init
  4528 ;;		_Init_ADCC_Module
  4529 ;;		_Init_Gpio_System
  4530 ;;		_Init_Internal_Oscillator
  4531 ;;		_Init_Interrupts
  4532 ;;		_Init_Timer0_As_Timer
  4533 ;; This function is called by:
  4534 ;;		_main
  4535 ;; This function uses a non-reentrant model
  4536 ;;
  4537                           
  4538                           	psect	text20
  4539  004108                     __ptext20:
  4540                           	callstack 0
  4541  004108                     _System_Init:
  4542                           	callstack 122
  4543  004108                     
  4544                           ;main.c: 127:     Init_Internal_Oscillator();
  4545  004108  EC91  F020         	call	_Init_Internal_Oscillator	;wreg free
  4546  00410C                     
  4547                           ;main.c: 129:     Init_Interrupts();
  4548  00410C  EC9C  F020         	call	_Init_Interrupts	;wreg free
  4549  004110                     
  4550                           ;main.c: 131:     Init_Timer0_As_Timer();
  4551  004110  EC75  F020         	call	_Init_Timer0_As_Timer	;wreg free
  4552  004114                     
  4553                           ;main.c: 133:     Init_ADCC_Module();
  4554  004114  ECB4  F01F         	call	_Init_ADCC_Module	;wreg free
  4555  004118                     
  4556                           ;main.c: 135:     Init_Gpio_System();
  4557  004118  ECA6  F020         	call	_Init_Gpio_System	;wreg free
  4558  00411C                     
  4559                           ;main.c: 137:     FM_Lcd_Easy_Init();
  4560  00411C  ECD5  F01F         	call	_FM_Lcd_Easy_Init	;wreg free
  4561  004120  0012               	return		;funcret
  4562  004122                     __end_of_System_Init:
  4563                           	callstack 0
  4564                           
  4565 ;; *************** function _Init_Timer0_As_Timer *****************
  4566 ;; Defined at:
  4567 ;;		line 140 in file "main.c"
  4568 ;; Parameters:    Size  Location     Type
  4569 ;;		None
  4570 ;; Auto vars:     Size  Location     Type
  4571 ;;		None
  4572 ;; Return value:  Size  Location     Type
  4573 ;;                  1    wreg      void 
  4574 ;; Registers used:
  4575 ;;		wreg, status,2, status,0
  4576 ;; Tracked objects:
  4577 ;;		On entry : 0/0
  4578 ;;		On exit  : 0/0
  4579 ;;		Unchanged: 0/0
  4580 ;; Data sizes:     COMRAM   BANK5   BANK6   BANK7   BANK8   BANK9  BANK10  BANK11  BANK12  BANK13  BANK14  BANK15  BANK1
      +6  BANK17  BANK18  BANK19  BANK20  BANK21  BANK22  BANK23  BANK24  BANK25  BANK26  BANK27  BANK28  BANK29  BANK30  BANK3
      +1  BANK32  BANK33  BANK34  BANK35  BANK36
  4581 ;;      Params:         0       0       0       0       0       0       0       0       0       0       0       0       
      +0       0       0       0       0       0       0       0       0       0       0       0       0       0       0       
      +0       0       0       0       0       0
  4582 ;;      Locals:         0       0       0       0       0       0       0       0       0       0       0       0       
      +0       0       0       0       0       0       0       0       0       0       0       0       0       0       0       
      +0       0       0       0       0       0
  4583 ;;      Temps:          0       0       0       0       0       0       0       0       0       0       0       0       
      +0       0       0       0       0       0       0       0       0       0       0       0       0       0       0       
      +0       0       0       0       0       0
  4584 ;;      Totals:         0       0       0       0       0       0       0       0       0       0       0       0       
      +0       0       0       0       0       0       0       0       0       0       0       0       0       0       0       
      +0       0       0       0       0       0
  4585 ;;Total ram usage:        0 bytes
  4586 ;; Hardware stack levels used: 1
  4587 ;; Hardware stack levels required when called: 1
  4588 ;; This function calls:
  4589 ;;		Nothing
  4590 ;; This function is called by:
  4591 ;;		_System_Init
  4592 ;; This function uses a non-reentrant model
  4593 ;;
  4594                           
  4595                           	psect	text21
  4596  0040EA                     __ptext21:
  4597                           	callstack 0
  4598  0040EA                     _Init_Timer0_As_Timer:
  4599                           	callstack 124
  4600  0040EA                     
  4601                           ;main.c: 142:     T0CON0 = 0x00;
  4602  0040EA  0E00               	movlw	0
  4603  0040EC  0103               	movlb	3	; () banked
  4604  0040EE  6F1A               	movwf	26,b	;volatile
  4605                           
  4606                           ;main.c: 143:     T0CON1 = 0x00;
  4607  0040F0  0E00               	movlw	0
  4608  0040F2  6F1B               	movwf	27,b	;volatile
  4609  0040F4                     
  4610                           ; BSR set to: 3
  4611                           ;main.c: 146:     T0CON0 &= ~(1 << 0x7);
  4612  0040F4  9F1A               	bcf	26,7,b	;volatile
  4613  0040F6                     
  4614                           ; BSR set to: 3
  4615                           ;main.c: 147:     T0CON0 &= ~(1 << 0x4);
  4616  0040F6  991A               	bcf	26,4,b	;volatile
  4617  0040F8                     
  4618                           ; BSR set to: 3
  4619                           ;main.c: 148:     T0CON0 |= (0b0000 << 0x0);
  4620  0040F8  511A               	movf	26,w,b	;volatile
  4621  0040FA                     
  4622                           ; BSR set to: 3
  4623                           ;main.c: 150:     T0CON1 |= (0b010 << 0x5);
  4624  0040FA  8D1B               	bsf	27,6,b	;volatile
  4625  0040FC                     
  4626                           ; BSR set to: 3
  4627                           ;main.c: 151:     T0CON1 |= (1 << 0x4);
  4628  0040FC  891B               	bsf	27,4,b	;volatile
  4629  0040FE                     
  4630                           ; BSR set to: 3
  4631                           ;main.c: 152:     T0CON1 |= (0b0100 << 0x0);
  4632  0040FE  851B               	bsf	27,2,b	;volatile
  4633  004100                     
  4634                           ; BSR set to: 3
  4635                           ;main.c: 170:     TMR0 = 6;
  4636  004100  0E06               	movlw	6
  4637  004102  6F18               	movwf	24,b	;volatile
  4638  004104                     
  4639                           ; BSR set to: 3
  4640                           ;main.c: 173:     T0CON0 |= (1 << 0x7);
  4641  004104  8F1A               	bsf	26,7,b	;volatile
  4642  004106                     
  4643                           ; BSR set to: 3
  4644  004106  0012               	return		;funcret
  4645  004108                     __end_of_Init_Timer0_As_Timer:
  4646                           	callstack 0
  4647                           
  4648 ;; *************** function _Init_Interrupts *****************
  4649 ;; Defined at:
  4650 ;;		line 176 in file "main.c"
  4651 ;; Parameters:    Size  Location     Type
  4652 ;;		None
  4653 ;; Auto vars:     Size  Location     Type
  4654 ;;		None
  4655 ;; Return value:  Size  Location     Type
  4656 ;;                  1    wreg      void 
  4657 ;; Registers used:
  4658 ;;		wreg, status,2, status,0
  4659 ;; Tracked objects:
  4660 ;;		On entry : 0/0
  4661 ;;		On exit  : 0/0
  4662 ;;		Unchanged: 0/0
  4663 ;; Data sizes:     COMRAM   BANK5   BANK6   BANK7   BANK8   BANK9  BANK10  BANK11  BANK12  BANK13  BANK14  BANK15  BANK1
      +6  BANK17  BANK18  BANK19  BANK20  BANK21  BANK22  BANK23  BANK24  BANK25  BANK26  BANK27  BANK28  BANK29  BANK30  BANK3
      +1  BANK32  BANK33  BANK34  BANK35  BANK36
  4664 ;;      Params:         0       0       0       0       0       0       0       0       0       0       0       0       
      +0       0       0       0       0       0       0       0       0       0       0       0       0       0       0       
      +0       0       0       0       0       0
  4665 ;;      Locals:         0       0       0       0       0       0       0       0       0       0       0       0       
      +0       0       0       0       0       0       0       0       0       0       0       0       0       0       0       
      +0       0       0       0       0       0
  4666 ;;      Temps:          0       0       0       0       0       0       0       0       0       0       0       0       
      +0       0       0       0       0       0       0       0       0       0       0       0       0       0       0       
      +0       0       0       0       0       0
  4667 ;;      Totals:         0       0       0       0       0       0       0       0       0       0       0       0       
      +0       0       0       0       0       0       0       0       0       0       0       0       0       0       0       
      +0       0       0       0       0       0
  4668 ;;Total ram usage:        0 bytes
  4669 ;; Hardware stack levels used: 1
  4670 ;; Hardware stack levels required when called: 1
  4671 ;; This function calls:
  4672 ;;		Nothing
  4673 ;; This function is called by:
  4674 ;;		_System_Init
  4675 ;; This function uses a non-reentrant model
  4676 ;;
  4677                           
  4678                           	psect	text22
  4679  004138                     __ptext22:
  4680                           	callstack 0
  4681  004138                     _Init_Interrupts:
  4682                           	callstack 124
  4683  004138                     
  4684                           ;main.c: 178:     INTCON0 = 0x00;
  4685  004138  0E00               	movlw	0
  4686  00413A  6ED6               	movwf	214,c	;volatile
  4687  00413C                     
  4688                           ;main.c: 181:     INTCON0 |= (1 << 0x7);
  4689  00413C  8ED6               	bsf	214,7,c	;volatile
  4690  00413E                     
  4691                           ;main.c: 182:     INTCON0 &= ~(1 << 0x5);
  4692  00413E  9AD6               	bcf	214,5,c	;volatile
  4693  004140                     
  4694                           ;main.c: 185:     PIR1 &= ~(1 << 0x0);
  4695  004140  90AF               	bcf	175,0,c	;volatile
  4696  004142                     
  4697                           ;main.c: 186:     PIE1 |= (1 << 0x0);
  4698  004142  809F               	bsf	159,0,c	;volatile
  4699  004144                     
  4700                           ;main.c: 187:     INTCON0 &= ~(1 << 0x0);
  4701  004144  90D6               	bcf	214,0,c	;volatile
  4702  004146                     
  4703                           ;main.c: 190:     PIR3 &= ~(1 << 0x7);
  4704  004146  9EB1               	bcf	177,7,c	;volatile
  4705  004148                     
  4706                           ;main.c: 191:     PIE3 |= (1 << 0x7);
  4707  004148  8EA1               	bsf	161,7,c	;volatile
  4708  00414A  0012               	return		;funcret
  4709  00414C                     __end_of_Init_Interrupts:
  4710                           	callstack 0
  4711                           
  4712 ;; *************** function _Init_Internal_Oscillator *****************
  4713 ;; Defined at:
  4714 ;;		line 273 in file "main.c"
  4715 ;; Parameters:    Size  Location     Type
  4716 ;;		None
  4717 ;; Auto vars:     Size  Location     Type
  4718 ;;  my_clock        2    3[COMRAM] struct .
  4719 ;; Return value:  Size  Location     Type
  4720 ;;                  1    wreg      void 
  4721 ;; Registers used:
  4722 ;;		wreg, fsr2l, fsr2h, status,2, status,0, cstack
  4723 ;; Tracked objects:
  4724 ;;		On entry : 0/0
  4725 ;;		On exit  : 0/0
  4726 ;;		Unchanged: 0/0
  4727 ;; Data sizes:     COMRAM   BANK5   BANK6   BANK7   BANK8   BANK9  BANK10  BANK11  BANK12  BANK13  BANK14  BANK15  BANK1
      +6  BANK17  BANK18  BANK19  BANK20  BANK21  BANK22  BANK23  BANK24  BANK25  BANK26  BANK27  BANK28  BANK29  BANK30  BANK3
      +1  BANK32  BANK33  BANK34  BANK35  BANK36
  4728 ;;      Params:         0       0       0       0       0       0       0       0       0       0       0       0       
      +0       0       0       0       0       0       0       0       0       0       0       0       0       0       0       
      +0       0       0       0       0       0
  4729 ;;      Locals:         2       0       0       0       0       0       0       0       0       0       0       0       
      +0       0       0       0       0       0       0       0       0       0       0       0       0       0       0       
      +0       0       0       0       0       0
  4730 ;;      Temps:          0       0       0       0       0       0       0       0       0       0       0       0       
      +0       0       0       0       0       0       0       0       0       0       0       0       0       0       0       
      +0       0       0       0       0       0
  4731 ;;      Totals:         2       0       0       0       0       0       0       0       0       0       0       0       
      +0       0       0       0       0       0       0       0       0       0       0       0       0       0       0       
      +0       0       0       0       0       0
  4732 ;;Total ram usage:        2 bytes
  4733 ;; Hardware stack levels used: 1
  4734 ;; Hardware stack levels required when called: 2
  4735 ;; This function calls:
  4736 ;;		_FM_Hfintosc_Init
  4737 ;; This function is called by:
  4738 ;;		_System_Init
  4739 ;; This function uses a non-reentrant model
  4740 ;;
  4741                           
  4742                           	psect	text23
  4743  004122                     __ptext23:
  4744                           	callstack 0
  4745  004122                     _Init_Internal_Oscillator:
  4746                           	callstack 123
  4747  004122                     
  4748                           ;main.c: 275:     _clock_hfintosc_params_t my_clock;;main.c: 276:     my_clock.frecuenci
      +                          a_clock = freq_clk_16MHZ;
  4749  004122  0E05               	movlw	5
  4750  004124  6E05               	movwf	(Init_Internal_Oscillator@my_clock+1)^(0+1280),c
  4751                           
  4752                           ;main.c: 277:     my_clock.divisor_clock = clock_div_1;
  4753  004126  0E00               	movlw	0
  4754  004128  6E04               	movwf	Init_Internal_Oscillator@my_clock^(0+1280),c
  4755  00412A                     
  4756                           ;main.c: 278:     FM_Hfintosc_Init(&my_clock);
  4757  00412A  0E04               	movlw	low Init_Internal_Oscillator@my_clock
  4758  00412C  6E01               	movwf	FM_Hfintosc_Init@clock_params^(0+1280),c
  4759  00412E  0E05               	movlw	high Init_Internal_Oscillator@my_clock
  4760  004130  6E02               	movwf	(FM_Hfintosc_Init@clock_params+1)^(0+1280),c
  4761  004132  ECF6  F01F         	call	_FM_Hfintosc_Init	;wreg free
  4762  004136  0012               	return		;funcret
  4763  004138                     __end_of_Init_Internal_Oscillator:
  4764                           	callstack 0
  4765                           
  4766 ;; *************** function _FM_Hfintosc_Init *****************
  4767 ;; Defined at:
  4768 ;;		line 8 in file "system_config.c"
  4769 ;; Parameters:    Size  Location     Type
  4770 ;;  clock_params    2    0[COMRAM] PTR struct .
  4771 ;;		 -> Init_Internal_Oscillator@my_clock(2), 
  4772 ;; Auto vars:     Size  Location     Type
  4773 ;;		None
  4774 ;; Return value:  Size  Location     Type
  4775 ;;                  1    wreg      void 
  4776 ;; Registers used:
  4777 ;;		wreg, fsr2l, fsr2h, status,2, status,0
  4778 ;; Tracked objects:
  4779 ;;		On entry : 0/0
  4780 ;;		On exit  : 0/0
  4781 ;;		Unchanged: 0/0
  4782 ;; Data sizes:     COMRAM   BANK5   BANK6   BANK7   BANK8   BANK9  BANK10  BANK11  BANK12  BANK13  BANK14  BANK15  BANK1
      +6  BANK17  BANK18  BANK19  BANK20  BANK21  BANK22  BANK23  BANK24  BANK25  BANK26  BANK27  BANK28  BANK29  BANK30  BANK3
      +1  BANK32  BANK33  BANK34  BANK35  BANK36
  4783 ;;      Params:         2       0       0       0       0       0       0       0       0       0       0       0       
      +0       0       0       0       0       0       0       0       0       0       0       0       0       0       0       
      +0       0       0       0       0       0
  4784 ;;      Locals:         0       0       0       0       0       0       0       0       0       0       0       0       
      +0       0       0       0       0       0       0       0       0       0       0       0       0       0       0       
      +0       0       0       0       0       0
  4785 ;;      Temps:          1       0       0       0       0       0       0       0       0       0       0       0       
      +0       0       0       0       0       0       0       0       0       0       0       0       0       0       0       
      +0       0       0       0       0       0
  4786 ;;      Totals:         3       0       0       0       0       0       0       0       0       0       0       0       
      +0       0       0       0       0       0       0       0       0       0       0       0       0       0       0       
      +0       0       0       0       0       0
  4787 ;;Total ram usage:        3 bytes
  4788 ;; Hardware stack levels used: 1
  4789 ;; Hardware stack levels required when called: 1
  4790 ;; This function calls:
  4791 ;;		Nothing
  4792 ;; This function is called by:
  4793 ;;		_Init_Internal_Oscillator
  4794 ;; This function uses a non-reentrant model
  4795 ;;
  4796                           
  4797                           	psect	text24
  4798  003FEC                     __ptext24:
  4799                           	callstack 0
  4800  003FEC                     _FM_Hfintosc_Init:
  4801                           	callstack 123
  4802  003FEC                     
  4803                           ;system_config.c: 8: void FM_Hfintosc_Init (_clock_hfintosc_params_t *clock_params);syst
      +                          em_config.c: 9: {;system_config.c: 10:     OSCCON1bits.NOSC = 0b110;
  4804  003FEC  0100               	movlb	0	; () banked
  4805  003FEE  51AD               	movf	173,w,b	;volatile
  4806  003FF0  0B8F               	andlw	-113
  4807  003FF2  0960               	iorlw	96
  4808  003FF4  6FAD               	movwf	173,b	;volatile
  4809  003FF6                     
  4810                           ; BSR set to: 0
  4811                           ;system_config.c: 11:     OSCCON1bits.NDIV = clock_params->divisor_clock;
  4812  003FF6  0061  F404  F4D9   	movff	FM_Hfintosc_Init@clock_params,fsr2l
  4813  003FFC  0061  F408  F4DA   	movff	FM_Hfintosc_Init@clock_params+1,fsr2h
  4814  004002  50DF               	movf	indf2,w,c
  4815  004004  6E03               	movwf	??_FM_Hfintosc_Init^(0+1280),c
  4816  004006  51AD               	movf	173,w,b	;volatile
  4817  004008  1803               	xorwf	??_FM_Hfintosc_Init^(0+1280),w,c
  4818  00400A  0BF0               	andlw	-16
  4819  00400C  1803               	xorwf	??_FM_Hfintosc_Init^(0+1280),w,c
  4820  00400E  6FAD               	movwf	173,b	;volatile
  4821  004010                     
  4822                           ; BSR set to: 0
  4823                           ;system_config.c: 12:     OSCFRQbits.HFFRQ = clock_params->frecuencia_clock;
  4824  004010  EE20 F001          	lfsr	2,1
  4825  004014  5001               	movf	FM_Hfintosc_Init@clock_params^(0+1280),w,c
  4826  004016  26D9               	addwf	fsr2l,f,c
  4827  004018  5002               	movf	(FM_Hfintosc_Init@clock_params+1)^(0+1280),w,c
  4828  00401A  22DA               	addwfc	fsr2h,f,c
  4829  00401C  50DF               	movf	indf2,w,c
  4830  00401E  6E03               	movwf	??_FM_Hfintosc_Init^(0+1280),c
  4831  004020  51B1               	movf	177,w,b	;volatile
  4832  004022  1803               	xorwf	??_FM_Hfintosc_Init^(0+1280),w,c
  4833  004024  0BF0               	andlw	-16
  4834  004026  1803               	xorwf	??_FM_Hfintosc_Init^(0+1280),w,c
  4835  004028  6FB1               	movwf	177,b	;volatile
  4836  00402A                     
  4837                           ; BSR set to: 0
  4838  00402A  0012               	return		;funcret
  4839  00402C                     __end_of_FM_Hfintosc_Init:
  4840                           	callstack 0
  4841                           
  4842 ;; *************** function _Init_Gpio_System *****************
  4843 ;; Defined at:
  4844 ;;		line 257 in file "main.c"
  4845 ;; Parameters:    Size  Location     Type
  4846 ;;		None
  4847 ;; Auto vars:     Size  Location     Type
  4848 ;;		None
  4849 ;; Return value:  Size  Location     Type
  4850 ;;                  1    wreg      void 
  4851 ;; Registers used:
  4852 ;;		status,2, status,0
  4853 ;; Tracked objects:
  4854 ;;		On entry : 0/0
  4855 ;;		On exit  : 0/0
  4856 ;;		Unchanged: 0/0
  4857 ;; Data sizes:     COMRAM   BANK5   BANK6   BANK7   BANK8   BANK9  BANK10  BANK11  BANK12  BANK13  BANK14  BANK15  BANK1
      +6  BANK17  BANK18  BANK19  BANK20  BANK21  BANK22  BANK23  BANK24  BANK25  BANK26  BANK27  BANK28  BANK29  BANK30  BANK3
      +1  BANK32  BANK33  BANK34  BANK35  BANK36
  4858 ;;      Params:         0       0       0       0       0       0       0       0       0       0       0       0       
      +0       0       0       0       0       0       0       0       0       0       0       0       0       0       0       
      +0       0       0       0       0       0
  4859 ;;      Locals:         0       0       0       0       0       0       0       0       0       0       0       0       
      +0       0       0       0       0       0       0       0       0       0       0       0       0       0       0       
      +0       0       0       0       0       0
  4860 ;;      Temps:          0       0       0       0       0       0       0       0       0       0       0       0       
      +0       0       0       0       0       0       0       0       0       0       0       0       0       0       0       
      +0       0       0       0       0       0
  4861 ;;      Totals:         0       0       0       0       0       0       0       0       0       0       0       0       
      +0       0       0       0       0       0       0       0       0       0       0       0       0       0       0       
      +0       0       0       0       0       0
  4862 ;;Total ram usage:        0 bytes
  4863 ;; Hardware stack levels used: 1
  4864 ;; Hardware stack levels required when called: 1
  4865 ;; This function calls:
  4866 ;;		Nothing
  4867 ;; This function is called by:
  4868 ;;		_System_Init
  4869 ;; This function uses a non-reentrant model
  4870 ;;
  4871                           
  4872                           	psect	text25
  4873  00414C                     __ptext25:
  4874                           	callstack 0
  4875  00414C                     _Init_Gpio_System:
  4876                           	callstack 124
  4877  00414C                     
  4878                           ;main.c: 260:     TRISF &= ~(1 << 3);
  4879  00414C  96CB               	bcf	203,3,c	;volatile
  4880                           
  4881                           ;main.c: 261:     ANSELF &= ~(1 << 3);
  4882  00414E  0104               	movlb	4	; () banked
  4883  004150  9728               	bcf	40,3,b	;volatile
  4884                           
  4885                           ;main.c: 262:     LATF &= ~(1 << 3);
  4886  004152  96C3               	bcf	195,3,c	;volatile
  4887                           
  4888                           ;main.c: 265:     TRISA |= (1 << 2);
  4889  004154  84C6               	bsf	198,2,c	;volatile
  4890                           
  4891                           ;main.c: 266:     ANSELA &= ~(1 << 2);
  4892  004156  9500               	bcf	0,2,b	;volatile
  4893                           
  4894                           ;main.c: 269:     ANSELB &= ~(1 << 0);
  4895  004158  9108               	bcf	8,0,b	;volatile
  4896                           
  4897                           ;main.c: 270:     TRISB |= (1 << 0);
  4898  00415A  80C7               	bsf	199,0,c	;volatile
  4899  00415C                     
  4900                           ; BSR set to: 4
  4901  00415C  0012               	return		;funcret
  4902  00415E                     __end_of_Init_Gpio_System:
  4903                           	callstack 0
  4904                           
  4905 ;; *************** function _Init_ADCC_Module *****************
  4906 ;; Defined at:
  4907 ;;		line 194 in file "main.c"
  4908 ;; Parameters:    Size  Location     Type
  4909 ;;		None
  4910 ;; Auto vars:     Size  Location     Type
  4911 ;;		None
  4912 ;; Return value:  Size  Location     Type
  4913 ;;                  1    wreg      void 
  4914 ;; Registers used:
  4915 ;;		wreg, status,2, status,0
  4916 ;; Tracked objects:
  4917 ;;		On entry : 0/0
  4918 ;;		On exit  : 0/0
  4919 ;;		Unchanged: 0/0
  4920 ;; Data sizes:     COMRAM   BANK5   BANK6   BANK7   BANK8   BANK9  BANK10  BANK11  BANK12  BANK13  BANK14  BANK15  BANK1
      +6  BANK17  BANK18  BANK19  BANK20  BANK21  BANK22  BANK23  BANK24  BANK25  BANK26  BANK27  BANK28  BANK29  BANK30  BANK3
      +1  BANK32  BANK33  BANK34  BANK35  BANK36
  4921 ;;      Params:         0       0       0       0       0       0       0       0       0       0       0       0       
      +0       0       0       0       0       0       0       0       0       0       0       0       0       0       0       
      +0       0       0       0       0       0
  4922 ;;      Locals:         0       0       0       0       0       0       0       0       0       0       0       0       
      +0       0       0       0       0       0       0       0       0       0       0       0       0       0       0       
      +0       0       0       0       0       0
  4923 ;;      Temps:          0       0       0       0       0       0       0       0       0       0       0       0       
      +0       0       0       0       0       0       0       0       0       0       0       0       0       0       0       
      +0       0       0       0       0       0
  4924 ;;      Totals:         0       0       0       0       0       0       0       0       0       0       0       0       
      +0       0       0       0       0       0       0       0       0       0       0       0       0       0       0       
      +0       0       0       0       0       0
  4925 ;;Total ram usage:        0 bytes
  4926 ;; Hardware stack levels used: 1
  4927 ;; Hardware stack levels required when called: 1
  4928 ;; This function calls:
  4929 ;;		Nothing
  4930 ;; This function is called by:
  4931 ;;		_System_Init
  4932 ;; This function uses a non-reentrant model
  4933 ;;
  4934                           
  4935                           	psect	text26
  4936  003F68                     __ptext26:
  4937                           	callstack 0
  4938  003F68                     _Init_ADCC_Module:
  4939                           	callstack 124
  4940  003F68                     
  4941                           ;main.c: 196:     ADCON0 = 0x00;
  4942  003F68  0E00               	movlw	0
  4943  003F6A  0103               	movlb	3	; () banked
  4944  003F6C  6FF3               	movwf	243,b	;volatile
  4945                           
  4946                           ;main.c: 197:     ADCON1 = 0x00;
  4947  003F6E  0E00               	movlw	0
  4948  003F70  6FF4               	movwf	244,b	;volatile
  4949                           
  4950                           ;main.c: 198:     ADCON2 = 0x00;
  4951  003F72  0E00               	movlw	0
  4952  003F74  6FF5               	movwf	245,b	;volatile
  4953  003F76                     
  4954                           ; BSR set to: 3
  4955                           ;main.c: 201:     ADCON0 &= ~(1 << 0x7);
  4956  003F76  9FF3               	bcf	243,7,b	;volatile
  4957  003F78                     
  4958                           ; BSR set to: 3
  4959                           ;main.c: 202:     ADCON0 &= ~(1 << 0x6);
  4960  003F78  9DF3               	bcf	243,6,b	;volatile
  4961  003F7A                     
  4962                           ; BSR set to: 3
  4963                           ;main.c: 203:     ADCON0 &= ~(1 << 0x4);
  4964  003F7A  99F3               	bcf	243,4,b	;volatile
  4965  003F7C                     
  4966                           ; BSR set to: 3
  4967                           ;main.c: 204:     ADCON0 &= ~(1 << 0x0);
  4968  003F7C  91F3               	bcf	243,0,b	;volatile
  4969                           
  4970                           ;main.c: 206:     ADCLK = 0x01;
  4971  003F7E  0E01               	movlw	1
  4972  003F80  6FFA               	movwf	250,b	;volatile
  4973  003F82                     
  4974                           ; BSR set to: 3
  4975                           ;main.c: 229:     ADCON0 |= (1 << 0x2);
  4976  003F82  85F3               	bsf	243,2,b	;volatile
  4977  003F84                     
  4978                           ; BSR set to: 3
  4979                           ;main.c: 236:     ADREF &= ~(1 << 0x4);
  4980  003F84  99F8               	bcf	248,4,b	;volatile
  4981  003F86                     
  4982                           ; BSR set to: 3
  4983                           ;main.c: 237:     ADREF &= ~(0b11 << 0x0);
  4984  003F86  0EFC               	movlw	252
  4985  003F88  17F8               	andwf	248,f,b	;volatile
  4986  003F8A                     
  4987                           ; BSR set to: 3
  4988                           ;main.c: 240:     ADPCH = 0x00;
  4989  003F8A  0E00               	movlw	0
  4990  003F8C  6FEC               	movwf	236,b	;volatile
  4991  003F8E                     
  4992                           ; BSR set to: 3
  4993                           ;main.c: 243:     TRISA |= (1 << 0x0);
  4994  003F8E  80C6               	bsf	198,0,c	;volatile
  4995  003F90                     
  4996                           ; BSR set to: 3
  4997                           ;main.c: 244:     ANSELA |= (1 << 0x0);
  4998  003F90  0104               	movlb	4	; () banked
  4999  003F92  8100               	bsf	0,0,b	;volatile
  5000  003F94                     
  5001                           ; BSR set to: 4
  5002                           ;main.c: 250:     ADPRE = 0x00;
  5003  003F94  0E00               	movlw	0
  5004  003F96  0103               	movlb	3	; () banked
  5005  003F98  6FF2               	movwf	242,b	;volatile
  5006  003F9A  0E00               	movlw	0
  5007  003F9C  6FF1               	movwf	241,b	;volatile
  5008  003F9E                     
  5009                           ; BSR set to: 3
  5010                           ;main.c: 251:     ADACQ = 0x00;
  5011  003F9E  0E00               	movlw	0
  5012  003FA0  6FEF               	movwf	239,b	;volatile
  5013  003FA2  0E00               	movlw	0
  5014  003FA4  6FEE               	movwf	238,b	;volatile
  5015  003FA6                     
  5016                           ; BSR set to: 3
  5017                           ;main.c: 254:     ADCON0 |= (1 << 0x7);
  5018  003FA6  8FF3               	bsf	243,7,b	;volatile
  5019  003FA8                     
  5020                           ; BSR set to: 3
  5021  003FA8  0012               	return		;funcret
  5022  003FAA                     __end_of_Init_ADCC_Module:
  5023                           	callstack 0
  5024                           
  5025 ;; *************** function _FM_Lcd_Easy_Init *****************
  5026 ;; Defined at:
  5027 ;;		line 88 in file "FM_Lcd_Easy.c"
  5028 ;; Parameters:    Size  Location     Type
  5029 ;;		None
  5030 ;; Auto vars:     Size  Location     Type
  5031 ;;		None
  5032 ;; Return value:  Size  Location     Type
  5033 ;;                  1    wreg      void 
  5034 ;; Registers used:
  5035 ;;		wreg, status,2, status,0, cstack
  5036 ;; Tracked objects:
  5037 ;;		On entry : 0/0
  5038 ;;		On exit  : 0/0
  5039 ;;		Unchanged: 0/0
  5040 ;; Data sizes:     COMRAM   BANK5   BANK6   BANK7   BANK8   BANK9  BANK10  BANK11  BANK12  BANK13  BANK14  BANK15  BANK1
      +6  BANK17  BANK18  BANK19  BANK20  BANK21  BANK22  BANK23  BANK24  BANK25  BANK26  BANK27  BANK28  BANK29  BANK30  BANK3
      +1  BANK32  BANK33  BANK34  BANK35  BANK36
  5041 ;;      Params:         0       0       0       0       0       0       0       0       0       0       0       0       
      +0       0       0       0       0       0       0       0       0       0       0       0       0       0       0       
      +0       0       0       0       0       0
  5042 ;;      Locals:         0       0       0       0       0       0       0       0       0       0       0       0       
      +0       0       0       0       0       0       0       0       0       0       0       0       0       0       0       
      +0       0       0       0       0       0
  5043 ;;      Temps:          2       0       0       0       0       0       0       0       0       0       0       0       
      +0       0       0       0       0       0       0       0       0       0       0       0       0       0       0       
      +0       0       0       0       0       0
  5044 ;;      Totals:         2       0       0       0       0       0       0       0       0       0       0       0       
      +0       0       0       0       0       0       0       0       0       0       0       0       0       0       0       
      +0       0       0       0       0       0
  5045 ;;Total ram usage:        2 bytes
  5046 ;; Hardware stack levels used: 1
  5047 ;; Hardware stack levels required when called: 3
  5048 ;; This function calls:
  5049 ;;		_FM_Lcd_Easy_Gpio_Init
  5050 ;;		_FM_Lcd_Send_Command
  5051 ;; This function is called by:
  5052 ;;		_System_Init
  5053 ;; This function uses a non-reentrant model
  5054 ;;
  5055                           
  5056                           	psect	text27
  5057  003FAA                     __ptext27:
  5058                           	callstack 0
  5059  003FAA                     _FM_Lcd_Easy_Init:
  5060                           	callstack 122
  5061  003FAA                     
  5062                           ;FM_Lcd_Easy.c: 90:     FM_Lcd_Easy_Gpio_Init();
  5063  003FAA  ECAF  F020         	call	_FM_Lcd_Easy_Gpio_Init	;wreg free
  5064  003FAE                     
  5065                           ;FM_Lcd_Easy.c: 91:     _delay((unsigned long)((50)*(16000000UL/4000.0)));
  5066  003FAE  0E02               	movlw	2
  5067  003FB0  6E07               	movwf	(??_FM_Lcd_Easy_Init+1)^(0+1280),c
  5068  003FB2  0E04               	movlw	4
  5069  003FB4  6E06               	movwf	??_FM_Lcd_Easy_Init^(0+1280),c
  5070  003FB6  0EBA               	movlw	186
  5071  003FB8                     u2437:
  5072  003FB8  2EE8               	decfsz	wreg,f,c
  5073  003FBA  D7FE               	bra	u2437
  5074  003FBC  2E06               	decfsz	??_FM_Lcd_Easy_Init^(0+1280),f,c
  5075  003FBE  D7FC               	bra	u2437
  5076  003FC0  2E07               	decfsz	(??_FM_Lcd_Easy_Init+1)^(0+1280),f,c
  5077  003FC2  D7FA               	bra	u2437
  5078  003FC4  D000               	nop2	
  5079  003FC6                     
  5080                           ;FM_Lcd_Easy.c: 93:     FM_Lcd_Send_Command(0x01);
  5081  003FC6  0E01               	movlw	1
  5082  003FC8  ECB6  F020         	call	_FM_Lcd_Send_Command
  5083  003FCC                     
  5084                           ;FM_Lcd_Easy.c: 94:     FM_Lcd_Send_Command(0x02);
  5085  003FCC  0E02               	movlw	2
  5086  003FCE  ECB6  F020         	call	_FM_Lcd_Send_Command
  5087  003FD2                     
  5088                           ;FM_Lcd_Easy.c: 95:     FM_Lcd_Send_Command(0x06);
  5089  003FD2  0E06               	movlw	6
  5090  003FD4  ECB6  F020         	call	_FM_Lcd_Send_Command
  5091  003FD8                     
  5092                           ;FM_Lcd_Easy.c: 96:     FM_Lcd_Send_Command(0x0C);
  5093  003FD8  0E0C               	movlw	12
  5094  003FDA  ECB6  F020         	call	_FM_Lcd_Send_Command
  5095  003FDE                     
  5096                           ;FM_Lcd_Easy.c: 97:     FM_Lcd_Send_Command(0x10);
  5097  003FDE  0E10               	movlw	16
  5098  003FE0  ECB6  F020         	call	_FM_Lcd_Send_Command
  5099  003FE4                     
  5100                           ;FM_Lcd_Easy.c: 98:     FM_Lcd_Send_Command(0x2C);
  5101  003FE4  0E2C               	movlw	44
  5102  003FE6  ECB6  F020         	call	_FM_Lcd_Send_Command
  5103  003FEA  0012               	return		;funcret
  5104  003FEC                     __end_of_FM_Lcd_Easy_Init:
  5105                           	callstack 0
  5106                           
  5107 ;; *************** function _FM_Lcd_Easy_Gpio_Init *****************
  5108 ;; Defined at:
  5109 ;;		line 11 in file "FM_Lcd_Easy.c"
  5110 ;; Parameters:    Size  Location     Type
  5111 ;;		None
  5112 ;; Auto vars:     Size  Location     Type
  5113 ;;  bits_data       1    0        unsigned char 
  5114 ;; Return value:  Size  Location     Type
  5115 ;;                  1    wreg      void 
  5116 ;; Registers used:
  5117 ;;		wreg, status,2, status,0
  5118 ;; Tracked objects:
  5119 ;;		On entry : 0/0
  5120 ;;		On exit  : 0/0
  5121 ;;		Unchanged: 0/0
  5122 ;; Data sizes:     COMRAM   BANK5   BANK6   BANK7   BANK8   BANK9  BANK10  BANK11  BANK12  BANK13  BANK14  BANK15  BANK1
      +6  BANK17  BANK18  BANK19  BANK20  BANK21  BANK22  BANK23  BANK24  BANK25  BANK26  BANK27  BANK28  BANK29  BANK30  BANK3
      +1  BANK32  BANK33  BANK34  BANK35  BANK36
  5123 ;;      Params:         0       0       0       0       0       0       0       0       0       0       0       0       
      +0       0       0       0       0       0       0       0       0       0       0       0       0       0       0       
      +0       0       0       0       0       0
  5124 ;;      Locals:         0       0       0       0       0       0       0       0       0       0       0       0       
      +0       0       0       0       0       0       0       0       0       0       0       0       0       0       0       
      +0       0       0       0       0       0
  5125 ;;      Temps:          0       0       0       0       0       0       0       0       0       0       0       0       
      +0       0       0       0       0       0       0       0       0       0       0       0       0       0       0       
      +0       0       0       0       0       0
  5126 ;;      Totals:         0       0       0       0       0       0       0       0       0       0       0       0       
      +0       0       0       0       0       0       0       0       0       0       0       0       0       0       0       
      +0       0       0       0       0       0
  5127 ;;Total ram usage:        0 bytes
  5128 ;; Hardware stack levels used: 1
  5129 ;; Hardware stack levels required when called: 1
  5130 ;; This function calls:
  5131 ;;		Nothing
  5132 ;; This function is called by:
  5133 ;;		_FM_Lcd_Easy_Init
  5134 ;; This function uses a non-reentrant model
  5135 ;;
  5136                           
  5137                           	psect	text28
  5138  00415E                     __ptext28:
  5139                           	callstack 0
  5140  00415E                     _FM_Lcd_Easy_Gpio_Init:
  5141                           	callstack 123
  5142  00415E                     
  5143                           ;FM_Lcd_Easy.c: 19:     TRISF = 0x00;
  5144  00415E  0E00               	movlw	0
  5145  004160  6ECB               	movwf	203,c	;volatile
  5146                           
  5147                           ;FM_Lcd_Easy.c: 20:     ANSELF = 0x00;
  5148  004162  0E00               	movlw	0
  5149  004164  0104               	movlb	4	; () banked
  5150  004166  6F28               	movwf	40,b	;volatile
  5151  004168                     
  5152                           ; BSR set to: 4
  5153                           ;FM_Lcd_Easy.c: 21:     LATF &= ~(1 << 1);
  5154  004168  92C3               	bcf	195,1,c	;volatile
  5155  00416A                     
  5156                           ; BSR set to: 4
  5157  00416A  0012               	return		;funcret
  5158  00416C                     __end_of_FM_Lcd_Easy_Gpio_Init:
  5159                           	callstack 0
  5160                           
  5161 ;; *************** function _FM_Lcd_Set_Cursor *****************
  5162 ;; Defined at:
  5163 ;;		line 56 in file "FM_Lcd_Easy.c"
  5164 ;; Parameters:    Size  Location     Type
  5165 ;;  filas           1    wreg     enum E16680
  5166 ;;  columna         1    5[COMRAM] enum E16684
  5167 ;; Auto vars:     Size  Location     Type
  5168 ;;  filas           1    6[COMRAM] enum E16680
  5169 ;;  base_pos        1    7[COMRAM] unsigned char 
  5170 ;; Return value:  Size  Location     Type
  5171 ;;                  1    wreg      void 
  5172 ;; Registers used:
  5173 ;;		wreg, status,2, status,0, cstack
  5174 ;; Tracked objects:
  5175 ;;		On entry : 0/0
  5176 ;;		On exit  : 0/0
  5177 ;;		Unchanged: 0/0
  5178 ;; Data sizes:     COMRAM   BANK5   BANK6   BANK7   BANK8   BANK9  BANK10  BANK11  BANK12  BANK13  BANK14  BANK15  BANK1
      +6  BANK17  BANK18  BANK19  BANK20  BANK21  BANK22  BANK23  BANK24  BANK25  BANK26  BANK27  BANK28  BANK29  BANK30  BANK3
      +1  BANK32  BANK33  BANK34  BANK35  BANK36
  5179 ;;      Params:         1       0       0       0       0       0       0       0       0       0       0       0       
      +0       0       0       0       0       0       0       0       0       0       0       0       0       0       0       
      +0       0       0       0       0       0
  5180 ;;      Locals:         2       0       0       0       0       0       0       0       0       0       0       0       
      +0       0       0       0       0       0       0       0       0       0       0       0       0       0       0       
      +0       0       0       0       0       0
  5181 ;;      Temps:          0       0       0       0       0       0       0       0       0       0       0       0       
      +0       0       0       0       0       0       0       0       0       0       0       0       0       0       0       
      +0       0       0       0       0       0
  5182 ;;      Totals:         3       0       0       0       0       0       0       0       0       0       0       0       
      +0       0       0       0       0       0       0       0       0       0       0       0       0       0       0       
      +0       0       0       0       0       0
  5183 ;;Total ram usage:        3 bytes
  5184 ;; Hardware stack levels used: 1
  5185 ;; Hardware stack levels required when called: 3
  5186 ;; This function calls:
  5187 ;;		_FM_Lcd_Send_Command
  5188 ;; This function is called by:
  5189 ;;		_main
  5190 ;; This function uses a non-reentrant model
  5191 ;;
  5192                           
  5193                           	psect	text29
  5194  003F24                     __ptext29:
  5195                           	callstack 0
  5196  003F24                     _FM_Lcd_Set_Cursor:
  5197                           	callstack 123
  5198                           
  5199                           ; BSR set to: 4
  5200                           ;incstack = 0
  5201                           ;FM_Lcd_Set_Cursor@filas stored from wreg
  5202  003F24  6E07               	movwf	FM_Lcd_Set_Cursor@filas^(0+1280),c
  5203  003F26                     
  5204                           ;FM_Lcd_Easy.c: 56: void FM_Lcd_Set_Cursor (_row_lcd_t filas, _column_lcd_t columna);FM_
      +                          Lcd_Easy.c: 57: {;FM_Lcd_Easy.c: 58:     char base_pos = 0x00;
  5205  003F26  0E00               	movlw	0
  5206  003F28  6E08               	movwf	FM_Lcd_Set_Cursor@base_pos^(0+1280),c
  5207  003F2A                     
  5208                           ;FM_Lcd_Easy.c: 59:     if(filas == ROW_1)
  5209  003F2A  5007               	movf	FM_Lcd_Set_Cursor@filas^(0+1280),w,c
  5210  003F2C  A4D8               	btfss	status,2,c
  5211  003F2E  EF9B  F01F         	goto	u1681
  5212  003F32  EF9D  F01F         	goto	u1680
  5213  003F36                     u1681:
  5214  003F36  EFA1  F01F         	goto	l2375
  5215  003F3A                     u1680:
  5216  003F3A                     
  5217                           ;FM_Lcd_Easy.c: 60:     {;FM_Lcd_Easy.c: 61:         base_pos = 0x80;
  5218  003F3A  0E80               	movlw	128
  5219  003F3C  6E08               	movwf	FM_Lcd_Set_Cursor@base_pos^(0+1280),c
  5220                           
  5221                           ;FM_Lcd_Easy.c: 62:     }
  5222  003F3E  EFAE  F01F         	goto	l2379
  5223  003F42                     l2375:
  5224  003F42  0407               	decf	FM_Lcd_Set_Cursor@filas^(0+1280),w,c
  5225  003F44  A4D8               	btfss	status,2,c
  5226  003F46  EFA7  F01F         	goto	u1691
  5227  003F4A  EFA9  F01F         	goto	u1690
  5228  003F4E                     u1691:
  5229  003F4E  EFAD  F01F         	goto	l164
  5230  003F52                     u1690:
  5231  003F52                     
  5232                           ;FM_Lcd_Easy.c: 64:     {;FM_Lcd_Easy.c: 65:         base_pos = 0xC0;
  5233  003F52  0EC0               	movlw	192
  5234  003F54  6E08               	movwf	FM_Lcd_Set_Cursor@base_pos^(0+1280),c
  5235                           
  5236                           ;FM_Lcd_Easy.c: 66:     }
  5237  003F56  EFAE  F01F         	goto	l2379
  5238  003F5A                     l164:
  5239                           
  5240                           ;FM_Lcd_Easy.c: 68:     {;FM_Lcd_Easy.c: 69:         __nop();
  5241  003F5A  F000               	nop	
  5242  003F5C                     l2379:
  5243                           
  5244                           ;FM_Lcd_Easy.c: 73:     base_pos += columna;
  5245  003F5C  5006               	movf	FM_Lcd_Set_Cursor@columna^(0+1280),w,c
  5246  003F5E  2608               	addwf	FM_Lcd_Set_Cursor@base_pos^(0+1280),f,c
  5247  003F60                     
  5248                           ;FM_Lcd_Easy.c: 74:     FM_Lcd_Send_Command(base_pos);
  5249  003F60  5008               	movf	FM_Lcd_Set_Cursor@base_pos^(0+1280),w,c
  5250  003F62  ECB6  F020         	call	_FM_Lcd_Send_Command
  5251  003F66  0012               	return		;funcret
  5252  003F68                     __end_of_FM_Lcd_Set_Cursor:
  5253                           	callstack 0
  5254                           
  5255 ;; *************** function _FM_Lcd_Send_Command *****************
  5256 ;; Defined at:
  5257 ;;		line 44 in file "FM_Lcd_Easy.c"
  5258 ;; Parameters:    Size  Location     Type
  5259 ;;  command_to_s    1    wreg     unsigned char 
  5260 ;; Auto vars:     Size  Location     Type
  5261 ;;  command_to_s    1    4[COMRAM] unsigned char 
  5262 ;; Return value:  Size  Location     Type
  5263 ;;                  1    wreg      void 
  5264 ;; Registers used:
  5265 ;;		wreg, status,2, status,0, cstack
  5266 ;; Tracked objects:
  5267 ;;		On entry : 0/0
  5268 ;;		On exit  : 0/0
  5269 ;;		Unchanged: 0/0
  5270 ;; Data sizes:     COMRAM   BANK5   BANK6   BANK7   BANK8   BANK9  BANK10  BANK11  BANK12  BANK13  BANK14  BANK15  BANK1
      +6  BANK17  BANK18  BANK19  BANK20  BANK21  BANK22  BANK23  BANK24  BANK25  BANK26  BANK27  BANK28  BANK29  BANK30  BANK3
      +1  BANK32  BANK33  BANK34  BANK35  BANK36
  5271 ;;      Params:         0       0       0       0       0       0       0       0       0       0       0       0       
      +0       0       0       0       0       0       0       0       0       0       0       0       0       0       0       
      +0       0       0       0       0       0
  5272 ;;      Locals:         1       0       0       0       0       0       0       0       0       0       0       0       
      +0       0       0       0       0       0       0       0       0       0       0       0       0       0       0       
      +0       0       0       0       0       0
  5273 ;;      Temps:          0       0       0       0       0       0       0       0       0       0       0       0       
      +0       0       0       0       0       0       0       0       0       0       0       0       0       0       0       
      +0       0       0       0       0       0
  5274 ;;      Totals:         1       0       0       0       0       0       0       0       0       0       0       0       
      +0       0       0       0       0       0       0       0       0       0       0       0       0       0       0       
      +0       0       0       0       0       0
  5275 ;;Total ram usage:        1 bytes
  5276 ;; Hardware stack levels used: 1
  5277 ;; Hardware stack levels required when called: 2
  5278 ;; This function calls:
  5279 ;;		_FM_Lcd_Send_Nibble
  5280 ;; This function is called by:
  5281 ;;		_FM_Lcd_Set_Cursor
  5282 ;;		_FM_Lcd_Easy_Init
  5283 ;; This function uses a non-reentrant model
  5284 ;;
  5285                           
  5286                           	psect	text30
  5287  00416C                     __ptext30:
  5288                           	callstack 0
  5289  00416C                     _FM_Lcd_Send_Command:
  5290                           	callstack 122
  5291                           
  5292                           ;incstack = 0
  5293                           ;FM_Lcd_Send_Command@command_to_send stored from wreg
  5294  00416C  6E05               	movwf	FM_Lcd_Send_Command@command_to_send^(0+1280),c
  5295  00416E                     
  5296                           ;FM_Lcd_Easy.c: 44: void FM_Lcd_Send_Command (char command_to_send);FM_Lcd_Easy.c: 45: {
      +                          ;FM_Lcd_Easy.c: 46:     LATF &= ~(1 << 0);;
  5297  00416E  90C3               	bcf	195,0,c	;volatile
  5298  004170                     
  5299                           ;FM_Lcd_Easy.c: 47:     FM_Lcd_Send_Nibble(command_to_send);
  5300  004170  5005               	movf	FM_Lcd_Send_Command@command_to_send^(0+1280),w,c
  5301  004172  ECAF  F01E         	call	_FM_Lcd_Send_Nibble
  5302  004176  0012               	return		;funcret
  5303  004178                     __end_of_FM_Lcd_Send_Command:
  5304                           	callstack 0
  5305                           
  5306 ;; *************** function _FM_Lcd_Send_String *****************
  5307 ;; Defined at:
  5308 ;;		line 78 in file "FM_Lcd_Easy.c"
  5309 ;; Parameters:    Size  Location     Type
  5310 ;;  cadena          2    5[COMRAM] PTR unsigned char 
  5311 ;;		 -> msj(16), STR_1(13), 
  5312 ;; Auto vars:     Size  Location     Type
  5313 ;;  index           1    9[COMRAM] unsigned char 
  5314 ;; Return value:  Size  Location     Type
  5315 ;;                  1    wreg      void 
  5316 ;; Registers used:
  5317 ;;		wreg, fsr1l, fsr1h, status,2, status,0, tblptrl, tblptrh, tblptru, cstack
  5318 ;; Tracked objects:
  5319 ;;		On entry : 0/0
  5320 ;;		On exit  : 0/0
  5321 ;;		Unchanged: 0/0
  5322 ;; Data sizes:     COMRAM   BANK5   BANK6   BANK7   BANK8   BANK9  BANK10  BANK11  BANK12  BANK13  BANK14  BANK15  BANK1
      +6  BANK17  BANK18  BANK19  BANK20  BANK21  BANK22  BANK23  BANK24  BANK25  BANK26  BANK27  BANK28  BANK29  BANK30  BANK3
      +1  BANK32  BANK33  BANK34  BANK35  BANK36
  5323 ;;      Params:         2       0       0       0       0       0       0       0       0       0       0       0       
      +0       0       0       0       0       0       0       0       0       0       0       0       0       0       0       
      +0       0       0       0       0       0
  5324 ;;      Locals:         1       0       0       0       0       0       0       0       0       0       0       0       
      +0       0       0       0       0       0       0       0       0       0       0       0       0       0       0       
      +0       0       0       0       0       0
  5325 ;;      Temps:          2       0       0       0       0       0       0       0       0       0       0       0       
      +0       0       0       0       0       0       0       0       0       0       0       0       0       0       0       
      +0       0       0       0       0       0
  5326 ;;      Totals:         5       0       0       0       0       0       0       0       0       0       0       0       
      +0       0       0       0       0       0       0       0       0       0       0       0       0       0       0       
      +0       0       0       0       0       0
  5327 ;;Total ram usage:        5 bytes
  5328 ;; Hardware stack levels used: 1
  5329 ;; Hardware stack levels required when called: 3
  5330 ;; This function calls:
  5331 ;;		_FM_Lcd_Send_Character
  5332 ;; This function is called by:
  5333 ;;		_main
  5334 ;; This function uses a non-reentrant model
  5335 ;;
  5336                           
  5337                           	psect	text31
  5338  003CDA                     __ptext31:
  5339                           	callstack 0
  5340  003CDA                     _FM_Lcd_Send_String:
  5341                           	callstack 123
  5342  003CDA                     
  5343                           ;FM_Lcd_Easy.c: 78: void FM_Lcd_Send_String (char *cadena);FM_Lcd_Easy.c: 79: {;FM_Lcd_E
      +                          asy.c: 80:     uint8_t index = 0;
  5344  003CDA  0E00               	movlw	0
  5345  003CDC  6E0A               	movwf	FM_Lcd_Send_String@index^(0+1280),c
  5346                           
  5347                           ;FM_Lcd_Easy.c: 81:     while(cadena[index] != '\0')
  5348  003CDE  EF8D  F01E         	goto	l2391
  5349  003CE2                     l2387:
  5350                           
  5351                           ;FM_Lcd_Easy.c: 82:     {;FM_Lcd_Easy.c: 83:         FM_Lcd_Send_Character(cadena[index]
      +                          );
  5352  003CE2  500A               	movf	FM_Lcd_Send_String@index^(0+1280),w,c
  5353  003CE4  2406               	addwf	FM_Lcd_Send_String@cadena^(0+1280),w,c
  5354  003CE6  6E08               	movwf	??_FM_Lcd_Send_String^(0+1280),c
  5355  003CE8  0E00               	movlw	0
  5356  003CEA  2007               	addwfc	(FM_Lcd_Send_String@cadena+1)^(0+1280),w,c
  5357  003CEC  6E09               	movwf	(??_FM_Lcd_Send_String+1)^(0+1280),c
  5358  003CEE  0061  F420  F4F6   	movff	??_FM_Lcd_Send_String,tblptrl
  5359  003CF4  0061  F424  F4F7   	movff	??_FM_Lcd_Send_String+1,tblptrh
  5360  003CFA  0E00               	movlw	low (__smallconst shr (0+16))
  5361  003CFC  6EF8               	movwf	tblptru,c
  5362  003CFE  0E24               	movlw	(high __ramtop+-1)
  5363  003D00  64F7               	cpfsgt	tblptrh,c
  5364  003D02  D003               	bra	u1707
  5365  003D04  0008               	tblrd		*
  5366  003D06  50F5               	movf	tablat,w,c
  5367  003D08  D005               	bra	u1700
  5368  003D0A                     u1707:
  5369  003D0A  C4F6 F4E1          	movff	tblptrl,fsr1l
  5370  003D0E  C4F7 F4E2          	movff	tblptrh,fsr1h
  5371  003D12  50E7               	movf	indf1,w,c
  5372  003D14                     u1700:
  5373  003D14  ECBC  F020         	call	_FM_Lcd_Send_Character
  5374  003D18                     
  5375                           ;FM_Lcd_Easy.c: 84:         index++;
  5376  003D18  2A0A               	incf	FM_Lcd_Send_String@index^(0+1280),f,c
  5377  003D1A                     l2391:
  5378                           
  5379                           ;FM_Lcd_Easy.c: 81:     while(cadena[index] != '\0')
  5380  003D1A  500A               	movf	FM_Lcd_Send_String@index^(0+1280),w,c
  5381  003D1C  2406               	addwf	FM_Lcd_Send_String@cadena^(0+1280),w,c
  5382  003D1E  6E08               	movwf	??_FM_Lcd_Send_String^(0+1280),c
  5383  003D20  0E00               	movlw	0
  5384  003D22  2007               	addwfc	(FM_Lcd_Send_String@cadena+1)^(0+1280),w,c
  5385  003D24  6E09               	movwf	(??_FM_Lcd_Send_String+1)^(0+1280),c
  5386  003D26  0061  F420  F4F6   	movff	??_FM_Lcd_Send_String,tblptrl
  5387  003D2C  0061  F424  F4F7   	movff	??_FM_Lcd_Send_String+1,tblptrh
  5388  003D32  0E00               	movlw	low (__smallconst shr (0+16))
  5389  003D34  6EF8               	movwf	tblptru,c
  5390  003D36  0E24               	movlw	(high __ramtop+-1)
  5391  003D38  64F7               	cpfsgt	tblptrh,c
  5392  003D3A  D003               	bra	u1717
  5393  003D3C  0008               	tblrd		*
  5394  003D3E  50F5               	movf	tablat,w,c
  5395  003D40  D005               	bra	u1710
  5396  003D42                     u1717:
  5397  003D42  C4F6 F4E1          	movff	tblptrl,fsr1l
  5398  003D46  C4F7 F4E2          	movff	tblptrh,fsr1h
  5399  003D4A  50E7               	movf	indf1,w,c
  5400  003D4C                     u1710:
  5401  003D4C  0900               	iorlw	0
  5402  003D4E  A4D8               	btfss	status,2,c
  5403  003D50  EFAC  F01E         	goto	u1721
  5404  003D54  EFAE  F01E         	goto	u1720
  5405  003D58                     u1721:
  5406  003D58  EF71  F01E         	goto	l2387
  5407  003D5C                     u1720:
  5408  003D5C  0012               	return		;funcret
  5409  003D5E                     __end_of_FM_Lcd_Send_String:
  5410                           	callstack 0
  5411                           
  5412 ;; *************** function _FM_Lcd_Send_Character *****************
  5413 ;; Defined at:
  5414 ;;		line 50 in file "FM_Lcd_Easy.c"
  5415 ;; Parameters:    Size  Location     Type
  5416 ;;  character_to    1    wreg     unsigned char 
  5417 ;; Auto vars:     Size  Location     Type
  5418 ;;  character_to    1    4[COMRAM] unsigned char 
  5419 ;; Return value:  Size  Location     Type
  5420 ;;                  1    wreg      void 
  5421 ;; Registers used:
  5422 ;;		wreg, status,2, status,0, cstack
  5423 ;; Tracked objects:
  5424 ;;		On entry : 0/0
  5425 ;;		On exit  : 0/0
  5426 ;;		Unchanged: 0/0
  5427 ;; Data sizes:     COMRAM   BANK5   BANK6   BANK7   BANK8   BANK9  BANK10  BANK11  BANK12  BANK13  BANK14  BANK15  BANK1
      +6  BANK17  BANK18  BANK19  BANK20  BANK21  BANK22  BANK23  BANK24  BANK25  BANK26  BANK27  BANK28  BANK29  BANK30  BANK3
      +1  BANK32  BANK33  BANK34  BANK35  BANK36
  5428 ;;      Params:         0       0       0       0       0       0       0       0       0       0       0       0       
      +0       0       0       0       0       0       0       0       0       0       0       0       0       0       0       
      +0       0       0       0       0       0
  5429 ;;      Locals:         1       0       0       0       0       0       0       0       0       0       0       0       
      +0       0       0       0       0       0       0       0       0       0       0       0       0       0       0       
      +0       0       0       0       0       0
  5430 ;;      Temps:          0       0       0       0       0       0       0       0       0       0       0       0       
      +0       0       0       0       0       0       0       0       0       0       0       0       0       0       0       
      +0       0       0       0       0       0
  5431 ;;      Totals:         1       0       0       0       0       0       0       0       0       0       0       0       
      +0       0       0       0       0       0       0       0       0       0       0       0       0       0       0       
      +0       0       0       0       0       0
  5432 ;;Total ram usage:        1 bytes
  5433 ;; Hardware stack levels used: 1
  5434 ;; Hardware stack levels required when called: 2
  5435 ;; This function calls:
  5436 ;;		_FM_Lcd_Send_Nibble
  5437 ;; This function is called by:
  5438 ;;		_FM_Lcd_Send_String
  5439 ;; This function uses a non-reentrant model
  5440 ;;
  5441                           
  5442                           	psect	text32
  5443  004178                     __ptext32:
  5444                           	callstack 0
  5445  004178                     _FM_Lcd_Send_Character:
  5446                           	callstack 123
  5447                           
  5448                           ;incstack = 0
  5449                           ;FM_Lcd_Send_Character@character_to_send stored from wreg
  5450  004178  6E05               	movwf	FM_Lcd_Send_Character@character_to_send^(0+1280),c
  5451  00417A                     
  5452                           ;FM_Lcd_Easy.c: 50: void FM_Lcd_Send_Character (char character_to_send);FM_Lcd_Easy.c: 5
      +                          1: {;FM_Lcd_Easy.c: 52:     LATF |= (1 << 0);;
  5453  00417A  80C3               	bsf	195,0,c	;volatile
  5454  00417C                     
  5455                           ;FM_Lcd_Easy.c: 53:     FM_Lcd_Send_Nibble(character_to_send);
  5456  00417C  5005               	movf	FM_Lcd_Send_Character@character_to_send^(0+1280),w,c
  5457  00417E  ECAF  F01E         	call	_FM_Lcd_Send_Nibble
  5458  004182  0012               	return		;funcret
  5459  004184                     __end_of_FM_Lcd_Send_Character:
  5460                           	callstack 0
  5461                           
  5462 ;; *************** function _FM_Lcd_Send_Nibble *****************
  5463 ;; Defined at:
  5464 ;;		line 24 in file "FM_Lcd_Easy.c"
  5465 ;; Parameters:    Size  Location     Type
  5466 ;;  byte_to_send    1    wreg     unsigned char 
  5467 ;; Auto vars:     Size  Location     Type
  5468 ;;  byte_to_send    1    1[COMRAM] unsigned char 
  5469 ;;  lower_bits      1    3[COMRAM] unsigned char 
  5470 ;;  upper_bits      1    2[COMRAM] unsigned char 
  5471 ;; Return value:  Size  Location     Type
  5472 ;;                  1    wreg      void 
  5473 ;; Registers used:
  5474 ;;		wreg, status,2, status,0
  5475 ;; Tracked objects:
  5476 ;;		On entry : 0/0
  5477 ;;		On exit  : 0/0
  5478 ;;		Unchanged: 0/0
  5479 ;; Data sizes:     COMRAM   BANK5   BANK6   BANK7   BANK8   BANK9  BANK10  BANK11  BANK12  BANK13  BANK14  BANK15  BANK1
      +6  BANK17  BANK18  BANK19  BANK20  BANK21  BANK22  BANK23  BANK24  BANK25  BANK26  BANK27  BANK28  BANK29  BANK30  BANK3
      +1  BANK32  BANK33  BANK34  BANK35  BANK36
  5480 ;;      Params:         0       0       0       0       0       0       0       0       0       0       0       0       
      +0       0       0       0       0       0       0       0       0       0       0       0       0       0       0       
      +0       0       0       0       0       0
  5481 ;;      Locals:         3       0       0       0       0       0       0       0       0       0       0       0       
      +0       0       0       0       0       0       0       0       0       0       0       0       0       0       0       
      +0       0       0       0       0       0
  5482 ;;      Temps:          1       0       0       0       0       0       0       0       0       0       0       0       
      +0       0       0       0       0       0       0       0       0       0       0       0       0       0       0       
      +0       0       0       0       0       0
  5483 ;;      Totals:         4       0       0       0       0       0       0       0       0       0       0       0       
      +0       0       0       0       0       0       0       0       0       0       0       0       0       0       0       
      +0       0       0       0       0       0
  5484 ;;Total ram usage:        4 bytes
  5485 ;; Hardware stack levels used: 1
  5486 ;; Hardware stack levels required when called: 1
  5487 ;; This function calls:
  5488 ;;		Nothing
  5489 ;; This function is called by:
  5490 ;;		_FM_Lcd_Send_Command
  5491 ;;		_FM_Lcd_Send_Character
  5492 ;; This function uses a non-reentrant model
  5493 ;;
  5494                           
  5495                           	psect	text33
  5496  003D5E                     __ptext33:
  5497                           	callstack 0
  5498  003D5E                     _FM_Lcd_Send_Nibble:
  5499                           	callstack 122
  5500                           
  5501                           ;incstack = 0
  5502                           ;FM_Lcd_Send_Nibble@byte_to_send stored from wreg
  5503  003D5E  6E02               	movwf	FM_Lcd_Send_Nibble@byte_to_send^(0+1280),c
  5504  003D60                     
  5505                           ;FM_Lcd_Easy.c: 24: void FM_Lcd_Send_Nibble (char byte_to_send);FM_Lcd_Easy.c: 25: {;FM_
      +                          Lcd_Easy.c: 26:     uint8_t upper_bits, lower_bits;;FM_Lcd_Easy.c: 28:     upper_bits = 
      +                          (byte_to_send & 0xF0);
  5506  003D60  5002               	movf	FM_Lcd_Send_Nibble@byte_to_send^(0+1280),w,c
  5507  003D62  0BF0               	andlw	240
  5508  003D64  6E03               	movwf	FM_Lcd_Send_Nibble@upper_bits^(0+1280),c
  5509                           
  5510                           ;FM_Lcd_Easy.c: 29:     lower_bits = (byte_to_send & 0x0F) << 4;
  5511  003D66  C502  F501         	movff	FM_Lcd_Send_Nibble@byte_to_send,??_FM_Lcd_Send_Nibble
  5512  003D6A  0E0F               	movlw	15
  5513  003D6C  1601               	andwf	??_FM_Lcd_Send_Nibble^(0+1280),f,c
  5514  003D6E  3801               	swapf	??_FM_Lcd_Send_Nibble^(0+1280),w,c
  5515  003D70  0BF0               	andlw	240
  5516  003D72  6E04               	movwf	FM_Lcd_Send_Nibble@lower_bits^(0+1280),c
  5517                           
  5518                           ;FM_Lcd_Easy.c: 35:     LATF |= upper_bits;
  5519  003D74  5003               	movf	FM_Lcd_Send_Nibble@upper_bits^(0+1280),w,c	;volatile
  5520  003D76  12C3               	iorwf	195,f,c	;volatile
  5521  003D78                     
  5522                           ;FM_Lcd_Easy.c: 36:     LATF |= (1 << 2);; _delay((unsigned long)((1)*(16000000UL/4000.0
      +                          ))); LATF &= ~(1 << 2);_delay((unsigned long)((1)*(16000000UL/4000.0)));;
  5523  003D78  84C3               	bsf	195,2,c	;volatile
  5524  003D7A  0E06               	movlw	6
  5525  003D7C  6E01               	movwf	??_FM_Lcd_Send_Nibble^(0+1280),c
  5526  003D7E  0E30               	movlw	48
  5527  003D80                     u2447:
  5528  003D80  2EE8               	decfsz	wreg,f,c
  5529  003D82  D7FE               	bra	u2447
  5530  003D84  2E01               	decfsz	??_FM_Lcd_Send_Nibble^(0+1280),f,c
  5531  003D86  D7FC               	bra	u2447
  5532  003D88  D000               	nop2	
  5533  003D8A  94C3               	bcf	195,2,c	;volatile
  5534  003D8C  0E06               	movlw	6
  5535  003D8E  6E01               	movwf	??_FM_Lcd_Send_Nibble^(0+1280),c
  5536  003D90  0E30               	movlw	48
  5537  003D92                     u2457:
  5538  003D92  2EE8               	decfsz	wreg,f,c
  5539  003D94  D7FE               	bra	u2457
  5540  003D96  2E01               	decfsz	??_FM_Lcd_Send_Nibble^(0+1280),f,c
  5541  003D98  D7FC               	bra	u2457
  5542  003D9A  D000               	nop2	
  5543  003D9C                     
  5544                           ;FM_Lcd_Easy.c: 37:     LATF &= ~upper_bits;
  5545  003D9C  5003               	movf	FM_Lcd_Send_Nibble@upper_bits^(0+1280),w,c	;volatile
  5546  003D9E  0AFF               	xorlw	255
  5547  003DA0  16C3               	andwf	195,f,c	;volatile
  5548  003DA2                     
  5549                           ;FM_Lcd_Easy.c: 38:     LATF |= lower_bits;
  5550  003DA2  5004               	movf	FM_Lcd_Send_Nibble@lower_bits^(0+1280),w,c	;volatile
  5551  003DA4  12C3               	iorwf	195,f,c	;volatile
  5552                           
  5553                           ;FM_Lcd_Easy.c: 39:     LATF |= (1 << 2);; _delay((unsigned long)((1)*(16000000UL/4000.0
      +                          ))); LATF &= ~(1 << 2);_delay((unsigned long)((1)*(16000000UL/4000.0)));;
  5554  003DA6  84C3               	bsf	195,2,c	;volatile
  5555  003DA8  0E06               	movlw	6
  5556  003DAA  6E01               	movwf	??_FM_Lcd_Send_Nibble^(0+1280),c
  5557  003DAC  0E30               	movlw	48
  5558  003DAE                     u2467:
  5559  003DAE  2EE8               	decfsz	wreg,f,c
  5560  003DB0  D7FE               	bra	u2467
  5561  003DB2  2E01               	decfsz	??_FM_Lcd_Send_Nibble^(0+1280),f,c
  5562  003DB4  D7FC               	bra	u2467
  5563  003DB6  D000               	nop2	
  5564  003DB8  94C3               	bcf	195,2,c	;volatile
  5565  003DBA  0E06               	movlw	6
  5566  003DBC  6E01               	movwf	??_FM_Lcd_Send_Nibble^(0+1280),c
  5567  003DBE  0E30               	movlw	48
  5568  003DC0                     u2477:
  5569  003DC0  2EE8               	decfsz	wreg,f,c
  5570  003DC2  D7FE               	bra	u2477
  5571  003DC4  2E01               	decfsz	??_FM_Lcd_Send_Nibble^(0+1280),f,c
  5572  003DC6  D7FC               	bra	u2477
  5573  003DC8  D000               	nop2	
  5574  003DCA                     
  5575                           ;FM_Lcd_Easy.c: 40:     LATF &= ~lower_bits;
  5576  003DCA  5004               	movf	FM_Lcd_Send_Nibble@lower_bits^(0+1280),w,c	;volatile
  5577  003DCC  0AFF               	xorlw	255
  5578  003DCE  16C3               	andwf	195,f,c	;volatile
  5579  003DD0  0012               	return		;funcret
  5580  003DD2                     __end_of_FM_Lcd_Send_Nibble:
  5581                           	callstack 0
  5582                           
  5583 ;; *************** function _ISR *****************
  5584 ;; Defined at:
  5585 ;;		line 38 in file "main.c"
  5586 ;; Parameters:    Size  Location     Type
  5587 ;;		None
  5588 ;; Auto vars:     Size  Location     Type
  5589 ;;		None
  5590 ;; Return value:  Size  Location     Type
  5591 ;;                  1    wreg      void 
  5592 ;; Registers used:
  5593 ;;		wreg, fsr2l, fsr2h, status,2, status,0
  5594 ;; Tracked objects:
  5595 ;;		On entry : 0/0
  5596 ;;		On exit  : 0/0
  5597 ;;		Unchanged: 0/0
  5598 ;; Data sizes:     COMRAM   BANK5   BANK6   BANK7   BANK8   BANK9  BANK10  BANK11  BANK12  BANK13  BANK14  BANK15  BANK1
      +6  BANK17  BANK18  BANK19  BANK20  BANK21  BANK22  BANK23  BANK24  BANK25  BANK26  BANK27  BANK28  BANK29  BANK30  BANK3
      +1  BANK32  BANK33  BANK34  BANK35  BANK36
  5599 ;;      Params:         0       0       0       0       0       0       0       0       0       0       0       0       
      +0       0       0       0       0       0       0       0       0       0       0       0       0       0       0       
      +0       0       0       0       0       0
  5600 ;;      Locals:         0       0       0       0       0       0       0       0       0       0       0       0       
      +0       0       0       0       0       0       0       0       0       0       0       0       0       0       0       
      +0       0       0       0       0       0
  5601 ;;      Temps:          0       0       0       0       0       0       0       0       0       0       0       0       
      +0       0       0       0       0       0       0       0       0       0       0       0       0       0       0       
      +0       0       0       0       0       0
  5602 ;;      Totals:         0       0       0       0       0       0       0       0       0       0       0       0       
      +0       0       0       0       0       0       0       0       0       0       0       0       0       0       0       
      +0       0       0       0       0       0
  5603 ;;Total ram usage:        0 bytes
  5604 ;; Hardware stack levels used: 1
  5605 ;; This function calls:
  5606 ;;		Nothing
  5607 ;; This function is called by:
  5608 ;;		Interrupt level 2
  5609 ;; This function uses a non-reentrant model
  5610 ;;
  5611                           
  5612                           	psect	text34
  5613  003A72                     __ptext34:
  5614                           	callstack 0
  5615  003A72                     _ISR:
  5616                           	callstack 118
  5617  003A72                     
  5618                           ;main.c: 40:     if (PIR3 & (1 << 0x7)) {
  5619  003A72  AEB1               	btfss	177,7,c	;volatile
  5620  003A74  EF3E  F01D         	goto	i2u232_41
  5621  003A78  EF40  F01D         	goto	i2u232_40
  5622  003A7C                     i2u232_41:
  5623  003A7C  EF8F  F01D         	goto	i2l2783
  5624  003A80                     i2u232_40:
  5625  003A80                     
  5626                           ;main.c: 42:         led_counter++;
  5627  003A80  0E01               	movlw	1
  5628  003A82  0105               	movlb	5	; () banked
  5629  003A84  2768               	addwf	_led_counter& (0+255),f,b
  5630  003A86  0E00               	movlw	0
  5631  003A88  2369               	addwfc	(_led_counter+1)& (0+255),f,b
  5632  003A8A  236A               	addwfc	(_led_counter+2)& (0+255),f,b
  5633  003A8C  236B               	addwfc	(_led_counter+3)& (0+255),f,b
  5634  003A8E  236C               	addwfc	(_led_counter+4)& (0+255),f,b
  5635  003A90  236D               	addwfc	(_led_counter+5)& (0+255),f,b
  5636  003A92  236E               	addwfc	(_led_counter+6)& (0+255),f,b
  5637  003A94  236F               	addwfc	(_led_counter+7)& (0+255),f,b
  5638                           
  5639                           ;main.c: 43:         rpm_counter++;
  5640  003A96  0E01               	movlw	1
  5641  003A98  2760               	addwf	_rpm_counter& (0+255),f,b
  5642  003A9A  0E00               	movlw	0
  5643  003A9C  2361               	addwfc	(_rpm_counter+1)& (0+255),f,b
  5644  003A9E  2362               	addwfc	(_rpm_counter+2)& (0+255),f,b
  5645  003AA0  2363               	addwfc	(_rpm_counter+3)& (0+255),f,b
  5646  003AA2  2364               	addwfc	(_rpm_counter+4)& (0+255),f,b
  5647  003AA4  2365               	addwfc	(_rpm_counter+5)& (0+255),f,b
  5648  003AA6  2366               	addwfc	(_rpm_counter+6)& (0+255),f,b
  5649  003AA8  2367               	addwfc	(_rpm_counter+7)& (0+255),f,b
  5650  003AAA                     
  5651                           ; BSR set to: 5
  5652                           ;main.c: 44:         print_counter++;
  5653  003AAA  4B80               	infsnz	_print_counter& (0+255),f,b
  5654  003AAC  2B81               	incf	(_print_counter+1)& (0+255),f,b
  5655  003AAE                     
  5656                           ; BSR set to: 5
  5657                           ;main.c: 45:         if(print_counter >= 50)
  5658  003AAE  5181               	movf	(_print_counter+1)& (0+255),w,b
  5659  003AB0  E109               	bnz	i2u233_40
  5660  003AB2  0E32               	movlw	50
  5661  003AB4  5D80               	subwf	_print_counter& (0+255),w,b
  5662  003AB6  A0D8               	btfss	status,0,c
  5663  003AB8  EF60  F01D         	goto	i2u233_41
  5664  003ABC  EF62  F01D         	goto	i2u233_40
  5665  003AC0                     i2u233_41:
  5666  003AC0  EF71  F01D         	goto	i2l2773
  5667  003AC4                     i2u233_40:
  5668  003AC4                     
  5669                           ; BSR set to: 5
  5670                           ;main.c: 46:         {;main.c: 47:             print_flag = !print_flag;
  5671  003AC4  505F               	movf	_print_flag^(0+1280),w,c
  5672  003AC6  B4D8               	btfsc	status,2,c
  5673  003AC8  EF68  F01D         	goto	i2u234_41
  5674  003ACC  EF6B  F01D         	goto	i2u234_40
  5675  003AD0                     i2u234_41:
  5676  003AD0  0E01               	movlw	1
  5677  003AD2  EF6C  F01D         	goto	i2u235_40
  5678  003AD6                     i2u234_40:
  5679  003AD6  0E00               	movlw	0
  5680  003AD8                     i2u235_40:
  5681  003AD8  6E5F               	movwf	_print_flag^(0+1280),c
  5682                           
  5683                           ;main.c: 48:             print_counter = 0;
  5684  003ADA  0E00               	movlw	0
  5685  003ADC  6F81               	movwf	(_print_counter+1)& (0+255),b
  5686  003ADE  0E00               	movlw	0
  5687  003AE0  6F80               	movwf	_print_counter& (0+255),b
  5688  003AE2                     i2l2773:
  5689                           
  5690                           ; BSR set to: 5
  5691                           ;main.c: 50:         if (led_counter >= 500) {
  5692  003AE2  516F               	movf	(_led_counter+7)& (0+255),w,b
  5693  003AE4  116E               	iorwf	(_led_counter+6)& (0+255),w,b
  5694  003AE6  116D               	iorwf	(_led_counter+5)& (0+255),w,b
  5695  003AE8  116C               	iorwf	(_led_counter+4)& (0+255),w,b
  5696  003AEA  116B               	iorwf	(_led_counter+3)& (0+255),w,b
  5697  003AEC  116A               	iorwf	(_led_counter+2)& (0+255),w,b
  5698  003AEE  E10B               	bnz	i2u236_40
  5699  003AF0  0EF4               	movlw	244
  5700  003AF2  5D68               	subwf	_led_counter& (0+255),w,b
  5701  003AF4  0E01               	movlw	1
  5702  003AF6  5969               	subwfb	(_led_counter+1)& (0+255),w,b
  5703  003AF8  A0D8               	btfss	status,0,c
  5704  003AFA  EF81  F01D         	goto	i2u236_41
  5705  003AFE  EF83  F01D         	goto	i2u236_40
  5706  003B02                     i2u236_41:
  5707  003B02  EF8B  F01D         	goto	i2l2779
  5708  003B06                     i2u236_40:
  5709  003B06                     
  5710                           ; BSR set to: 5
  5711                           ;main.c: 51:             LATF ^= (1 << 3);
  5712  003B06  0E08               	movlw	8
  5713  003B08  1AC3               	xorwf	195,f,c	;volatile
  5714  003B0A                     
  5715                           ; BSR set to: 5
  5716                           ;main.c: 52:             led_counter = 0;
  5717  003B0A  EE21  F168         	lfsr	2,_led_counter
  5718  003B0E  0E07               	movlw	7
  5719  003B10                     i2u237_41:
  5720  003B10  6ADE               	clrf	postinc2,c
  5721  003B12  06E8               	decf	wreg,f,c
  5722  003B14  E2FD               	bc	i2u237_41
  5723  003B16                     i2l2779:
  5724                           
  5725                           ; BSR set to: 5
  5726                           ;main.c: 55:         TMR0 = 6;
  5727  003B16  0E06               	movlw	6
  5728  003B18  0103               	movlb	3	; () banked
  5729  003B1A  6F18               	movwf	24,b	;volatile
  5730  003B1C                     
  5731                           ; BSR set to: 3
  5732                           ;main.c: 57:         PIR3 &= ~(1 << 0x7);
  5733  003B1C  9EB1               	bcf	177,7,c	;volatile
  5734  003B1E                     i2l2783:
  5735                           
  5736                           ;main.c: 60:     if(PIR1 & (1 << 0x0))
  5737  003B1E  A0AF               	btfss	175,0,c	;volatile
  5738  003B20  EF94  F01D         	goto	i2u238_41
  5739  003B24  EF96  F01D         	goto	i2u238_40
  5740  003B28                     i2u238_41:
  5741  003B28  EFA1  F01D         	goto	i2l99
  5742  003B2C                     i2u238_40:
  5743  003B2C                     
  5744                           ;main.c: 61:     {;main.c: 63:         contador_ms = rpm_counter;
  5745  003B2C  C560  F57E         	movff	_rpm_counter,_contador_ms	;volatile
  5746  003B30  C561  F57F         	movff	_rpm_counter+1,_contador_ms+1	;volatile
  5747  003B34                     
  5748                           ;main.c: 64:         rpm_counter = 0;
  5749  003B34  EE21  F160         	lfsr	2,_rpm_counter
  5750  003B38  0E07               	movlw	7
  5751  003B3A                     i2u239_41:
  5752  003B3A  6ADE               	clrf	postinc2,c
  5753  003B3C  06E8               	decf	wreg,f,c
  5754  003B3E  E2FD               	bc	i2u239_41
  5755  003B40                     
  5756                           ;main.c: 66:         PIR1 &= ~(1 << 0x0);
  5757  003B40  90AF               	bcf	175,0,c	;volatile
  5758  003B42                     i2l99:
  5759  003B42  0011               	retfie		f
  5760  003B44                     __end_of_ISR:
  5761                           	callstack 0
  5762                           
  5763                           ;
  5764                           ; Interrupt Vector Table @ 0x8
  5765                           ;
  5766                           
  5767                           	psect	ivt0x8
  5768  000008                     __pivt0x8:
  5769                           	callstack 0
  5770  000008                     ivt0x8_base:
  5771                           	callstack 0
  5772                           
  5773                           ; high-priority vector
  5774  000008  EF39  F01D         	goto	_ISR
  5775  000018                     	org	16
  5776                           
  5777                           ; low-priority vector
  5778  000018  00FF               	reset	
  5779                           
  5780                           	psect	rparam
  5781  0000                     
  5782                           	psect	idloc
  5783                           
  5784                           ;Config register IDLOC0 @ 0x200000
  5785                           ;	unspecified, using default values
  5786  200000                     	org	2097152
  5787  200000  0FFF               	dw	4095
  5788                           
  5789                           ;Config register IDLOC1 @ 0x200002
  5790                           ;	unspecified, using default values
  5791  200002                     	org	2097154
  5792  200002  0FFF               	dw	4095
  5793                           
  5794                           ;Config register IDLOC2 @ 0x200004
  5795                           ;	unspecified, using default values
  5796  200004                     	org	2097156
  5797  200004  0FFF               	dw	4095
  5798                           
  5799                           ;Config register IDLOC3 @ 0x200006
  5800                           ;	unspecified, using default values
  5801  200006                     	org	2097158
  5802  200006  0FFF               	dw	4095
  5803                           
  5804                           ;Config register IDLOC4 @ 0x200008
  5805                           ;	unspecified, using default values
  5806  200008                     	org	2097160
  5807  200008  0FFF               	dw	4095
  5808                           
  5809                           ;Config register IDLOC5 @ 0x20000A
  5810                           ;	unspecified, using default values
  5811  20000A                     	org	2097162
  5812  20000A  0FFF               	dw	4095
  5813                           
  5814                           ;Config register IDLOC6 @ 0x20000C
  5815                           ;	unspecified, using default values
  5816  20000C                     	org	2097164
  5817  20000C  0FFF               	dw	4095
  5818                           
  5819                           ;Config register IDLOC7 @ 0x20000E
  5820                           ;	unspecified, using default values
  5821  20000E                     	org	2097166
  5822  20000E  0FFF               	dw	4095
  5823                           
  5824                           ;Config register IDLOC8 @ 0x200010
  5825                           ;	unspecified, using default values
  5826  200010                     	org	2097168
  5827  200010  0FFF               	dw	4095
  5828                           
  5829                           ;Config register IDLOC9 @ 0x200012
  5830                           ;	unspecified, using default values
  5831  200012                     	org	2097170
  5832  200012  0FFF               	dw	4095
  5833                           
  5834                           ;Config register IDLOC10 @ 0x200014
  5835                           ;	unspecified, using default values
  5836  200014                     	org	2097172
  5837  200014  0FFF               	dw	4095
  5838                           
  5839                           ;Config register IDLOC11 @ 0x200016
  5840                           ;	unspecified, using default values
  5841  200016                     	org	2097174
  5842  200016  0FFF               	dw	4095
  5843                           
  5844                           ;Config register IDLOC12 @ 0x200018
  5845                           ;	unspecified, using default values
  5846  200018                     	org	2097176
  5847  200018  0FFF               	dw	4095
  5848                           
  5849                           ;Config register IDLOC13 @ 0x20001A
  5850                           ;	unspecified, using default values
  5851  20001A                     	org	2097178
  5852  20001A  0FFF               	dw	4095
  5853                           
  5854                           ;Config register IDLOC14 @ 0x20001C
  5855                           ;	unspecified, using default values
  5856  20001C                     	org	2097180
  5857  20001C  0FFF               	dw	4095
  5858                           
  5859                           ;Config register IDLOC15 @ 0x20001E
  5860                           ;	unspecified, using default values
  5861  20001E                     	org	2097182
  5862  20001E  0FFF               	dw	4095
  5863                           
  5864                           ;Config register IDLOC16 @ 0x200020
  5865                           ;	unspecified, using default values
  5866  200020                     	org	2097184
  5867  200020  0FFF               	dw	4095
  5868                           
  5869                           ;Config register IDLOC17 @ 0x200022
  5870                           ;	unspecified, using default values
  5871  200022                     	org	2097186
  5872  200022  0FFF               	dw	4095
  5873                           
  5874                           ;Config register IDLOC18 @ 0x200024
  5875                           ;	unspecified, using default values
  5876  200024                     	org	2097188
  5877  200024  0FFF               	dw	4095
  5878                           
  5879                           ;Config register IDLOC19 @ 0x200026
  5880                           ;	unspecified, using default values
  5881  200026                     	org	2097190
  5882  200026  0FFF               	dw	4095
  5883                           
  5884                           ;Config register IDLOC20 @ 0x200028
  5885                           ;	unspecified, using default values
  5886  200028                     	org	2097192
  5887  200028  0FFF               	dw	4095
  5888                           
  5889                           ;Config register IDLOC21 @ 0x20002A
  5890                           ;	unspecified, using default values
  5891  20002A                     	org	2097194
  5892  20002A  0FFF               	dw	4095
  5893                           
  5894                           ;Config register IDLOC22 @ 0x20002C
  5895                           ;	unspecified, using default values
  5896  20002C                     	org	2097196
  5897  20002C  0FFF               	dw	4095
  5898                           
  5899                           ;Config register IDLOC23 @ 0x20002E
  5900                           ;	unspecified, using default values
  5901  20002E                     	org	2097198
  5902  20002E  0FFF               	dw	4095
  5903                           
  5904                           ;Config register IDLOC24 @ 0x200030
  5905                           ;	unspecified, using default values
  5906  200030                     	org	2097200
  5907  200030  0FFF               	dw	4095
  5908                           
  5909                           ;Config register IDLOC25 @ 0x200032
  5910                           ;	unspecified, using default values
  5911  200032                     	org	2097202
  5912  200032  0FFF               	dw	4095
  5913                           
  5914                           ;Config register IDLOC26 @ 0x200034
  5915                           ;	unspecified, using default values
  5916  200034                     	org	2097204
  5917  200034  0FFF               	dw	4095
  5918                           
  5919                           ;Config register IDLOC27 @ 0x200036
  5920                           ;	unspecified, using default values
  5921  200036                     	org	2097206
  5922  200036  0FFF               	dw	4095
  5923                           
  5924                           ;Config register IDLOC28 @ 0x200038
  5925                           ;	unspecified, using default values
  5926  200038                     	org	2097208
  5927  200038  0FFF               	dw	4095
  5928                           
  5929                           ;Config register IDLOC29 @ 0x20003A
  5930                           ;	unspecified, using default values
  5931  20003A                     	org	2097210
  5932  20003A  0FFF               	dw	4095
  5933                           
  5934                           ;Config register IDLOC30 @ 0x20003C
  5935                           ;	unspecified, using default values
  5936  20003C                     	org	2097212
  5937  20003C  0FFF               	dw	4095
  5938                           
  5939                           ;Config register IDLOC31 @ 0x20003E
  5940                           ;	unspecified, using default values
  5941  20003E                     	org	2097214
  5942  20003E  0FFF               	dw	4095
  5943                           
  5944                           	psect	config
  5945                           
  5946                           ;Config register CONFIG1 @ 0x300000
  5947                           ;	External Oscillator Selection
  5948                           ;	FEXTOSC = OFF, Oscillator not enabled
  5949                           ;	Reset Oscillator Selection
  5950                           ;	RSTOSC = HFINTOSC_64MHZ, HFINTOSC with HFFRQ = 64 MHz and CDIV = 1:1
  5951  300000                     	org	3145728
  5952  300000  8C                 	db	140
  5953                           
  5954                           ;Config register CONFIG2 @ 0x300001
  5955                           ;	Clock out Enable bit
  5956                           ;	CLKOUTEN = OFF, CLKOUT function is disabled
  5957                           ;	PRLOCKED One-Way Set Enable bit
  5958                           ;	PR1WAY = OFF, PRLOCKED bit can be set and cleared repeatedly
  5959                           ;	Clock Switch Enable bit
  5960                           ;	CSWEN = OFF, The NOSC and NDIV bits cannot be changed by user software
  5961                           ;	Fail-Safe Clock Monitor Enable bit
  5962                           ;	FCMEN = OFF, Fail-Safe Clock Monitor disabled
  5963  300001                     	org	3145729
  5964  300001  D5                 	db	213
  5965                           
  5966                           ;Config register CONFIG3 @ 0x300002
  5967                           ;	MCLR Enable bit
  5968                           ;	MCLRE = EXTMCLR, If LVP = 0, MCLR pin is MCLR; If LVP = 1, RE3 pin function is MCLR
  5969                           ;	Power-up timer selection bits
  5970                           ;	PWRTS = PWRT_OFF, PWRT is disabled
  5971                           ;	Multi-vector enable bit
  5972                           ;	MVECEN = OFF, Interrupt contoller does not use vector table to prioritze interrupts
  5973                           ;	IVTLOCK bit One-way set enable bit
  5974                           ;	IVT1WAY = OFF, IVTLOCKED bit can be cleared and set repeatedly
  5975                           ;	Low Power BOR Enable bit
  5976                           ;	LPBOREN = OFF, Low-Power BOR disabled
  5977                           ;	Brown-out Reset Enable bits
  5978                           ;	BOREN = SBORDIS, Brown-out Reset enabled , SBOREN bit is ignored
  5979  300002                     	org	3145730
  5980  300002  E7                 	db	231
  5981                           
  5982                           ;Config register CONFIG4 @ 0x300003
  5983                           ;	Brown-out Reset Voltage Selection bits
  5984                           ;	BORV = VBOR_1P9, Brown-out Reset Voltage (VBOR) set to 1.9V
  5985                           ;	ZCD Disable bit
  5986                           ;	ZCD = OFF, ZCD module is disabled. ZCD can be enabled by setting the ZCDSEN bit of ZCD
      +                          CON
  5987                           ;	PPSLOCK bit One-Way Set Enable bit
  5988                           ;	PPS1WAY = OFF, PPSLOCKED bit can be set and cleared repeatedly (subject to the unlock 
      +                          sequence)
  5989                           ;	Stack Full/Underflow Reset Enable bit
  5990                           ;	STVREN = OFF, Stack full/underflow will not cause Reset
  5991                           ;	Low Voltage Programming Enable bit
  5992                           ;	LVP = OFF, HV on MCLR/VPP must be used for programming
  5993                           ;	Extended Instruction Set Enable bit
  5994                           ;	XINST = OFF, Extended Instruction Set and Indexed Addressing Mode disabled
  5995  300003                     	org	3145731
  5996  300003  C7                 	db	199
  5997                           
  5998                           ;Config register CONFIG5 @ 0x300004
  5999                           ;	WDT Period selection bits
  6000                           ;	WDTCPS = WDTCPS_31, Divider ratio 1:65536; software control of WDTPS
  6001                           ;	WDT operating mode
  6002                           ;	WDTE = OFF, WDT Disabled; SWDTEN is ignored
  6003  300004                     	org	3145732
  6004  300004  9F                 	db	159
  6005                           
  6006                           ;Config register CONFIG6 @ 0x300005
  6007                           ;	WDT Window Select bits
  6008                           ;	WDTCWS = WDTCWS_7, window always open (100%); software control; keyed access not requi
      +                          red
  6009                           ;	WDT input clock selector
  6010                           ;	WDTCCS = SC, Software Control
  6011  300005                     	org	3145733
  6012  300005  FF                 	db	255
  6013                           
  6014                           ;Config register CONFIG7 @ 0x300006
  6015                           ;	Boot Block Size selection bits
  6016                           ;	BBSIZE = BBSIZE_512, Boot Block size is 512 words
  6017                           ;	Boot Block enable bit
  6018                           ;	BBEN = OFF, Boot block disabled
  6019                           ;	Storage Area Flash enable bit
  6020                           ;	SAFEN = OFF, SAF disabled
  6021                           ;	Background Debugger
  6022                           ;	DEBUG = OFF, Background Debugger disabled
  6023  300006                     	org	3145734
  6024  300006  FF                 	db	255
  6025                           
  6026                           ;Config register CONFIG8 @ 0x300007
  6027                           ;	Boot Block Write Protection bit
  6028                           ;	WRTB = OFF, Boot Block not Write protected
  6029                           ;	Configuration Register Write Protection bit
  6030                           ;	WRTC = OFF, Configuration registers not Write protected
  6031                           ;	Data EEPROM Write Protection bit
  6032                           ;	WRTD = OFF, Data EEPROM not Write protected
  6033                           ;	SAF Write protection bit
  6034                           ;	WRTSAF = OFF, SAF not Write Protected
  6035                           ;	Application Block write protection bit
  6036                           ;	WRTAPP = OFF, Application Block not write protected
  6037  300007                     	org	3145735
  6038  300007  FF                 	db	255
  6039                           
  6040                           ; Padding undefined space
  6041  300008                     	org	3145736
  6042  300008  FF                 	db	255
  6043                           
  6044                           ;Config register CONFIG10 @ 0x300009
  6045                           ;	PFM and Data EEPROM Code Protection bit
  6046                           ;	CP = OFF, PFM and Data EEPROM code protection disabled
  6047  300009                     	org	3145737
  6048  300009  FF                 	db	255
  6049                           tosu	equ	0x4FF
  6050                           tosh	equ	0x4FE
  6051                           tosl	equ	0x4FD
  6052                           stkptr	equ	0x4FC
  6053                           pclatu	equ	0x4FB
  6054                           pclath	equ	0x4FA
  6055                           pcl	equ	0x4F9
  6056                           tblptru	equ	0x4F8
  6057                           tblptrh	equ	0x4F7
  6058                           tblptrl	equ	0x4F6
  6059                           tablat	equ	0x4F5
  6060                           prodh	equ	0x4F4
  6061                           prodl	equ	0x4F3
  6062                           indf0	equ	0x4EF
  6063                           postinc0	equ	0x4EE
  6064                           postdec0	equ	0x4ED
  6065                           preinc0	equ	0x4EC
  6066                           plusw0	equ	0x4EB
  6067                           fsr0h	equ	0x4EA
  6068                           fsr0l	equ	0x4E9
  6069                           wreg	equ	0x4E8
  6070                           indf1	equ	0x4E7
  6071                           postinc1	equ	0x4E6
  6072                           postdec1	equ	0x4E5
  6073                           preinc1	equ	0x4E4
  6074                           plusw1	equ	0x4E3
  6075                           fsr1h	equ	0x4E2
  6076                           fsr1l	equ	0x4E1
  6077                           bsr	equ	0x4E0
  6078                           indf2	equ	0x4DF
  6079                           postinc2	equ	0x4DE
  6080                           postdec2	equ	0x4DD
  6081                           preinc2	equ	0x4DC
  6082                           plusw2	equ	0x4DB
  6083                           fsr2h	equ	0x4DA
  6084                           fsr2l	equ	0x4D9
  6085                           status	equ	0x4D8

Data Sizes:
    Strings     29
    Constant    0
    Data        0
    BSS         83
    Persistent  0
    Stack       0

Auto Spaces:
    Space          Size  Autos    Used
    COMRAM           95     94      95
    BANK5           160     16      98
    BANK6           256      0       0
    BANK7           256      0       0
    BANK8           256      0       0
    BANK9           256      0       0
    BANK10          256      0       0
    BANK11          256      0       0
    BANK12          256      0       0
    BANK13          256      0       0
    BANK14          256      0       0
    BANK15          256      0       0
    BANK16          256      0       0
    BANK17          256      0       0
    BANK18          256      0       0
    BANK19          256      0       0
    BANK20          256      0       0
    BANK21          256      0       0
    BANK22          256      0       0
    BANK23          256      0       0
    BANK24          256      0       0
    BANK25          256      0       0
    BANK26          256      0       0
    BANK27          256      0       0
    BANK28          256      0       0
    BANK29          256      0       0
    BANK30          256      0       0
    BANK31          256      0       0
    BANK32          256      0       0
    BANK33          256      0       0
    BANK34          256      0       0
    BANK35          256      0       0
    BANK36          256      0       0

Pointer List with Targets:

    strlen@s	PTR const unsigned char  size(2) Largest target is 32
		 -> dbuf(BANK5[32]), 

    strlen@a	PTR const unsigned char  size(2) Largest target is 32
		 -> dbuf(BANK5[32]), 

    fputs@s	PTR const unsigned char  size(2) Largest target is 32
		 -> dbuf(BANK5[32]), 

    fputs@fp	PTR struct _IO_FILE size(2) Largest target is 7
		 -> sprintf@f(BANK5[6]), 

    fputc@fp.buffer	PTR unsigned char  size(2) Largest target is 16
		 -> msj(BANK5[16]), 

    fputc@fp	PTR struct _IO_FILE size(2) Largest target is 7
		 -> sprintf@f(BANK5[6]), 

    atoi@s	PTR const unsigned char  size(2) Largest target is 16
		 -> STR_2(CODE[16]), 

    vfprintf@ap	PTR PTR void  size(2) Largest target is 2
		 -> sprintf@ap(BANK5[2]), 

    vfprintf@fp	PTR struct _IO_FILE size(2) Largest target is 7
		 -> sprintf@f(BANK5[6]), 

    vfprintf@fmt	PTR const unsigned char  size(2) Largest target is 16
		 -> STR_2(CODE[16]), 

    vfprintf@cfmt	PTR unsigned char  size(2) Largest target is 16
		 -> STR_2(CODE[16]), 

    vfpfcnvrt@fp	PTR struct _IO_FILE size(2) Largest target is 7
		 -> sprintf@f(BANK5[6]), 

    vfpfcnvrt@ap	PTR PTR void  size(2) Largest target is 2
		 -> sprintf@ap(BANK5[2]), 

    vfpfcnvrt@fmt	PTR PTR unsigned char  size(2) Largest target is 2
		 -> vfprintf@cfmt(COMRAM[2]), 

    utoa@fp	PTR struct _IO_FILE size(2) Largest target is 7
		 -> sprintf@f(BANK5[6]), 

    pad@fp	PTR struct _IO_FILE size(2) Largest target is 7
		 -> sprintf@f(BANK5[6]), 

    pad@buf	PTR unsigned char  size(2) Largest target is 32
		 -> dbuf(BANK5[32]), 

    sprintf@fmt	PTR const unsigned char  size(2) Largest target is 16
		 -> STR_2(CODE[16]), 

    sprintf@s	PTR unsigned char  size(2) Largest target is 16
		 -> msj(BANK5[16]), 

    sprintf@ap	PTR void [1] size(2) Largest target is 2
		 -> ?_sprintf(BANK5[2]), 

    S740_IO_FILE$buffer	PTR unsigned char  size(2) Largest target is 16
		 -> msj(BANK5[16]), 

    f.buffer	PTR unsigned char  size(2) Largest target is 16
		 -> msj(BANK5[16]), 

    FM_Lcd_Send_String@cadena	PTR unsigned char  size(2) Largest target is 16
		 -> msj(BANK5[16]), STR_1(CODE[13]), 

    FM_Hfintosc_Init@clock_params	PTR struct . size(2) Largest target is 2
		 -> Init_Internal_Oscillator@my_clock(COMRAM[2]), 


Critical Paths under _main in COMRAM

    _sprintf->_vfprintf
    _vfprintf->_vfpfcnvrt
    _vfpfcnvrt->_utoa
    _utoa->_pad
    _pad->_fputs
    _fputs->_fputc
    _atoi->_isspace
    ___fltol->___flmul
    ___flmul->___fldiv
    ___fldiv->___xxtofl
    _System_Init->_FM_Lcd_Easy_Init
    _Init_Internal_Oscillator->_FM_Hfintosc_Init
    _FM_Lcd_Easy_Init->_FM_Lcd_Send_Command
    _FM_Lcd_Set_Cursor->_FM_Lcd_Send_Command
    _FM_Lcd_Send_Command->_FM_Lcd_Send_Nibble
    _FM_Lcd_Send_String->_FM_Lcd_Send_Character
    _FM_Lcd_Send_Character->_FM_Lcd_Send_Nibble

Critical Paths under _ISR in COMRAM

    None.

Critical Paths under _main in BANK5

    _main->_sprintf

Critical Paths under _ISR in BANK5

    None.

Critical Paths under _main in BANK6

    None.

Critical Paths under _ISR in BANK6

    None.

Critical Paths under _main in BANK7

    None.

Critical Paths under _ISR in BANK7

    None.

Critical Paths under _main in BANK8

    None.

Critical Paths under _ISR in BANK8

    None.

Critical Paths under _main in BANK9

    None.

Critical Paths under _ISR in BANK9

    None.

Critical Paths under _main in BANK10

    None.

Critical Paths under _ISR in BANK10

    None.

Critical Paths under _main in BANK11

    None.

Critical Paths under _ISR in BANK11

    None.

Critical Paths under _main in BANK12

    None.

Critical Paths under _ISR in BANK12

    None.

Critical Paths under _main in BANK13

    None.

Critical Paths under _ISR in BANK13

    None.

Critical Paths under _main in BANK14

    None.

Critical Paths under _ISR in BANK14

    None.

Critical Paths under _main in BANK15

    None.

Critical Paths under _ISR in BANK15

    None.

Critical Paths under _main in BANK16

    None.

Critical Paths under _ISR in BANK16

    None.

Critical Paths under _main in BANK17

    None.

Critical Paths under _ISR in BANK17

    None.

Critical Paths under _main in BANK18

    None.

Critical Paths under _ISR in BANK18

    None.

Critical Paths under _main in BANK19

    None.

Critical Paths under _ISR in BANK19

    None.

Critical Paths under _main in BANK20

    None.

Critical Paths under _ISR in BANK20

    None.

Critical Paths under _main in BANK21

    None.

Critical Paths under _ISR in BANK21

    None.

Critical Paths under _main in BANK22

    None.

Critical Paths under _ISR in BANK22

    None.

Critical Paths under _main in BANK23

    None.

Critical Paths under _ISR in BANK23

    None.

Critical Paths under _main in BANK24

    None.

Critical Paths under _ISR in BANK24

    None.

Critical Paths under _main in BANK25

    None.

Critical Paths under _ISR in BANK25

    None.

Critical Paths under _main in BANK26

    None.

Critical Paths under _ISR in BANK26

    None.

Critical Paths under _main in BANK27

    None.

Critical Paths under _ISR in BANK27

    None.

Critical Paths under _main in BANK28

    None.

Critical Paths under _ISR in BANK28

    None.

Critical Paths under _main in BANK29

    None.

Critical Paths under _ISR in BANK29

    None.

Critical Paths under _main in BANK30

    None.

Critical Paths under _ISR in BANK30

    None.

Critical Paths under _main in BANK31

    None.

Critical Paths under _ISR in BANK31

    None.

Critical Paths under _main in BANK32

    None.

Critical Paths under _ISR in BANK32

    None.

Critical Paths under _main in BANK33

    None.

Critical Paths under _ISR in BANK33

    None.

Critical Paths under _main in BANK34

    None.

Critical Paths under _ISR in BANK34

    None.

Critical Paths under _main in BANK35

    None.

Critical Paths under _ISR in BANK35

    None.

Critical Paths under _main in BANK36

    None.

Critical Paths under _ISR in BANK36

    None.

Call Graph Tables:

 ---------------------------------------------------------------------------------
 (Depth) Function   	        Calls       Base Space   Used Autos Params    Refs
 ---------------------------------------------------------------------------------
 (0) _main                                                 5     5      0   12641
                                             89 COMRAM     5     5      0
                 _FM_Lcd_Send_String
                  _FM_Lcd_Set_Cursor
                        _System_Init
                            ___fldiv
                            ___flmul
                            ___fltol
                           ___xxtofl
                            _sprintf
 ---------------------------------------------------------------------------------
 (1) _sprintf                                             18    10      8    7624
                                              0 BANK5     16     8      8
                           _vfprintf
 ---------------------------------------------------------------------------------
 (2) _vfprintf                                             8     2      6    7271
                                             81 COMRAM     8     2      6
                          _vfpfcnvrt
 ---------------------------------------------------------------------------------
 (3) _vfpfcnvrt                                           46    40      6    6899
                                             59 COMRAM    22    16      6
                               _atoi
                              _fputc
                            _isdigit
                               _utoa
 ---------------------------------------------------------------------------------
 (4) _utoa                                                32    22     10    3759
                                             27 COMRAM    32    22     10
                            ___lodiv
                            ___lomod
                                _pad
 ---------------------------------------------------------------------------------
 (5) _pad                                                 11     5      6    2709
                                             16 COMRAM    11     5      6
                              _fputc
                              _fputs
                             _strlen
 ---------------------------------------------------------------------------------
 (6) _strlen                                               4     2      2     166
                                              0 COMRAM     4     2      2
 ---------------------------------------------------------------------------------
 (6) _fputs                                                7     3      4    1235
                                              9 COMRAM     7     3      4
                              _fputc
 ---------------------------------------------------------------------------------
 (7) _fputc                                                9     5      4     834
                                              0 COMRAM     9     5      4
                              _putch
 ---------------------------------------------------------------------------------
 (8) _putch                                                1     1      0       0
 ---------------------------------------------------------------------------------
 (5) ___lomod                                             17     1     16     311
                                              0 COMRAM    17     1     16
 ---------------------------------------------------------------------------------
 (5) ___lodiv                                             25     9     16     314
                                              0 COMRAM    25     9     16
 ---------------------------------------------------------------------------------
 (4) _atoi                                                15    13      2    1198
                                              7 COMRAM    15    13      2
                             ___wmul
                            _isdigit
                            _isspace
 ---------------------------------------------------------------------------------
 (5) _isspace                                              7     5      2     207
                                              0 COMRAM     7     5      2
 ---------------------------------------------------------------------------------
 (4) _isdigit                                              6     4      2     237
                                              0 COMRAM     6     4      2
 ---------------------------------------------------------------------------------
 (5) ___wmul                                               6     2      4     357
                                              0 COMRAM     6     2      4
 ---------------------------------------------------------------------------------
 (1) ___xxtofl                                            14    10      4     398
                                              0 COMRAM    14    10      4
 ---------------------------------------------------------------------------------
 (1) ___fltol                                             10     6      4     305
                                             64 COMRAM    10     6      4
                            ___fldiv (ARG)
                            ___flmul (ARG)
                           ___xxtofl (ARG)
 ---------------------------------------------------------------------------------
 (1) ___flmul                                             25    17      8    1744
                                             39 COMRAM    25    17      8
                            ___fldiv (ARG)
                           ___xxtofl (ARG)
 ---------------------------------------------------------------------------------
 (1) ___fldiv                                             25    17      8    1399
                                             14 COMRAM    25    17      8
                           ___xxtofl (ARG)
 ---------------------------------------------------------------------------------
 (1) _System_Init                                          0     0      0     326
                   _FM_Lcd_Easy_Init
                   _Init_ADCC_Module
                   _Init_Gpio_System
           _Init_Internal_Oscillator
                    _Init_Interrupts
               _Init_Timer0_As_Timer
 ---------------------------------------------------------------------------------
 (2) _Init_Timer0_As_Timer                                 0     0      0       0
 ---------------------------------------------------------------------------------
 (2) _Init_Interrupts                                      0     0      0       0
 ---------------------------------------------------------------------------------
 (2) _Init_Internal_Oscillator                             2     2      0     169
                                              3 COMRAM     2     2      0
                   _FM_Hfintosc_Init
 ---------------------------------------------------------------------------------
 (3) _FM_Hfintosc_Init                                     3     1      2     120
                                              0 COMRAM     3     1      2
 ---------------------------------------------------------------------------------
 (2) _Init_Gpio_System                                     0     0      0       0
 ---------------------------------------------------------------------------------
 (2) _Init_ADCC_Module                                     0     0      0       0
 ---------------------------------------------------------------------------------
 (2) _FM_Lcd_Easy_Init                                     2     2      0     157
                                              5 COMRAM     2     2      0
              _FM_Lcd_Easy_Gpio_Init
                _FM_Lcd_Send_Command
 ---------------------------------------------------------------------------------
 (3) _FM_Lcd_Easy_Gpio_Init                                1     1      0       1
 ---------------------------------------------------------------------------------
 (1) _FM_Lcd_Set_Cursor                                    3     2      1     401
                                              5 COMRAM     3     2      1
                _FM_Lcd_Send_Command
 ---------------------------------------------------------------------------------
 (3) _FM_Lcd_Send_Command                                  1     1      0     156
                                              4 COMRAM     1     1      0
                 _FM_Lcd_Send_Nibble
 ---------------------------------------------------------------------------------
 (1) _FM_Lcd_Send_String                                   5     3      2     398
                                              5 COMRAM     5     3      2
              _FM_Lcd_Send_Character
 ---------------------------------------------------------------------------------
 (2) _FM_Lcd_Send_Character                                1     1      0     156
                                              4 COMRAM     1     1      0
                 _FM_Lcd_Send_Nibble
 ---------------------------------------------------------------------------------
 (4) _FM_Lcd_Send_Nibble                                   4     4      0     134
                                              0 COMRAM     4     4      0
 ---------------------------------------------------------------------------------
 Estimated maximum stack depth 8
 ---------------------------------------------------------------------------------
 (Depth) Function   	        Calls       Base Space   Used Autos Params    Refs
 ---------------------------------------------------------------------------------
 (9) _ISR                                                  0     0      0       0
 ---------------------------------------------------------------------------------
 Estimated maximum stack depth 9
 ---------------------------------------------------------------------------------

 Call Graph Graphs:

 _main (ROOT)
   _FM_Lcd_Send_String
     _FM_Lcd_Send_Character
       _FM_Lcd_Send_Nibble
   _FM_Lcd_Set_Cursor
     _FM_Lcd_Send_Command
       _FM_Lcd_Send_Nibble
   _System_Init
     _FM_Lcd_Easy_Init
       _FM_Lcd_Easy_Gpio_Init
       _FM_Lcd_Send_Command
     _Init_ADCC_Module
     _Init_Gpio_System
     _Init_Internal_Oscillator
       _FM_Hfintosc_Init
     _Init_Interrupts
     _Init_Timer0_As_Timer
   ___fldiv
     ___xxtofl (ARG)
   ___flmul
     ___fldiv (ARG)
     ___xxtofl (ARG)
   ___fltol
     ___fldiv (ARG)
     ___flmul (ARG)
     ___xxtofl (ARG)
   ___xxtofl
   _sprintf
     _vfprintf
       _vfpfcnvrt
         _atoi
           ___wmul
           _isdigit
           _isspace
         _fputc
           _putch
         _isdigit
         _utoa
           ___lodiv
           ___lomod
           _pad
             _fputc
             _fputs
               _fputc
             _strlen

 _ISR (ROOT)

 Address spaces:
Name               Size   Autos  Total    Cost      Usage
BIGRAM            1FFF      0       0      69        0.0%
EEDATA             400      0       0       0        0.0%
BITBANK36          100      0       0      66        0.0%
BANK36             100      0       0      67        0.0%
BITBANK35          100      0       0      64        0.0%
BANK35             100      0       0      65        0.0%
BITBANK34          100      0       0      62        0.0%
BANK34             100      0       0      63        0.0%
BITBANK33          100      0       0      60        0.0%
BANK33             100      0       0      61        0.0%
BITBANK32          100      0       0      58        0.0%
BANK32             100      0       0      59        0.0%
BITBANK31          100      0       0      56        0.0%
BANK31             100      0       0      57        0.0%
BITBANK30          100      0       0      54        0.0%
BANK30             100      0       0      55        0.0%
BITBANK29          100      0       0      52        0.0%
BANK29             100      0       0      53        0.0%
BITBANK28          100      0       0      50        0.0%
BANK28             100      0       0      51        0.0%
BITBANK27          100      0       0      48        0.0%
BANK27             100      0       0      49        0.0%
BITBANK26          100      0       0      46        0.0%
BANK26             100      0       0      47        0.0%
BITBANK25          100      0       0      44        0.0%
BANK25             100      0       0      45        0.0%
BITBANK24          100      0       0      42        0.0%
BANK24             100      0       0      43        0.0%
BITBANK23          100      0       0      40        0.0%
BANK23             100      0       0      41        0.0%
BITBANK22          100      0       0      38        0.0%
BANK22             100      0       0      39        0.0%
BITBANK21          100      0       0      36        0.0%
BANK21             100      0       0      37        0.0%
BITBANK20          100      0       0      34        0.0%
BANK20             100      0       0      35        0.0%
BITBANK19          100      0       0      32        0.0%
BANK19             100      0       0      33        0.0%
BITBANK18          100      0       0      30        0.0%
BANK18             100      0       0      31        0.0%
BITBANK17          100      0       0      28        0.0%
BANK17             100      0       0      29        0.0%
BITBANK16          100      0       0      26        0.0%
BANK16             100      0       0      27        0.0%
BITBANK15          100      0       0      24        0.0%
BANK15             100      0       0      25        0.0%
BITBANK14          100      0       0      22        0.0%
BANK14             100      0       0      23        0.0%
BITBANK13          100      0       0      20        0.0%
BANK13             100      0       0      21        0.0%
BITBANK12          100      0       0      18        0.0%
BANK12             100      0       0      19        0.0%
BITBANK11          100      0       0      16        0.0%
BANK11             100      0       0      17        0.0%
BITBANK10          100      0       0      14        0.0%
BANK10             100      0       0      15        0.0%
BITBANK9           100      0       0      12        0.0%
BANK9              100      0       0      13        0.0%
BITBANK8           100      0       0      10        0.0%
BANK8              100      0       0      11        0.0%
BITBANK7           100      0       0       8        0.0%
BANK7              100      0       0       9        0.0%
BITBANK6           100      0       0       6        0.0%
BANK6              100      0       0       7        0.0%
BITBANK5            A0      0       0       4        0.0%
BANK5               A0     10      62       5       61.3%
BITCOMRAM           5F      0       0       0        0.0%
COMRAM              5F     5E      5F       1      100.0%
BITSFR_6             0      0       0     200        0.0%
SFR_6                0      0       0     200        0.0%
BITSFR_5             0      0       0     200        0.0%
SFR_5                0      0       0     200        0.0%
BITSFR_4             0      0       0     200        0.0%
SFR_4                0      0       0     200        0.0%
BITSFR_3             0      0       0     200        0.0%
SFR_3                0      0       0     200        0.0%
BITSFR_2             0      0       0     200        0.0%
SFR_2                0      0       0     200        0.0%
BITSFR_1             0      0       0     200        0.0%
SFR_1                0      0       0     200        0.0%
BITSFR               0      0       0     200        0.0%
SFR                  0      0       0     200        0.0%
STACK                0      0       0       2        0.0%
NULL                 0      0       0       0        0.0%
ABS                  0      0      C1      68        0.0%
DATA                 0      0      C1       3        0.0%
CODE                 0      0       0       0        0.0%


Microchip Technology PIC18 Macro Assembler V2.32 build 20210201212658 
Symbol Table                                                                                   Sun Jul 02 18:51:20 2023

                          ___fldiv@aexp 0527                            ___fldiv@bexp 0526  
                          ___fldiv@sign 051F                     ___wmul@multiplicand 0503  
                                   l121 414A                                     l105 3668  
                                   l130 4136                                     l115 4120  
                                   l124 3FA8                                     l150 416A  
                                   l118 4106                                     l127 415C  
                                   l153 3DD0                                     l137 402A  
                                   l172 3D5C                                     l156 4176  
                                   l164 3F5A                                     l166 3F66  
                                   l159 4182                                     l175 3FEA  
                                   l178 40C6                                     l623 3998  
                                   l616 3978                                     l801 2876  
                                   l633 3C12                                     l802 2864  
                                   l626 3BF2                                     l475 38A8  
                                   l760 30DA                                     l840 3584  
                                   l809 292E                                     l833 34EC  
                                   l905 32DC                                     l762 2F3A  
                                   l771 2F80                                     l836 3648  
                                   l932 2D40                                     l773 2FF8  
                                   l765 2EFE                                     l774 2FE6  
                                   l847 35E0                                     l919 2A82  
                                   l792 25E4                                     l856 3E8C  
                                   l970 3494                                     l890 3CD8  
                                   l938 3E32                                     l939 3E3A  
                                   l796 296C                                     l973 409C  
                                   l981 3EDE                                     l885 3C5A  
                                   l799 27FE                                     l967 348C  
                                   l895 3114                                     l888 3C9C  
                                   l897 311C                                     l996 3A70  
                                   _ISR 3A72                                     _pad 3C14  
                                   _msj 05A2                                     wreg 0004E8  
                           main@adc_val 055C                            ___flmul@aexp 0539  
                          ___flmul@bexp 053A                            ___flmul@sign 0534  
                          ___flmul@temp 053F                            ___flmul@prod 053B  
                                  ?_ISR 0501                            ___fltol@exp1 054A  
                                  l1004 3F22                                    l1013 4064  
                                  l1007 4184                                    l2001 3B62  
                                  l2011 3BDA                                    l2003 3B6A  
                                  l2013 3BEC                                    l2005 3B7E  
                                  l2021 3C46                                    l2101 32A4  
                                  l2111 32F6                                    l2007 3B8C  
                                  l2031 3CAC                                    l2023 3C52  
                                  l2015 3C14                                    l2103 32B4  
                                  l2041 3E8E                                    l2113 32FA  
                                  l2009 3BBA                                    l2033 3CC0  
                                  l2025 3C66                                    l2017 3C24  
                                  l2201 2A92                                    l2043 3E92  
                                  l2131 33C8                                    l2123 3366  
                                  l2115 331E                                    l2107 32DE  
                                  l2027 3C7A                                    l2019 3C38  
                                  l2211 2B26                                    l2203 2A94  
                                  l2061 3D9C                                    l2053 3D60  
                                  l2301 3F76                                    l2037 4066  
                                  l2045 3EA6                                    l2141 345E  
                                  l2125 337C                                    l2117 335C  
                                  l2109 32F2                                    l2029 3C7E  
                                  l2213 2B4E                                    l2221 2BC0  
                                  l2205 2AC0                                    l2063 3DA2  
                                  l2055 3D78                                    l2311 3F84  
                                  l2303 3F78                                    l2151 3FF6  
                                  l2047 3ED4                                    l2143 3470  
                                  l2135 3406                                    l2127 3384  
                                  l2119 3360                                    l2071 30DC  
                                  l2231 2CAE                                    l2223 2BEC  
                                  l2215 2B60                                    l2207 2B0A  
                                  l2065 3DA8                                    l2057 3D8A  
                                  l2161 4170                                    l2321 3F94  
                                  l2313 3F86                                    l2305 3F7A  
                                  l2153 4010                                    l2049 3ED8  
                                  l2129 338C                                    l2081 314C  
                                  l2073 30EC                                    l2241 2CF2  
                                  l2233 2CC0                                    l2225 2C4A  
                                  l2209 2B18                                    l2401 3E7A  
                                  l2067 3DB8                                    l2059 3D8C  
                                  l2155 415E                                    l2331 3FAE  
                                  l2323 3F9E                                    l2315 3F8A  
                                  l2307 3F7C                                    l2411 2D5E  
                                  l2139 344C                                    l2091 31DC  
                                  l2083 3154                                    l2075 30EE  
                                  l2235 2CD4                                    l2219 2BAE  
                                  l2171 29C2                                    l2163 296E  
                                  l2069 3DCA                                    l2157 4168  
                                  l2341 3FDE                                    l2333 3FC6  
                                  l2325 3FA6                                    l2317 3F8E  
                                  l2309 3F82                                    l2149 3FEC  
                                  l2261 4122                                    l2501 2F9E  
                                  l2413 2D6E                                    l2421 2D98  
                                  l2405 2D42                                    l2085 315A  
                                  l2093 3240                                    l2077 3108  
                                  l2229 2C82                                    l2181 29F0  
                                  l2173 29CE                                    l2165 299A  
                                  l2245 2CFE                                    l2159 416E  
                                  l2343 3FE4                                    l2335 3FCC  
                                  l2319 3F90                                    l2327 414C  
                                  l2263 412A                                    l2271 4140  
                                  l2511 3008                                    l2503 2FA2  
                                  l2431 2DC4                                    l2423 2DA8  
                                  l2415 2D7E                                    l2407 2D4E  
                                  l2095 3252                                    l2087 31D0  
                                  l2079 3144                                    l2247 2D2A  
                                  l2239 2CE0                                    l2175 29D2  
                                  l2167 29AC                                    l2351 3DDA  
                                  l2345 417A                                    l2337 3FD2  
                                  l2329 3FAA                                    l2273 4142  
                                  l2265 4138                                    l2281 40EA  
                                  l2361 4110                                    l2521 306A  
                                  l2513 3014                                    l2505 2FB0  
                                  l2433 2DD4                                    l2441 2DFE  
                                  l2425 2DAE                                    l2417 2D8E  
                                  l2409 2D5C                                    l2601 26AA  
                                  l2097 3270                                    l2089 31D6  
                                  l2193 2A08                                    l2185 29F8  
                                  l2177 29E8                                    l2169 29BE  
                                  l2353 3DE8                                    l2347 417C  
                                  l2371 3F2A                                    l2339 3FD8  
                                  l2275 4144                                    l2267 413C  
                                  l2291 40FC                                    l2283 40F4  
                                  l2363 4114                                    l2531 30C8  
                                  l2523 3080                                    l2515 3022  
                                  l2507 2FDE                                    l2451 2E40  
                                  l2443 2E0E                                    l2435 2DE4  
                                  l2427 2DB4                                    l2419 2D90  
                                  l2611 2708                                    l2603 26BA  
                                  l2099 328A                                    l2355 3E0E  
                                  l2381 3F60                                    l2373 3F3A  
                                  l2277 4146                                    l2269 413E  
                                  l2293 40FE                                    l2285 40F6  
                                  l2365 4118                                    l2357 4108  
                                  l2533 30CE                                    l2525 309A  
                                  l2517 304C                                    l2445 2E24  
                                  l2437 2DF4                                    l2429 2DC2  
                                  l2621 27B8                                    l2613 2728  
                                  l2605 26CA                                    l2197 2A14  
                                  l2189 2A00                                    l2349 3DD2  
                                  l2391 3D1A                                    l2383 3F66  
                                  l2375 3F42                                    l2279 4148  
                                  l2295 4100                                    l2287 40F8  
                                  l2367 411C                                    l2359 410C  
                                  l2535 30D0                                    l2527 30B6  
                                  l2519 3050                                    l2471 2EC2  
                                  l2463 2E78                                    l2447 2E34  
                                  l2455 2E54                                    l2439 2DF6  
                                  l2631 280E                                    l2623 27C6  
                                  l2615 2738                                    l2607 26DA  
                                  l2551 254C                                    l2543 2520  
                                  l2711 3888                                    l2199 2A70  
                                  l2385 3CDA                                    l2377 3F52  
                                  l2369 3F26                                    l2297 4104  
                                  l2289 40FA                                    l2529 30BA  
                                  l2481 2F08                                    l2473 2ECA  
                                  l2465 2E92                                    l2457 2E64  
                                  l2449 2E3C                                    l2633 281C  
                                  l2625 27E4                                    l2617 2758  
                                  l2609 26F8                                    l2561 2588  
                                  l2553 255C                                    l2545 252C  
                                  l2713 3898                                    l2705 385C  
                                  l2721 34B6                                    l2393 3E3C  
                                  l2801 368E                                    l2387 3CE2  
                                  l2379 3F5C                                    l2299 3F68  
                                  l2491 2F60                                    l2483 2F26  
                                  l2475 2EDA                                    l2467 2EA2  
                                  l2459 2E64                                    l2643 2886  
                                  l2651 28CE                                    l2635 2820  
                                  l2627 27EE                                    l2619 2782  
                                  l2571 25BE                                    l2563 258E  
                                  l2555 256C                                    l2547 253A  
                                  l2707 3868                                    l2731 352E  
                                  l2723 34FC                                    l2395 3E4E  
                                  l2811 3712                                    l2803 3700  
                                  l2389 3D18                                    l2493 2F66  
                                  l2485 2F28                                    l2477 2EEE  
                                  l2469 2EB2                                    l2661 2942  
                                  l2653 28E8                                    l2645 2892  
                                  l2637 282E                                    l2629 27FC  
                                  l2573 25CE                                    l2565 259C  
                                  l2557 2572                                    l2549 253C  
                                  l2709 3878                                    l2741 35B6  
                                  l2733 353A                                    l2725 3512  
                                  l2717 3498                                    l1941 39AC  
                                  l2397 3E56                                    l2821 3764  
                                  l2813 3728                                    l2805 3702  
                                  l2495 2F70                                    l2487 2F38  
                                  l2479 2EFC                                    l2663 2950  
                                  l2655 28FC                                    l2647 28A0  
                                  l2639 285C                                    l2591 2658  
                                  l2583 2618                                    l2575 25D4  
                                  l2567 259E                                    l2559 2582  
                                  l2751 35F4                                    l2743 35C2  
                                  l2735 356C                                    l2719 34A8  
                                  l1943 39BE                                    l2399 3E5E  
                                  l2823 3786                                    l2815 3744  
                                  l2807 370C                                    l2497 2F7E  
                                  l2489 2F4A                                    l2665 2952  
                                  l2657 2916                                    l2649 28CA  
                                  l2593 2674                                    l2585 2628  
                                  l2577 25F4                                    l2569 25AE  
                                  l2681 37F8                                    l2673 37A4  
                                  l2753 3618                                    l2745 35D0  
                                  l2737 356E                                    l2729 3526  
                                  l1945 39C8                                    l1953 3EE0  
                                  l1961 402C                                    l2825 3790  
                                  l2817 374C                                    l2809 3710  
                                  l2499 2F90                                    l2659 2932  
                                  l2667 2958                                    l2595 2680  
                                  l2587 2632                                    l2579 2604  
                                  l2683 37FA                                    l2675 37BA  
                                  l2755 3628                                    l2747 35EE  
                                  l2739 357A                                    l1971 409E  
                                  l1947 39E6                                    l1939 399A  
                                  l1955 3EEC                                    l1963 4038  
                                  l2819 3754                                    l2669 295C  
                                  l2597 268C                                    l2589 264C  
                                  l2685 380A                                    l2757 3636  
                                  l2749 35F0                                    l1973 40BE  
                                  l1981 38D4                                    l1949 3A1C  
                                  l1957 3EFE                                    l1965 403C  
                                  ?_pad 0511                                    l2599 269A  
                                  l2695 3834                                    l2687 380E  
                                  l2679 37CE                                    l2759 3638  
                                  l1991 393E                                    l1983 38DC  
                                  l1959 3F02                                    l1967 4058  
                                  l2791 364A                                    l2697 383E  
                                  l2689 381C                                    l1993 395E  
                                  l1985 38F0                                    l1977 38AA  
                                  l2793 364E                                    l2699 3848  
                                  l1995 3960                                    l1987 38FE  
                                  l1979 38B6                                    l2795 3658  
                                  l1997 3972                                    l1989 3910  
                                  l2797 3664                                    l1999 3B44  
                                  l2887 2A42                                    l2799 3676  
                                  l2889 33B2                                    STR_1 2511  
                                  STR_2 2501                                    u2000 25AE  
                                  u2001 25AA                                    u2010 25BE  
                                  u2011 25BA                                    u2100 2886  
                                  u2020 25F4                                    u1300 38FE  
                                  u1220 39AC                                    u2101 2882  
                                  u2021 25F0                                    u1301 38FA  
                                  u1221 39A8                                    u2110 28A0  
                                  u2030 2604                                    u1310 393E  
                                  u1230 39BE                                    u2111 289C  
                                  u2031 2600                                    u1311 393A  
                                  u1231 39BA                                    u2120 28E8  
                                  u2040 27A2                                    u2200 3878  
                                  u1400 4098                                    u1320 3B62  
                                  u1240 39E6                                    u2121 28E4  
                                  u2201 3874                                    u1321 3B5E  
                                  u1241 39E2                                    u2130 2916  
                                  u2050 27FC                                    u2210 3888  
                                  u1410 3EA6                                    u1330 3B8C  
                                  u1250 3A1C                                    u2131 2912  
                                  u2051 27F8                                    u2211 3884  
                                  u1411 3EA2                                    u1331 3B88  
                                  u1251 3A18                                    u2140 2950  
                                  u2060 281C                                    u2300 3628  
                                  u2220 34A8                                    u1420 3ED4  
                                  u1500 331E                                    u1340 3BBA  
                                  u1260 3F22                                    u2141 294C  
                                  u2061 2818                                    u2045 2798  
                                  u2301 3624                                    u2221 34A4  
                                  u1421 3ED0                                    u1501 331A  
                                  u1341 3BB6                                    u1261 3F1E  
                                  u2070 282E                                    u2150 37BA  
                                  u2310 3636                                    u2230 34B6  
                                  u1510 335C                                    u1270 4058  
                                  u1350 3C24                                    u1430 30EC  
                                  u2071 282A                                    u2151 37B6  
                                  u2311 3632                                    u2231 34B2  
                                  u1511 3358                                    u1271 4054  
                                  u1351 3C20                                    u1431 30E8  
                                  u2080 285C                                    u2160 37EE  
                                  u2240 3512                                    u1520 3378  
                                  u1360 3C46                                    u1440 3108  
                                  u1600 2AC0                                    u2400 3676  
                                  u2081 2858                                    u2241 350E  
                                  u1521 3374                                    u1281 38B0  
                                  u1361 3C42                                    u1441 3104  
                                  u1601 2ABC                                    u2401 3672  
                                  u2090 2872                                    u2170 381C  
                                  u2250 3568                                    u1530 3446  
                                  u1290 38D4                                    u1370 3C9C  
                                  u1450 3252                                    u1610 2B18  
                                  u2410 3728                                    _LATF 0004C3  
                                  u2091 286E                                    u2171 3818  
                                  u2251 3564                                    u1531 3440  
                                  u1291 38D0                                    u1371 3C98  
                                  u1451 324E                                    u1611 2B14  
                                  u2411 3724                                    u1700 3D14  
                                  u2180 3830                                    u2260 35B2  
                                  u1540 3448                                    u1380 3CAC  
                                  u1460 3270                                    u1620 2BA8  
                                  u2420 3764                                    u2181 382C  
                                  u2165 37E4                                    u2261 35AE  
                                  u1381 3CA8                                    u1461 326C  
                                  u1621 2BA2                                    u2421 3760  
                                  u1710 3D4C                                    u2190 3858  
                                  u2270 35D0                                    u1390 4096  
                                  u1550 345E                                    u1470 328A  
                                  u1630 2BAA                                    u2191 3854  
                                  u2271 35CC                                    u1391 4090  
                                  u1551 345A                                    u1471 3286  
                                  u1720 3D5C                                    u1800 2E64  
                                  u2280 35E0                                    u1560 3470  
                                  u1480 32A4                                    u1640 2BC0  
                                  u1721 3D58                                    u1801 2E60  
                                  u2281 35DC                                    u1561 346C  
                                  u1481 32A0                                    u1641 2BBC  
                                  u1810 2EDA                                    u1730 2D5C  
                                  u2290 35EE                                    u1490 32B4  
                                  u1650 2BEC                                    u1570 299A  
                                  u1707 3D0A                                    u1811 2ED6  
                                  u1731 2D58                                    u2291 35EA  
                                  u1491 32B0                                    u1651 2BE8  
                                  u1571 2996                                    u1900 2FF4  
                                  u1820 2EFC                                    u1740 2D6E  
                                  u1660 2CAE                                    u1580 2A82  
                                  u1717 3D42                                    u2437 3FB8  
                                  u1901 2FF0                                    u1821 2EF8  
                                  u1741 2D6A                                    u1661 2CAA  
                                  u1581 2A7E                                    u1910 3008  
                                  u1830 2F26                                    u1750 2D7E  
                                  u1590 2A92                                    u1670 3E32  
                                  u2447 3D80                                    u1911 3004  
                                  u1831 2F22                                    u1751 2D7A  
                                  u1591 2A8E                                    u1671 3E2E  
                                  _PIE1 00049F                                    u1680 3F3A  
                                  u1920 3022                                    u1840 2F4A  
                                  u1760 2DC2                                    u2457 3D92  
                                  u1681 3F36                                    u1921 301E  
                                  u1841 2F46                                    u1761 2DBE  
                                  _PIE3 0004A1                                    u1690 3F52  
                                  u1930 306A                                    u1850 2F60  
                                  u1770 2DD4                                    u2467 3DAE  
                                  u1691 3F4E                                    u1931 3066  
                                  u1851 2F5C                                    u1771 2DD0  
                                  u1940 309A                                    u1860 2F7E  
                                  u1780 2DE4                                    u2477 3DC0  
                                  u1941 3096                                    u1861 2F7A  
                                  u1781 2DE0                                    u1950 30C8  
                                  u1870 2F9E                                    u1790 2E24  
                                  u1951 30C4                                    u1871 2F9A  
                                  u1791 2E20                                    u1880 2FB0  
                                  u1960 253A                                    u1881 2FAC  
                                  u1961 2536                                    u1890 2FDE  
                                  u1970 254C                                    u1891 2FDA  
                                  u1971 2548                                    u1980 255C  
                                  u1981 2558                                    u1990 259C  
                                  u1991 2598                                    _PIR1 0004AF  
                                  _PIR3 0004B1                                    i2l99 3B42  
                                  _TMR0 000318              __end_of_FM_Lcd_Send_Nibble 3DD2  
                     ?_FM_Hfintosc_Init 0501                                    _dbuf 0582  
                                  _atoi 32DE                                    _main 364A  
          FM_Lcd_Send_Nibble@upper_bits 0503                                    _prec 0574  
                                  _nout 0570                                    pad@i 0518  
                                  pad@p 0515                                    fsr1h 0004E2  
                                  fsr2h 0004DA                                    indf1 0004E7  
                                  indf2 0004DF                                    fsr1l 0004E1  
                                  pad@w 051A                                    fsr2l 0004D9  
                    ??_FM_Hfintosc_Init 0503              __end_of_FM_Lcd_Send_String 3D5E  
                                  _utoa 30DC                 ??_FM_Lcd_Send_Character 0505  
                                  prodh 0004F4                                    prodl 0004F3  
                                  start 001A  FM_Lcd_Send_Character@character_to_send 0505  
                       ___fldiv@new_exp 0520                    __size_of_System_Init 001A  
                 _FM_Lcd_Easy_Gpio_Init 415E                            ___param_bank 000000  
                                 ??_ISR 0501                                   ??_pad 0517  
              __end_of_Init_ADCC_Module 3FAA                       ?_Init_Gpio_System 0501  
             __size_of_FM_Lcd_Easy_Init 0042                       ??_Init_Interrupts 0501  
                         ___fltol@sign1 0549                                   _ADACQ 0003EE  
                                 ?_atoi 0508                                   ?_main 0501  
                                 _ADCLK 0003FA                                   _ADPCH 0003EC  
                       __end_of___fldiv 30DC                                   _ADREF 0003F8  
                                 _ADPRE 0003F1                         __end_of___flmul 296E  
                       __end_of___fltol 38AA                                   ?_utoa 051C  
           __end_of_FM_Lcd_Send_Command 4178                         __end_of___lodiv 399A  
                       __end_of___lomod 3C14                      ??_Init_Gpio_System 0501  
                          vfpfcnvrt@fmt 053E                            vfpfcnvrt@llu 0546  
                                 _TRISA 0004C6                                   _TRISB 0004C7  
                                 _TRISF 0004CB        Init_Internal_Oscillator@my_clock 0504  
                                 _flags 0576                                   _fputc 399A  
                                 _fputs 3EE0                         __end_of_isdigit 409E  
                                 atoi@n 0515                                   pad@fp 0511  
                                 atoi@s 0508                                   _width 0572  
                                 _putch 4184                         __end_of_isspace 3EE0  
                                 tablat 0004F5           __size_of_Init_Timer0_As_Timer 001E  
                                 utoa@d 051E                                   utoa@i 053A  
                                 utoa@n 0532                                   utoa@p 052E  
                                 utoa@w 0530                                   status 0004D8  
                       __end_of_sprintf 3E8E                        ___lodiv@dividend 0501  
                       __initialization 40C8                            __end_of_atoi 3496  
                          __end_of_main 37A4                            __end_of_utoa 32DE  
                                ??_atoi 050A                                  ??_main 055A  
                                ??_utoa 0526                           __activetblptr 000003  
                      ___lodiv@quotient 0511                                  _ADCON0 0003F3  
                                _ADCON1 0003F4                                  _ADCON2 0003F5  
                                ?_fputc 0501                                  ?_fputs 050A  
                                _ADRESH 0003EB                                  _ADRESL 0003EA  
                                _ANSELA 000400                                  ?_putch 0501  
                                _ANSELB 000408                                  _ANSELF 000428  
                                _T0CON0 00031A                                  _T0CON1 00031B  
                                i2l2771 3AC4                                  i2l2763 3A72  
                                i2l2781 3B1C                                  i2l2773 3AE2  
                                i2l2765 3A80                                  i2l2775 3B06  
                                i2l2767 3AAA                                  i2l2783 3B1E  
                                i2l2785 3B2C                                  i2l2777 3B0A  
                                i2l2769 3AAE                                  i2l2787 3B34  
                                i2l2779 3B16                                  i2l2789 3B40  
                         vfpfcnvrt@done 054E                        __end_of___xxtofl 364A  
                ?_FM_Lcd_Easy_Gpio_Init 0501                            vfprintf@cfmt 0558  
                                ___wmul 409E                               ??___fldiv 0517  
                             ??___flmul 0530                               ??___fltol 0545  
                             ??___lodiv 0511                               ??___lomod 0511  
                                clear_0 40CE                                  isa$std 000001  
                                pad@buf 0513                                  _strlen 402C  
                        _sample_counter 057A                                  fputc@c 0501  
                                fputs@c 050E                                  fputs@i 050F  
                                fputs@s 050A                               ??_isdigit 0503  
                          __mediumconst 0000                               ??_isspace 0503  
                                tblptrh 0004F7                                  tblptrl 0004F6  
                                tblptru 0004F8                                  putch@c 0501  
                      __end_of_vfprintf 3E3C                                  utoa@fp 051C  
                             ??_sprintf 055A                            ___xxtofl@arg 050B  
                          ___xxtofl@exp 050A                            ___xxtofl@val 0501  
                            __accesstop 0560                 __end_of__initialization 40E4  
                         ___rparam_used 000001                              ___fltol@f1 0541  
                        __pcstackCOMRAM 0501                           __end_of_fputc 3A72  
                         __end_of_fputs 3F24                           __end_of_putch 4186  
                      _FM_Lcd_Easy_Init 3FAA            FM_Hfintosc_Init@clock_params 0501  
                               ??_fputc 0505                                 ??_fputs 050E  
                               ??_putch 0501                              __pbssBANK5 0560  
                               IVTBASEH 00045E                                 IVTBASEL 00045D  
                               IVTBASEU 00045F          __size_of_FM_Lcd_Send_Character 000C  
                       _Init_Interrupts 4138           __end_of_FM_Lcd_Send_Character 4184  
                    _FM_Lcd_Send_Nibble 3D5E                                 ?___wmul 0501  
             __size_of_FM_Hfintosc_Init 0040       __size_of_Init_Internal_Oscillator 0016  
                    _FM_Lcd_Send_String 3CDA               ?_Init_Internal_Oscillator 0501  
                     ?_Init_ADCC_Module 0501                                 ?_strlen 0501  
                   ?_FM_Lcd_Send_Nibble 0501                      ??_Init_ADCC_Module 0501  
                               _INTCON0 0004D6                               ?___xxtofl 0501  
                   ?_FM_Lcd_Send_String 0506                      __size_of_vfpfcnvrt 03D4  
                            _average_ms 0578                        ___lomod@dividend 0501  
             __size_of_Init_Gpio_System 0012                    ??_FM_Lcd_Send_Nibble 0501  
                         ??_System_Init 0508                    ??_FM_Lcd_Send_String 0508  
                               __Hparam 0000                                 __Lparam 0000  
                               ___fldiv 2D42                                 ___flmul 2520  
                               ___fltol 37A4                         __size_of___wmul 002A  
                               ___lodiv 38AA                                 ___lomod 3B44  
                             ?_vfprintf 0552                            __psmallconst 2500  
          __end_of_Init_Timer0_As_Timer 4108                                 __pcinit 40C8  
                               __ramtop 2500                                 __ptext0 364A  
                               __ptext1 3E3C                                 __ptext2 3DD2  
                               __ptext3 296E                                 __ptext4 30DC  
                               __ptext5 3C14                                 __ptext6 402C  
                               __ptext7 3EE0                                 __ptext8 399A  
                               __ptext9 4184                         __size_of_strlen 003A  
                          __size_of_ISR 00D2                            __size_of_pad 00C6  
                               _isdigit 4066                              ??___xxtofl 0505  
                               _isspace 3E8E                                 atoi@neg 050E  
                               _sprintf 3E3C            __size_of_FM_Lcd_Send_Command 000C  
                  end_of_initialization 40E4                 __end_of_Init_Interrupts 414C  
               ??_FM_Lcd_Easy_Gpio_Init 0501                                 fputc@fp 0503  
                               fputs@fp 050C                       __end_of_vfpfcnvrt 2D42  
                               postdec2 0004DD                                 postinc0 0004EE  
                               postinc1 0004E6                                 postinc2 0004DE  
                   __end_of_System_Init 4122                              ??_vfprintf 0558  
                               strlen@a 0503                                 strlen@s 0501  
                            _print_flag 055F                  FM_Lcd_Set_Cursor@filas 0507  
                         ___xxtofl@sign 0509                             ___fldiv@grs 0522  
                           ___fldiv@rem 051B                             ___flmul@grs 0535  
              __end_of_FM_Lcd_Easy_Init 3FEC               FM_Lcd_Set_Cursor@base_pos 0508  
                      _FM_Hfintosc_Init 3FEC                             vfpfcnvrt@ap 0540  
                           vfpfcnvrt@fp 053C                          __end_of___wmul 40C8  
                        __end_of_strlen 4066                     start_initialization 40C8  
                       ___lodiv@divisor 0509                            _indicador_ms 057C  
                       ___lodiv@counter 0519                             __end_of_ISR 3B44  
                           __end_of_pad 3CDA                              ivt0x8_base 0008  
                      _Init_Gpio_System 414C                        ?_Init_Interrupts 0501  
                  _Init_Timer0_As_Timer 40EA                FM_Lcd_Send_String@cadena 0506  
      __end_of_Init_Internal_Oscillator 4138                             _System_Init 4108  
                           vfprintf@fmt 0554                                ??___wmul 0505  
                              ??_strlen 0503                               ___fldiv@a 0513  
                             ___fldiv@b 050F                               ___flmul@a 052C  
                             ___flmul@b 0528                             __pbssCOMRAM 055F  
                         __pcstackBANK5 05B2                       __size_of___xxtofl 01B4  
             __size_of_Init_ADCC_Module 0042                   ?_Init_Timer0_As_Timer 0501  
                 _FM_Lcd_Send_Character 4178                                ?___fldiv 050F  
                              ?___flmul 0528                     _FM_Lcd_Send_Command 416C  
                              ?___fltol 0541                                ?___lodiv 0501  
                     _FM_Lcd_Set_Cursor 3F24                                ?___lomod 0501  
                    ?_FM_Lcd_Set_Cursor 0506                       __size_of_vfprintf 006A  
    FM_Lcd_Send_Command@command_to_send 0505                         ___lomod@divisor 0509  
                           __smallconst 2500                         ___lomod@counter 0511  
                              ?_isdigit 0501                                ?_isspace 0501  
                   ??_FM_Lcd_Set_Cursor 0507                    ?_FM_Lcd_Send_Command 0501  
                              ?_sprintf 05B2                          __size_of_fputc 00D8  
                        __size_of_fputs 0044                          __size_of_putch 0002  
                        ___wmul@product 0505             __size_of_FM_Lcd_Send_Nibble 0074  
        __size_of_FM_Lcd_Easy_Gpio_Init 000E           __end_of_FM_Lcd_Easy_Gpio_Init 416C  
           __size_of_FM_Lcd_Send_String 0084                                i2u232_40 3A80  
                              i2u232_41 3A7C                                i2u233_40 3AC4  
                              i2u233_41 3AC0                                i2u234_40 3AD6  
                              i2u234_41 3AD0                                i2u235_40 3AD8  
                              i2u236_40 3B06                                i2u236_41 3B02  
                              i2u237_41 3B10                                i2u238_40 3B2C  
                              i2u238_41 3B28                                i2u239_41 3B3A  
             __end_of_FM_Lcd_Set_Cursor 3F68                _Init_Internal_Oscillator 4122  
                           _led_counter 0568                               _vfpfcnvrt 296E  
                     ___wmul@multiplier 0501                             _contador_ms 057E  
                 ??_FM_Lcd_Send_Command 0505                  ??_Init_Timer0_As_Timer 0501  
              __end_of_FM_Hfintosc_Init 402C                       ?_FM_Lcd_Easy_Init 0501  
                    ??_FM_Lcd_Easy_Init 0506                 FM_Lcd_Send_String@index 050A  
                              __Hrparam 0000                  ?_FM_Lcd_Send_Character 0501  
                            vfprintf@ap 0556                                __Lrparam 0000  
                            vfprintf@fp 0552                        __size_of___fldiv 039A  
                      __size_of___flmul 044E                        __size_of___fltol 0106  
                      __size_of___lodiv 00F0                        __size_of___lomod 00D0  
                            ?_vfpfcnvrt 053C                __end_of_Init_Gpio_System 415E  
                            sprintf@fmt 05B4                                ___xxtofl 3496  
                              _atoi$850 0514                                _atoi$851 0512  
                              _atoi$849 0510                        __size_of_isdigit 0038  
                              __pivt0x8 0008                        __size_of_isspace 0052  
                              __ptext10 3B44                                __ptext11 38AA  
                              __ptext20 4108                                __ptext12 32DE  
                              __ptext21 40EA                                __ptext13 3E8E  
                              __ptext30 416C                                __ptext22 4138  
                              __ptext14 4066                                __ptext31 3CDA  
                              __ptext23 4122                                __ptext15 409E  
                              __ptext32 4178                                __ptext24 3FEC  
                              __ptext16 3496                                __ptext33 3D5E  
                              __ptext25 414C                                __ptext17 37A4  
                              __ptext34 3A72                                __ptext26 3F68  
                              __ptext18 2520                                __ptext27 3FAA  
                              __ptext19 2D42                                __ptext28 415E  
                              __ptext29 3F24                        _Init_ADCC_Module 3F68  
                      __size_of_sprintf 0052                             _OSCCON1bits 0000AD  
                         __size_of_atoi 01B8                           __size_of_main 015A  
                       main@val_percent 055E                           __size_of_utoa 0202  
                          ?_System_Init 0501              __size_of_FM_Lcd_Set_Cursor 0044  
                              isa$xinst 000000                                _vfprintf 3DD2  
                           _isspace$867 0507                                isdigit@c 0501  
                              intlevel2 0000                               sprintf@ap 05BA  
                              isspace@c 0501          FM_Lcd_Send_Nibble@byte_to_send 0502  
                         _print_counter 0580                __size_of_Init_Interrupts 0014  
                            _OSCFRQbits 0000B1                             ??_vfpfcnvrt 0542  
                         _vfpfcnvrt$831 0550                                sprintf@f 05BC  
                              sprintf@s 05B2                FM_Lcd_Set_Cursor@columna 0506  
                           _rpm_counter 0560              ??_Init_Internal_Oscillator 0504  
          FM_Lcd_Send_Nibble@lower_bits 0504  
