

Microchip MPLAB XC8 Assembler V2.32 build 20210201212658 
                                                                                               Thu Jun 29 18:12:56 2023

Microchip MPLAB XC8 C Compiler v2.32 (Free license) build 20210201212658 Og1 
     1                           	processor	18F57Q43
     2                           	fnconf	rparam,??,?,0
     3                           	pagewidth 120
     4                           	opt	flic
     5                           	psect	smallconst,global,reloc=2,class=SMALLCONST,delta=1,noexec
     6                           	psect	cinit,global,reloc=2,class=CODE,delta=1
     7                           	psect	bssBANK5,global,class=BANK5,space=1,delta=1,lowdata,noexec
     8                           	psect	cstackBANK5,global,class=BANK5,space=1,delta=1,lowdata,noexec
     9                           	psect	cstackCOMRAM,global,class=COMRAM,space=1,delta=1,lowdata,noexec
    10                           	psect	text0,global,reloc=2,class=CODE,delta=1
    11                           	psect	text1,global,reloc=2,class=CODE,delta=1,group=3
    12                           	psect	text2,global,reloc=2,class=CODE,delta=1,group=1
    13                           	psect	text3,global,reloc=2,class=CODE,delta=1,group=1
    14                           	psect	text4,global,reloc=2,class=CODE,delta=1,group=1
    15                           	psect	text5,global,reloc=2,class=CODE,delta=1,group=1
    16                           	psect	text6,global,reloc=2,class=CODE,delta=1,group=3
    17                           	psect	text7,global,reloc=2,class=CODE,delta=1,group=3
    18                           	psect	text8,global,reloc=2,class=CODE,delta=1,group=3
    19                           	psect	text9,global,reloc=2,class=CODE,delta=1,group=3
    20                           	psect	text10,global,reloc=2,class=CODE,delta=1,group=2
    21                           	psect	text11,global,reloc=2,class=CODE,delta=1,group=2
    22                           	psect	text12,global,reloc=2,class=CODE,delta=1,group=3
    23                           	psect	text13,global,reloc=2,class=CODE,delta=1,group=3
    24                           	psect	text14,global,reloc=2,class=CODE,delta=1,group=3
    25                           	psect	text15,global,reloc=2,class=CODE,delta=1,group=2
    26                           	psect	text16,global,reloc=2,class=CODE,delta=1,group=2
    27                           	psect	text17,global,reloc=2,class=CODE,delta=1,group=2
    28                           	psect	text18,global,reloc=2,class=CODE,delta=1,group=2
    29                           	psect	text19,global,reloc=2,class=CODE,delta=1,group=2
    30                           	psect	text20,global,reloc=2,class=CODE,delta=1
    31                           	psect	text21,global,reloc=2,class=CODE,delta=1
    32                           	psect	text22,global,reloc=2,class=CODE,delta=1
    33                           	psect	text23,global,reloc=2,class=CODE,delta=1
    34                           	psect	text24,global,reloc=2,class=CODE,delta=1
    35                           	psect	text25,global,reloc=2,class=CODE,delta=1
    36                           	psect	text26,global,reloc=2,class=CODE,delta=1
    37                           	psect	text27,global,reloc=2,class=CODE,delta=1
    38                           	psect	text28,global,reloc=2,class=CODE,delta=1
    39                           	psect	text29,global,reloc=2,class=CODE,delta=1
    40                           	psect	text30,global,reloc=2,class=CODE,delta=1
    41                           	psect	text31,global,reloc=2,class=CODE,delta=1
    42                           	psect	text32,global,reloc=2,class=CODE,delta=1
    43                           	psect	text33,global,reloc=2,class=CODE,delta=1
    44                           	psect	text34,global,reloc=2,class=CODE,delta=1
    45                           	psect	ivt0x8,global,reloc=2,class=CODE,delta=1,noexec,keep,optim=
    46                           	psect	intsave_regs,global,class=BIGRAM,space=1,delta=1,noexec
    47                           	psect	rparam,global,class=COMRAM,space=1,delta=1,noexec
    48                           	psect	idloc,global,abs,ovrld,class=IDLOC,space=5,delta=1,noexec
    49                           	psect	config,global,abs,ovrld,class=CONFIG,space=4,delta=1,noexec
    50  0000                     
    51                           ; Generated 17/06/2022 GMT
    52                           ; 
    53                           ; Copyright © 2022, Microchip Technology Inc. and its subsidiaries ("Microchip")
    54                           ; All rights reserved.
    55                           ; 
    56                           ; This software is developed by Microchip Technology Inc. and its subsidiaries ("Microch
      +                          ip").
    57                           ; 
    58                           ; Redistribution and use in source and binary forms, with or without modification, are
    59                           ; permitted provided that the following conditions are met:
    60                           ; 
    61                           ;     1. Redistributions of source code must retain the above copyright notice, this lis
      +                          t of
    62                           ;        conditions and the following disclaimer.
    63                           ; 
    64                           ;     2. Redistributions in binary form must reproduce the above copyright notice, this 
      +                          list
    65                           ;        of conditions and the following disclaimer in the documentation and/or other
    66                           ;        materials provided with the distribution. Publication is not required when
    67                           ;        this file is used in an embedded application.
    68                           ; 
    69                           ;     3. Microchip's name may not be used to endorse or promote products derived from th
      +                          is
    70                           ;        software without specific prior written permission.
    71                           ; 
    72                           ; THIS SOFTWARE IS PROVIDED BY MICROCHIP "AS IS" AND ANY EXPRESS OR IMPLIED WARRANTIES,
    73                           ; INCLUDING, BUT NOT LIMITED TO, THE IMPLIED WARRANTIES OF MERCHANTABILITY AND FITNESS F
      +                          OR
    74                           ; PURPOSE ARE DISCLAIMED.  IN NO EVENT SHALL MICROCHIP BE LIABLE FOR ANY DIRECT, INDIREC
      +                          T,
    75                           ; INCIDENTAL, SPECIAL, EXEMPLARY, OR CONSEQUENTIAL DAMAGES (INCLUDING BUT NOT LIMITED TO
    76                           ; PROCUREMENT OF SUBSTITUTE GOODS OR SERVICES; LOSS OF USE, DATA OR PROFITS; OR BUSINESS
    77                           ; INTERRUPTION) HOWSOEVER CAUSED AND ON ANY THEORY OF LIABILITY, WHETHER IN CONTRACT, ST
      +                          RICT
    78                           ; LIABILITY, OR TORT (INCLUDING NEGLIGENCE OR OTHERWISE) ARISING IN ANY WAY OUT OF THE U
      +                          SE OF
    79                           ; THIS SOFTWARE, EVEN IF ADVISED OF THE POSSIBILITY OF SUCH DAMAGE.
    80                           ; 
    81                           ; 
    82                           ; Code-generator required, PIC18F57Q43 Definitions
    83                           ; 
    84                           ; SFR Addresses
    85  0000                     _OSCFRQbits	set	177
    86  0000                     _OSCCON1bits	set	173
    87  0000                     _ADACQ	set	1006
    88  0000                     _ADPRE	set	1009
    89  0000                     _ADPCH	set	1004
    90  0000                     _ADREF	set	1016
    91  0000                     _ADCLK	set	1018
    92  0000                     _ADCON2	set	1013
    93  0000                     _ADCON1	set	1012
    94  0000                     _T0CON1	set	795
    95  0000                     _T0CON0	set	794
    96  0000                     _ADRESL	set	1002
    97  0000                     _ADRESH	set	1003
    98  0000                     _ADCON0	set	1011
    99  0000                     _TMR0	set	792
   100  0000                     _ANSELF	set	1064
   101  0000                     _ANSELA	set	1024
   102  0000                     _TRISF	set	1227
   103  0000                     _TRISA	set	1222
   104  0000                     _PIE3	set	1185
   105  0000                     _PIE1	set	1183
   106  0000                     _PIR1	set	1199
   107  0000                     _INTCON0	set	1238
   108  0000                     _PIR3	set	1201
   109  0000                     _LATF	set	1219
   110  0000                     _PIR3bits	set	1201
   111                           
   112                           	psect	smallconst
   113  002500                     __psmallconst:
   114                           	callstack 0
   115  002500  00                 	db	0
   116  002501                     STR_1:
   117  002501  50                 	db	80	;'P'
   118  002502  46                 	db	70	;'F'
   119  002503  20                 	db	32
   120  002504  4D                 	db	77	;'M'
   121  002505  4F                 	db	79	;'O'
   122  002506  54                 	db	84	;'T'
   123  002507  4F                 	db	79	;'O'
   124  002508  52                 	db	82	;'R'
   125  002509  20                 	db	32
   126  00250A  52                 	db	82	;'R'
   127  00250B  50                 	db	80	;'P'
   128  00250C  4D                 	db	77	;'M'
   129  00250D  00                 	db	0
   130  00250E                     STR_2:
   131  00250E  56                 	db	86	;'V'
   132  00250F  3D                 	db	61	;'='
   133  002510  25                 	db	37
   134  002511  2D                 	db	45
   135  002512  33                 	db	51	;'3'
   136  002513  75                 	db	117	;'u'
   137  002514  25                 	db	37
   138  002515  25                 	db	37
   139  002516  00                 	db	0
   140  002517  00                 	db	0	; dummy byte at the end
   141  0000                     
   142                           ; #config settings
   143                           
   144                           	psect	cinit
   145  003FDE                     __pcinit:
   146                           	callstack 0
   147  003FDE                     start_initialization:
   148                           	callstack 0
   149  003FDE                     __initialization:
   150                           	callstack 0
   151                           
   152                           ; Clear objects allocated to BANK5 (58 bytes)
   153  003FDE  EE01  F160         	lfsr	0,__pbssBANK5
   154  003FE2  0E3A               	movlw	58
   155  003FE4                     clear_0:
   156  003FE4  6AEE               	clrf	postinc0,c
   157  003FE6  06E8               	decf	wreg,f,c
   158  003FE8  E1FD               	bnz	clear_0
   159                           
   160                           ;
   161                           ; Setup IVTBASE
   162                           ;
   163  003FEA  0104               	movlb	4
   164  003FEC  0E08               	movlw	(ivt0x8_base shr 0)& (0+255)
   165  003FEE  6F5D               	movwf	93,b
   166  003FF0  0E00               	movlw	(ivt0x8_base shr (0+8))& (0+255)
   167  003FF2  6F5E               	movwf	94,b
   168  003FF4  0E00               	movlw	(ivt0x8_base shr (0+16))& (0+255)
   169  003FF6  6F5F               	movwf	95,b
   170  003FF8                     end_of_initialization:
   171                           	callstack 0
   172  003FF8                     __end_of__initialization:
   173                           	callstack 0
   174  003FF8  0100               	movlb	0
   175  003FFA  EF21  F01B         	goto	_main	;jump to C main() function
   176                           
   177                           	psect	bssBANK5
   178  000560                     __pbssBANK5:
   179                           	callstack 0
   180  000560                     _nout:
   181                           	callstack 0
   182  000560                     	ds	2
   183  000562                     _width:
   184                           	callstack 0
   185  000562                     	ds	2
   186  000564                     _prec:
   187                           	callstack 0
   188  000564                     	ds	2
   189  000566                     _flags:
   190                           	callstack 0
   191  000566                     	ds	2
   192  000568                     _timer0_1sec_cont:
   193                           	callstack 0
   194  000568                     	ds	2
   195  00056A                     _dbuf:
   196                           	callstack 0
   197  00056A                     	ds	32
   198  00058A                     _msj:
   199                           	callstack 0
   200  00058A                     	ds	16
   201                           
   202                           	psect	cstackBANK5
   203  00059A                     __pcstackBANK5:
   204                           	callstack 0
   205  00059A                     sprintf@ap:
   206                           	callstack 0
   207                           
   208                           ; 2 bytes @ 0x0
   209  00059A                     	ds	2
   210  00059C                     sprintf@f:
   211                           	callstack 0
   212                           
   213                           ; 6 bytes @ 0x2
   214  00059C                     	ds	6
   215  0005A2                     ??_main:
   216                           
   217                           ; 1 bytes @ 0x8
   218  0005A2                     	ds	2
   219  0005A4                     main@adc_val:
   220                           	callstack 0
   221                           
   222                           ; 2 bytes @ 0xA
   223  0005A4                     	ds	2
   224  0005A6                     main@val_percent:
   225                           	callstack 0
   226                           
   227                           ; 1 bytes @ 0xC
   228  0005A6                     	ds	1
   229                           
   230                           	psect	cstackCOMRAM
   231  000501                     __pcstackCOMRAM:
   232                           	callstack 0
   233  000501                     ??_FM_Lcd_Send_Nibble:
   234  000501                     ?_strlen:
   235                           	callstack 0
   236  000501                     ?_isdigit:
   237                           	callstack 0
   238  000501                     ?_isspace:
   239                           	callstack 0
   240  000501                     ?___wmul:
   241                           	callstack 0
   242  000501                     ?___xxtofl:
   243                           	callstack 0
   244  000501                     ?___lodiv:
   245                           	callstack 0
   246  000501                     ?___lomod:
   247                           	callstack 0
   248  000501                     FM_Hfintosc_Init@clock_params:
   249                           	callstack 0
   250  000501                     ___wmul@multiplier:
   251                           	callstack 0
   252  000501                     isdigit@c:
   253                           	callstack 0
   254  000501                     isspace@c:
   255                           	callstack 0
   256  000501                     fputc@c:
   257                           	callstack 0
   258  000501                     strlen@s:
   259                           	callstack 0
   260  000501                     ___xxtofl@val:
   261                           	callstack 0
   262  000501                     ___lodiv@dividend:
   263                           	callstack 0
   264  000501                     ___lomod@dividend:
   265                           	callstack 0
   266                           
   267                           ; 8 bytes @ 0x0
   268  000501                     	ds	1
   269  000502                     FM_Lcd_Send_Nibble@byte_to_send:
   270                           	callstack 0
   271                           
   272                           ; 1 bytes @ 0x1
   273  000502                     	ds	1
   274  000503                     ??_FM_Hfintosc_Init:
   275  000503                     ??_isdigit:
   276  000503                     ??_isspace:
   277  000503                     FM_Lcd_Send_Nibble@upper_bits:
   278                           	callstack 0
   279  000503                     ___wmul@multiplicand:
   280                           	callstack 0
   281  000503                     fputc@fp:
   282                           	callstack 0
   283  000503                     strlen@a:
   284                           	callstack 0
   285                           
   286                           ; 2 bytes @ 0x2
   287  000503                     	ds	1
   288  000504                     FM_Lcd_Send_Nibble@lower_bits:
   289                           	callstack 0
   290  000504                     Init_Internal_Oscillator@my_clock:
   291                           	callstack 0
   292                           
   293                           ; 2 bytes @ 0x3
   294  000504                     	ds	1
   295  000505                     ??_fputc:
   296  000505                     ??___xxtofl:
   297  000505                     FM_Lcd_Send_Command@command_to_send:
   298                           	callstack 0
   299  000505                     FM_Lcd_Send_Character@character_to_send:
   300                           	callstack 0
   301  000505                     ___wmul@product:
   302                           	callstack 0
   303                           
   304                           ; 2 bytes @ 0x4
   305  000505                     	ds	1
   306  000506                     ??_FM_Lcd_Easy_Init:
   307  000506                     FM_Lcd_Set_Cursor@columna:
   308                           	callstack 0
   309  000506                     FM_Lcd_Send_String@cadena:
   310                           	callstack 0
   311                           
   312                           ; 2 bytes @ 0x5
   313  000506                     	ds	1
   314  000507                     FM_Lcd_Set_Cursor@filas:
   315                           	callstack 0
   316  000507                     _isspace$889:
   317                           	callstack 0
   318                           
   319                           ; 1 bytes @ 0x6
   320  000507                     	ds	1
   321  000508                     ??_FM_Lcd_Send_String:
   322  000508                     ?_atoi:
   323                           	callstack 0
   324  000508                     FM_Lcd_Set_Cursor@base_pos:
   325                           	callstack 0
   326  000508                     atoi@s:
   327                           	callstack 0
   328                           
   329                           ; 2 bytes @ 0x7
   330  000508                     	ds	1
   331  000509                     ___xxtofl@sign:
   332                           	callstack 0
   333  000509                     ___lodiv@divisor:
   334                           	callstack 0
   335  000509                     ___lomod@divisor:
   336                           	callstack 0
   337                           
   338                           ; 8 bytes @ 0x8
   339  000509                     	ds	1
   340  00050A                     ??_atoi:
   341  00050A                     FM_Lcd_Send_String@index:
   342                           	callstack 0
   343  00050A                     ___xxtofl@exp:
   344                           	callstack 0
   345  00050A                     fputs@s:
   346                           	callstack 0
   347                           
   348                           ; 2 bytes @ 0x9
   349  00050A                     	ds	1
   350  00050B                     ___xxtofl@arg:
   351                           	callstack 0
   352                           
   353                           ; 4 bytes @ 0xA
   354  00050B                     	ds	1
   355  00050C                     fputs@fp:
   356                           	callstack 0
   357                           
   358                           ; 2 bytes @ 0xB
   359  00050C                     	ds	2
   360  00050E                     fputs@c:
   361                           	callstack 0
   362  00050E                     atoi@neg:
   363                           	callstack 0
   364                           
   365                           ; 2 bytes @ 0xD
   366  00050E                     	ds	1
   367  00050F                     ?___fldiv:
   368                           	callstack 0
   369  00050F                     fputs@i:
   370                           	callstack 0
   371  00050F                     ___fldiv@b:
   372                           	callstack 0
   373                           
   374                           ; 4 bytes @ 0xE
   375  00050F                     	ds	1
   376  000510                     _atoi$871:
   377                           	callstack 0
   378                           
   379                           ; 2 bytes @ 0xF
   380  000510                     	ds	1
   381  000511                     ?_pad:
   382                           	callstack 0
   383  000511                     ___lomod@counter:
   384                           	callstack 0
   385  000511                     pad@fp:
   386                           	callstack 0
   387  000511                     ___lodiv@quotient:
   388                           	callstack 0
   389                           
   390                           ; 8 bytes @ 0x10
   391  000511                     	ds	1
   392  000512                     _atoi$873:
   393                           	callstack 0
   394                           
   395                           ; 2 bytes @ 0x11
   396  000512                     	ds	1
   397  000513                     pad@buf:
   398                           	callstack 0
   399  000513                     ___fldiv@a:
   400                           	callstack 0
   401                           
   402                           ; 4 bytes @ 0x12
   403  000513                     	ds	1
   404  000514                     _atoi$872:
   405                           	callstack 0
   406                           
   407                           ; 1 bytes @ 0x13
   408  000514                     	ds	1
   409  000515                     pad@p:
   410                           	callstack 0
   411  000515                     atoi@n:
   412                           	callstack 0
   413                           
   414                           ; 2 bytes @ 0x14
   415  000515                     	ds	2
   416  000517                     ??___fldiv:
   417  000517                     ??_pad:
   418                           
   419                           ; 1 bytes @ 0x16
   420  000517                     	ds	1
   421  000518                     pad@i:
   422                           	callstack 0
   423                           
   424                           ; 2 bytes @ 0x17
   425  000518                     	ds	1
   426  000519                     ___lodiv@counter:
   427                           	callstack 0
   428                           
   429                           ; 1 bytes @ 0x18
   430  000519                     	ds	1
   431  00051A                     pad@w:
   432                           	callstack 0
   433                           
   434                           ; 2 bytes @ 0x19
   435  00051A                     	ds	1
   436  00051B                     ___fldiv@rem:
   437                           	callstack 0
   438                           
   439                           ; 4 bytes @ 0x1A
   440  00051B                     	ds	1
   441  00051C                     ?_utoa:
   442                           	callstack 0
   443  00051C                     utoa@fp:
   444                           	callstack 0
   445                           
   446                           ; 2 bytes @ 0x1B
   447  00051C                     	ds	2
   448  00051E                     utoa@d:
   449                           	callstack 0
   450                           
   451                           ; 8 bytes @ 0x1D
   452  00051E                     	ds	1
   453  00051F                     ___fldiv@sign:
   454                           	callstack 0
   455                           
   456                           ; 1 bytes @ 0x1E
   457  00051F                     	ds	1
   458  000520                     ___fldiv@new_exp:
   459                           	callstack 0
   460                           
   461                           ; 2 bytes @ 0x1F
   462  000520                     	ds	2
   463  000522                     ___fldiv@grs:
   464                           	callstack 0
   465                           
   466                           ; 4 bytes @ 0x21
   467  000522                     	ds	4
   468  000526                     ??_utoa:
   469  000526                     ___fldiv@bexp:
   470                           	callstack 0
   471                           
   472                           ; 1 bytes @ 0x25
   473  000526                     	ds	1
   474  000527                     ___fldiv@aexp:
   475                           	callstack 0
   476                           
   477                           ; 1 bytes @ 0x26
   478  000527                     	ds	1
   479  000528                     ?___flmul:
   480                           	callstack 0
   481  000528                     ___flmul@b:
   482                           	callstack 0
   483                           
   484                           ; 4 bytes @ 0x27
   485  000528                     	ds	4
   486  00052C                     ___flmul@a:
   487                           	callstack 0
   488                           
   489                           ; 4 bytes @ 0x2B
   490  00052C                     	ds	2
   491  00052E                     utoa@p:
   492                           	callstack 0
   493                           
   494                           ; 2 bytes @ 0x2D
   495  00052E                     	ds	2
   496  000530                     ??___flmul:
   497  000530                     utoa@w:
   498                           	callstack 0
   499                           
   500                           ; 2 bytes @ 0x2F
   501  000530                     	ds	2
   502  000532                     utoa@n:
   503                           	callstack 0
   504                           
   505                           ; 8 bytes @ 0x31
   506  000532                     	ds	2
   507  000534                     ___flmul@sign:
   508                           	callstack 0
   509                           
   510                           ; 1 bytes @ 0x33
   511  000534                     	ds	1
   512  000535                     ___flmul@grs:
   513                           	callstack 0
   514                           
   515                           ; 4 bytes @ 0x34
   516  000535                     	ds	4
   517  000539                     ___flmul@aexp:
   518                           	callstack 0
   519                           
   520                           ; 1 bytes @ 0x38
   521  000539                     	ds	1
   522  00053A                     ___flmul@bexp:
   523                           	callstack 0
   524  00053A                     utoa@i:
   525                           	callstack 0
   526                           
   527                           ; 2 bytes @ 0x39
   528  00053A                     	ds	1
   529  00053B                     ___flmul@prod:
   530                           	callstack 0
   531                           
   532                           ; 4 bytes @ 0x3A
   533  00053B                     	ds	1
   534  00053C                     ?_vfpfcnvrt:
   535                           	callstack 0
   536  00053C                     vfpfcnvrt@fp:
   537                           	callstack 0
   538                           
   539                           ; 2 bytes @ 0x3B
   540  00053C                     	ds	2
   541  00053E                     vfpfcnvrt@fmt:
   542                           	callstack 0
   543                           
   544                           ; 2 bytes @ 0x3D
   545  00053E                     	ds	1
   546  00053F                     ___flmul@temp:
   547                           	callstack 0
   548                           
   549                           ; 2 bytes @ 0x3E
   550  00053F                     	ds	1
   551  000540                     vfpfcnvrt@ap:
   552                           	callstack 0
   553                           
   554                           ; 2 bytes @ 0x3F
   555  000540                     	ds	1
   556  000541                     ?___fltol:
   557                           	callstack 0
   558  000541                     ___fltol@f1:
   559                           	callstack 0
   560                           
   561                           ; 4 bytes @ 0x40
   562  000541                     	ds	1
   563  000542                     ??_vfpfcnvrt:
   564                           
   565                           ; 1 bytes @ 0x41
   566  000542                     	ds	3
   567  000545                     ??___fltol:
   568                           
   569                           ; 1 bytes @ 0x44
   570  000545                     	ds	1
   571  000546                     vfpfcnvrt@llu:
   572                           	callstack 0
   573                           
   574                           ; 8 bytes @ 0x45
   575  000546                     	ds	3
   576  000549                     ___fltol@sign1:
   577                           	callstack 0
   578                           
   579                           ; 1 bytes @ 0x48
   580  000549                     	ds	1
   581  00054A                     ___fltol@exp1:
   582                           	callstack 0
   583                           
   584                           ; 1 bytes @ 0x49
   585  00054A                     	ds	4
   586  00054E                     vfpfcnvrt@done:
   587                           	callstack 0
   588                           
   589                           ; 2 bytes @ 0x4D
   590  00054E                     	ds	2
   591  000550                     _vfpfcnvrt$853:
   592                           	callstack 0
   593                           
   594                           ; 2 bytes @ 0x4F
   595  000550                     	ds	2
   596  000552                     ?_vfprintf:
   597                           	callstack 0
   598  000552                     vfprintf@fp:
   599                           	callstack 0
   600                           
   601                           ; 2 bytes @ 0x51
   602  000552                     	ds	2
   603  000554                     vfprintf@fmt:
   604                           	callstack 0
   605                           
   606                           ; 2 bytes @ 0x53
   607  000554                     	ds	2
   608  000556                     vfprintf@ap:
   609                           	callstack 0
   610                           
   611                           ; 2 bytes @ 0x55
   612  000556                     	ds	2
   613  000558                     vfprintf@cfmt:
   614                           	callstack 0
   615                           
   616                           ; 2 bytes @ 0x57
   617  000558                     	ds	2
   618  00055A                     ?_sprintf:
   619                           	callstack 0
   620  00055A                     sprintf@s:
   621                           	callstack 0
   622                           
   623                           ; 2 bytes @ 0x59
   624  00055A                     	ds	2
   625  00055C                     sprintf@fmt:
   626                           	callstack 0
   627                           
   628                           ; 2 bytes @ 0x5B
   629  00055C                     	ds	4
   630  000560                     
   631                           ; 1 bytes @ 0x5F
   632 ;;
   633 ;;Main: autosize = 0, tempsize = 2, incstack = 0, save=0
   634 ;;
   635 ;; *************** function _main *****************
   636 ;; Defined at:
   637 ;;		line 67 in file "main.c"
   638 ;; Parameters:    Size  Location     Type
   639 ;;		None
   640 ;; Auto vars:     Size  Location     Type
   641 ;;  adc_val         2   10[BANK5 ] unsigned short 
   642 ;;  val_percent     1   12[BANK5 ] unsigned char 
   643 ;; Return value:  Size  Location     Type
   644 ;;                  2   87[None  ] int 
   645 ;; Registers used:
   646 ;;		wreg, fsr1l, fsr1h, fsr2l, fsr2h, status,2, status,0, tblptrl, tblptrh, tblptru, prodl, prodh, cstack
   647 ;; Tracked objects:
   648 ;;		On entry : 0/0
   649 ;;		On exit  : 0/0
   650 ;;		Unchanged: 0/0
   651 ;; Data sizes:     COMRAM   BANK5   BANK6   BANK7   BANK8   BANK9  BANK10  BANK11  BANK12  BANK13  BANK14  BANK15  BANK1
      +6  BANK17  BANK18  BANK19  BANK20  BANK21  BANK22  BANK23  BANK24  BANK25  BANK26  BANK27  BANK28  BANK29  BANK30  BANK3
      +1  BANK32  BANK33  BANK34  BANK35  BANK36
   652 ;;      Params:         0       0       0       0       0       0       0       0       0       0       0       0       
      +0       0       0       0       0       0       0       0       0       0       0       0       0       0       0       
      +0       0       0       0       0       0
   653 ;;      Locals:         0       3       0       0       0       0       0       0       0       0       0       0       
      +0       0       0       0       0       0       0       0       0       0       0       0       0       0       0       
      +0       0       0       0       0       0
   654 ;;      Temps:          0       2       0       0       0       0       0       0       0       0       0       0       
      +0       0       0       0       0       0       0       0       0       0       0       0       0       0       0       
      +0       0       0       0       0       0
   655 ;;      Totals:         0       5       0       0       0       0       0       0       0       0       0       0       
      +0       0       0       0       0       0       0       0       0       0       0       0       0       0       0       
      +0       0       0       0       0       0
   656 ;;Total ram usage:        5 bytes
   657 ;; Hardware stack levels required when called: 9
   658 ;; This function calls:
   659 ;;		_FM_Lcd_Send_String
   660 ;;		_FM_Lcd_Set_Cursor
   661 ;;		_System_Init
   662 ;;		___fldiv
   663 ;;		___flmul
   664 ;;		___fltol
   665 ;;		___xxtofl
   666 ;;		_sprintf
   667 ;; This function is called by:
   668 ;;		Startup code after reset
   669 ;; This function uses a non-reentrant model
   670 ;;
   671                           
   672                           	psect	text0
   673  003642                     __ptext0:
   674                           	callstack 0
   675  003642                     _main:
   676                           	callstack 118
   677  003642                     
   678                           ;main.c: 70:     System_Init();
   679  003642  EC0E  F020         	call	_System_Init	;wreg free
   680  003646                     
   681                           ;main.c: 72:     FM_Lcd_Set_Cursor(ROW_1, COL_3);
   682  003646  0E02               	movlw	2
   683  003648  6E06               	movwf	FM_Lcd_Set_Cursor@columna^(0+1280),c
   684  00364A  0E00               	movlw	0
   685  00364C  ECFD  F01E         	call	_FM_Lcd_Set_Cursor
   686  003650                     
   687                           ;main.c: 73:     FM_Lcd_Send_String("PF MOTOR RPM");
   688  003650  0E01               	movlw	low STR_1
   689  003652  6E06               	movwf	FM_Lcd_Send_String@cadena^(0+1280),c
   690  003654  0E25               	movlw	high STR_1
   691  003656  6E07               	movwf	(FM_Lcd_Send_String@cadena+1)^(0+1280),c
   692  003658  ECD8  F01D         	call	_FM_Lcd_Send_String	;wreg free
   693  00365C                     l2731:
   694                           
   695                           ;main.c: 76:     {;main.c: 78:         ADCON0 |= (1 << 0x0);
   696  00365C  0103               	movlb	3	; () banked
   697  00365E  81F3               	bsf	243,0,b	;volatile
   698  003660                     l89:
   699                           
   700                           ; BSR set to: 3
   701  003660  B1F3               	btfsc	243,0,b	;volatile
   702  003662  EF35  F01B         	goto	u2261
   703  003666  EF37  F01B         	goto	u2260
   704  00366A                     u2261:
   705  00366A  EF30  F01B         	goto	l89
   706  00366E                     u2260:
   707  00366E                     
   708                           ; BSR set to: 3
   709                           ;main.c: 81:         uint16_t adc_val = (ADRESH << 8) | ADRESL;
   710  00366E  51EA               	movf	234,w,b	;volatile
   711  003670  0060 FFAC  F5A2    	movff	1003,??_main	;volatile
   712  003676  0105               	movlb	5	; () banked
   713  003678  6BA3               	clrf	(??_main+1)& (0+255),b
   714  00367A  C5A2  F5A3         	movff	??_main,??_main+1
   715  00367E  6BA2               	clrf	??_main& (0+255),b
   716  003680  11A2               	iorwf	??_main& (0+255),w,b
   717  003682  6FA4               	movwf	main@adc_val& (0+255),b
   718  003684  51A3               	movf	(??_main+1)& (0+255),w,b
   719  003686  6FA5               	movwf	(main@adc_val+1)& (0+255),b
   720  003688                     
   721                           ; BSR set to: 5
   722                           ;main.c: 82:         uint8_t val_percent = ((float)adc_val / 4095.0) * 100.0;
   723  003688  0E00               	movlw	0
   724  00368A  6E2C               	movwf	___flmul@a^(0+1280),c
   725  00368C  0E00               	movlw	0
   726  00368E  6E2D               	movwf	(___flmul@a+1)^(0+1280),c
   727  003690  0EC8               	movlw	200
   728  003692  6E2E               	movwf	(___flmul@a+2)^(0+1280),c
   729  003694  0E42               	movlw	66
   730  003696  6E2F               	movwf	(___flmul@a+3)^(0+1280),c
   731  003698  0E00               	movlw	0
   732  00369A  6E13               	movwf	___fldiv@a^(0+1280),c
   733  00369C  0EF0               	movlw	240
   734  00369E  6E14               	movwf	(___fldiv@a+1)^(0+1280),c
   735  0036A0  0E7F               	movlw	127
   736  0036A2  6E15               	movwf	(___fldiv@a+2)^(0+1280),c
   737  0036A4  0E45               	movlw	69
   738  0036A6  6E16               	movwf	(___fldiv@a+3)^(0+1280),c
   739  0036A8  C5A4  F501         	movff	main@adc_val,___xxtofl@val
   740  0036AC  C5A5  F502         	movff	main@adc_val+1,___xxtofl@val+1
   741  0036B0  6A03               	clrf	(___xxtofl@val+2)^(0+1280),c
   742  0036B2  6A04               	clrf	(___xxtofl@val+3)^(0+1280),c
   743  0036B4  0E00               	movlw	0
   744  0036B6  EC47  F01A         	call	___xxtofl
   745  0036BA  C501  F50F         	movff	?___xxtofl,___fldiv@b
   746  0036BE  C502  F510         	movff	?___xxtofl+1,___fldiv@b+1
   747  0036C2  C503  F511         	movff	?___xxtofl+2,___fldiv@b+2
   748  0036C6  C504  F512         	movff	?___xxtofl+3,___fldiv@b+3
   749  0036CA  EC9D  F016         	call	___fldiv	;wreg free
   750  0036CE  C50F  F528         	movff	?___fldiv,___flmul@b
   751  0036D2  C510  F529         	movff	?___fldiv+1,___flmul@b+1
   752  0036D6  C511  F52A         	movff	?___fldiv+2,___flmul@b+2
   753  0036DA  C512  F52B         	movff	?___fldiv+3,___flmul@b+3
   754  0036DE  EC8C  F012         	call	___flmul	;wreg free
   755  0036E2  C528  F541         	movff	?___flmul,___fltol@f1
   756  0036E6  C529  F542         	movff	?___flmul+1,___fltol@f1+1
   757  0036EA  C52A  F543         	movff	?___flmul+2,___fltol@f1+2
   758  0036EE  C52B  F544         	movff	?___flmul+3,___fltol@f1+3
   759  0036F2  ECA6  F01B         	call	___fltol	;wreg free
   760  0036F6  5041               	movf	?___fltol^(0+1280),w,c
   761  0036F8  0105               	movlb	5	; () banked
   762  0036FA  6FA6               	movwf	main@val_percent& (0+255),b
   763  0036FC                     
   764                           ; BSR set to: 5
   765                           ;main.c: 83:         sprintf(msj, "V=%-3u%%", val_percent);
   766  0036FC  0E8A               	movlw	low _msj
   767  0036FE  6E5A               	movwf	sprintf@s^(0+1280),c
   768  003700  0E05               	movlw	high _msj
   769  003702  6E5B               	movwf	(sprintf@s+1)^(0+1280),c
   770  003704  0E0E               	movlw	low STR_2
   771  003706  6E5C               	movwf	sprintf@fmt^(0+1280),c
   772  003708  0E25               	movlw	high STR_2
   773  00370A  6E5D               	movwf	(sprintf@fmt+1)^(0+1280),c
   774  00370C  C5A6  F55E         	movff	main@val_percent,?_sprintf+4
   775  003710  6A5F               	clrf	(?_sprintf+5)^(0+1280),c
   776  003712  EC89  F01E         	call	_sprintf	;wreg free
   777  003716                     
   778                           ;main.c: 84:         FM_Lcd_Set_Cursor(ROW_2, COL_1);
   779  003716  0E00               	movlw	0
   780  003718  6E06               	movwf	FM_Lcd_Set_Cursor@columna^(0+1280),c
   781  00371A  0E01               	movlw	1
   782  00371C  ECFD  F01E         	call	_FM_Lcd_Set_Cursor
   783  003720                     
   784                           ;main.c: 85:         FM_Lcd_Send_String(msj);
   785  003720  0E8A               	movlw	low _msj
   786  003722  6E06               	movwf	FM_Lcd_Send_String@cadena^(0+1280),c
   787  003724  0E05               	movlw	high _msj
   788  003726  6E07               	movwf	(FM_Lcd_Send_String@cadena+1)^(0+1280),c
   789  003728  ECD8  F01D         	call	_FM_Lcd_Send_String	;wreg free
   790  00372C                     
   791                           ;main.c: 86:         _delay((unsigned long)((100)*(16000000UL/4000.0)));
   792  00372C  0E03               	movlw	3
   793  00372E  0105               	movlb	5	; () banked
   794  003730  6FA3               	movwf	(??_main+1)& (0+255),b
   795  003732  0E08               	movlw	8
   796  003734  6FA2               	movwf	??_main& (0+255),b
   797  003736  0E77               	movlw	119
   798  003738                     u2277:
   799  003738  2EE8               	decfsz	wreg,f,c
   800  00373A  D7FE               	bra	u2277
   801  00373C  2FA2               	decfsz	??_main& (0+255),f,b
   802  00373E  D7FC               	bra	u2277
   803  003740  2FA3               	decfsz	(??_main+1)& (0+255),f,b
   804  003742  D7FA               	bra	u2277
   805  003744  EF2E  F01B         	goto	l2731
   806  003748  EF0D  F000         	goto	start
   807  00374C                     __end_of_main:
   808                           	callstack 0
   809                           
   810 ;; *************** function _sprintf *****************
   811 ;; Defined at:
   812 ;;		line 9 in file "C:\Program Files\Microchip\xc8\v2.32\pic\sources\c99\common\nf_sprintf.c"
   813 ;; Parameters:    Size  Location     Type
   814 ;;  s               2   89[COMRAM] PTR unsigned char 
   815 ;;		 -> msj(16), 
   816 ;;  fmt             2   91[COMRAM] PTR const unsigned char 
   817 ;;		 -> STR_2(9), 
   818 ;; Auto vars:     Size  Location     Type
   819 ;;  f               6    2[BANK5 ] struct _IO_FILE
   820 ;;  ap              2    0[BANK5 ] PTR void [1]
   821 ;;		 -> ?_sprintf(2), 
   822 ;;  ret             2    0        int 
   823 ;; Return value:  Size  Location     Type
   824 ;;                  2   89[COMRAM] int 
   825 ;; Registers used:
   826 ;;		wreg, fsr1l, fsr1h, fsr2l, fsr2h, status,2, status,0, tblptrl, tblptrh, tblptru, prodl, prodh, cstack
   827 ;; Tracked objects:
   828 ;;		On entry : 0/0
   829 ;;		On exit  : 0/0
   830 ;;		Unchanged: 0/0
   831 ;; Data sizes:     COMRAM   BANK5   BANK6   BANK7   BANK8   BANK9  BANK10  BANK11  BANK12  BANK13  BANK14  BANK15  BANK1
      +6  BANK17  BANK18  BANK19  BANK20  BANK21  BANK22  BANK23  BANK24  BANK25  BANK26  BANK27  BANK28  BANK29  BANK30  BANK3
      +1  BANK32  BANK33  BANK34  BANK35  BANK36
   832 ;;      Params:         6       0       0       0       0       0       0       0       0       0       0       0       
      +0       0       0       0       0       0       0       0       0       0       0       0       0       0       0       
      +0       0       0       0       0       0
   833 ;;      Locals:         0       8       0       0       0       0       0       0       0       0       0       0       
      +0       0       0       0       0       0       0       0       0       0       0       0       0       0       0       
      +0       0       0       0       0       0
   834 ;;      Temps:          0       0       0       0       0       0       0       0       0       0       0       0       
      +0       0       0       0       0       0       0       0       0       0       0       0       0       0       0       
      +0       0       0       0       0       0
   835 ;;      Totals:         6       8       0       0       0       0       0       0       0       0       0       0       
      +0       0       0       0       0       0       0       0       0       0       0       0       0       0       0       
      +0       0       0       0       0       0
   836 ;;Total ram usage:       14 bytes
   837 ;; Hardware stack levels used: 1
   838 ;; Hardware stack levels required when called: 8
   839 ;; This function calls:
   840 ;;		_vfprintf
   841 ;; This function is called by:
   842 ;;		_main
   843 ;; This function uses a non-reentrant model
   844 ;;
   845                           
   846                           	psect	text1
   847  003D12                     __ptext1:
   848                           	callstack 0
   849  003D12                     _sprintf:
   850                           	callstack 118
   851  003D12  0E5E               	movlw	low (?_sprintf+4)
   852  003D14  0105               	movlb	5	; () banked
   853  003D16  6F9A               	movwf	sprintf@ap& (0+255),b
   854  003D18  0E05               	movlw	high (?_sprintf+4)
   855  003D1A  6F9B               	movwf	(sprintf@ap+1)& (0+255),b
   856  003D1C  C55A  F59C         	movff	sprintf@s,sprintf@f
   857  003D20  C55B  F59D         	movff	sprintf@s+1,sprintf@f+1
   858  003D24                     
   859                           ; BSR set to: 5
   860  003D24  0E00               	movlw	0
   861  003D26  6F9F               	movwf	(sprintf@f+3)& (0+255),b
   862  003D28  0E00               	movlw	0
   863  003D2A  6F9E               	movwf	(sprintf@f+2)& (0+255),b
   864  003D2C                     
   865                           ; BSR set to: 5
   866  003D2C  0E00               	movlw	0
   867  003D2E  6FA1               	movwf	(sprintf@f+5)& (0+255),b
   868  003D30  0E00               	movlw	0
   869  003D32  6FA0               	movwf	(sprintf@f+4)& (0+255),b
   870  003D34                     
   871                           ; BSR set to: 5
   872  003D34  0E9C               	movlw	low sprintf@f
   873  003D36  6E52               	movwf	vfprintf@fp^(0+1280),c
   874  003D38  0E05               	movlw	high sprintf@f
   875  003D3A  6E53               	movwf	(vfprintf@fp+1)^(0+1280),c
   876  003D3C  C55C  F554         	movff	sprintf@fmt,vfprintf@fmt
   877  003D40  C55D  F555         	movff	sprintf@fmt+1,vfprintf@fmt+1
   878  003D44  0E9A               	movlw	low sprintf@ap
   879  003D46  6E56               	movwf	vfprintf@ap^(0+1280),c
   880  003D48  0E05               	movlw	high sprintf@ap
   881  003D4A  6E57               	movwf	(vfprintf@ap+1)^(0+1280),c
   882  003D4C  EC54  F01E         	call	_vfprintf	;wreg free
   883  003D50  0105               	movlb	5	; () banked
   884  003D52  519E               	movf	(sprintf@f+2)& (0+255),w,b
   885  003D54  245A               	addwf	sprintf@s^(0+1280),w,c
   886  003D56  6ED9               	movwf	fsr2l,c
   887  003D58  519F               	movf	(sprintf@f+3)& (0+255),w,b
   888  003D5A  205B               	addwfc	(sprintf@s+1)^(0+1280),w,c
   889  003D5C  6EDA               	movwf	fsr2h,c
   890  003D5E  0E00               	movlw	0
   891  003D60  6EDF               	movwf	indf2,c
   892  003D62                     
   893                           ; BSR set to: 5
   894  003D62  0012               	return		;funcret
   895  003D64                     __end_of_sprintf:
   896                           	callstack 0
   897                           
   898 ;; *************** function _vfprintf *****************
   899 ;; Defined at:
   900 ;;		line 1390 in file "C:\Program Files\Microchip\xc8\v2.32\pic\sources\c99\common\doprnt.c"
   901 ;; Parameters:    Size  Location     Type
   902 ;;  fp              2   81[COMRAM] PTR struct _IO_FILE
   903 ;;		 -> sprintf@f(6), 
   904 ;;  fmt             2   83[COMRAM] PTR const unsigned char 
   905 ;;		 -> STR_2(9), 
   906 ;;  ap              2   85[COMRAM] PTR PTR void 
   907 ;;		 -> sprintf@ap(2), 
   908 ;; Auto vars:     Size  Location     Type
   909 ;;  cfmt            2   87[COMRAM] PTR unsigned char 
   910 ;;		 -> STR_2(9), 
   911 ;; Return value:  Size  Location     Type
   912 ;;                  2   81[COMRAM] int 
   913 ;; Registers used:
   914 ;;		wreg, fsr1l, fsr1h, fsr2l, fsr2h, status,2, status,0, tblptrl, tblptrh, tblptru, prodl, prodh, cstack
   915 ;; Tracked objects:
   916 ;;		On entry : 0/0
   917 ;;		On exit  : 0/0
   918 ;;		Unchanged: 0/0
   919 ;; Data sizes:     COMRAM   BANK5   BANK6   BANK7   BANK8   BANK9  BANK10  BANK11  BANK12  BANK13  BANK14  BANK15  BANK1
      +6  BANK17  BANK18  BANK19  BANK20  BANK21  BANK22  BANK23  BANK24  BANK25  BANK26  BANK27  BANK28  BANK29  BANK30  BANK3
      +1  BANK32  BANK33  BANK34  BANK35  BANK36
   920 ;;      Params:         6       0       0       0       0       0       0       0       0       0       0       0       
      +0       0       0       0       0       0       0       0       0       0       0       0       0       0       0       
      +0       0       0       0       0       0
   921 ;;      Locals:         2       0       0       0       0       0       0       0       0       0       0       0       
      +0       0       0       0       0       0       0       0       0       0       0       0       0       0       0       
      +0       0       0       0       0       0
   922 ;;      Temps:          0       0       0       0       0       0       0       0       0       0       0       0       
      +0       0       0       0       0       0       0       0       0       0       0       0       0       0       0       
      +0       0       0       0       0       0
   923 ;;      Totals:         8       0       0       0       0       0       0       0       0       0       0       0       
      +0       0       0       0       0       0       0       0       0       0       0       0       0       0       0       
      +0       0       0       0       0       0
   924 ;;Total ram usage:        8 bytes
   925 ;; Hardware stack levels used: 1
   926 ;; Hardware stack levels required when called: 7
   927 ;; This function calls:
   928 ;;		_vfpfcnvrt
   929 ;; This function is called by:
   930 ;;		_sprintf
   931 ;; This function uses a non-reentrant model
   932 ;;
   933                           
   934                           	psect	text2
   935  003CA8                     __ptext2:
   936                           	callstack 0
   937  003CA8                     _vfprintf:
   938                           	callstack 118
   939  003CA8                     
   940                           ;C:\Program Files\Microchip\xc8\v2.32\pic\sources\c99\common\doprnt.c: 1390: int vfprint
      +                          f(FILE *fp, const char *fmt, va_list ap);C:\Program Files\Microchip\xc8\v2.32\pic\source
      +                          s\c99\common\doprnt.c: 1391: {;C:\Program Files\Microchip\xc8\v2.32\pic\sources\c99\comm
      +                          on\doprnt.c: 1393:     char *cfmt;;C:\Program Files\Microchip\xc8\v2.32\pic\sources\c99\
      +                          common\doprnt.c: 1395:     cfmt = (char *)fmt;
   941  003CA8  C554  F558         	movff	vfprintf@fmt,vfprintf@cfmt
   942  003CAC  C555  F559         	movff	vfprintf@fmt+1,vfprintf@cfmt+1
   943  003CB0                     
   944                           ;C:\Program Files\Microchip\xc8\v2.32\pic\sources\c99\common\doprnt.c: 1396:     nout = 
      +                          0;
   945  003CB0  0E00               	movlw	0
   946  003CB2  0105               	movlb	5	; () banked
   947  003CB4  6F61               	movwf	(_nout+1)& (0+255),b
   948  003CB6  0E00               	movlw	0
   949  003CB8  6F60               	movwf	_nout& (0+255),b
   950                           
   951                           ;C:\Program Files\Microchip\xc8\v2.32\pic\sources\c99\common\doprnt.c: 1397:     while (
      +                          *cfmt) {
   952  003CBA  EF72  F01E         	goto	l2305
   953  003CBE                     l2303:
   954                           
   955                           ; BSR set to: 5
   956                           ;C:\Program Files\Microchip\xc8\v2.32\pic\sources\c99\common\doprnt.c: 1398:         nou
      +                          t += vfpfcnvrt(fp, &cfmt, ap);
   957  003CBE  C552  F53C         	movff	vfprintf@fp,vfpfcnvrt@fp
   958  003CC2  C553  F53D         	movff	vfprintf@fp+1,vfpfcnvrt@fp+1
   959  003CC6  0E58               	movlw	low vfprintf@cfmt
   960  003CC8  6E3E               	movwf	vfpfcnvrt@fmt^(0+1280),c
   961  003CCA  0E05               	movlw	high vfprintf@cfmt
   962  003CCC  6E3F               	movwf	(vfpfcnvrt@fmt+1)^(0+1280),c
   963  003CCE  C556  F540         	movff	vfprintf@ap,vfpfcnvrt@ap
   964  003CD2  C557  F541         	movff	vfprintf@ap+1,vfpfcnvrt@ap+1
   965  003CD6  ECB3  F014         	call	_vfpfcnvrt	;wreg free
   966  003CDA  503C               	movf	?_vfpfcnvrt^(0+1280),w,c
   967  003CDC  0105               	movlb	5	; () banked
   968  003CDE  2760               	addwf	_nout& (0+255),f,b
   969  003CE0  503D               	movf	(?_vfpfcnvrt+1)^(0+1280),w,c
   970  003CE2  2361               	addwfc	(_nout+1)& (0+255),f,b
   971  003CE4                     l2305:
   972                           
   973                           ; BSR set to: 5
   974                           ;C:\Program Files\Microchip\xc8\v2.32\pic\sources\c99\common\doprnt.c: 1397:     while (
      +                          *cfmt) {
   975  003CE4  0061  F560  F4F6   	movff	vfprintf@cfmt,tblptrl
   976  003CEA  0061  F564  F4F7   	movff	vfprintf@cfmt+1,tblptrh
   977  003CF0                     	if	0	;tblptru may be non-zero
   978  003CF0                     	endif
   979  003CF0                     	if	1	;Program memory is > 0xFFFF, there are 3 active tblptr bytes
   980  003CF0  0E00               	movlw	low (__mediumconst shr (0+16))
   981  003CF2  6EF8               	movwf	tblptru,c
   982  003CF4                     	endif
   983  003CF4  0008               	tblrd		*
   984  003CF6  50F5               	movf	tablat,w,c
   985  003CF8  0900               	iorlw	0
   986  003CFA  A4D8               	btfss	status,2,c
   987  003CFC  EF82  F01E         	goto	u1591
   988  003D00  EF84  F01E         	goto	u1590
   989  003D04                     u1591:
   990  003D04  EF5F  F01E         	goto	l2303
   991  003D08                     u1590:
   992  003D08                     
   993                           ; BSR set to: 5
   994                           ;C:\Program Files\Microchip\xc8\v2.32\pic\sources\c99\common\doprnt.c: 1400:     return 
      +                          nout;
   995  003D08  C560  F552         	movff	_nout,?_vfprintf
   996  003D0C  C561  F553         	movff	_nout+1,?_vfprintf+1
   997  003D10                     
   998                           ; BSR set to: 5
   999  003D10  0012               	return		;funcret
  1000  003D12                     __end_of_vfprintf:
  1001                           	callstack 0
  1002                           
  1003 ;; *************** function _vfpfcnvrt *****************
  1004 ;; Defined at:
  1005 ;;		line 692 in file "C:\Program Files\Microchip\xc8\v2.32\pic\sources\c99\common\doprnt.c"
  1006 ;; Parameters:    Size  Location     Type
  1007 ;;  fp              2   59[COMRAM] PTR struct _IO_FILE
  1008 ;;		 -> sprintf@f(6), 
  1009 ;;  fmt             2   61[COMRAM] PTR PTR unsigned char 
  1010 ;;		 -> vfprintf@cfmt(2), 
  1011 ;;  ap              2   63[COMRAM] PTR PTR void 
  1012 ;;		 -> sprintf@ap(2), 
  1013 ;; Auto vars:     Size  Location     Type
  1014 ;;  llu             8   69[COMRAM] unsigned long long 
  1015 ;;  ll              8    0        long long 
  1016 ;;  f               4    0        long long 
  1017 ;;  vp              3    0        PTR void 
  1018 ;;  ct              3    0        unsigned char [3]
  1019 ;;  cp              3    0        PTR unsigned char 
  1020 ;;  done            2   77[COMRAM] int 
  1021 ;;  i               2    0        int 
  1022 ;;  c               1    0        unsigned char 
  1023 ;; Return value:  Size  Location     Type
  1024 ;;                  2   59[COMRAM] int 
  1025 ;; Registers used:
  1026 ;;		wreg, fsr1l, fsr1h, fsr2l, fsr2h, status,2, status,0, tblptrl, tblptrh, tblptru, prodl, prodh, cstack
  1027 ;; Tracked objects:
  1028 ;;		On entry : 0/0
  1029 ;;		On exit  : 0/0
  1030 ;;		Unchanged: 0/0
  1031 ;; Data sizes:     COMRAM   BANK5   BANK6   BANK7   BANK8   BANK9  BANK10  BANK11  BANK12  BANK13  BANK14  BANK15  BANK1
      +6  BANK17  BANK18  BANK19  BANK20  BANK21  BANK22  BANK23  BANK24  BANK25  BANK26  BANK27  BANK28  BANK29  BANK30  BANK3
      +1  BANK32  BANK33  BANK34  BANK35  BANK36
  1032 ;;      Params:         6       0       0       0       0       0       0       0       0       0       0       0       
      +0       0       0       0       0       0       0       0       0       0       0       0       0       0       0       
      +0       0       0       0       0       0
  1033 ;;      Locals:        12       0       0       0       0       0       0       0       0       0       0       0       
      +0       0       0       0       0       0       0       0       0       0       0       0       0       0       0       
      +0       0       0       0       0       0
  1034 ;;      Temps:          4       0       0       0       0       0       0       0       0       0       0       0       
      +0       0       0       0       0       0       0       0       0       0       0       0       0       0       0       
      +0       0       0       0       0       0
  1035 ;;      Totals:        22       0       0       0       0       0       0       0       0       0       0       0       
      +0       0       0       0       0       0       0       0       0       0       0       0       0       0       0       
      +0       0       0       0       0       0
  1036 ;;Total ram usage:       22 bytes
  1037 ;; Hardware stack levels used: 1
  1038 ;; Hardware stack levels required when called: 6
  1039 ;; This function calls:
  1040 ;;		_atoi
  1041 ;;		_fputc
  1042 ;;		_isdigit
  1043 ;;		_utoa
  1044 ;; This function is called by:
  1045 ;;		_vfprintf
  1046 ;; This function uses a non-reentrant model
  1047 ;;
  1048                           
  1049                           	psect	text3
  1050  002966                     __ptext3:
  1051                           	callstack 0
  1052  002966                     _vfpfcnvrt:
  1053                           	callstack 118
  1054  002966                     
  1055                           ;C:\Program Files\Microchip\xc8\v2.32\pic\sources\c99\common\doprnt.c: 692: static int v
      +                          fpfcnvrt(FILE *fp, char *fmt[], va_list ap);C:\Program Files\Microchip\xc8\v2.32\pic\sou
      +                          rces\c99\common\doprnt.c: 693: {;C:\Program Files\Microchip\xc8\v2.32\pic\sources\c99\co
      +                          mmon\doprnt.c: 694:     char c, *cp, ct[3];;C:\Program Files\Microchip\xc8\v2.32\pic\sou
      +                          rces\c99\common\doprnt.c: 695:     int done, i;;C:\Program Files\Microchip\xc8\v2.32\pic
      +                          \sources\c99\common\doprnt.c: 696:     long long ll;;C:\Program Files\Microchip\xc8\v2.3
      +                          2\pic\sources\c99\common\doprnt.c: 697:     unsigned long long llu;
  1056  002966  0061  F4F8  F4D9   	movff	vfpfcnvrt@fmt,fsr2l
  1057  00296C  0061  F4FC  F4DA   	movff	vfpfcnvrt@fmt+1,fsr2h
  1058  002972  C4DE F4F6          	movff	postinc2,tblptrl
  1059  002976  C4DD F4F7          	movff	postdec2,tblptrh
  1060  00297A                     	if	0	;tblptru may be non-zero
  1061  00297A                     	endif
  1062  00297A                     	if	1	;Program memory is > 0xFFFF, there are 3 active tblptr bytes
  1063  00297A  0E00               	movlw	low (__mediumconst shr (0+16))
  1064  00297C  6EF8               	movwf	tblptru,c
  1065  00297E                     	endif
  1066  00297E  0008               	tblrd		*
  1067  002980  50F5               	movf	tablat,w,c
  1068  002982  0A25               	xorlw	37
  1069  002984  A4D8               	btfss	status,2,c
  1070  002986  EFC7  F014         	goto	u1491
  1071  00298A  EFC9  F014         	goto	u1490
  1072  00298E                     u1491:
  1073  00298E  EF7B  F016         	goto	l2195
  1074  002992                     u1490:
  1075  002992                     
  1076                           ;C:\Program Files\Microchip\xc8\v2.32\pic\sources\c99\common\doprnt.c: 703:         ++*f
      +                          mt;
  1077  002992  0061  F4F8  F4D9   	movff	vfpfcnvrt@fmt,fsr2l
  1078  002998  0061  F4FC  F4DA   	movff	vfpfcnvrt@fmt+1,fsr2h
  1079  00299E  2ADE               	incf	postinc2,f,c
  1080  0029A0  0E00               	movlw	0
  1081  0029A2  22DD               	addwfc	postdec2,f,c
  1082  0029A4                     
  1083                           ;C:\Program Files\Microchip\xc8\v2.32\pic\sources\c99\common\doprnt.c: 705:         flag
      +                          s = width = 0;
  1084  0029A4  0E00               	movlw	0
  1085  0029A6  0105               	movlb	5	; () banked
  1086  0029A8  6F63               	movwf	(_width+1)& (0+255),b
  1087  0029AA  0E00               	movlw	0
  1088  0029AC  6F62               	movwf	_width& (0+255),b
  1089  0029AE  C562  F566         	movff	_width,_flags
  1090  0029B2  C563  F567         	movff	_width+1,_flags+1
  1091  0029B6                     
  1092                           ; BSR set to: 5
  1093                           ;C:\Program Files\Microchip\xc8\v2.32\pic\sources\c99\common\doprnt.c: 706:         prec
      +                           = -1;
  1094  0029B6  6964               	setf	_prec& (0+255),b
  1095  0029B8  6965               	setf	(_prec+1)& (0+255),b
  1096  0029BA                     
  1097                           ; BSR set to: 5
  1098                           ;C:\Program Files\Microchip\xc8\v2.32\pic\sources\c99\common\doprnt.c: 710:         done
      +                           = 0;
  1099  0029BA  0E00               	movlw	0
  1100  0029BC  6E4F               	movwf	(vfpfcnvrt@done+1)^(0+1280),c
  1101  0029BE  0E00               	movlw	0
  1102  0029C0  6E4E               	movwf	vfpfcnvrt@done^(0+1280),c
  1103                           
  1104                           ;C:\Program Files\Microchip\xc8\v2.32\pic\sources\c99\common\doprnt.c: 711:         whil
      +                          e (!done) {
  1105  0029C2  EF34  F015         	goto	l2149
  1106  0029C6                     l2123:
  1107                           
  1108                           ;C:\Program Files\Microchip\xc8\v2.32\pic\sources\c99\common\doprnt.c: 714:             
      +                                  flags |= (1 << 0);
  1109  0029C6  0105               	movlb	5	; () banked
  1110  0029C8  8166               	bsf	_flags& (0+255),0,b
  1111  0029CA                     l2125:
  1112                           
  1113                           ; BSR set to: 5
  1114                           ;C:\Program Files\Microchip\xc8\v2.32\pic\sources\c99\common\doprnt.c: 715:             
      +                                  ++*fmt;
  1115  0029CA  0061  F4F8  F4D9   	movff	vfpfcnvrt@fmt,fsr2l
  1116  0029D0  0061  F4FC  F4DA   	movff	vfpfcnvrt@fmt+1,fsr2h
  1117  0029D6  2ADE               	incf	postinc2,f,c
  1118  0029D8  0E00               	movlw	0
  1119  0029DA  22DD               	addwfc	postdec2,f,c
  1120                           
  1121                           ;C:\Program Files\Microchip\xc8\v2.32\pic\sources\c99\common\doprnt.c: 716:             
      +                                  break;
  1122  0029DC  EF34  F015         	goto	l2149
  1123  0029E0                     l2127:
  1124                           
  1125                           ;C:\Program Files\Microchip\xc8\v2.32\pic\sources\c99\common\doprnt.c: 718:             
      +                                  flags |= (1 << 1);
  1126  0029E0  0105               	movlb	5	; () banked
  1127  0029E2  8366               	bsf	_flags& (0+255),1,b
  1128  0029E4  EFE5  F014         	goto	l2125
  1129  0029E8                     l2131:
  1130                           
  1131                           ;C:\Program Files\Microchip\xc8\v2.32\pic\sources\c99\common\doprnt.c: 722:             
      +                                  flags |= (1 << 2);
  1132  0029E8  0105               	movlb	5	; () banked
  1133  0029EA  8566               	bsf	_flags& (0+255),2,b
  1134  0029EC  EFE5  F014         	goto	l2125
  1135  0029F0                     l2135:
  1136                           
  1137                           ;C:\Program Files\Microchip\xc8\v2.32\pic\sources\c99\common\doprnt.c: 726:             
      +                                  flags |= (1 << 3);
  1138  0029F0  0105               	movlb	5	; () banked
  1139  0029F2  8766               	bsf	_flags& (0+255),3,b
  1140  0029F4  EFE5  F014         	goto	l2125
  1141  0029F8                     l2139:
  1142                           
  1143                           ;C:\Program Files\Microchip\xc8\v2.32\pic\sources\c99\common\doprnt.c: 730:             
      +                                  flags |= (1 << 4);
  1144  0029F8  0105               	movlb	5	; () banked
  1145  0029FA  8966               	bsf	_flags& (0+255),4,b
  1146  0029FC  EFE5  F014         	goto	l2125
  1147  002A00                     l2143:
  1148                           
  1149                           ;C:\Program Files\Microchip\xc8\v2.32\pic\sources\c99\common\doprnt.c: 734:             
      +                                  done = 1;
  1150  002A00  0E00               	movlw	0
  1151  002A02  6E4F               	movwf	(vfpfcnvrt@done+1)^(0+1280),c
  1152  002A04  0E01               	movlw	1
  1153  002A06  6E4E               	movwf	vfpfcnvrt@done^(0+1280),c
  1154                           
  1155                           ;C:\Program Files\Microchip\xc8\v2.32\pic\sources\c99\common\doprnt.c: 735:             
      +                                  break;
  1156  002A08  EF34  F015         	goto	l2149
  1157  002A0C                     l2147:
  1158  002A0C  0061  F4F8  F4D9   	movff	vfpfcnvrt@fmt,fsr2l
  1159  002A12  0061  F4FC  F4DA   	movff	vfpfcnvrt@fmt+1,fsr2h
  1160  002A18  C4DE F4F6          	movff	postinc2,tblptrl
  1161  002A1C  C4DD F4F7          	movff	postdec2,tblptrh
  1162  002A20                     	if	0	;tblptru may be non-zero
  1163  002A20                     	endif
  1164  002A20                     	if	1	;Program memory is > 0xFFFF, there are 3 active tblptr bytes
  1165  002A20  0E00               	movlw	low (__mediumconst shr (0+16))
  1166  002A22  6EF8               	movwf	tblptru,c
  1167  002A24                     	endif
  1168  002A24  0008               	tblrd		*
  1169  002A26  50F5               	movf	tablat,w,c
  1170  002A28  6E42               	movwf	??_vfpfcnvrt^(0+1280),c
  1171  002A2A  6A43               	clrf	(??_vfpfcnvrt+1)^(0+1280),c
  1172                           
  1173                           ; Switch on 2 bytes has been partitioned into a top level switch of size 1, and 1 sub-sw
      +                          itches
  1174                           ; Switch size 1, requested type "simple"
  1175                           ; Number of cases is 1, Range of values is 0 to 0
  1176                           ; switch strategies available:
  1177                           ; Name         Instructions Cycles
  1178                           ; simple_byte            4     3 (average)
  1179                           ;	Chosen strategy is simple_byte
  1180  002A2C  5043               	movf	(??_vfpfcnvrt+1)^(0+1280),w,c
  1181  002A2E  0A00               	xorlw	0	; case 0
  1182  002A30  B4D8               	btfsc	status,2,c
  1183  002A32  EF1D  F015         	goto	l2805
  1184  002A36  EF00  F015         	goto	l2143
  1185  002A3A                     l2805:
  1186                           
  1187                           ; Switch size 1, requested type "simple"
  1188                           ; Number of cases is 5, Range of values is 32 to 48
  1189                           ; switch strategies available:
  1190                           ; Name         Instructions Cycles
  1191                           ; simple_byte           16     9 (average)
  1192                           ;	Chosen strategy is simple_byte
  1193  002A3A  5042               	movf	??_vfpfcnvrt^(0+1280),w,c
  1194  002A3C  0A20               	xorlw	32	; case 32
  1195  002A3E  B4D8               	btfsc	status,2,c
  1196  002A40  EFF8  F014         	goto	l2135
  1197  002A44  0A03               	xorlw	3	; case 35
  1198  002A46  B4D8               	btfsc	status,2,c
  1199  002A48  EFFC  F014         	goto	l2139
  1200  002A4C  0A08               	xorlw	8	; case 43
  1201  002A4E  B4D8               	btfsc	status,2,c
  1202  002A50  EFF4  F014         	goto	l2131
  1203  002A54  0A06               	xorlw	6	; case 45
  1204  002A56  B4D8               	btfsc	status,2,c
  1205  002A58  EFE3  F014         	goto	l2123
  1206  002A5C  0A1D               	xorlw	29	; case 48
  1207  002A5E  B4D8               	btfsc	status,2,c
  1208  002A60  EFF0  F014         	goto	l2127
  1209  002A64  EF00  F015         	goto	l2143
  1210  002A68                     l2149:
  1211                           
  1212                           ;C:\Program Files\Microchip\xc8\v2.32\pic\sources\c99\common\doprnt.c: 711:         whil
      +                          e (!done) {
  1213  002A68  504E               	movf	vfpfcnvrt@done^(0+1280),w,c
  1214  002A6A  104F               	iorwf	(vfpfcnvrt@done+1)^(0+1280),w,c
  1215  002A6C  B4D8               	btfsc	status,2,c
  1216  002A6E  EF3B  F015         	goto	u1501
  1217  002A72  EF3D  F015         	goto	u1500
  1218  002A76                     u1501:
  1219  002A76  EF06  F015         	goto	l2147
  1220  002A7A                     u1500:
  1221  002A7A                     
  1222                           ;C:\Program Files\Microchip\xc8\v2.32\pic\sources\c99\common\doprnt.c: 738:         if (
      +                          flags & (1 << 0)) {
  1223  002A7A  0105               	movlb	5	; () banked
  1224  002A7C  A166               	btfss	_flags& (0+255),0,b
  1225  002A7E  EF43  F015         	goto	u1511
  1226  002A82  EF45  F015         	goto	u1510
  1227  002A86                     u1511:
  1228  002A86  EF46  F015         	goto	l2153
  1229  002A8A                     u1510:
  1230  002A8A                     
  1231                           ; BSR set to: 5
  1232                           ;C:\Program Files\Microchip\xc8\v2.32\pic\sources\c99\common\doprnt.c: 739:             
      +                          flags &= ~(1 << 1);
  1233  002A8A  9366               	bcf	_flags& (0+255),1,b
  1234  002A8C                     l2153:
  1235                           
  1236                           ; BSR set to: 5
  1237                           ;C:\Program Files\Microchip\xc8\v2.32\pic\sources\c99\common\doprnt.c: 745:         if (
      +                          (*fmt)[0] == '*') {
  1238  002A8C  0061  F4F8  F4D9   	movff	vfpfcnvrt@fmt,fsr2l
  1239  002A92  0061  F4FC  F4DA   	movff	vfpfcnvrt@fmt+1,fsr2h
  1240  002A98  C4DE F4F6          	movff	postinc2,tblptrl
  1241  002A9C  C4DD F4F7          	movff	postdec2,tblptrh
  1242  002AA0                     	if	0	;tblptru may be non-zero
  1243  002AA0                     	endif
  1244  002AA0                     	if	1	;Program memory is > 0xFFFF, there are 3 active tblptr bytes
  1245  002AA0  0E00               	movlw	low (__mediumconst shr (0+16))
  1246  002AA2  6EF8               	movwf	tblptru,c
  1247  002AA4                     	endif
  1248  002AA4  0008               	tblrd		*
  1249  002AA6  50F5               	movf	tablat,w,c
  1250  002AA8  0A2A               	xorlw	42
  1251  002AAA  A4D8               	btfss	status,2,c
  1252  002AAC  EF5A  F015         	goto	u1521
  1253  002AB0  EF5C  F015         	goto	u1520
  1254  002AB4                     u1521:
  1255  002AB4  EF8F  F015         	goto	l2161
  1256  002AB8                     u1520:
  1257  002AB8                     
  1258                           ; BSR set to: 5
  1259                           ;C:\Program Files\Microchip\xc8\v2.32\pic\sources\c99\common\doprnt.c: 746:             
      +                          ++*fmt;
  1260  002AB8  0061  F4F8  F4D9   	movff	vfpfcnvrt@fmt,fsr2l
  1261  002ABE  0061  F4FC  F4DA   	movff	vfpfcnvrt@fmt+1,fsr2h
  1262  002AC4  2ADE               	incf	postinc2,f,c
  1263  002AC6  0E00               	movlw	0
  1264  002AC8  22DD               	addwfc	postdec2,f,c
  1265                           
  1266                           ;C:\Program Files\Microchip\xc8\v2.32\pic\sources\c99\common\doprnt.c: 747:             
      +                          width = (*(int *)__va_arg(*(int **)ap, (int)0));
  1267  002ACA  0061  F500  F4D9   	movff	vfpfcnvrt@ap,fsr2l
  1268  002AD0  0061  F504  F4DA   	movff	vfpfcnvrt@ap+1,fsr2h
  1269  002AD6  0061 F37C  F542    	movff	indf2,??_vfpfcnvrt
  1270  002ADC  0E02               	movlw	2
  1271  002ADE  26DE               	addwf	postinc2,f,c
  1272  002AE0  0061 F37C  F543    	movff	indf2,??_vfpfcnvrt+1
  1273  002AE6  0E00               	movlw	0
  1274  002AE8  22DD               	addwfc	postdec2,f,c
  1275  002AEA  0061  F508  F4D9   	movff	??_vfpfcnvrt,fsr2l
  1276  002AF0  0061  F50C  F4DA   	movff	??_vfpfcnvrt+1,fsr2h
  1277  002AF6  0061 F378  F562    	movff	postinc2,_width
  1278  002AFC  0061 F374  F563    	movff	postdec2,_width+1
  1279  002B02                     
  1280                           ; BSR set to: 5
  1281                           ;C:\Program Files\Microchip\xc8\v2.32\pic\sources\c99\common\doprnt.c: 748:             
      +                          if (width < 0) {
  1282  002B02  BF63               	btfsc	(_width+1)& (0+255),7,b
  1283  002B04  EF88  F015         	goto	u1530
  1284  002B08  EF86  F015         	goto	u1531
  1285  002B0C                     u1531:
  1286  002B0C  EFDC  F015         	goto	l2171
  1287  002B10                     u1530:
  1288  002B10                     
  1289                           ; BSR set to: 5
  1290                           ;C:\Program Files\Microchip\xc8\v2.32\pic\sources\c99\common\doprnt.c: 749:             
      +                              flags |= (1 << 0);
  1291  002B10  8166               	bsf	_flags& (0+255),0,b
  1292                           
  1293                           ;C:\Program Files\Microchip\xc8\v2.32\pic\sources\c99\common\doprnt.c: 750:             
      +                              width = -width;
  1294  002B12  6D62               	negf	_width& (0+255),b
  1295  002B14  1F63               	comf	(_width+1)& (0+255),f,b
  1296  002B16  B0D8               	btfsc	status,0,c
  1297  002B18  2B63               	incf	(_width+1)& (0+255),f,b
  1298  002B1A  EFDC  F015         	goto	l2171
  1299  002B1E                     l2161:
  1300                           
  1301                           ; BSR set to: 5
  1302                           ;C:\Program Files\Microchip\xc8\v2.32\pic\sources\c99\common\doprnt.c: 753:             
      +                          width = atoi(*fmt);
  1303  002B1E  0061  F4F8  F4D9   	movff	vfpfcnvrt@fmt,fsr2l
  1304  002B24  0061  F4FC  F4DA   	movff	vfpfcnvrt@fmt+1,fsr2h
  1305  002B2A  0061 F378  F508    	movff	postinc2,atoi@s
  1306  002B30  0061 F374  F509    	movff	postdec2,atoi@s+1
  1307  002B36  EC6B  F019         	call	_atoi	;wreg free
  1308  002B3A  C508  F562         	movff	?_atoi,_width
  1309  002B3E  C509  F563         	movff	?_atoi+1,_width+1
  1310                           
  1311                           ;C:\Program Files\Microchip\xc8\v2.32\pic\sources\c99\common\doprnt.c: 754:             
      +                          while ((0 ? isdigit((*fmt)[0]) : ((unsigned)((*fmt)[0])-'0') < 10)) {
  1312  002B42  EFAC  F015         	goto	l2165
  1313  002B46                     l2163:
  1314                           
  1315                           ;C:\Program Files\Microchip\xc8\v2.32\pic\sources\c99\common\doprnt.c: 755:             
      +                              ++*fmt;
  1316  002B46  0061  F4F8  F4D9   	movff	vfpfcnvrt@fmt,fsr2l
  1317  002B4C  0061  F4FC  F4DA   	movff	vfpfcnvrt@fmt+1,fsr2h
  1318  002B52  2ADE               	incf	postinc2,f,c
  1319  002B54  0E00               	movlw	0
  1320  002B56  22DD               	addwfc	postdec2,f,c
  1321  002B58                     l2165:
  1322  002B58  0ED0               	movlw	208
  1323  002B5A  6E42               	movwf	??_vfpfcnvrt^(0+1280),c
  1324  002B5C  0EFF               	movlw	255
  1325  002B5E  6E43               	movwf	(??_vfpfcnvrt+1)^(0+1280),c
  1326  002B60  0061  F4F8  F4D9   	movff	vfpfcnvrt@fmt,fsr2l
  1327  002B66  0061  F4FC  F4DA   	movff	vfpfcnvrt@fmt+1,fsr2h
  1328  002B6C  C4DE F4F6          	movff	postinc2,tblptrl
  1329  002B70  C4DD F4F7          	movff	postdec2,tblptrh
  1330  002B74                     	if	0	;tblptru may be non-zero
  1331  002B74                     	endif
  1332  002B74                     	if	1	;Program memory is > 0xFFFF, there are 3 active tblptr bytes
  1333  002B74  0E00               	movlw	low (__mediumconst shr (0+16))
  1334  002B76  6EF8               	movwf	tblptru,c
  1335  002B78                     	endif
  1336  002B78  0008               	tblrd		*
  1337  002B7A  50F5               	movf	tablat,w,c
  1338  002B7C  6E44               	movwf	(??_vfpfcnvrt+2)^(0+1280),c
  1339  002B7E  6A45               	clrf	(??_vfpfcnvrt+3)^(0+1280),c
  1340  002B80  5042               	movf	??_vfpfcnvrt^(0+1280),w,c
  1341  002B82  2644               	addwf	(??_vfpfcnvrt+2)^(0+1280),f,c
  1342  002B84  5043               	movf	(??_vfpfcnvrt+1)^(0+1280),w,c
  1343  002B86  2245               	addwfc	(??_vfpfcnvrt+3)^(0+1280),f,c
  1344  002B88  5045               	movf	(??_vfpfcnvrt+3)^(0+1280),w,c
  1345  002B8A  E10A               	bnz	u1540
  1346  002B8C  0E0A               	movlw	10
  1347  002B8E  5C44               	subwf	(??_vfpfcnvrt+2)^(0+1280),w,c
  1348  002B90  A0D8               	btfss	status,0,c
  1349  002B92  EFCD  F015         	goto	u1541
  1350  002B96  EFD0  F015         	goto	u1540
  1351  002B9A                     u1541:
  1352  002B9A  0E01               	movlw	1
  1353  002B9C  EFD1  F015         	goto	u1550
  1354  002BA0                     u1540:
  1355  002BA0  0E00               	movlw	0
  1356  002BA2                     u1550:
  1357  002BA2  6E50               	movwf	_vfpfcnvrt$853^(0+1280),c
  1358  002BA4  6A51               	clrf	(_vfpfcnvrt$853+1)^(0+1280),c
  1359  002BA6  5050               	movf	_vfpfcnvrt$853^(0+1280),w,c
  1360  002BA8  1051               	iorwf	(_vfpfcnvrt$853+1)^(0+1280),w,c
  1361  002BAA  A4D8               	btfss	status,2,c
  1362  002BAC  EFDA  F015         	goto	u1561
  1363  002BB0  EFDC  F015         	goto	u1560
  1364  002BB4                     u1561:
  1365  002BB4  EFA3  F015         	goto	l2163
  1366  002BB8                     u1560:
  1367  002BB8                     l2171:
  1368                           
  1369                           ;C:\Program Files\Microchip\xc8\v2.32\pic\sources\c99\common\doprnt.c: 1204:         if 
      +                          (*fmt[0] == 'u') {
  1370  002BB8  0061  F4F8  F4D9   	movff	vfpfcnvrt@fmt,fsr2l
  1371  002BBE  0061  F4FC  F4DA   	movff	vfpfcnvrt@fmt+1,fsr2h
  1372  002BC4  C4DE F4F6          	movff	postinc2,tblptrl
  1373  002BC8  C4DD F4F7          	movff	postdec2,tblptrh
  1374  002BCC                     	if	0	;tblptru may be non-zero
  1375  002BCC                     	endif
  1376  002BCC                     	if	1	;Program memory is > 0xFFFF, there are 3 active tblptr bytes
  1377  002BCC  0E00               	movlw	low (__mediumconst shr (0+16))
  1378  002BCE  6EF8               	movwf	tblptru,c
  1379  002BD0                     	endif
  1380  002BD0  0008               	tblrd		*
  1381  002BD2  50F5               	movf	tablat,w,c
  1382  002BD4  0A75               	xorlw	117
  1383  002BD6  A4D8               	btfss	status,2,c
  1384  002BD8  EFF0  F015         	goto	u1571
  1385  002BDC  EFF2  F015         	goto	u1570
  1386  002BE0                     u1571:
  1387  002BE0  EF3D  F016         	goto	l2179
  1388  002BE4                     u1570:
  1389  002BE4                     
  1390                           ;C:\Program Files\Microchip\xc8\v2.32\pic\sources\c99\common\doprnt.c: 1206:            
      +                           ++*fmt;
  1391  002BE4  0061  F4F8  F4D9   	movff	vfpfcnvrt@fmt,fsr2l
  1392  002BEA  0061  F4FC  F4DA   	movff	vfpfcnvrt@fmt+1,fsr2h
  1393  002BF0  2ADE               	incf	postinc2,f,c
  1394  002BF2  0E00               	movlw	0
  1395  002BF4  22DD               	addwfc	postdec2,f,c
  1396                           
  1397                           ;C:\Program Files\Microchip\xc8\v2.32\pic\sources\c99\common\doprnt.c: 1207:            
      +                           llu = (unsigned long long)(*(unsigned int *)__va_arg(*(unsigned int **)ap, (unsigned in
      +                          t)0));
  1398  002BF6  0061  F500  F4D9   	movff	vfpfcnvrt@ap,fsr2l
  1399  002BFC  0061  F504  F4DA   	movff	vfpfcnvrt@ap+1,fsr2h
  1400  002C02  0061 F37C  F542    	movff	indf2,??_vfpfcnvrt
  1401  002C08  0E02               	movlw	2
  1402  002C0A  26DE               	addwf	postinc2,f,c
  1403  002C0C  0061 F37C  F543    	movff	indf2,??_vfpfcnvrt+1
  1404  002C12  0E00               	movlw	0
  1405  002C14  22DD               	addwfc	postdec2,f,c
  1406  002C16  0061  F508  F4D9   	movff	??_vfpfcnvrt,fsr2l
  1407  002C1C  0061  F50C  F4DA   	movff	??_vfpfcnvrt+1,fsr2h
  1408  002C22  0061 F378  F544    	movff	postinc2,??_vfpfcnvrt+2
  1409  002C28  0061 F374  F545    	movff	postdec2,??_vfpfcnvrt+3
  1410  002C2E  C544  F546         	movff	??_vfpfcnvrt+2,vfpfcnvrt@llu
  1411  002C32  C545  F547         	movff	??_vfpfcnvrt+3,vfpfcnvrt@llu+1
  1412  002C36  6A48               	clrf	(vfpfcnvrt@llu+2)^(0+1280),c
  1413  002C38  6A49               	clrf	(vfpfcnvrt@llu+3)^(0+1280),c
  1414  002C3A  6A4A               	clrf	(vfpfcnvrt@llu+4)^(0+1280),c
  1415  002C3C  6A4B               	clrf	(vfpfcnvrt@llu+5)^(0+1280),c
  1416  002C3E  6A4C               	clrf	(vfpfcnvrt@llu+6)^(0+1280),c
  1417  002C40  6A4D               	clrf	(vfpfcnvrt@llu+7)^(0+1280),c
  1418  002C42                     
  1419                           ;C:\Program Files\Microchip\xc8\v2.32\pic\sources\c99\common\doprnt.c: 1209:            
      +                           return utoa(fp, llu);
  1420  002C42  C53C  F51C         	movff	vfpfcnvrt@fp,utoa@fp
  1421  002C46  C53D  F51D         	movff	vfpfcnvrt@fp+1,utoa@fp+1
  1422  002C4A  C546  F51E         	movff	vfpfcnvrt@llu,utoa@d
  1423  002C4E  C547  F51F         	movff	vfpfcnvrt@llu+1,utoa@d+1
  1424  002C52  C548  F520         	movff	vfpfcnvrt@llu+2,utoa@d+2
  1425  002C56  C549  F521         	movff	vfpfcnvrt@llu+3,utoa@d+3
  1426  002C5A  C54A  F522         	movff	vfpfcnvrt@llu+4,utoa@d+4
  1427  002C5E  C54B  F523         	movff	vfpfcnvrt@llu+5,utoa@d+5
  1428  002C62  C54C  F524         	movff	vfpfcnvrt@llu+6,utoa@d+6
  1429  002C66  C54D  F525         	movff	vfpfcnvrt@llu+7,utoa@d+7
  1430  002C6A  EC6A  F018         	call	_utoa	;wreg free
  1431  002C6E  C51C  F53C         	movff	?_utoa,?_vfpfcnvrt
  1432  002C72  C51D  F53D         	movff	?_utoa+1,?_vfpfcnvrt+1
  1433  002C76  EF9C  F016         	goto	l914
  1434  002C7A                     l2179:
  1435                           
  1436                           ;C:\Program Files\Microchip\xc8\v2.32\pic\sources\c99\common\doprnt.c: 1372:         if 
      +                          ((*fmt)[0] == '%') {
  1437  002C7A  0061  F4F8  F4D9   	movff	vfpfcnvrt@fmt,fsr2l
  1438  002C80  0061  F4FC  F4DA   	movff	vfpfcnvrt@fmt+1,fsr2h
  1439  002C86  C4DE F4F6          	movff	postinc2,tblptrl
  1440  002C8A  C4DD F4F7          	movff	postdec2,tblptrh
  1441  002C8E                     	if	0	;tblptru may be non-zero
  1442  002C8E                     	endif
  1443  002C8E                     	if	1	;Program memory is > 0xFFFF, there are 3 active tblptr bytes
  1444  002C8E  0E00               	movlw	low (__mediumconst shr (0+16))
  1445  002C90  6EF8               	movwf	tblptru,c
  1446  002C92                     	endif
  1447  002C92  0008               	tblrd		*
  1448  002C94  50F5               	movf	tablat,w,c
  1449  002C96  0A25               	xorlw	37
  1450  002C98  A4D8               	btfss	status,2,c
  1451  002C9A  EF51  F016         	goto	u1581
  1452  002C9E  EF53  F016         	goto	u1580
  1453  002CA2                     u1581:
  1454  002CA2  EF6C  F016         	goto	l2189
  1455  002CA6                     u1580:
  1456  002CA6                     
  1457                           ;C:\Program Files\Microchip\xc8\v2.32\pic\sources\c99\common\doprnt.c: 1373:            
      +                           ++*fmt;
  1458  002CA6  0061  F4F8  F4D9   	movff	vfpfcnvrt@fmt,fsr2l
  1459  002CAC  0061  F4FC  F4DA   	movff	vfpfcnvrt@fmt+1,fsr2h
  1460  002CB2  2ADE               	incf	postinc2,f,c
  1461  002CB4  0E00               	movlw	0
  1462  002CB6  22DD               	addwfc	postdec2,f,c
  1463  002CB8                     
  1464                           ;C:\Program Files\Microchip\xc8\v2.32\pic\sources\c99\common\doprnt.c: 1374:            
      +                           fputc((int)'%', fp);
  1465  002CB8  0E00               	movlw	0
  1466  002CBA  6E02               	movwf	(fputc@c+1)^(0+1280),c
  1467  002CBC  0E25               	movlw	37
  1468  002CBE  6E01               	movwf	fputc@c^(0+1280),c
  1469  002CC0  C53C  F503         	movff	vfpfcnvrt@fp,fputc@fp
  1470  002CC4  C53D  F504         	movff	vfpfcnvrt@fp+1,fputc@fp+1
  1471  002CC8  ECA1  F01C         	call	_fputc	;wreg free
  1472  002CCC                     l2185:
  1473                           
  1474                           ;C:\Program Files\Microchip\xc8\v2.32\pic\sources\c99\common\doprnt.c: 1375:            
      +                           return 1;
  1475  002CCC  0E00               	movlw	0
  1476  002CCE  6E3D               	movwf	(?_vfpfcnvrt+1)^(0+1280),c
  1477  002CD0  0E01               	movlw	1
  1478  002CD2  6E3C               	movwf	?_vfpfcnvrt^(0+1280),c
  1479  002CD4  EF9C  F016         	goto	l914
  1480  002CD8                     l2189:
  1481                           
  1482                           ;C:\Program Files\Microchip\xc8\v2.32\pic\sources\c99\common\doprnt.c: 1379:         ++*
      +                          fmt;
  1483  002CD8  0061  F4F8  F4D9   	movff	vfpfcnvrt@fmt,fsr2l
  1484  002CDE  0061  F4FC  F4DA   	movff	vfpfcnvrt@fmt+1,fsr2h
  1485  002CE4  2ADE               	incf	postinc2,f,c
  1486  002CE6  0E00               	movlw	0
  1487  002CE8  22DD               	addwfc	postdec2,f,c
  1488  002CEA                     
  1489                           ;C:\Program Files\Microchip\xc8\v2.32\pic\sources\c99\common\doprnt.c: 1380:         ret
      +                          urn 0;
  1490  002CEA  0E00               	movlw	0
  1491  002CEC  6E3D               	movwf	(?_vfpfcnvrt+1)^(0+1280),c
  1492  002CEE  0E00               	movlw	0
  1493  002CF0  6E3C               	movwf	?_vfpfcnvrt^(0+1280),c
  1494  002CF2  EF9C  F016         	goto	l914
  1495  002CF6                     l2195:
  1496                           
  1497                           ;C:\Program Files\Microchip\xc8\v2.32\pic\sources\c99\common\doprnt.c: 1384:     fputc((
      +                          int)(*fmt)[0], fp);
  1498  002CF6  0061  F4F8  F4D9   	movff	vfpfcnvrt@fmt,fsr2l
  1499  002CFC  0061  F4FC  F4DA   	movff	vfpfcnvrt@fmt+1,fsr2h
  1500  002D02  C4DE F4F6          	movff	postinc2,tblptrl
  1501  002D06  C4DD F4F7          	movff	postdec2,tblptrh
  1502  002D0A                     	if	0	;tblptru may be non-zero
  1503  002D0A                     	endif
  1504  002D0A                     	if	1	;Program memory is > 0xFFFF, there are 3 active tblptr bytes
  1505  002D0A  0E00               	movlw	low (__mediumconst shr (0+16))
  1506  002D0C  6EF8               	movwf	tblptru,c
  1507  002D0E                     	endif
  1508  002D0E  0008               	tblrd		*
  1509  002D10  50F5               	movf	tablat,w,c
  1510  002D12  6E01               	movwf	fputc@c^(0+1280),c
  1511  002D14  6A02               	clrf	(fputc@c+1)^(0+1280),c
  1512  002D16  C53C  F503         	movff	vfpfcnvrt@fp,fputc@fp
  1513  002D1A  C53D  F504         	movff	vfpfcnvrt@fp+1,fputc@fp+1
  1514  002D1E  ECA1  F01C         	call	_fputc	;wreg free
  1515  002D22                     
  1516                           ;C:\Program Files\Microchip\xc8\v2.32\pic\sources\c99\common\doprnt.c: 1385:     ++*fmt;
  1517  002D22  0061  F4F8  F4D9   	movff	vfpfcnvrt@fmt,fsr2l
  1518  002D28  0061  F4FC  F4DA   	movff	vfpfcnvrt@fmt+1,fsr2h
  1519  002D2E  2ADE               	incf	postinc2,f,c
  1520  002D30  0E00               	movlw	0
  1521  002D32  22DD               	addwfc	postdec2,f,c
  1522  002D34  EF66  F016         	goto	l2185
  1523  002D38                     l914:
  1524  002D38  0012               	return		;funcret
  1525  002D3A                     __end_of_vfpfcnvrt:
  1526                           	callstack 0
  1527                           
  1528 ;; *************** function _utoa *****************
  1529 ;; Defined at:
  1530 ;;		line 615 in file "C:\Program Files\Microchip\xc8\v2.32\pic\sources\c99\common\doprnt.c"
  1531 ;; Parameters:    Size  Location     Type
  1532 ;;  fp              2   27[COMRAM] PTR struct _IO_FILE
  1533 ;;		 -> sprintf@f(6), 
  1534 ;;  d               8   29[COMRAM] unsigned long long 
  1535 ;; Auto vars:     Size  Location     Type
  1536 ;;  n               8   49[COMRAM] unsigned long long 
  1537 ;;  i               2   57[COMRAM] int 
  1538 ;;  w               2   47[COMRAM] int 
  1539 ;;  p               2   45[COMRAM] int 
  1540 ;; Return value:  Size  Location     Type
  1541 ;;                  2   27[COMRAM] int 
  1542 ;; Registers used:
  1543 ;;		wreg, fsr1l, fsr1h, fsr2l, fsr2h, status,2, status,0, cstack
  1544 ;; Tracked objects:
  1545 ;;		On entry : 0/0
  1546 ;;		On exit  : 0/0
  1547 ;;		Unchanged: 0/0
  1548 ;; Data sizes:     COMRAM   BANK5   BANK6   BANK7   BANK8   BANK9  BANK10  BANK11  BANK12  BANK13  BANK14  BANK15  BANK1
      +6  BANK17  BANK18  BANK19  BANK20  BANK21  BANK22  BANK23  BANK24  BANK25  BANK26  BANK27  BANK28  BANK29  BANK30  BANK3
      +1  BANK32  BANK33  BANK34  BANK35  BANK36
  1549 ;;      Params:        10       0       0       0       0       0       0       0       0       0       0       0       
      +0       0       0       0       0       0       0       0       0       0       0       0       0       0       0       
      +0       0       0       0       0       0
  1550 ;;      Locals:        14       0       0       0       0       0       0       0       0       0       0       0       
      +0       0       0       0       0       0       0       0       0       0       0       0       0       0       0       
      +0       0       0       0       0       0
  1551 ;;      Temps:          8       0       0       0       0       0       0       0       0       0       0       0       
      +0       0       0       0       0       0       0       0       0       0       0       0       0       0       0       
      +0       0       0       0       0       0
  1552 ;;      Totals:        32       0       0       0       0       0       0       0       0       0       0       0       
      +0       0       0       0       0       0       0       0       0       0       0       0       0       0       0       
      +0       0       0       0       0       0
  1553 ;;Total ram usage:       32 bytes
  1554 ;; Hardware stack levels used: 1
  1555 ;; Hardware stack levels required when called: 5
  1556 ;; This function calls:
  1557 ;;		___lodiv
  1558 ;;		___lomod
  1559 ;;		_pad
  1560 ;; This function is called by:
  1561 ;;		_vfpfcnvrt
  1562 ;; This function uses a non-reentrant model
  1563 ;;
  1564                           
  1565                           	psect	text4
  1566  0030D4                     __ptext4:
  1567                           	callstack 0
  1568  0030D4                     _utoa:
  1569                           	callstack 118
  1570  0030D4                     
  1571                           ;C:\Program Files\Microchip\xc8\v2.32\pic\sources\c99\common\doprnt.c: 615: static int u
      +                          toa(FILE *fp, unsigned long long d);C:\Program Files\Microchip\xc8\v2.32\pic\sources\c99
      +                          \common\doprnt.c: 616: {;C:\Program Files\Microchip\xc8\v2.32\pic\sources\c99\common\dop
      +                          rnt.c: 617:     int i, p, w;;C:\Program Files\Microchip\xc8\v2.32\pic\sources\c99\common
      +                          \doprnt.c: 618:     unsigned long long n;;C:\Program Files\Microchip\xc8\v2.32\pic\sourc
      +                          es\c99\common\doprnt.c: 621:     if (!(prec < 0)) {
  1572  0030D4  0105               	movlb	5	; () banked
  1573  0030D6  BF65               	btfsc	(_prec+1)& (0+255),7,b
  1574  0030D8  EF70  F018         	goto	u1351
  1575  0030DC  EF72  F018         	goto	u1350
  1576  0030E0                     u1351:
  1577  0030E0  EF73  F018         	goto	l2025
  1578  0030E4                     u1350:
  1579  0030E4                     
  1580                           ; BSR set to: 5
  1581                           ;C:\Program Files\Microchip\xc8\v2.32\pic\sources\c99\common\doprnt.c: 622:         flag
      +                          s &= ~(1 << 1);
  1582  0030E4  9366               	bcf	_flags& (0+255),1,b
  1583  0030E6                     l2025:
  1584                           
  1585                           ; BSR set to: 5
  1586                           ;C:\Program Files\Microchip\xc8\v2.32\pic\sources\c99\common\doprnt.c: 624:     p = (0 <
      +                           prec) ? prec : 1;
  1587  0030E6  BF65               	btfsc	(_prec+1)& (0+255),7,b
  1588  0030E8  EF80  F018         	goto	u1360
  1589  0030EC  5165               	movf	(_prec+1)& (0+255),w,b
  1590  0030EE  E106               	bnz	u1361
  1591  0030F0  0564               	decf	_prec& (0+255),w,b
  1592  0030F2  B0D8               	btfsc	status,0,c
  1593  0030F4  EF7E  F018         	goto	u1361
  1594  0030F8  EF80  F018         	goto	u1360
  1595  0030FC                     u1361:
  1596  0030FC  EF86  F018         	goto	l877
  1597  003100                     u1360:
  1598  003100                     
  1599                           ; BSR set to: 5
  1600  003100  0E00               	movlw	0
  1601  003102  6E2F               	movwf	(utoa@p+1)^(0+1280),c
  1602  003104  0E01               	movlw	1
  1603  003106  6E2E               	movwf	utoa@p^(0+1280),c
  1604  003108  EF8A  F018         	goto	l879
  1605  00310C                     l877:
  1606                           
  1607                           ; BSR set to: 5
  1608  00310C  C564  F52E         	movff	_prec,utoa@p
  1609  003110  C565  F52F         	movff	_prec+1,utoa@p+1
  1610  003114                     l879:
  1611                           
  1612                           ; BSR set to: 5
  1613                           ;C:\Program Files\Microchip\xc8\v2.32\pic\sources\c99\common\doprnt.c: 625:     w = widt
      +                          h;
  1614  003114  C562  F530         	movff	_width,utoa@w
  1615  003118  C563  F531         	movff	_width+1,utoa@w+1
  1616                           
  1617                           ;C:\Program Files\Microchip\xc8\v2.32\pic\sources\c99\common\doprnt.c: 628:     n = d;
  1618  00311C  C51E  F532         	movff	utoa@d,utoa@n
  1619  003120  C51F  F533         	movff	utoa@d+1,utoa@n+1
  1620  003124  C520  F534         	movff	utoa@d+2,utoa@n+2
  1621  003128  C521  F535         	movff	utoa@d+3,utoa@n+3
  1622  00312C  C522  F536         	movff	utoa@d+4,utoa@n+4
  1623  003130  C523  F537         	movff	utoa@d+5,utoa@n+5
  1624  003134  C524  F538         	movff	utoa@d+6,utoa@n+6
  1625  003138  C525  F539         	movff	utoa@d+7,utoa@n+7
  1626  00313C                     
  1627                           ; BSR set to: 5
  1628                           ;C:\Program Files\Microchip\xc8\v2.32\pic\sources\c99\common\doprnt.c: 629:     i = size
      +                          of(dbuf) - 1;
  1629  00313C  0E00               	movlw	0
  1630  00313E  6E3B               	movwf	(utoa@i+1)^(0+1280),c
  1631  003140  0E1F               	movlw	31
  1632  003142  6E3A               	movwf	utoa@i^(0+1280),c
  1633  003144                     
  1634                           ; BSR set to: 5
  1635                           ;C:\Program Files\Microchip\xc8\v2.32\pic\sources\c99\common\doprnt.c: 630:     dbuf[i] 
      +                          = '\0';
  1636  003144  0E00               	movlw	0
  1637  003146  6F89               	movwf	(_dbuf+31)& (0+255),b
  1638                           
  1639                           ;C:\Program Files\Microchip\xc8\v2.32\pic\sources\c99\common\doprnt.c: 631:     while (i
      +                           && (n || (0 < p) || ((0 < w) && (flags & (1 << 1))))) {
  1640  003148  EF1C  F019         	goto	l2043
  1641  00314C                     l2033:
  1642                           
  1643                           ;C:\Program Files\Microchip\xc8\v2.32\pic\sources\c99\common\doprnt.c: 632:         --i;
  1644  00314C  063A               	decf	utoa@i^(0+1280),f,c
  1645  00314E  A0D8               	btfss	status,0,c
  1646  003150  063B               	decf	(utoa@i+1)^(0+1280),f,c
  1647  003152                     
  1648                           ;C:\Program Files\Microchip\xc8\v2.32\pic\sources\c99\common\doprnt.c: 633:         dbuf
      +                          [i] = '0' + (n % 10);
  1649  003152  0E6A               	movlw	low _dbuf
  1650  003154  243A               	addwf	utoa@i^(0+1280),w,c
  1651  003156  6ED9               	movwf	fsr2l,c
  1652  003158  0E05               	movlw	high _dbuf
  1653  00315A  203B               	addwfc	(utoa@i+1)^(0+1280),w,c
  1654  00315C  6EDA               	movwf	fsr2h,c
  1655  00315E  C532  F501         	movff	utoa@n,___lomod@dividend
  1656  003162  C533  F502         	movff	utoa@n+1,___lomod@dividend+1
  1657  003166  C534  F503         	movff	utoa@n+2,___lomod@dividend+2
  1658  00316A  C535  F504         	movff	utoa@n+3,___lomod@dividend+3
  1659  00316E  C536  F505         	movff	utoa@n+4,___lomod@dividend+4
  1660  003172  C537  F506         	movff	utoa@n+5,___lomod@dividend+5
  1661  003176  C538  F507         	movff	utoa@n+6,___lomod@dividend+6
  1662  00317A  C539  F508         	movff	utoa@n+7,___lomod@dividend+7
  1663  00317E  0E0A               	movlw	10
  1664  003180  6E09               	movwf	___lomod@divisor^(0+1280),c
  1665  003182  0E00               	movlw	0
  1666  003184  6E0A               	movwf	(___lomod@divisor+1)^(0+1280),c
  1667  003186  0E00               	movlw	0
  1668  003188  6E0B               	movwf	(___lomod@divisor+2)^(0+1280),c
  1669  00318A  0E00               	movlw	0
  1670  00318C  6E0C               	movwf	(___lomod@divisor+3)^(0+1280),c
  1671  00318E  0E00               	movlw	0
  1672  003190  6E0D               	movwf	(___lomod@divisor+4)^(0+1280),c
  1673  003192  0E00               	movlw	0
  1674  003194  6E0E               	movwf	(___lomod@divisor+5)^(0+1280),c
  1675  003196  0E00               	movlw	0
  1676  003198  6E0F               	movwf	(___lomod@divisor+6)^(0+1280),c
  1677  00319A  0E00               	movlw	0
  1678  00319C  6E10               	movwf	(___lomod@divisor+7)^(0+1280),c
  1679  00319E  EC0D  F01D         	call	___lomod	;wreg free
  1680  0031A2  C501  F526         	movff	?___lomod,??_utoa
  1681  0031A6  C502  F527         	movff	?___lomod+1,??_utoa+1
  1682  0031AA  C503  F528         	movff	?___lomod+2,??_utoa+2
  1683  0031AE  C504  F529         	movff	?___lomod+3,??_utoa+3
  1684  0031B2  C505  F52A         	movff	?___lomod+4,??_utoa+4
  1685  0031B6  C506  F52B         	movff	?___lomod+5,??_utoa+5
  1686  0031BA  C507  F52C         	movff	?___lomod+6,??_utoa+6
  1687  0031BE  C508  F52D         	movff	?___lomod+7,??_utoa+7
  1688  0031C2  5026               	movf	??_utoa^(0+1280),w,c
  1689  0031C4  0F30               	addlw	48
  1690  0031C6  6EDF               	movwf	indf2,c
  1691  0031C8                     
  1692                           ;C:\Program Files\Microchip\xc8\v2.32\pic\sources\c99\common\doprnt.c: 634:         --p;
  1693  0031C8  062E               	decf	utoa@p^(0+1280),f,c
  1694  0031CA  A0D8               	btfss	status,0,c
  1695  0031CC  062F               	decf	(utoa@p+1)^(0+1280),f,c
  1696  0031CE                     
  1697                           ;C:\Program Files\Microchip\xc8\v2.32\pic\sources\c99\common\doprnt.c: 635:         --w;
  1698  0031CE  0630               	decf	utoa@w^(0+1280),f,c
  1699  0031D0  A0D8               	btfss	status,0,c
  1700  0031D2  0631               	decf	(utoa@w+1)^(0+1280),f,c
  1701  0031D4                     
  1702                           ;C:\Program Files\Microchip\xc8\v2.32\pic\sources\c99\common\doprnt.c: 636:         n = 
      +                          n / 10;
  1703  0031D4  C532  F501         	movff	utoa@n,___lodiv@dividend
  1704  0031D8  C533  F502         	movff	utoa@n+1,___lodiv@dividend+1
  1705  0031DC  C534  F503         	movff	utoa@n+2,___lodiv@dividend+2
  1706  0031E0  C535  F504         	movff	utoa@n+3,___lodiv@dividend+3
  1707  0031E4  C536  F505         	movff	utoa@n+4,___lodiv@dividend+4
  1708  0031E8  C537  F506         	movff	utoa@n+5,___lodiv@dividend+5
  1709  0031EC  C538  F507         	movff	utoa@n+6,___lodiv@dividend+6
  1710  0031F0  C539  F508         	movff	utoa@n+7,___lodiv@dividend+7
  1711  0031F4  0E0A               	movlw	10
  1712  0031F6  6E09               	movwf	___lodiv@divisor^(0+1280),c
  1713  0031F8  0E00               	movlw	0
  1714  0031FA  6E0A               	movwf	(___lodiv@divisor+1)^(0+1280),c
  1715  0031FC  0E00               	movlw	0
  1716  0031FE  6E0B               	movwf	(___lodiv@divisor+2)^(0+1280),c
  1717  003200  0E00               	movlw	0
  1718  003202  6E0C               	movwf	(___lodiv@divisor+3)^(0+1280),c
  1719  003204  0E00               	movlw	0
  1720  003206  6E0D               	movwf	(___lodiv@divisor+4)^(0+1280),c
  1721  003208  0E00               	movlw	0
  1722  00320A  6E0E               	movwf	(___lodiv@divisor+5)^(0+1280),c
  1723  00320C  0E00               	movlw	0
  1724  00320E  6E0F               	movwf	(___lodiv@divisor+6)^(0+1280),c
  1725  003210  0E00               	movlw	0
  1726  003212  6E10               	movwf	(___lodiv@divisor+7)^(0+1280),c
  1727  003214  EC29  F01C         	call	___lodiv	;wreg free
  1728  003218  C501  F532         	movff	?___lodiv,utoa@n
  1729  00321C  C502  F533         	movff	?___lodiv+1,utoa@n+1
  1730  003220  C503  F534         	movff	?___lodiv+2,utoa@n+2
  1731  003224  C504  F535         	movff	?___lodiv+3,utoa@n+3
  1732  003228  C505  F536         	movff	?___lodiv+4,utoa@n+4
  1733  00322C  C506  F537         	movff	?___lodiv+5,utoa@n+5
  1734  003230  C507  F538         	movff	?___lodiv+6,utoa@n+6
  1735  003234  C508  F539         	movff	?___lodiv+7,utoa@n+7
  1736  003238                     l2043:
  1737                           
  1738                           ;C:\Program Files\Microchip\xc8\v2.32\pic\sources\c99\common\doprnt.c: 631:     while (i
      +                           && (n || (0 < p) || ((0 < w) && (flags & (1 << 1))))) {
  1739  003238  503A               	movf	utoa@i^(0+1280),w,c
  1740  00323A  103B               	iorwf	(utoa@i+1)^(0+1280),w,c
  1741  00323C  B4D8               	btfsc	status,2,c
  1742  00323E  EF23  F019         	goto	u1371
  1743  003242  EF25  F019         	goto	u1370
  1744  003246                     u1371:
  1745  003246  EF56  F019         	goto	l2053
  1746  00324A                     u1370:
  1747  00324A  5032               	movf	utoa@n^(0+1280),w,c
  1748  00324C  1033               	iorwf	(utoa@n+1)^(0+1280),w,c
  1749  00324E  1034               	iorwf	(utoa@n+2)^(0+1280),w,c
  1750  003250  1035               	iorwf	(utoa@n+3)^(0+1280),w,c
  1751  003252  1036               	iorwf	(utoa@n+4)^(0+1280),w,c
  1752  003254  1037               	iorwf	(utoa@n+5)^(0+1280),w,c
  1753  003256  1038               	iorwf	(utoa@n+6)^(0+1280),w,c
  1754  003258  1039               	iorwf	(utoa@n+7)^(0+1280),w,c
  1755  00325A  A4D8               	btfss	status,2,c
  1756  00325C  EF32  F019         	goto	u1381
  1757  003260  EF34  F019         	goto	u1380
  1758  003264                     u1381:
  1759  003264  EFA6  F018         	goto	l2033
  1760  003268                     u1380:
  1761  003268  BE2F               	btfsc	(utoa@p+1)^(0+1280),7,c
  1762  00326A  EF41  F019         	goto	u1390
  1763  00326E  502F               	movf	(utoa@p+1)^(0+1280),w,c
  1764  003270  E106               	bnz	u1391
  1765  003272  042E               	decf	utoa@p^(0+1280),w,c
  1766  003274  B0D8               	btfsc	status,0,c
  1767  003276  EF3F  F019         	goto	u1391
  1768  00327A  EF41  F019         	goto	u1390
  1769  00327E                     u1391:
  1770  00327E  EFA6  F018         	goto	l2033
  1771  003282                     u1390:
  1772  003282  BE31               	btfsc	(utoa@w+1)^(0+1280),7,c
  1773  003284  EF4C  F019         	goto	u1401
  1774  003288  5031               	movf	(utoa@w+1)^(0+1280),w,c
  1775  00328A  E108               	bnz	u1400
  1776  00328C  0430               	decf	utoa@w^(0+1280),w,c
  1777  00328E  A0D8               	btfss	status,0,c
  1778  003290  EF4C  F019         	goto	u1401
  1779  003294  EF4E  F019         	goto	u1400
  1780  003298                     u1401:
  1781  003298  EF56  F019         	goto	l2053
  1782  00329C                     u1400:
  1783  00329C  0105               	movlb	5	; () banked
  1784  00329E  B366               	btfsc	_flags& (0+255),1,b
  1785  0032A0  EF54  F019         	goto	u1411
  1786  0032A4  EF56  F019         	goto	u1410
  1787  0032A8                     u1411:
  1788  0032A8  EFA6  F018         	goto	l2033
  1789  0032AC                     u1410:
  1790  0032AC                     l2053:
  1791                           
  1792                           ;C:\Program Files\Microchip\xc8\v2.32\pic\sources\c99\common\doprnt.c: 640:     return p
      +                          ad(fp, &dbuf[i], w);
  1793  0032AC  C51C  F511         	movff	utoa@fp,pad@fp
  1794  0032B0  C51D  F512         	movff	utoa@fp+1,pad@fp+1
  1795  0032B4  0E6A               	movlw	low _dbuf
  1796  0032B6  243A               	addwf	utoa@i^(0+1280),w,c
  1797  0032B8  6E13               	movwf	pad@buf^(0+1280),c
  1798  0032BA  0E05               	movlw	high _dbuf
  1799  0032BC  203B               	addwfc	(utoa@i+1)^(0+1280),w,c
  1800  0032BE  6E14               	movwf	(pad@buf+1)^(0+1280),c
  1801  0032C0  C530  F515         	movff	utoa@w,pad@p
  1802  0032C4  C531  F516         	movff	utoa@w+1,pad@p+1
  1803  0032C8  EC75  F01D         	call	_pad	;wreg free
  1804  0032CC  C511  F51C         	movff	?_pad,?_utoa
  1805  0032D0  C512  F51D         	movff	?_pad+1,?_utoa+1
  1806  0032D4  0012               	return		;funcret
  1807  0032D6                     __end_of_utoa:
  1808                           	callstack 0
  1809                           
  1810 ;; *************** function _pad *****************
  1811 ;; Defined at:
  1812 ;;		line 72 in file "C:\Program Files\Microchip\xc8\v2.32\pic\sources\c99\common\doprnt.c"
  1813 ;; Parameters:    Size  Location     Type
  1814 ;;  fp              2   16[COMRAM] PTR struct _IO_FILE
  1815 ;;		 -> sprintf@f(6), 
  1816 ;;  buf             2   18[COMRAM] PTR unsigned char 
  1817 ;;		 -> dbuf(32), 
  1818 ;;  p               2   20[COMRAM] int 
  1819 ;; Auto vars:     Size  Location     Type
  1820 ;;  w               2   25[COMRAM] int 
  1821 ;;  i               2   23[COMRAM] int 
  1822 ;; Return value:  Size  Location     Type
  1823 ;;                  2   16[COMRAM] int 
  1824 ;; Registers used:
  1825 ;;		wreg, fsr1l, fsr1h, fsr2l, fsr2h, status,2, status,0, cstack
  1826 ;; Tracked objects:
  1827 ;;		On entry : 0/0
  1828 ;;		On exit  : 0/0
  1829 ;;		Unchanged: 0/0
  1830 ;; Data sizes:     COMRAM   BANK5   BANK6   BANK7   BANK8   BANK9  BANK10  BANK11  BANK12  BANK13  BANK14  BANK15  BANK1
      +6  BANK17  BANK18  BANK19  BANK20  BANK21  BANK22  BANK23  BANK24  BANK25  BANK26  BANK27  BANK28  BANK29  BANK30  BANK3
      +1  BANK32  BANK33  BANK34  BANK35  BANK36
  1831 ;;      Params:         6       0       0       0       0       0       0       0       0       0       0       0       
      +0       0       0       0       0       0       0       0       0       0       0       0       0       0       0       
      +0       0       0       0       0       0
  1832 ;;      Locals:         4       0       0       0       0       0       0       0       0       0       0       0       
      +0       0       0       0       0       0       0       0       0       0       0       0       0       0       0       
      +0       0       0       0       0       0
  1833 ;;      Temps:          1       0       0       0       0       0       0       0       0       0       0       0       
      +0       0       0       0       0       0       0       0       0       0       0       0       0       0       0       
      +0       0       0       0       0       0
  1834 ;;      Totals:        11       0       0       0       0       0       0       0       0       0       0       0       
      +0       0       0       0       0       0       0       0       0       0       0       0       0       0       0       
      +0       0       0       0       0       0
  1835 ;;Total ram usage:       11 bytes
  1836 ;; Hardware stack levels used: 1
  1837 ;; Hardware stack levels required when called: 4
  1838 ;; This function calls:
  1839 ;;		_fputc
  1840 ;;		_fputs
  1841 ;;		_strlen
  1842 ;; This function is called by:
  1843 ;;		_utoa
  1844 ;; This function uses a non-reentrant model
  1845 ;;
  1846                           
  1847                           	psect	text5
  1848  003AEA                     __ptext5:
  1849                           	callstack 0
  1850  003AEA                     _pad:
  1851                           	callstack 118
  1852  003AEA                     
  1853                           ;C:\Program Files\Microchip\xc8\v2.32\pic\sources\c99\common\doprnt.c: 72: static int pa
      +                          d(FILE *fp, char *buf, int p);C:\Program Files\Microchip\xc8\v2.32\pic\sources\c99\commo
      +                          n\doprnt.c: 73: {;C:\Program Files\Microchip\xc8\v2.32\pic\sources\c99\common\doprnt.c: 
      +                          74:     int i, w;;C:\Program Files\Microchip\xc8\v2.32\pic\sources\c99\common\doprnt.c: 
      +                          77:     if (flags & (1 << 0)) {
  1854  003AEA  0105               	movlb	5	; () banked
  1855  003AEC  A166               	btfss	_flags& (0+255),0,b
  1856  003AEE  EF7B  F01D         	goto	u1271
  1857  003AF2  EF7D  F01D         	goto	u1270
  1858  003AF6                     u1271:
  1859  003AF6  EF87  F01D         	goto	l1969
  1860  003AFA                     u1270:
  1861  003AFA                     
  1862                           ; BSR set to: 5
  1863                           ;C:\Program Files\Microchip\xc8\v2.32\pic\sources\c99\common\doprnt.c: 78:         fputs
      +                          ((const char *)buf, fp);
  1864  003AFA  C513  F50A         	movff	pad@buf,fputs@s
  1865  003AFE  C514  F50B         	movff	pad@buf+1,fputs@s+1
  1866  003B02  C511  F50C         	movff	pad@fp,fputs@fp
  1867  003B06  C512  F50D         	movff	pad@fp+1,fputs@fp+1
  1868  003B0A  ECDB  F01E         	call	_fputs	;wreg free
  1869  003B0E                     l1969:
  1870                           
  1871                           ;C:\Program Files\Microchip\xc8\v2.32\pic\sources\c99\common\doprnt.c: 82:     w = (p < 
      +                          0) ? 0 : p;
  1872  003B0E  BE16               	btfsc	(pad@p+1)^(0+1280),7,c
  1873  003B10  EF8C  F01D         	goto	u1281
  1874  003B14  EF8E  F01D         	goto	u1280
  1875  003B18                     u1281:
  1876  003B18  EF94  F01D         	goto	l1973
  1877  003B1C                     u1280:
  1878  003B1C  C515  F51A         	movff	pad@p,pad@w
  1879  003B20  C516  F51B         	movff	pad@p+1,pad@w+1
  1880  003B24  EF98  F01D         	goto	l867
  1881  003B28                     l1973:
  1882  003B28  0E00               	movlw	0
  1883  003B2A  6E1B               	movwf	(pad@w+1)^(0+1280),c
  1884  003B2C  0E00               	movlw	0
  1885  003B2E  6E1A               	movwf	pad@w^(0+1280),c
  1886  003B30                     l867:
  1887                           
  1888                           ;C:\Program Files\Microchip\xc8\v2.32\pic\sources\c99\common\doprnt.c: 83:     i = 0;
  1889  003B30  0E00               	movlw	0
  1890  003B32  6E19               	movwf	(pad@i+1)^(0+1280),c
  1891  003B34  0E00               	movlw	0
  1892  003B36  6E18               	movwf	pad@i^(0+1280),c
  1893                           
  1894                           ;C:\Program Files\Microchip\xc8\v2.32\pic\sources\c99\common\doprnt.c: 84:     while (i 
      +                          < w) {
  1895  003B38  EFAA  F01D         	goto	l1979
  1896  003B3C                     l1975:
  1897                           
  1898                           ;C:\Program Files\Microchip\xc8\v2.32\pic\sources\c99\common\doprnt.c: 85:         fputc
      +                          (' ', fp);
  1899  003B3C  0E00               	movlw	0
  1900  003B3E  6E02               	movwf	(fputc@c+1)^(0+1280),c
  1901  003B40  0E20               	movlw	32
  1902  003B42  6E01               	movwf	fputc@c^(0+1280),c
  1903  003B44  C511  F503         	movff	pad@fp,fputc@fp
  1904  003B48  C512  F504         	movff	pad@fp+1,fputc@fp+1
  1905  003B4C  ECA1  F01C         	call	_fputc	;wreg free
  1906  003B50                     
  1907                           ;C:\Program Files\Microchip\xc8\v2.32\pic\sources\c99\common\doprnt.c: 86:         ++i;
  1908  003B50  4A18               	infsnz	pad@i^(0+1280),f,c
  1909  003B52  2A19               	incf	(pad@i+1)^(0+1280),f,c
  1910  003B54                     l1979:
  1911                           
  1912                           ;C:\Program Files\Microchip\xc8\v2.32\pic\sources\c99\common\doprnt.c: 84:     while (i 
      +                          < w) {
  1913  003B54  501A               	movf	pad@w^(0+1280),w,c
  1914  003B56  5C18               	subwf	pad@i^(0+1280),w,c
  1915  003B58  5019               	movf	(pad@i+1)^(0+1280),w,c
  1916  003B5A  0A80               	xorlw	128
  1917  003B5C  6E17               	movwf	??_pad^(0+1280),c
  1918  003B5E  501B               	movf	(pad@w+1)^(0+1280),w,c
  1919  003B60  0A80               	xorlw	128
  1920  003B62  5817               	subwfb	??_pad^(0+1280),w,c
  1921  003B64  A0D8               	btfss	status,0,c
  1922  003B66  EFB7  F01D         	goto	u1291
  1923  003B6A  EFB9  F01D         	goto	u1290
  1924  003B6E                     u1291:
  1925  003B6E  EF9E  F01D         	goto	l1975
  1926  003B72                     u1290:
  1927  003B72                     
  1928                           ;C:\Program Files\Microchip\xc8\v2.32\pic\sources\c99\common\doprnt.c: 90:     if (!(fla
      +                          gs & (1 << 0))) {
  1929  003B72  0105               	movlb	5	; () banked
  1930  003B74  B166               	btfsc	_flags& (0+255),0,b
  1931  003B76  EFBF  F01D         	goto	u1301
  1932  003B7A  EFC1  F01D         	goto	u1300
  1933  003B7E                     u1301:
  1934  003B7E  EFCB  F01D         	goto	l1983
  1935  003B82                     u1300:
  1936  003B82                     
  1937                           ; BSR set to: 5
  1938                           ;C:\Program Files\Microchip\xc8\v2.32\pic\sources\c99\common\doprnt.c: 91:         fputs
      +                          ((const char *)buf, fp);
  1939  003B82  C513  F50A         	movff	pad@buf,fputs@s
  1940  003B86  C514  F50B         	movff	pad@buf+1,fputs@s+1
  1941  003B8A  C511  F50C         	movff	pad@fp,fputs@fp
  1942  003B8E  C512  F50D         	movff	pad@fp+1,fputs@fp+1
  1943  003B92  ECDB  F01E         	call	_fputs	;wreg free
  1944  003B96                     l1983:
  1945                           
  1946                           ;C:\Program Files\Microchip\xc8\v2.32\pic\sources\c99\common\doprnt.c: 94:     return (i
      +                          nt)(strlen(buf) + (size_t)w);
  1947  003B96  C513  F501         	movff	pad@buf,strlen@s
  1948  003B9A  C514  F502         	movff	pad@buf+1,strlen@s+1
  1949  003B9E  ECA1  F01F         	call	_strlen	;wreg free
  1950  003BA2  501A               	movf	pad@w^(0+1280),w,c
  1951  003BA4  2401               	addwf	?_strlen^(0+1280),w,c
  1952  003BA6  6E11               	movwf	?_pad^(0+1280),c
  1953  003BA8  501B               	movf	(pad@w+1)^(0+1280),w,c
  1954  003BAA  2002               	addwfc	(?_strlen+1)^(0+1280),w,c
  1955  003BAC  6E12               	movwf	(?_pad+1)^(0+1280),c
  1956  003BAE  0012               	return		;funcret
  1957  003BB0                     __end_of_pad:
  1958                           	callstack 0
  1959                           
  1960 ;; *************** function _strlen *****************
  1961 ;; Defined at:
  1962 ;;		line 5 in file "C:\Program Files\Microchip\xc8\v2.32\pic\sources\c99\common\strlen.c"
  1963 ;; Parameters:    Size  Location     Type
  1964 ;;  s               2    0[COMRAM] PTR const unsigned char 
  1965 ;;		 -> dbuf(32), 
  1966 ;; Auto vars:     Size  Location     Type
  1967 ;;  a               2    2[COMRAM] PTR const unsigned char 
  1968 ;;		 -> dbuf(32), 
  1969 ;; Return value:  Size  Location     Type
  1970 ;;                  2    0[COMRAM] unsigned int 
  1971 ;; Registers used:
  1972 ;;		wreg, fsr2l, fsr2h, status,2, status,0
  1973 ;; Tracked objects:
  1974 ;;		On entry : 0/0
  1975 ;;		On exit  : 0/0
  1976 ;;		Unchanged: 0/0
  1977 ;; Data sizes:     COMRAM   BANK5   BANK6   BANK7   BANK8   BANK9  BANK10  BANK11  BANK12  BANK13  BANK14  BANK15  BANK1
      +6  BANK17  BANK18  BANK19  BANK20  BANK21  BANK22  BANK23  BANK24  BANK25  BANK26  BANK27  BANK28  BANK29  BANK30  BANK3
      +1  BANK32  BANK33  BANK34  BANK35  BANK36
  1978 ;;      Params:         2       0       0       0       0       0       0       0       0       0       0       0       
      +0       0       0       0       0       0       0       0       0       0       0       0       0       0       0       
      +0       0       0       0       0       0
  1979 ;;      Locals:         2       0       0       0       0       0       0       0       0       0       0       0       
      +0       0       0       0       0       0       0       0       0       0       0       0       0       0       0       
      +0       0       0       0       0       0
  1980 ;;      Temps:          0       0       0       0       0       0       0       0       0       0       0       0       
      +0       0       0       0       0       0       0       0       0       0       0       0       0       0       0       
      +0       0       0       0       0       0
  1981 ;;      Totals:         4       0       0       0       0       0       0       0       0       0       0       0       
      +0       0       0       0       0       0       0       0       0       0       0       0       0       0       0       
      +0       0       0       0       0       0
  1982 ;;Total ram usage:        4 bytes
  1983 ;; Hardware stack levels used: 1
  1984 ;; Hardware stack levels required when called: 1
  1985 ;; This function calls:
  1986 ;;		Nothing
  1987 ;; This function is called by:
  1988 ;;		_pad
  1989 ;; This function uses a non-reentrant model
  1990 ;;
  1991                           
  1992                           	psect	text6
  1993  003F42                     __ptext6:
  1994                           	callstack 0
  1995  003F42                     _strlen:
  1996                           	callstack 120
  1997  003F42  C501  F503         	movff	strlen@s,strlen@a
  1998  003F46  C502  F504         	movff	strlen@s+1,strlen@a+1
  1999  003F4A  EFA9  F01F         	goto	l1915
  2000  003F4E                     l1913:
  2001  003F4E  4A01               	infsnz	strlen@s^(0+1280),f,c
  2002  003F50  2A02               	incf	(strlen@s+1)^(0+1280),f,c
  2003  003F52                     l1915:
  2004  003F52  0061  F404  F4D9   	movff	strlen@s,fsr2l
  2005  003F58  0061  F408  F4DA   	movff	strlen@s+1,fsr2h
  2006  003F5E  50DF               	movf	indf2,w,c
  2007  003F60  A4D8               	btfss	status,2,c
  2008  003F62  EFB5  F01F         	goto	u1191
  2009  003F66  EFB7  F01F         	goto	u1190
  2010  003F6A                     u1191:
  2011  003F6A  EFA7  F01F         	goto	l1913
  2012  003F6E                     u1190:
  2013  003F6E  5003               	movf	strlen@a^(0+1280),w,c
  2014  003F70  5C01               	subwf	strlen@s^(0+1280),w,c
  2015  003F72  6E01               	movwf	?_strlen^(0+1280),c
  2016  003F74  5004               	movf	(strlen@a+1)^(0+1280),w,c
  2017  003F76  5802               	subwfb	(strlen@s+1)^(0+1280),w,c
  2018  003F78  6E02               	movwf	(?_strlen+1)^(0+1280),c
  2019  003F7A  0012               	return		;funcret
  2020  003F7C                     __end_of_strlen:
  2021                           	callstack 0
  2022                           
  2023 ;; *************** function _fputs *****************
  2024 ;; Defined at:
  2025 ;;		line 8 in file "C:\Program Files\Microchip\xc8\v2.32\pic\sources\c99\common\nf_fputs.c"
  2026 ;; Parameters:    Size  Location     Type
  2027 ;;  s               2    9[COMRAM] PTR const unsigned char 
  2028 ;;		 -> dbuf(32), 
  2029 ;;  fp              2   11[COMRAM] PTR struct _IO_FILE
  2030 ;;		 -> sprintf@f(6), 
  2031 ;; Auto vars:     Size  Location     Type
  2032 ;;  i               2   14[COMRAM] int 
  2033 ;;  c               1   13[COMRAM] unsigned char 
  2034 ;; Return value:  Size  Location     Type
  2035 ;;                  2    9[COMRAM] int 
  2036 ;; Registers used:
  2037 ;;		wreg, fsr1l, fsr1h, fsr2l, fsr2h, status,2, status,0, cstack
  2038 ;; Tracked objects:
  2039 ;;		On entry : 0/0
  2040 ;;		On exit  : 0/0
  2041 ;;		Unchanged: 0/0
  2042 ;; Data sizes:     COMRAM   BANK5   BANK6   BANK7   BANK8   BANK9  BANK10  BANK11  BANK12  BANK13  BANK14  BANK15  BANK1
      +6  BANK17  BANK18  BANK19  BANK20  BANK21  BANK22  BANK23  BANK24  BANK25  BANK26  BANK27  BANK28  BANK29  BANK30  BANK3
      +1  BANK32  BANK33  BANK34  BANK35  BANK36
  2043 ;;      Params:         4       0       0       0       0       0       0       0       0       0       0       0       
      +0       0       0       0       0       0       0       0       0       0       0       0       0       0       0       
      +0       0       0       0       0       0
  2044 ;;      Locals:         3       0       0       0       0       0       0       0       0       0       0       0       
      +0       0       0       0       0       0       0       0       0       0       0       0       0       0       0       
      +0       0       0       0       0       0
  2045 ;;      Temps:          0       0       0       0       0       0       0       0       0       0       0       0       
      +0       0       0       0       0       0       0       0       0       0       0       0       0       0       0       
      +0       0       0       0       0       0
  2046 ;;      Totals:         7       0       0       0       0       0       0       0       0       0       0       0       
      +0       0       0       0       0       0       0       0       0       0       0       0       0       0       0       
      +0       0       0       0       0       0
  2047 ;;Total ram usage:        7 bytes
  2048 ;; Hardware stack levels used: 1
  2049 ;; Hardware stack levels required when called: 3
  2050 ;; This function calls:
  2051 ;;		_fputc
  2052 ;; This function is called by:
  2053 ;;		_pad
  2054 ;; This function uses a non-reentrant model
  2055 ;;
  2056                           
  2057                           	psect	text7
  2058  003DB6                     __ptext7:
  2059                           	callstack 0
  2060  003DB6                     _fputs:
  2061                           	callstack 118
  2062  003DB6  0E00               	movlw	0
  2063  003DB8  6E10               	movwf	(fputs@i+1)^(0+1280),c
  2064  003DBA  0E00               	movlw	0
  2065  003DBC  6E0F               	movwf	fputs@i^(0+1280),c
  2066  003DBE  EFEC  F01E         	goto	l1909
  2067  003DC2                     l1905:
  2068  003DC2  C50E  F501         	movff	fputs@c,fputc@c
  2069  003DC6  6A02               	clrf	(fputc@c+1)^(0+1280),c
  2070  003DC8  C50C  F503         	movff	fputs@fp,fputc@fp
  2071  003DCC  C50D  F504         	movff	fputs@fp+1,fputc@fp+1
  2072  003DD0  ECA1  F01C         	call	_fputc	;wreg free
  2073  003DD4  4A0F               	infsnz	fputs@i^(0+1280),f,c
  2074  003DD6  2A10               	incf	(fputs@i+1)^(0+1280),f,c
  2075  003DD8                     l1909:
  2076  003DD8  500F               	movf	fputs@i^(0+1280),w,c
  2077  003DDA  240A               	addwf	fputs@s^(0+1280),w,c
  2078  003DDC  6ED9               	movwf	fsr2l,c
  2079  003DDE  5010               	movf	(fputs@i+1)^(0+1280),w,c
  2080  003DE0  200B               	addwfc	(fputs@s+1)^(0+1280),w,c
  2081  003DE2  6EDA               	movwf	fsr2h,c
  2082  003DE4  50DF               	movf	indf2,w,c
  2083  003DE6  6E0E               	movwf	fputs@c^(0+1280),c
  2084  003DE8  500E               	movf	fputs@c^(0+1280),w,c
  2085  003DEA  A4D8               	btfss	status,2,c
  2086  003DEC  EFFA  F01E         	goto	u1181
  2087  003DF0  EFFC  F01E         	goto	u1180
  2088  003DF4                     u1181:
  2089  003DF4  EFE1  F01E         	goto	l1905
  2090  003DF8                     u1180:
  2091  003DF8  0012               	return		;funcret
  2092  003DFA                     __end_of_fputs:
  2093                           	callstack 0
  2094                           
  2095 ;; *************** function _fputc *****************
  2096 ;; Defined at:
  2097 ;;		line 8 in file "C:\Program Files\Microchip\xc8\v2.32\pic\sources\c99\common\nf_fputc.c"
  2098 ;; Parameters:    Size  Location     Type
  2099 ;;  c               2    0[COMRAM] int 
  2100 ;;  fp              2    2[COMRAM] PTR struct _IO_FILE
  2101 ;;		 -> sprintf@f(6), 
  2102 ;; Auto vars:     Size  Location     Type
  2103 ;;		None
  2104 ;; Return value:  Size  Location     Type
  2105 ;;                  2    0[COMRAM] int 
  2106 ;; Registers used:
  2107 ;;		wreg, fsr1l, fsr1h, fsr2l, fsr2h, status,2, status,0, cstack
  2108 ;; Tracked objects:
  2109 ;;		On entry : 0/0
  2110 ;;		On exit  : 0/0
  2111 ;;		Unchanged: 0/0
  2112 ;; Data sizes:     COMRAM   BANK5   BANK6   BANK7   BANK8   BANK9  BANK10  BANK11  BANK12  BANK13  BANK14  BANK15  BANK1
      +6  BANK17  BANK18  BANK19  BANK20  BANK21  BANK22  BANK23  BANK24  BANK25  BANK26  BANK27  BANK28  BANK29  BANK30  BANK3
      +1  BANK32  BANK33  BANK34  BANK35  BANK36
  2113 ;;      Params:         4       0       0       0       0       0       0       0       0       0       0       0       
      +0       0       0       0       0       0       0       0       0       0       0       0       0       0       0       
      +0       0       0       0       0       0
  2114 ;;      Locals:         0       0       0       0       0       0       0       0       0       0       0       0       
      +0       0       0       0       0       0       0       0       0       0       0       0       0       0       0       
      +0       0       0       0       0       0
  2115 ;;      Temps:          5       0       0       0       0       0       0       0       0       0       0       0       
      +0       0       0       0       0       0       0       0       0       0       0       0       0       0       0       
      +0       0       0       0       0       0
  2116 ;;      Totals:         9       0       0       0       0       0       0       0       0       0       0       0       
      +0       0       0       0       0       0       0       0       0       0       0       0       0       0       0       
      +0       0       0       0       0       0
  2117 ;;Total ram usage:        9 bytes
  2118 ;; Hardware stack levels used: 1
  2119 ;; Hardware stack levels required when called: 2
  2120 ;; This function calls:
  2121 ;;		_putch
  2122 ;; This function is called by:
  2123 ;;		_pad
  2124 ;;		_vfpfcnvrt
  2125 ;;		_fputs
  2126 ;; This function uses a non-reentrant model
  2127 ;;
  2128                           
  2129                           	psect	text8
  2130  003942                     __ptext8:
  2131                           	callstack 0
  2132  003942                     _fputc:
  2133                           	callstack 118
  2134  003942  5003               	movf	fputc@fp^(0+1280),w,c
  2135  003944  1004               	iorwf	(fputc@fp+1)^(0+1280),w,c
  2136  003946  B4D8               	btfsc	status,2,c
  2137  003948  EFA8  F01C         	goto	u1141
  2138  00394C  EFAA  F01C         	goto	u1140
  2139  003950                     u1141:
  2140  003950  EFB3  F01C         	goto	l1893
  2141  003954                     u1140:
  2142  003954  5003               	movf	fputc@fp^(0+1280),w,c
  2143  003956  1004               	iorwf	(fputc@fp+1)^(0+1280),w,c
  2144  003958  A4D8               	btfss	status,2,c
  2145  00395A  EFB1  F01C         	goto	u1151
  2146  00395E  EFB3  F01C         	goto	u1150
  2147  003962                     u1151:
  2148  003962  EFB8  F01C         	goto	l1895
  2149  003966                     u1150:
  2150  003966                     l1893:
  2151  003966  5001               	movf	fputc@c^(0+1280),w,c
  2152  003968  EC48  F020         	call	_putch
  2153  00396C  EF0C  F01D         	goto	l978
  2154  003970                     l1895:
  2155  003970  EE20 F004          	lfsr	2,4
  2156  003974  5003               	movf	fputc@fp^(0+1280),w,c
  2157  003976  26D9               	addwf	fsr2l,f,c
  2158  003978  5004               	movf	(fputc@fp+1)^(0+1280),w,c
  2159  00397A  22DA               	addwfc	fsr2h,f,c
  2160  00397C  50DE               	movf	postinc2,w,c
  2161  00397E  10DE               	iorwf	postinc2,w,c
  2162  003980  B4D8               	btfsc	status,2,c
  2163  003982  EFC5  F01C         	goto	u1161
  2164  003986  EFC7  F01C         	goto	u1160
  2165  00398A                     u1161:
  2166  00398A  EFE2  F01C         	goto	l1899
  2167  00398E                     u1160:
  2168  00398E  EE20 F004          	lfsr	2,4
  2169  003992  5003               	movf	fputc@fp^(0+1280),w,c
  2170  003994  26D9               	addwf	fsr2l,f,c
  2171  003996  5004               	movf	(fputc@fp+1)^(0+1280),w,c
  2172  003998  22DA               	addwfc	fsr2h,f,c
  2173  00399A  EE10 F002          	lfsr	1,2
  2174  00399E  5003               	movf	fputc@fp^(0+1280),w,c
  2175  0039A0  26E1               	addwf	fsr1l,f,c
  2176  0039A2  5004               	movf	(fputc@fp+1)^(0+1280),w,c
  2177  0039A4  22E2               	addwfc	fsr1h,f,c
  2178  0039A6  50DE               	movf	postinc2,w,c
  2179  0039A8  5CE6               	subwf	postinc1,w,c
  2180  0039AA  50E6               	movf	postinc1,w,c
  2181  0039AC  0A80               	xorlw	128
  2182  0039AE  6E09               	movwf	(??_fputc+4)^(0+1280),c
  2183  0039B0  50DE               	movf	postinc2,w,c
  2184  0039B2  0A80               	xorlw	128
  2185  0039B4  5809               	subwfb	(??_fputc+4)^(0+1280),w,c
  2186  0039B6  B0D8               	btfsc	status,0,c
  2187  0039B8  EFE0  F01C         	goto	u1171
  2188  0039BC  EFE2  F01C         	goto	u1170
  2189  0039C0                     u1171:
  2190  0039C0  EF0C  F01D         	goto	l978
  2191  0039C4                     u1170:
  2192  0039C4                     l1899:
  2193  0039C4  EE20 F002          	lfsr	2,2
  2194  0039C8  5003               	movf	fputc@fp^(0+1280),w,c
  2195  0039CA  26D9               	addwf	fsr2l,f,c
  2196  0039CC  5004               	movf	(fputc@fp+1)^(0+1280),w,c
  2197  0039CE  22DA               	addwfc	fsr2h,f,c
  2198  0039D0  0061 F378  F505    	movff	postinc2,??_fputc
  2199  0039D6  0061 F374  F506    	movff	postdec2,??_fputc+1
  2200  0039DC  0061  F40C  F4D9   	movff	fputc@fp,fsr2l
  2201  0039E2  0061  F410  F4DA   	movff	fputc@fp+1,fsr2h
  2202  0039E8  0061 F378  F507    	movff	postinc2,??_fputc+2
  2203  0039EE  0061 F374  F508    	movff	postdec2,??_fputc+3
  2204  0039F4  5005               	movf	??_fputc^(0+1280),w,c
  2205  0039F6  2407               	addwf	(??_fputc+2)^(0+1280),w,c
  2206  0039F8  6ED9               	movwf	fsr2l,c
  2207  0039FA  5006               	movf	(??_fputc+1)^(0+1280),w,c
  2208  0039FC  2008               	addwfc	(??_fputc+3)^(0+1280),w,c
  2209  0039FE  6EDA               	movwf	fsr2h,c
  2210  003A00  0061  F404  F4DF   	movff	fputc@c,indf2
  2211  003A06  EE20 F002          	lfsr	2,2
  2212  003A0A  5003               	movf	fputc@fp^(0+1280),w,c
  2213  003A0C  26D9               	addwf	fsr2l,f,c
  2214  003A0E  5004               	movf	(fputc@fp+1)^(0+1280),w,c
  2215  003A10  22DA               	addwfc	fsr2h,f,c
  2216  003A12  2ADE               	incf	postinc2,f,c
  2217  003A14  0E00               	movlw	0
  2218  003A16  22DD               	addwfc	postdec2,f,c
  2219  003A18                     l978:
  2220  003A18  0012               	return		;funcret
  2221  003A1A                     __end_of_fputc:
  2222                           	callstack 0
  2223                           
  2224 ;; *************** function _putch *****************
  2225 ;; Defined at:
  2226 ;;		line 7 in file "C:\Program Files\Microchip\xc8\v2.32\pic\sources\c99\common\putch.c"
  2227 ;; Parameters:    Size  Location     Type
  2228 ;;  c               1    wreg     unsigned char 
  2229 ;; Auto vars:     Size  Location     Type
  2230 ;;  c               1    0[COMRAM] unsigned char 
  2231 ;; Return value:  Size  Location     Type
  2232 ;;                  1    wreg      void 
  2233 ;; Registers used:
  2234 ;;		wreg
  2235 ;; Tracked objects:
  2236 ;;		On entry : 0/0
  2237 ;;		On exit  : 0/0
  2238 ;;		Unchanged: 0/0
  2239 ;; Data sizes:     COMRAM   BANK5   BANK6   BANK7   BANK8   BANK9  BANK10  BANK11  BANK12  BANK13  BANK14  BANK15  BANK1
      +6  BANK17  BANK18  BANK19  BANK20  BANK21  BANK22  BANK23  BANK24  BANK25  BANK26  BANK27  BANK28  BANK29  BANK30  BANK3
      +1  BANK32  BANK33  BANK34  BANK35  BANK36
  2240 ;;      Params:         0       0       0       0       0       0       0       0       0       0       0       0       
      +0       0       0       0       0       0       0       0       0       0       0       0       0       0       0       
      +0       0       0       0       0       0
  2241 ;;      Locals:         0       0       0       0       0       0       0       0       0       0       0       0       
      +0       0       0       0       0       0       0       0       0       0       0       0       0       0       0       
      +0       0       0       0       0       0
  2242 ;;      Temps:          0       0       0       0       0       0       0       0       0       0       0       0       
      +0       0       0       0       0       0       0       0       0       0       0       0       0       0       0       
      +0       0       0       0       0       0
  2243 ;;      Totals:         0       0       0       0       0       0       0       0       0       0       0       0       
      +0       0       0       0       0       0       0       0       0       0       0       0       0       0       0       
      +0       0       0       0       0       0
  2244 ;;Total ram usage:        0 bytes
  2245 ;; Hardware stack levels used: 1
  2246 ;; Hardware stack levels required when called: 1
  2247 ;; This function calls:
  2248 ;;		Nothing
  2249 ;; This function is called by:
  2250 ;;		_fputc
  2251 ;; This function uses a non-reentrant model
  2252 ;;
  2253                           
  2254                           	psect	text9
  2255  004090                     __ptext9:
  2256                           	callstack 0
  2257  004090                     _putch:
  2258                           	callstack 118
  2259  004090  0012               	return		;funcret
  2260  004092                     __end_of_putch:
  2261                           	callstack 0
  2262                           
  2263 ;; *************** function ___lomod *****************
  2264 ;; Defined at:
  2265 ;;		line 9 in file "C:\Program Files\Microchip\xc8\v2.32\pic\sources\c99\common\lomod.c"
  2266 ;; Parameters:    Size  Location     Type
  2267 ;;  dividend        8    0[COMRAM] unsigned long long 
  2268 ;;  divisor         8    8[COMRAM] unsigned long long 
  2269 ;; Auto vars:     Size  Location     Type
  2270 ;;  counter         1   16[COMRAM] unsigned char 
  2271 ;; Return value:  Size  Location     Type
  2272 ;;                  8    0[COMRAM] unsigned long long 
  2273 ;; Registers used:
  2274 ;;		wreg, status,2, status,0
  2275 ;; Tracked objects:
  2276 ;;		On entry : 0/0
  2277 ;;		On exit  : 0/0
  2278 ;;		Unchanged: 0/0
  2279 ;; Data sizes:     COMRAM   BANK5   BANK6   BANK7   BANK8   BANK9  BANK10  BANK11  BANK12  BANK13  BANK14  BANK15  BANK1
      +6  BANK17  BANK18  BANK19  BANK20  BANK21  BANK22  BANK23  BANK24  BANK25  BANK26  BANK27  BANK28  BANK29  BANK30  BANK3
      +1  BANK32  BANK33  BANK34  BANK35  BANK36
  2280 ;;      Params:        16       0       0       0       0       0       0       0       0       0       0       0       
      +0       0       0       0       0       0       0       0       0       0       0       0       0       0       0       
      +0       0       0       0       0       0
  2281 ;;      Locals:         1       0       0       0       0       0       0       0       0       0       0       0       
      +0       0       0       0       0       0       0       0       0       0       0       0       0       0       0       
      +0       0       0       0       0       0
  2282 ;;      Temps:          0       0       0       0       0       0       0       0       0       0       0       0       
      +0       0       0       0       0       0       0       0       0       0       0       0       0       0       0       
      +0       0       0       0       0       0
  2283 ;;      Totals:        17       0       0       0       0       0       0       0       0       0       0       0       
      +0       0       0       0       0       0       0       0       0       0       0       0       0       0       0       
      +0       0       0       0       0       0
  2284 ;;Total ram usage:       17 bytes
  2285 ;; Hardware stack levels used: 1
  2286 ;; Hardware stack levels required when called: 1
  2287 ;; This function calls:
  2288 ;;		Nothing
  2289 ;; This function is called by:
  2290 ;;		_utoa
  2291 ;; This function uses a non-reentrant model
  2292 ;;
  2293                           
  2294                           	psect	text10
  2295  003A1A                     __ptext10:
  2296                           	callstack 0
  2297  003A1A                     ___lomod:
  2298                           	callstack 121
  2299  003A1A  5009               	movf	___lomod@divisor^(0+1280),w,c
  2300  003A1C  100A               	iorwf	(___lomod@divisor+1)^(0+1280),w,c
  2301  003A1E  100B               	iorwf	(___lomod@divisor+2)^(0+1280),w,c
  2302  003A20  100C               	iorwf	(___lomod@divisor+3)^(0+1280),w,c
  2303  003A22  100D               	iorwf	(___lomod@divisor+4)^(0+1280),w,c
  2304  003A24  100E               	iorwf	(___lomod@divisor+5)^(0+1280),w,c
  2305  003A26  100F               	iorwf	(___lomod@divisor+6)^(0+1280),w,c
  2306  003A28  1010               	iorwf	(___lomod@divisor+7)^(0+1280),w,c
  2307  003A2A  B4D8               	btfsc	status,2,c
  2308  003A2C  EF1A  F01D         	goto	u1241
  2309  003A30  EF1C  F01D         	goto	u1240
  2310  003A34                     u1241:
  2311  003A34  EF64  F01D         	goto	l608
  2312  003A38                     u1240:
  2313  003A38  0E01               	movlw	1
  2314  003A3A  6E11               	movwf	___lomod@counter^(0+1280),c
  2315  003A3C  EF2A  F01D         	goto	l1955
  2316  003A40                     l1953:
  2317  003A40  90D8               	bcf	status,0,c
  2318  003A42  3609               	rlcf	___lomod@divisor^(0+1280),f,c
  2319  003A44  360A               	rlcf	(___lomod@divisor+1)^(0+1280),f,c
  2320  003A46  360B               	rlcf	(___lomod@divisor+2)^(0+1280),f,c
  2321  003A48  360C               	rlcf	(___lomod@divisor+3)^(0+1280),f,c
  2322  003A4A  360D               	rlcf	(___lomod@divisor+4)^(0+1280),f,c
  2323  003A4C  360E               	rlcf	(___lomod@divisor+5)^(0+1280),f,c
  2324  003A4E  360F               	rlcf	(___lomod@divisor+6)^(0+1280),f,c
  2325  003A50  3610               	rlcf	(___lomod@divisor+7)^(0+1280),f,c
  2326  003A52  2A11               	incf	___lomod@counter^(0+1280),f,c
  2327  003A54                     l1955:
  2328  003A54  AE10               	btfss	(___lomod@divisor+7)^(0+1280),7,c
  2329  003A56  EF2F  F01D         	goto	u1251
  2330  003A5A  EF31  F01D         	goto	u1250
  2331  003A5E                     u1251:
  2332  003A5E  EF20  F01D         	goto	l1953
  2333  003A62                     u1250:
  2334  003A62                     l1957:
  2335  003A62  5009               	movf	___lomod@divisor^(0+1280),w,c
  2336  003A64  5C01               	subwf	___lomod@dividend^(0+1280),w,c
  2337  003A66  500A               	movf	(___lomod@divisor+1)^(0+1280),w,c
  2338  003A68  5802               	subwfb	(___lomod@dividend+1)^(0+1280),w,c
  2339  003A6A  500B               	movf	(___lomod@divisor+2)^(0+1280),w,c
  2340  003A6C  5803               	subwfb	(___lomod@dividend+2)^(0+1280),w,c
  2341  003A6E  500C               	movf	(___lomod@divisor+3)^(0+1280),w,c
  2342  003A70  5804               	subwfb	(___lomod@dividend+3)^(0+1280),w,c
  2343  003A72  500D               	movf	(___lomod@divisor+4)^(0+1280),w,c
  2344  003A74  5805               	subwfb	(___lomod@dividend+4)^(0+1280),w,c
  2345  003A76  500E               	movf	(___lomod@divisor+5)^(0+1280),w,c
  2346  003A78  5806               	subwfb	(___lomod@dividend+5)^(0+1280),w,c
  2347  003A7A  500F               	movf	(___lomod@divisor+6)^(0+1280),w,c
  2348  003A7C  5807               	subwfb	(___lomod@dividend+6)^(0+1280),w,c
  2349  003A7E  5010               	movf	(___lomod@divisor+7)^(0+1280),w,c
  2350  003A80  5808               	subwfb	(___lomod@dividend+7)^(0+1280),w,c
  2351  003A82  A0D8               	btfss	status,0,c
  2352  003A84  EF46  F01D         	goto	u1261
  2353  003A88  EF48  F01D         	goto	u1260
  2354  003A8C                     u1261:
  2355  003A8C  EF58  F01D         	goto	l1961
  2356  003A90                     u1260:
  2357  003A90  5009               	movf	___lomod@divisor^(0+1280),w,c
  2358  003A92  5E01               	subwf	___lomod@dividend^(0+1280),f,c
  2359  003A94  500A               	movf	(___lomod@divisor+1)^(0+1280),w,c
  2360  003A96  5A02               	subwfb	(___lomod@dividend+1)^(0+1280),f,c
  2361  003A98  500B               	movf	(___lomod@divisor+2)^(0+1280),w,c
  2362  003A9A  5A03               	subwfb	(___lomod@dividend+2)^(0+1280),f,c
  2363  003A9C  500C               	movf	(___lomod@divisor+3)^(0+1280),w,c
  2364  003A9E  5A04               	subwfb	(___lomod@dividend+3)^(0+1280),f,c
  2365  003AA0  500D               	movf	(___lomod@divisor+4)^(0+1280),w,c
  2366  003AA2  5A05               	subwfb	(___lomod@dividend+4)^(0+1280),f,c
  2367  003AA4  500E               	movf	(___lomod@divisor+5)^(0+1280),w,c
  2368  003AA6  5A06               	subwfb	(___lomod@dividend+5)^(0+1280),f,c
  2369  003AA8  500F               	movf	(___lomod@divisor+6)^(0+1280),w,c
  2370  003AAA  5A07               	subwfb	(___lomod@dividend+6)^(0+1280),f,c
  2371  003AAC  5010               	movf	(___lomod@divisor+7)^(0+1280),w,c
  2372  003AAE  5A08               	subwfb	(___lomod@dividend+7)^(0+1280),f,c
  2373  003AB0                     l1961:
  2374  003AB0  90D8               	bcf	status,0,c
  2375  003AB2  3210               	rrcf	(___lomod@divisor+7)^(0+1280),f,c
  2376  003AB4  320F               	rrcf	(___lomod@divisor+6)^(0+1280),f,c
  2377  003AB6  320E               	rrcf	(___lomod@divisor+5)^(0+1280),f,c
  2378  003AB8  320D               	rrcf	(___lomod@divisor+4)^(0+1280),f,c
  2379  003ABA  320C               	rrcf	(___lomod@divisor+3)^(0+1280),f,c
  2380  003ABC  320B               	rrcf	(___lomod@divisor+2)^(0+1280),f,c
  2381  003ABE  320A               	rrcf	(___lomod@divisor+1)^(0+1280),f,c
  2382  003AC0  3209               	rrcf	___lomod@divisor^(0+1280),f,c
  2383  003AC2  2E11               	decfsz	___lomod@counter^(0+1280),f,c
  2384  003AC4  EF31  F01D         	goto	l1957
  2385  003AC8                     l608:
  2386  003AC8  C501  F501         	movff	___lomod@dividend,?___lomod
  2387  003ACC  C502  F502         	movff	___lomod@dividend+1,?___lomod+1
  2388  003AD0  C503  F503         	movff	___lomod@dividend+2,?___lomod+2
  2389  003AD4  C504  F504         	movff	___lomod@dividend+3,?___lomod+3
  2390  003AD8  C505  F505         	movff	___lomod@dividend+4,?___lomod+4
  2391  003ADC  C506  F506         	movff	___lomod@dividend+5,?___lomod+5
  2392  003AE0  C507  F507         	movff	___lomod@dividend+6,?___lomod+6
  2393  003AE4  C508  F508         	movff	___lomod@dividend+7,?___lomod+7
  2394  003AE8  0012               	return		;funcret
  2395  003AEA                     __end_of___lomod:
  2396                           	callstack 0
  2397                           
  2398 ;; *************** function ___lodiv *****************
  2399 ;; Defined at:
  2400 ;;		line 9 in file "C:\Program Files\Microchip\xc8\v2.32\pic\sources\c99\common\lodiv.c"
  2401 ;; Parameters:    Size  Location     Type
  2402 ;;  dividend        8    0[COMRAM] unsigned long long 
  2403 ;;  divisor         8    8[COMRAM] unsigned long long 
  2404 ;; Auto vars:     Size  Location     Type
  2405 ;;  quotient        8   16[COMRAM] unsigned long long 
  2406 ;;  counter         1   24[COMRAM] unsigned char 
  2407 ;; Return value:  Size  Location     Type
  2408 ;;                  8    0[COMRAM] unsigned long long 
  2409 ;; Registers used:
  2410 ;;		wreg, fsr2l, fsr2h, status,2, status,0
  2411 ;; Tracked objects:
  2412 ;;		On entry : 0/0
  2413 ;;		On exit  : 0/0
  2414 ;;		Unchanged: 0/0
  2415 ;; Data sizes:     COMRAM   BANK5   BANK6   BANK7   BANK8   BANK9  BANK10  BANK11  BANK12  BANK13  BANK14  BANK15  BANK1
      +6  BANK17  BANK18  BANK19  BANK20  BANK21  BANK22  BANK23  BANK24  BANK25  BANK26  BANK27  BANK28  BANK29  BANK30  BANK3
      +1  BANK32  BANK33  BANK34  BANK35  BANK36
  2416 ;;      Params:        16       0       0       0       0       0       0       0       0       0       0       0       
      +0       0       0       0       0       0       0       0       0       0       0       0       0       0       0       
      +0       0       0       0       0       0
  2417 ;;      Locals:         9       0       0       0       0       0       0       0       0       0       0       0       
      +0       0       0       0       0       0       0       0       0       0       0       0       0       0       0       
      +0       0       0       0       0       0
  2418 ;;      Temps:          0       0       0       0       0       0       0       0       0       0       0       0       
      +0       0       0       0       0       0       0       0       0       0       0       0       0       0       0       
      +0       0       0       0       0       0
  2419 ;;      Totals:        25       0       0       0       0       0       0       0       0       0       0       0       
      +0       0       0       0       0       0       0       0       0       0       0       0       0       0       0       
      +0       0       0       0       0       0
  2420 ;;Total ram usage:       25 bytes
  2421 ;; Hardware stack levels used: 1
  2422 ;; Hardware stack levels required when called: 1
  2423 ;; This function calls:
  2424 ;;		Nothing
  2425 ;; This function is called by:
  2426 ;;		_utoa
  2427 ;; This function uses a non-reentrant model
  2428 ;;
  2429                           
  2430                           	psect	text11
  2431  003852                     __ptext11:
  2432                           	callstack 0
  2433  003852                     ___lodiv:
  2434                           	callstack 121
  2435  003852  EE21  F111         	lfsr	2,___lodiv@quotient
  2436  003856  0E07               	movlw	7
  2437  003858                     u1201:
  2438  003858  6ADE               	clrf	postinc2,c
  2439  00385A  06E8               	decf	wreg,f,c
  2440  00385C  E2FD               	bc	u1201
  2441  00385E  5009               	movf	___lodiv@divisor^(0+1280),w,c
  2442  003860  100A               	iorwf	(___lodiv@divisor+1)^(0+1280),w,c
  2443  003862  100B               	iorwf	(___lodiv@divisor+2)^(0+1280),w,c
  2444  003864  100C               	iorwf	(___lodiv@divisor+3)^(0+1280),w,c
  2445  003866  100D               	iorwf	(___lodiv@divisor+4)^(0+1280),w,c
  2446  003868  100E               	iorwf	(___lodiv@divisor+5)^(0+1280),w,c
  2447  00386A  100F               	iorwf	(___lodiv@divisor+6)^(0+1280),w,c
  2448  00386C  1010               	iorwf	(___lodiv@divisor+7)^(0+1280),w,c
  2449  00386E  B4D8               	btfsc	status,2,c
  2450  003870  EF3C  F01C         	goto	u1211
  2451  003874  EF3E  F01C         	goto	u1210
  2452  003878                     u1211:
  2453  003878  EF90  F01C         	goto	l598
  2454  00387C                     u1210:
  2455  00387C  0E01               	movlw	1
  2456  00387E  6E19               	movwf	___lodiv@counter^(0+1280),c
  2457  003880  EF4C  F01C         	goto	l1935
  2458  003884                     l1933:
  2459  003884  90D8               	bcf	status,0,c
  2460  003886  3609               	rlcf	___lodiv@divisor^(0+1280),f,c
  2461  003888  360A               	rlcf	(___lodiv@divisor+1)^(0+1280),f,c
  2462  00388A  360B               	rlcf	(___lodiv@divisor+2)^(0+1280),f,c
  2463  00388C  360C               	rlcf	(___lodiv@divisor+3)^(0+1280),f,c
  2464  00388E  360D               	rlcf	(___lodiv@divisor+4)^(0+1280),f,c
  2465  003890  360E               	rlcf	(___lodiv@divisor+5)^(0+1280),f,c
  2466  003892  360F               	rlcf	(___lodiv@divisor+6)^(0+1280),f,c
  2467  003894  3610               	rlcf	(___lodiv@divisor+7)^(0+1280),f,c
  2468  003896  2A19               	incf	___lodiv@counter^(0+1280),f,c
  2469  003898                     l1935:
  2470  003898  AE10               	btfss	(___lodiv@divisor+7)^(0+1280),7,c
  2471  00389A  EF51  F01C         	goto	u1221
  2472  00389E  EF53  F01C         	goto	u1220
  2473  0038A2                     u1221:
  2474  0038A2  EF42  F01C         	goto	l1933
  2475  0038A6                     u1220:
  2476  0038A6                     l1937:
  2477  0038A6  90D8               	bcf	status,0,c
  2478  0038A8  3611               	rlcf	___lodiv@quotient^(0+1280),f,c
  2479  0038AA  3612               	rlcf	(___lodiv@quotient+1)^(0+1280),f,c
  2480  0038AC  3613               	rlcf	(___lodiv@quotient+2)^(0+1280),f,c
  2481  0038AE  3614               	rlcf	(___lodiv@quotient+3)^(0+1280),f,c
  2482  0038B0  3615               	rlcf	(___lodiv@quotient+4)^(0+1280),f,c
  2483  0038B2  3616               	rlcf	(___lodiv@quotient+5)^(0+1280),f,c
  2484  0038B4  3617               	rlcf	(___lodiv@quotient+6)^(0+1280),f,c
  2485  0038B6  3618               	rlcf	(___lodiv@quotient+7)^(0+1280),f,c
  2486  0038B8  5009               	movf	___lodiv@divisor^(0+1280),w,c
  2487  0038BA  5C01               	subwf	___lodiv@dividend^(0+1280),w,c
  2488  0038BC  500A               	movf	(___lodiv@divisor+1)^(0+1280),w,c
  2489  0038BE  5802               	subwfb	(___lodiv@dividend+1)^(0+1280),w,c
  2490  0038C0  500B               	movf	(___lodiv@divisor+2)^(0+1280),w,c
  2491  0038C2  5803               	subwfb	(___lodiv@dividend+2)^(0+1280),w,c
  2492  0038C4  500C               	movf	(___lodiv@divisor+3)^(0+1280),w,c
  2493  0038C6  5804               	subwfb	(___lodiv@dividend+3)^(0+1280),w,c
  2494  0038C8  500D               	movf	(___lodiv@divisor+4)^(0+1280),w,c
  2495  0038CA  5805               	subwfb	(___lodiv@dividend+4)^(0+1280),w,c
  2496  0038CC  500E               	movf	(___lodiv@divisor+5)^(0+1280),w,c
  2497  0038CE  5806               	subwfb	(___lodiv@dividend+5)^(0+1280),w,c
  2498  0038D0  500F               	movf	(___lodiv@divisor+6)^(0+1280),w,c
  2499  0038D2  5807               	subwfb	(___lodiv@dividend+6)^(0+1280),w,c
  2500  0038D4  5010               	movf	(___lodiv@divisor+7)^(0+1280),w,c
  2501  0038D6  5808               	subwfb	(___lodiv@dividend+7)^(0+1280),w,c
  2502  0038D8  A0D8               	btfss	status,0,c
  2503  0038DA  EF71  F01C         	goto	u1231
  2504  0038DE  EF73  F01C         	goto	u1230
  2505  0038E2                     u1231:
  2506  0038E2  EF84  F01C         	goto	l1945
  2507  0038E6                     u1230:
  2508  0038E6  5009               	movf	___lodiv@divisor^(0+1280),w,c
  2509  0038E8  5E01               	subwf	___lodiv@dividend^(0+1280),f,c
  2510  0038EA  500A               	movf	(___lodiv@divisor+1)^(0+1280),w,c
  2511  0038EC  5A02               	subwfb	(___lodiv@dividend+1)^(0+1280),f,c
  2512  0038EE  500B               	movf	(___lodiv@divisor+2)^(0+1280),w,c
  2513  0038F0  5A03               	subwfb	(___lodiv@dividend+2)^(0+1280),f,c
  2514  0038F2  500C               	movf	(___lodiv@divisor+3)^(0+1280),w,c
  2515  0038F4  5A04               	subwfb	(___lodiv@dividend+3)^(0+1280),f,c
  2516  0038F6  500D               	movf	(___lodiv@divisor+4)^(0+1280),w,c
  2517  0038F8  5A05               	subwfb	(___lodiv@dividend+4)^(0+1280),f,c
  2518  0038FA  500E               	movf	(___lodiv@divisor+5)^(0+1280),w,c
  2519  0038FC  5A06               	subwfb	(___lodiv@dividend+5)^(0+1280),f,c
  2520  0038FE  500F               	movf	(___lodiv@divisor+6)^(0+1280),w,c
  2521  003900  5A07               	subwfb	(___lodiv@dividend+6)^(0+1280),f,c
  2522  003902  5010               	movf	(___lodiv@divisor+7)^(0+1280),w,c
  2523  003904  5A08               	subwfb	(___lodiv@dividend+7)^(0+1280),f,c
  2524  003906  8011               	bsf	___lodiv@quotient^(0+1280),0,c
  2525  003908                     l1945:
  2526  003908  90D8               	bcf	status,0,c
  2527  00390A  3210               	rrcf	(___lodiv@divisor+7)^(0+1280),f,c
  2528  00390C  320F               	rrcf	(___lodiv@divisor+6)^(0+1280),f,c
  2529  00390E  320E               	rrcf	(___lodiv@divisor+5)^(0+1280),f,c
  2530  003910  320D               	rrcf	(___lodiv@divisor+4)^(0+1280),f,c
  2531  003912  320C               	rrcf	(___lodiv@divisor+3)^(0+1280),f,c
  2532  003914  320B               	rrcf	(___lodiv@divisor+2)^(0+1280),f,c
  2533  003916  320A               	rrcf	(___lodiv@divisor+1)^(0+1280),f,c
  2534  003918  3209               	rrcf	___lodiv@divisor^(0+1280),f,c
  2535  00391A  2E19               	decfsz	___lodiv@counter^(0+1280),f,c
  2536  00391C  EF53  F01C         	goto	l1937
  2537  003920                     l598:
  2538  003920  C511  F501         	movff	___lodiv@quotient,?___lodiv
  2539  003924  C512  F502         	movff	___lodiv@quotient+1,?___lodiv+1
  2540  003928  C513  F503         	movff	___lodiv@quotient+2,?___lodiv+2
  2541  00392C  C514  F504         	movff	___lodiv@quotient+3,?___lodiv+3
  2542  003930  C515  F505         	movff	___lodiv@quotient+4,?___lodiv+4
  2543  003934  C516  F506         	movff	___lodiv@quotient+5,?___lodiv+5
  2544  003938  C517  F507         	movff	___lodiv@quotient+6,?___lodiv+6
  2545  00393C  C518  F508         	movff	___lodiv@quotient+7,?___lodiv+7
  2546  003940  0012               	return		;funcret
  2547  003942                     __end_of___lodiv:
  2548                           	callstack 0
  2549                           
  2550 ;; *************** function _atoi *****************
  2551 ;; Defined at:
  2552 ;;		line 4 in file "C:\Program Files\Microchip\xc8\v2.32\pic\sources\c99\common\atoi.c"
  2553 ;; Parameters:    Size  Location     Type
  2554 ;;  s               2    7[COMRAM] PTR const unsigned char 
  2555 ;;		 -> STR_2(9), 
  2556 ;; Auto vars:     Size  Location     Type
  2557 ;;  n               2   20[COMRAM] int 
  2558 ;;  neg             2   13[COMRAM] int 
  2559 ;; Return value:  Size  Location     Type
  2560 ;;                  2    7[COMRAM] int 
  2561 ;; Registers used:
  2562 ;;		wreg, status,2, status,0, tblptrl, tblptrh, tblptru, prodl, prodh, cstack
  2563 ;; Tracked objects:
  2564 ;;		On entry : 0/0
  2565 ;;		On exit  : 0/0
  2566 ;;		Unchanged: 0/0
  2567 ;; Data sizes:     COMRAM   BANK5   BANK6   BANK7   BANK8   BANK9  BANK10  BANK11  BANK12  BANK13  BANK14  BANK15  BANK1
      +6  BANK17  BANK18  BANK19  BANK20  BANK21  BANK22  BANK23  BANK24  BANK25  BANK26  BANK27  BANK28  BANK29  BANK30  BANK3
      +1  BANK32  BANK33  BANK34  BANK35  BANK36
  2568 ;;      Params:         2       0       0       0       0       0       0       0       0       0       0       0       
      +0       0       0       0       0       0       0       0       0       0       0       0       0       0       0       
      +0       0       0       0       0       0
  2569 ;;      Locals:         9       0       0       0       0       0       0       0       0       0       0       0       
      +0       0       0       0       0       0       0       0       0       0       0       0       0       0       0       
      +0       0       0       0       0       0
  2570 ;;      Temps:          4       0       0       0       0       0       0       0       0       0       0       0       
      +0       0       0       0       0       0       0       0       0       0       0       0       0       0       0       
      +0       0       0       0       0       0
  2571 ;;      Totals:        15       0       0       0       0       0       0       0       0       0       0       0       
      +0       0       0       0       0       0       0       0       0       0       0       0       0       0       0       
      +0       0       0       0       0       0
  2572 ;;Total ram usage:       15 bytes
  2573 ;; Hardware stack levels used: 1
  2574 ;; Hardware stack levels required when called: 2
  2575 ;; This function calls:
  2576 ;;		___wmul
  2577 ;;		_isdigit
  2578 ;;		_isspace
  2579 ;; This function is called by:
  2580 ;;		_vfpfcnvrt
  2581 ;; This function uses a non-reentrant model
  2582 ;;
  2583                           
  2584                           	psect	text12
  2585  0032D6                     __ptext12:
  2586                           	callstack 0
  2587  0032D6                     _atoi:
  2588                           	callstack 121
  2589  0032D6  0E00               	movlw	0
  2590  0032D8  6E16               	movwf	(atoi@n+1)^(0+1280),c
  2591  0032DA  0E00               	movlw	0
  2592  0032DC  6E15               	movwf	atoi@n^(0+1280),c
  2593  0032DE  0E00               	movlw	0
  2594  0032E0  6E0F               	movwf	(atoi@neg+1)^(0+1280),c
  2595  0032E2  0E00               	movlw	0
  2596  0032E4  6E0E               	movwf	atoi@neg^(0+1280),c
  2597  0032E6  EF77  F019         	goto	l2061
  2598  0032EA                     l2059:
  2599  0032EA  4A08               	infsnz	atoi@s^(0+1280),f,c
  2600  0032EC  2A09               	incf	(atoi@s+1)^(0+1280),f,c
  2601  0032EE                     l2061:
  2602  0032EE  0E01               	movlw	1
  2603  0032F0  6E14               	movwf	_atoi$872^(0+1280),c
  2604  0032F2  0061  F420  F4F6   	movff	atoi@s,tblptrl
  2605  0032F8  0061  F424  F4F7   	movff	atoi@s+1,tblptrh
  2606  0032FE                     	if	0	;tblptru may be non-zero
  2607  0032FE                     	endif
  2608  0032FE                     	if	1	;Program memory is > 0xFFFF, there are 3 active tblptr bytes
  2609  0032FE  0E00               	movlw	low (__mediumconst shr (0+16))
  2610  003300  6EF8               	movwf	tblptru,c
  2611  003302                     	endif
  2612  003302  0008               	tblrd		*
  2613  003304  50F5               	movf	tablat,w,c
  2614  003306  0A20               	xorlw	32
  2615  003308  B4D8               	btfsc	status,2,c
  2616  00330A  EF89  F019         	goto	u1421
  2617  00330E  EF8B  F019         	goto	u1420
  2618  003312                     u1421:
  2619  003312  EFAC  F019         	goto	l2069
  2620  003316                     u1420:
  2621  003316  0EF7               	movlw	247
  2622  003318  6E0A               	movwf	??_atoi^(0+1280),c
  2623  00331A  0EFF               	movlw	255
  2624  00331C  6E0B               	movwf	(??_atoi+1)^(0+1280),c
  2625  00331E  0061  F420  F4F6   	movff	atoi@s,tblptrl
  2626  003324  0061  F424  F4F7   	movff	atoi@s+1,tblptrh
  2627  00332A                     	if	0	;tblptru may be non-zero
  2628  00332A                     	endif
  2629  00332A                     	if	1	;Program memory is > 0xFFFF, there are 3 active tblptr bytes
  2630  00332A  0E00               	movlw	low (__mediumconst shr (0+16))
  2631  00332C  6EF8               	movwf	tblptru,c
  2632  00332E                     	endif
  2633  00332E  0008               	tblrd		*
  2634  003330  50F5               	movf	tablat,w,c
  2635  003332  6E0C               	movwf	(??_atoi+2)^(0+1280),c
  2636  003334  6A0D               	clrf	(??_atoi+3)^(0+1280),c
  2637  003336  500A               	movf	??_atoi^(0+1280),w,c
  2638  003338  260C               	addwf	(??_atoi+2)^(0+1280),f,c
  2639  00333A  500B               	movf	(??_atoi+1)^(0+1280),w,c
  2640  00333C  220D               	addwfc	(??_atoi+3)^(0+1280),f,c
  2641  00333E  500D               	movf	(??_atoi+3)^(0+1280),w,c
  2642  003340  E109               	bnz	u1430
  2643  003342  0E05               	movlw	5
  2644  003344  5C0C               	subwf	(??_atoi+2)^(0+1280),w,c
  2645  003346  A0D8               	btfss	status,0,c
  2646  003348  EFA8  F019         	goto	u1431
  2647  00334C  EFAA  F019         	goto	u1430
  2648  003350                     u1431:
  2649  003350  EFAC  F019         	goto	l2069
  2650  003354                     u1430:
  2651  003354  0E00               	movlw	0
  2652  003356  6E14               	movwf	_atoi$872^(0+1280),c
  2653  003358                     l2069:
  2654  003358  C514  F510         	movff	_atoi$872,_atoi$871
  2655  00335C  6A11               	clrf	(_atoi$871+1)^(0+1280),c
  2656  00335E  5010               	movf	_atoi$871^(0+1280),w,c
  2657  003360  1011               	iorwf	(_atoi$871+1)^(0+1280),w,c
  2658  003362  A4D8               	btfss	status,2,c
  2659  003364  EFB6  F019         	goto	u1441
  2660  003368  EFB8  F019         	goto	u1440
  2661  00336C                     u1441:
  2662  00336C  EF75  F019         	goto	l2059
  2663  003370                     u1440:
  2664  003370  EFC2  F019         	goto	l2079
  2665  003374                     l2075:
  2666  003374  0E00               	movlw	0
  2667  003376  6E0F               	movwf	(atoi@neg+1)^(0+1280),c
  2668  003378  0E01               	movlw	1
  2669  00337A  6E0E               	movwf	atoi@neg^(0+1280),c
  2670  00337C                     l2077:
  2671  00337C  4A08               	infsnz	atoi@s^(0+1280),f,c
  2672  00337E  2A09               	incf	(atoi@s+1)^(0+1280),f,c
  2673  003380  EFFF  F019         	goto	l2085
  2674  003384                     l2079:
  2675  003384  0061  F420  F4F6   	movff	atoi@s,tblptrl
  2676  00338A  0061  F424  F4F7   	movff	atoi@s+1,tblptrh
  2677  003390                     	if	0	;tblptru may be non-zero
  2678  003390                     	endif
  2679  003390                     	if	1	;Program memory is > 0xFFFF, there are 3 active tblptr bytes
  2680  003390  0E00               	movlw	low (__mediumconst shr (0+16))
  2681  003392  6EF8               	movwf	tblptru,c
  2682  003394                     	endif
  2683  003394  0008               	tblrd		*
  2684  003396  50F5               	movf	tablat,w,c
  2685  003398  6E0A               	movwf	??_atoi^(0+1280),c
  2686  00339A  6A0B               	clrf	(??_atoi+1)^(0+1280),c
  2687                           
  2688                           ; Switch on 2 bytes has been partitioned into a top level switch of size 1, and 1 sub-sw
      +                          itches
  2689                           ; Switch size 1, requested type "simple"
  2690                           ; Number of cases is 1, Range of values is 0 to 0
  2691                           ; switch strategies available:
  2692                           ; Name         Instructions Cycles
  2693                           ; simple_byte            4     3 (average)
  2694                           ;	Chosen strategy is simple_byte
  2695  00339C  500B               	movf	(??_atoi+1)^(0+1280),w,c
  2696  00339E  0A00               	xorlw	0	; case 0
  2697  0033A0  B4D8               	btfsc	status,2,c
  2698  0033A2  EFD5  F019         	goto	l2807
  2699  0033A6  EFFF  F019         	goto	l2085
  2700  0033AA                     l2807:
  2701                           
  2702                           ; Switch size 1, requested type "simple"
  2703                           ; Number of cases is 2, Range of values is 43 to 45
  2704                           ; switch strategies available:
  2705                           ; Name         Instructions Cycles
  2706                           ; simple_byte            7     4 (average)
  2707                           ;	Chosen strategy is simple_byte
  2708  0033AA  500A               	movf	??_atoi^(0+1280),w,c
  2709  0033AC  0A2B               	xorlw	43	; case 43
  2710  0033AE  B4D8               	btfsc	status,2,c
  2711  0033B0  EFBE  F019         	goto	l2077
  2712  0033B4  0A06               	xorlw	6	; case 45
  2713  0033B6  B4D8               	btfsc	status,2,c
  2714  0033B8  EFBA  F019         	goto	l2075
  2715  0033BC  EFFF  F019         	goto	l2085
  2716  0033C0                     l2081:
  2717  0033C0  C515  F501         	movff	atoi@n,___wmul@multiplier
  2718  0033C4  C516  F502         	movff	atoi@n+1,___wmul@multiplier+1
  2719  0033C8  0E00               	movlw	0
  2720  0033CA  6E04               	movwf	(___wmul@multiplicand+1)^(0+1280),c
  2721  0033CC  0E0A               	movlw	10
  2722  0033CE  6E03               	movwf	___wmul@multiplicand^(0+1280),c
  2723  0033D0  ECDA  F01F         	call	___wmul	;wreg free
  2724  0033D4  0061  F420  F4F6   	movff	atoi@s,tblptrl
  2725  0033DA  0061  F424  F4F7   	movff	atoi@s+1,tblptrh
  2726  0033E0                     	if	0	;tblptru may be non-zero
  2727  0033E0                     	endif
  2728  0033E0                     	if	1	;Program memory is > 0xFFFF, there are 3 active tblptr bytes
  2729  0033E0  0E00               	movlw	low (__mediumconst shr (0+16))
  2730  0033E2  6EF8               	movwf	tblptru,c
  2731  0033E4                     	endif
  2732  0033E4  0008               	tblrd		*
  2733  0033E6  50F5               	movf	tablat,w,c
  2734  0033E8  5E01               	subwf	?___wmul^(0+1280),f,c
  2735  0033EA  0E00               	movlw	0
  2736  0033EC  5A02               	subwfb	(?___wmul+1)^(0+1280),f,c
  2737  0033EE  0E30               	movlw	48
  2738  0033F0  2401               	addwf	?___wmul^(0+1280),w,c
  2739  0033F2  6E15               	movwf	atoi@n^(0+1280),c
  2740  0033F4  0E00               	movlw	0
  2741  0033F6  2002               	addwfc	(?___wmul+1)^(0+1280),w,c
  2742  0033F8  6E16               	movwf	(atoi@n+1)^(0+1280),c
  2743  0033FA  EFBE  F019         	goto	l2077
  2744  0033FE                     l2085:
  2745  0033FE  0ED0               	movlw	208
  2746  003400  6E0A               	movwf	??_atoi^(0+1280),c
  2747  003402  0EFF               	movlw	255
  2748  003404  6E0B               	movwf	(??_atoi+1)^(0+1280),c
  2749  003406  0061  F420  F4F6   	movff	atoi@s,tblptrl
  2750  00340C  0061  F424  F4F7   	movff	atoi@s+1,tblptrh
  2751  003412                     	if	0	;tblptru may be non-zero
  2752  003412                     	endif
  2753  003412                     	if	1	;Program memory is > 0xFFFF, there are 3 active tblptr bytes
  2754  003412  0E00               	movlw	low (__mediumconst shr (0+16))
  2755  003414  6EF8               	movwf	tblptru,c
  2756  003416                     	endif
  2757  003416  0008               	tblrd		*
  2758  003418  50F5               	movf	tablat,w,c
  2759  00341A  6E0C               	movwf	(??_atoi+2)^(0+1280),c
  2760  00341C  6A0D               	clrf	(??_atoi+3)^(0+1280),c
  2761  00341E  500A               	movf	??_atoi^(0+1280),w,c
  2762  003420  260C               	addwf	(??_atoi+2)^(0+1280),f,c
  2763  003422  500B               	movf	(??_atoi+1)^(0+1280),w,c
  2764  003424  220D               	addwfc	(??_atoi+3)^(0+1280),f,c
  2765  003426  500D               	movf	(??_atoi+3)^(0+1280),w,c
  2766  003428  E10A               	bnz	u1450
  2767  00342A  0E0A               	movlw	10
  2768  00342C  5C0C               	subwf	(??_atoi+2)^(0+1280),w,c
  2769  00342E  A0D8               	btfss	status,0,c
  2770  003430  EF1C  F01A         	goto	u1451
  2771  003434  EF1F  F01A         	goto	u1450
  2772  003438                     u1451:
  2773  003438  0E01               	movlw	1
  2774  00343A  EF20  F01A         	goto	u1460
  2775  00343E                     u1450:
  2776  00343E  0E00               	movlw	0
  2777  003440                     u1460:
  2778  003440  6E12               	movwf	_atoi$873^(0+1280),c
  2779  003442  6A13               	clrf	(_atoi$873+1)^(0+1280),c
  2780  003444  5012               	movf	_atoi$873^(0+1280),w,c
  2781  003446  1013               	iorwf	(_atoi$873+1)^(0+1280),w,c
  2782  003448  A4D8               	btfss	status,2,c
  2783  00344A  EF29  F01A         	goto	u1471
  2784  00344E  EF2B  F01A         	goto	u1470
  2785  003452                     u1471:
  2786  003452  EFE0  F019         	goto	l2081
  2787  003456                     u1470:
  2788  003456  500E               	movf	atoi@neg^(0+1280),w,c
  2789  003458  100F               	iorwf	(atoi@neg+1)^(0+1280),w,c
  2790  00345A  A4D8               	btfss	status,2,c
  2791  00345C  EF32  F01A         	goto	u1481
  2792  003460  EF34  F01A         	goto	u1480
  2793  003464                     u1481:
  2794  003464  EF42  F01A         	goto	l949
  2795  003468                     u1480:
  2796  003468  C515  F50A         	movff	atoi@n,??_atoi
  2797  00346C  C516  F50B         	movff	atoi@n+1,??_atoi+1
  2798  003470  1E0A               	comf	??_atoi^(0+1280),f,c
  2799  003472  1E0B               	comf	(??_atoi+1)^(0+1280),f,c
  2800  003474  4A0A               	infsnz	??_atoi^(0+1280),f,c
  2801  003476  2A0B               	incf	(??_atoi+1)^(0+1280),f,c
  2802  003478  C50A  F508         	movff	??_atoi,?_atoi
  2803  00347C  C50B  F509         	movff	??_atoi+1,?_atoi+1
  2804  003480  EF46  F01A         	goto	l952
  2805  003484                     l949:
  2806  003484  C515  F508         	movff	atoi@n,?_atoi
  2807  003488  C516  F509         	movff	atoi@n+1,?_atoi+1
  2808  00348C                     l952:
  2809  00348C  0012               	return		;funcret
  2810  00348E                     __end_of_atoi:
  2811                           	callstack 0
  2812                           
  2813 ;; *************** function _isspace *****************
  2814 ;; Defined at:
  2815 ;;		line 5 in file "C:\Program Files\Microchip\xc8\v2.32\pic\sources\c99\common\isspace.c"
  2816 ;; Parameters:    Size  Location     Type
  2817 ;;  c               2    0[COMRAM] int 
  2818 ;; Auto vars:     Size  Location     Type
  2819 ;;		None
  2820 ;; Return value:  Size  Location     Type
  2821 ;;                  2    0[COMRAM] int 
  2822 ;; Registers used:
  2823 ;;		wreg, status,2, status,0
  2824 ;; Tracked objects:
  2825 ;;		On entry : 0/0
  2826 ;;		On exit  : 0/0
  2827 ;;		Unchanged: 0/0
  2828 ;; Data sizes:     COMRAM   BANK5   BANK6   BANK7   BANK8   BANK9  BANK10  BANK11  BANK12  BANK13  BANK14  BANK15  BANK1
      +6  BANK17  BANK18  BANK19  BANK20  BANK21  BANK22  BANK23  BANK24  BANK25  BANK26  BANK27  BANK28  BANK29  BANK30  BANK3
      +1  BANK32  BANK33  BANK34  BANK35  BANK36
  2829 ;;      Params:         2       0       0       0       0       0       0       0       0       0       0       0       
      +0       0       0       0       0       0       0       0       0       0       0       0       0       0       0       
      +0       0       0       0       0       0
  2830 ;;      Locals:         1       0       0       0       0       0       0       0       0       0       0       0       
      +0       0       0       0       0       0       0       0       0       0       0       0       0       0       0       
      +0       0       0       0       0       0
  2831 ;;      Temps:          4       0       0       0       0       0       0       0       0       0       0       0       
      +0       0       0       0       0       0       0       0       0       0       0       0       0       0       0       
      +0       0       0       0       0       0
  2832 ;;      Totals:         7       0       0       0       0       0       0       0       0       0       0       0       
      +0       0       0       0       0       0       0       0       0       0       0       0       0       0       0       
      +0       0       0       0       0       0
  2833 ;;Total ram usage:        7 bytes
  2834 ;; Hardware stack levels used: 1
  2835 ;; Hardware stack levels required when called: 1
  2836 ;; This function calls:
  2837 ;;		Nothing
  2838 ;; This function is called by:
  2839 ;;		_atoi
  2840 ;; This function uses a non-reentrant model
  2841 ;;
  2842                           
  2843                           	psect	text13
  2844  003D64                     __ptext13:
  2845                           	callstack 0
  2846  003D64                     _isspace:
  2847                           	callstack 121
  2848  003D64  0E01               	movlw	1
  2849  003D66  6E07               	movwf	_isspace$889^(0+1280),c
  2850  003D68  0E20               	movlw	32
  2851  003D6A  1801               	xorwf	isspace@c^(0+1280),w,c
  2852  003D6C  1002               	iorwf	(isspace@c+1)^(0+1280),w,c
  2853  003D6E  B4D8               	btfsc	status,2,c
  2854  003D70  EFBC  F01E         	goto	u1331
  2855  003D74  EFBE  F01E         	goto	u1330
  2856  003D78                     u1331:
  2857  003D78  EFD7  F01E         	goto	l1999
  2858  003D7C                     u1330:
  2859  003D7C  0EF7               	movlw	247
  2860  003D7E  6E03               	movwf	??_isspace^(0+1280),c
  2861  003D80  0EFF               	movlw	255
  2862  003D82  6E04               	movwf	(??_isspace+1)^(0+1280),c
  2863  003D84  C501  F505         	movff	isspace@c,??_isspace+2
  2864  003D88  C502  F506         	movff	isspace@c+1,??_isspace+3
  2865  003D8C  5003               	movf	??_isspace^(0+1280),w,c
  2866  003D8E  2605               	addwf	(??_isspace+2)^(0+1280),f,c
  2867  003D90  5004               	movf	(??_isspace+1)^(0+1280),w,c
  2868  003D92  2206               	addwfc	(??_isspace+3)^(0+1280),f,c
  2869  003D94  5006               	movf	(??_isspace+3)^(0+1280),w,c
  2870  003D96  E109               	bnz	u1340
  2871  003D98  0E05               	movlw	5
  2872  003D9A  5C05               	subwf	(??_isspace+2)^(0+1280),w,c
  2873  003D9C  A0D8               	btfss	status,0,c
  2874  003D9E  EFD3  F01E         	goto	u1341
  2875  003DA2  EFD5  F01E         	goto	u1340
  2876  003DA6                     u1341:
  2877  003DA6  EFD7  F01E         	goto	l1999
  2878  003DAA                     u1340:
  2879  003DAA  0E00               	movlw	0
  2880  003DAC  6E07               	movwf	_isspace$889^(0+1280),c
  2881  003DAE                     l1999:
  2882  003DAE  C507  F501         	movff	_isspace$889,?_isspace
  2883  003DB2  6A02               	clrf	(?_isspace+1)^(0+1280),c
  2884  003DB4  0012               	return		;funcret
  2885  003DB6                     __end_of_isspace:
  2886                           	callstack 0
  2887                           
  2888 ;; *************** function _isdigit *****************
  2889 ;; Defined at:
  2890 ;;		line 5 in file "C:\Program Files\Microchip\xc8\v2.32\pic\sources\c99\common\isdigit.c"
  2891 ;; Parameters:    Size  Location     Type
  2892 ;;  c               2    0[COMRAM] int 
  2893 ;; Auto vars:     Size  Location     Type
  2894 ;;		None
  2895 ;; Return value:  Size  Location     Type
  2896 ;;                  2    0[COMRAM] int 
  2897 ;; Registers used:
  2898 ;;		wreg, status,2, status,0
  2899 ;; Tracked objects:
  2900 ;;		On entry : 0/0
  2901 ;;		On exit  : 0/0
  2902 ;;		Unchanged: 0/0
  2903 ;; Data sizes:     COMRAM   BANK5   BANK6   BANK7   BANK8   BANK9  BANK10  BANK11  BANK12  BANK13  BANK14  BANK15  BANK1
      +6  BANK17  BANK18  BANK19  BANK20  BANK21  BANK22  BANK23  BANK24  BANK25  BANK26  BANK27  BANK28  BANK29  BANK30  BANK3
      +1  BANK32  BANK33  BANK34  BANK35  BANK36
  2904 ;;      Params:         2       0       0       0       0       0       0       0       0       0       0       0       
      +0       0       0       0       0       0       0       0       0       0       0       0       0       0       0       
      +0       0       0       0       0       0
  2905 ;;      Locals:         0       0       0       0       0       0       0       0       0       0       0       0       
      +0       0       0       0       0       0       0       0       0       0       0       0       0       0       0       
      +0       0       0       0       0       0
  2906 ;;      Temps:          4       0       0       0       0       0       0       0       0       0       0       0       
      +0       0       0       0       0       0       0       0       0       0       0       0       0       0       0       
      +0       0       0       0       0       0
  2907 ;;      Totals:         6       0       0       0       0       0       0       0       0       0       0       0       
      +0       0       0       0       0       0       0       0       0       0       0       0       0       0       0       
      +0       0       0       0       0       0
  2908 ;;Total ram usage:        6 bytes
  2909 ;; Hardware stack levels used: 1
  2910 ;; Hardware stack levels required when called: 1
  2911 ;; This function calls:
  2912 ;;		Nothing
  2913 ;; This function is called by:
  2914 ;;		_vfpfcnvrt
  2915 ;;		_atoi
  2916 ;; This function uses a non-reentrant model
  2917 ;;
  2918                           
  2919                           	psect	text14
  2920  003F7C                     __ptext14:
  2921                           	callstack 0
  2922  003F7C                     _isdigit:
  2923                           	callstack 122
  2924  003F7C  0ED0               	movlw	208
  2925  003F7E  6E03               	movwf	??_isdigit^(0+1280),c
  2926  003F80  0EFF               	movlw	255
  2927  003F82  6E04               	movwf	(??_isdigit+1)^(0+1280),c
  2928  003F84  C501  F505         	movff	isdigit@c,??_isdigit+2
  2929  003F88  C502  F506         	movff	isdigit@c+1,??_isdigit+3
  2930  003F8C  5003               	movf	??_isdigit^(0+1280),w,c
  2931  003F8E  2605               	addwf	(??_isdigit+2)^(0+1280),f,c
  2932  003F90  5004               	movf	(??_isdigit+1)^(0+1280),w,c
  2933  003F92  2206               	addwfc	(??_isdigit+3)^(0+1280),f,c
  2934  003F94  5006               	movf	(??_isdigit+3)^(0+1280),w,c
  2935  003F96  E10A               	bnz	u1310
  2936  003F98  0E0A               	movlw	10
  2937  003F9A  5C05               	subwf	(??_isdigit+2)^(0+1280),w,c
  2938  003F9C  A0D8               	btfss	status,0,c
  2939  003F9E  EFD3  F01F         	goto	u1311
  2940  003FA2  EFD6  F01F         	goto	u1310
  2941  003FA6                     u1311:
  2942  003FA6  0E01               	movlw	1
  2943  003FA8  EFD7  F01F         	goto	u1320
  2944  003FAC                     u1310:
  2945  003FAC  0E00               	movlw	0
  2946  003FAE                     u1320:
  2947  003FAE  6E01               	movwf	?_isdigit^(0+1280),c
  2948  003FB0  6A02               	clrf	(?_isdigit+1)^(0+1280),c
  2949  003FB2  0012               	return		;funcret
  2950  003FB4                     __end_of_isdigit:
  2951                           	callstack 0
  2952                           
  2953 ;; *************** function ___wmul *****************
  2954 ;; Defined at:
  2955 ;;		line 15 in file "C:\Program Files\Microchip\xc8\v2.32\pic\sources\c99\common\Umul16.c"
  2956 ;; Parameters:    Size  Location     Type
  2957 ;;  multiplier      2    0[COMRAM] unsigned int 
  2958 ;;  multiplicand    2    2[COMRAM] unsigned int 
  2959 ;; Auto vars:     Size  Location     Type
  2960 ;;  product         2    4[COMRAM] unsigned int 
  2961 ;; Return value:  Size  Location     Type
  2962 ;;                  2    0[COMRAM] unsigned int 
  2963 ;; Registers used:
  2964 ;;		wreg, status,2, status,0, prodl, prodh
  2965 ;; Tracked objects:
  2966 ;;		On entry : 0/0
  2967 ;;		On exit  : 0/0
  2968 ;;		Unchanged: 0/0
  2969 ;; Data sizes:     COMRAM   BANK5   BANK6   BANK7   BANK8   BANK9  BANK10  BANK11  BANK12  BANK13  BANK14  BANK15  BANK1
      +6  BANK17  BANK18  BANK19  BANK20  BANK21  BANK22  BANK23  BANK24  BANK25  BANK26  BANK27  BANK28  BANK29  BANK30  BANK3
      +1  BANK32  BANK33  BANK34  BANK35  BANK36
  2970 ;;      Params:         4       0       0       0       0       0       0       0       0       0       0       0       
      +0       0       0       0       0       0       0       0       0       0       0       0       0       0       0       
      +0       0       0       0       0       0
  2971 ;;      Locals:         2       0       0       0       0       0       0       0       0       0       0       0       
      +0       0       0       0       0       0       0       0       0       0       0       0       0       0       0       
      +0       0       0       0       0       0
  2972 ;;      Temps:          0       0       0       0       0       0       0       0       0       0       0       0       
      +0       0       0       0       0       0       0       0       0       0       0       0       0       0       0       
      +0       0       0       0       0       0
  2973 ;;      Totals:         6       0       0       0       0       0       0       0       0       0       0       0       
      +0       0       0       0       0       0       0       0       0       0       0       0       0       0       0       
      +0       0       0       0       0       0
  2974 ;;Total ram usage:        6 bytes
  2975 ;; Hardware stack levels used: 1
  2976 ;; Hardware stack levels required when called: 1
  2977 ;; This function calls:
  2978 ;;		Nothing
  2979 ;; This function is called by:
  2980 ;;		_atoi
  2981 ;; This function uses a non-reentrant model
  2982 ;;
  2983                           
  2984                           	psect	text15
  2985  003FB4                     __ptext15:
  2986                           	callstack 0
  2987  003FB4                     ___wmul:
  2988                           	callstack 121
  2989  003FB4  5001               	movf	___wmul@multiplier^(0+1280),w,c
  2990  003FB6  0203               	mulwf	___wmul@multiplicand^(0+1280),c
  2991  003FB8  0061 F3CC  F505    	movff	prodl,___wmul@product
  2992  003FBE  0061 F3D0  F506    	movff	prodh,___wmul@product+1
  2993  003FC4  5001               	movf	___wmul@multiplier^(0+1280),w,c
  2994  003FC6  0204               	mulwf	(___wmul@multiplicand+1)^(0+1280),c
  2995  003FC8  50F3               	movf	243,w,c
  2996  003FCA  2606               	addwf	(___wmul@product+1)^(0+1280),f,c
  2997  003FCC  5002               	movf	(___wmul@multiplier+1)^(0+1280),w,c
  2998  003FCE  0203               	mulwf	___wmul@multiplicand^(0+1280),c
  2999  003FD0  50F3               	movf	243,w,c
  3000  003FD2  2606               	addwf	(___wmul@product+1)^(0+1280),f,c
  3001  003FD4  C505  F501         	movff	___wmul@product,?___wmul
  3002  003FD8  C506  F502         	movff	___wmul@product+1,?___wmul+1
  3003  003FDC  0012               	return		;funcret
  3004  003FDE                     __end_of___wmul:
  3005                           	callstack 0
  3006                           
  3007 ;; *************** function ___xxtofl *****************
  3008 ;; Defined at:
  3009 ;;		line 10 in file "C:\Program Files\Microchip\xc8\v2.32\pic\sources\c99\common\xxtofl.c"
  3010 ;; Parameters:    Size  Location     Type
  3011 ;;  sign            1    wreg     unsigned char 
  3012 ;;  val             4    0[COMRAM] long 
  3013 ;; Auto vars:     Size  Location     Type
  3014 ;;  sign            1    8[COMRAM] unsigned char 
  3015 ;;  arg             4   10[COMRAM] unsigned long 
  3016 ;;  exp             1    9[COMRAM] unsigned char 
  3017 ;; Return value:  Size  Location     Type
  3018 ;;                  4    0[COMRAM] unsigned char 
  3019 ;; Registers used:
  3020 ;;		wreg, status,2, status,0
  3021 ;; Tracked objects:
  3022 ;;		On entry : 0/0
  3023 ;;		On exit  : 0/0
  3024 ;;		Unchanged: 0/0
  3025 ;; Data sizes:     COMRAM   BANK5   BANK6   BANK7   BANK8   BANK9  BANK10  BANK11  BANK12  BANK13  BANK14  BANK15  BANK1
      +6  BANK17  BANK18  BANK19  BANK20  BANK21  BANK22  BANK23  BANK24  BANK25  BANK26  BANK27  BANK28  BANK29  BANK30  BANK3
      +1  BANK32  BANK33  BANK34  BANK35  BANK36
  3026 ;;      Params:         4       0       0       0       0       0       0       0       0       0       0       0       
      +0       0       0       0       0       0       0       0       0       0       0       0       0       0       0       
      +0       0       0       0       0       0
  3027 ;;      Locals:         6       0       0       0       0       0       0       0       0       0       0       0       
      +0       0       0       0       0       0       0       0       0       0       0       0       0       0       0       
      +0       0       0       0       0       0
  3028 ;;      Temps:          4       0       0       0       0       0       0       0       0       0       0       0       
      +0       0       0       0       0       0       0       0       0       0       0       0       0       0       0       
      +0       0       0       0       0       0
  3029 ;;      Totals:        14       0       0       0       0       0       0       0       0       0       0       0       
      +0       0       0       0       0       0       0       0       0       0       0       0       0       0       0       
      +0       0       0       0       0       0
  3030 ;;Total ram usage:       14 bytes
  3031 ;; Hardware stack levels used: 1
  3032 ;; Hardware stack levels required when called: 1
  3033 ;; This function calls:
  3034 ;;		Nothing
  3035 ;; This function is called by:
  3036 ;;		_main
  3037 ;; This function uses a non-reentrant model
  3038 ;;
  3039                           
  3040                           	psect	text16
  3041  00348E                     __ptext16:
  3042                           	callstack 0
  3043  00348E                     ___xxtofl:
  3044                           	callstack 125
  3045                           
  3046                           ;incstack = 0
  3047                           ;___xxtofl@sign stored from wreg
  3048  00348E  6E09               	movwf	___xxtofl@sign^(0+1280),c
  3049  003490  5009               	movf	___xxtofl@sign^(0+1280),w,c
  3050  003492  B4D8               	btfsc	status,2,c
  3051  003494  EF4E  F01A         	goto	u2141
  3052  003498  EF50  F01A         	goto	u2140
  3053  00349C                     u2141:
  3054  00349C  EF72  F01A         	goto	l815
  3055  0034A0                     u2140:
  3056  0034A0  BE04               	btfsc	(___xxtofl@val+3)^(0+1280),7,c
  3057  0034A2  EF57  F01A         	goto	u2150
  3058  0034A6  EF55  F01A         	goto	u2151
  3059  0034AA                     u2151:
  3060  0034AA  EF72  F01A         	goto	l815
  3061  0034AE                     u2150:
  3062  0034AE  C501  F505         	movff	___xxtofl@val,??___xxtofl
  3063  0034B2  C502  F506         	movff	___xxtofl@val+1,??___xxtofl+1
  3064  0034B6  C503  F507         	movff	___xxtofl@val+2,??___xxtofl+2
  3065  0034BA  C504  F508         	movff	___xxtofl@val+3,??___xxtofl+3
  3066  0034BE  1E05               	comf	??___xxtofl^(0+1280),f,c
  3067  0034C0  1E06               	comf	(??___xxtofl+1)^(0+1280),f,c
  3068  0034C2  1E07               	comf	(??___xxtofl+2)^(0+1280),f,c
  3069  0034C4  1E08               	comf	(??___xxtofl+3)^(0+1280),f,c
  3070  0034C6  2A05               	incf	??___xxtofl^(0+1280),f,c
  3071  0034C8  0E00               	movlw	0
  3072  0034CA  2206               	addwfc	(??___xxtofl+1)^(0+1280),f,c
  3073  0034CC  2207               	addwfc	(??___xxtofl+2)^(0+1280),f,c
  3074  0034CE  2208               	addwfc	(??___xxtofl+3)^(0+1280),f,c
  3075  0034D0  C505  F50B         	movff	??___xxtofl,___xxtofl@arg
  3076  0034D4  C506  F50C         	movff	??___xxtofl+1,___xxtofl@arg+1
  3077  0034D8  C507  F50D         	movff	??___xxtofl+2,___xxtofl@arg+2
  3078  0034DC  C508  F50E         	movff	??___xxtofl+3,___xxtofl@arg+3
  3079  0034E0  EF7A  F01A         	goto	l2673
  3080  0034E4                     l815:
  3081  0034E4  C501  F50B         	movff	___xxtofl@val,___xxtofl@arg
  3082  0034E8  C502  F50C         	movff	___xxtofl@val+1,___xxtofl@arg+1
  3083  0034EC  C503  F50D         	movff	___xxtofl@val+2,___xxtofl@arg+2
  3084  0034F0  C504  F50E         	movff	___xxtofl@val+3,___xxtofl@arg+3
  3085  0034F4                     l2673:
  3086  0034F4  5001               	movf	___xxtofl@val^(0+1280),w,c
  3087  0034F6  1002               	iorwf	(___xxtofl@val+1)^(0+1280),w,c
  3088  0034F8  1003               	iorwf	(___xxtofl@val+2)^(0+1280),w,c
  3089  0034FA  1004               	iorwf	(___xxtofl@val+3)^(0+1280),w,c
  3090  0034FC  A4D8               	btfss	status,2,c
  3091  0034FE  EF83  F01A         	goto	u2161
  3092  003502  EF85  F01A         	goto	u2160
  3093  003506                     u2161:
  3094  003506  EF8F  F01A         	goto	l2679
  3095  00350A                     u2160:
  3096  00350A  0E00               	movlw	0
  3097  00350C  6E01               	movwf	?___xxtofl^(0+1280),c
  3098  00350E  0E00               	movlw	0
  3099  003510  6E02               	movwf	(?___xxtofl+1)^(0+1280),c
  3100  003512  0E00               	movlw	0
  3101  003514  6E03               	movwf	(?___xxtofl+2)^(0+1280),c
  3102  003516  0E00               	movlw	0
  3103  003518  6E04               	movwf	(?___xxtofl+3)^(0+1280),c
  3104  00351A  EF20  F01B         	goto	l818
  3105  00351E                     l2679:
  3106  00351E  0E96               	movlw	150
  3107  003520  6E0A               	movwf	___xxtofl@exp^(0+1280),c
  3108  003522  EF99  F01A         	goto	l2683
  3109  003526                     l2681:
  3110  003526  2A0A               	incf	___xxtofl@exp^(0+1280),f,c
  3111  003528  90D8               	bcf	status,0,c
  3112  00352A  320E               	rrcf	(___xxtofl@arg+3)^(0+1280),f,c
  3113  00352C  320D               	rrcf	(___xxtofl@arg+2)^(0+1280),f,c
  3114  00352E  320C               	rrcf	(___xxtofl@arg+1)^(0+1280),f,c
  3115  003530  320B               	rrcf	___xxtofl@arg^(0+1280),f,c
  3116  003532                     l2683:
  3117  003532  0E00               	movlw	0
  3118  003534  140B               	andwf	___xxtofl@arg^(0+1280),w,c
  3119  003536  6E05               	movwf	??___xxtofl^(0+1280),c
  3120  003538  0E00               	movlw	0
  3121  00353A  140C               	andwf	(___xxtofl@arg+1)^(0+1280),w,c
  3122  00353C  6E06               	movwf	(??___xxtofl+1)^(0+1280),c
  3123  00353E  0E00               	movlw	0
  3124  003540  140D               	andwf	(___xxtofl@arg+2)^(0+1280),w,c
  3125  003542  6E07               	movwf	(??___xxtofl+2)^(0+1280),c
  3126  003544  0EFE               	movlw	254
  3127  003546  140E               	andwf	(___xxtofl@arg+3)^(0+1280),w,c
  3128  003548  6E08               	movwf	(??___xxtofl+3)^(0+1280),c
  3129  00354A  5005               	movf	??___xxtofl^(0+1280),w,c
  3130  00354C  1006               	iorwf	(??___xxtofl+1)^(0+1280),w,c
  3131  00354E  1007               	iorwf	(??___xxtofl+2)^(0+1280),w,c
  3132  003550  1008               	iorwf	(??___xxtofl+3)^(0+1280),w,c
  3133  003552  A4D8               	btfss	status,2,c
  3134  003554  EFAE  F01A         	goto	u2171
  3135  003558  EFB0  F01A         	goto	u2170
  3136  00355C                     u2171:
  3137  00355C  EF93  F01A         	goto	l2681
  3138  003560                     u2170:
  3139  003560  EFBE  F01A         	goto	l822
  3140  003564                     l2685:
  3141  003564  2A0A               	incf	___xxtofl@exp^(0+1280),f,c
  3142  003566  0E01               	movlw	1
  3143  003568  260B               	addwf	___xxtofl@arg^(0+1280),f,c
  3144  00356A  0E00               	movlw	0
  3145  00356C  220C               	addwfc	(___xxtofl@arg+1)^(0+1280),f,c
  3146  00356E  220D               	addwfc	(___xxtofl@arg+2)^(0+1280),f,c
  3147  003570  220E               	addwfc	(___xxtofl@arg+3)^(0+1280),f,c
  3148  003572  90D8               	bcf	status,0,c
  3149  003574  320E               	rrcf	(___xxtofl@arg+3)^(0+1280),f,c
  3150  003576  320D               	rrcf	(___xxtofl@arg+2)^(0+1280),f,c
  3151  003578  320C               	rrcf	(___xxtofl@arg+1)^(0+1280),f,c
  3152  00357A  320B               	rrcf	___xxtofl@arg^(0+1280),f,c
  3153  00357C                     l822:
  3154  00357C  0E00               	movlw	0
  3155  00357E  140B               	andwf	___xxtofl@arg^(0+1280),w,c
  3156  003580  6E05               	movwf	??___xxtofl^(0+1280),c
  3157  003582  0E00               	movlw	0
  3158  003584  140C               	andwf	(___xxtofl@arg+1)^(0+1280),w,c
  3159  003586  6E06               	movwf	(??___xxtofl+1)^(0+1280),c
  3160  003588  0E00               	movlw	0
  3161  00358A  140D               	andwf	(___xxtofl@arg+2)^(0+1280),w,c
  3162  00358C  6E07               	movwf	(??___xxtofl+2)^(0+1280),c
  3163  00358E  0EFF               	movlw	255
  3164  003590  140E               	andwf	(___xxtofl@arg+3)^(0+1280),w,c
  3165  003592  6E08               	movwf	(??___xxtofl+3)^(0+1280),c
  3166  003594  5005               	movf	??___xxtofl^(0+1280),w,c
  3167  003596  1006               	iorwf	(??___xxtofl+1)^(0+1280),w,c
  3168  003598  1007               	iorwf	(??___xxtofl+2)^(0+1280),w,c
  3169  00359A  1008               	iorwf	(??___xxtofl+3)^(0+1280),w,c
  3170  00359C  A4D8               	btfss	status,2,c
  3171  00359E  EFD3  F01A         	goto	u2181
  3172  0035A2  EFD5  F01A         	goto	u2180
  3173  0035A6                     u2181:
  3174  0035A6  EFB2  F01A         	goto	l2685
  3175  0035AA                     u2180:
  3176  0035AA  EFDD  F01A         	goto	l2693
  3177  0035AE                     l2691:
  3178  0035AE  060A               	decf	___xxtofl@exp^(0+1280),f,c
  3179  0035B0  90D8               	bcf	status,0,c
  3180  0035B2  360B               	rlcf	___xxtofl@arg^(0+1280),f,c
  3181  0035B4  360C               	rlcf	(___xxtofl@arg+1)^(0+1280),f,c
  3182  0035B6  360D               	rlcf	(___xxtofl@arg+2)^(0+1280),f,c
  3183  0035B8  360E               	rlcf	(___xxtofl@arg+3)^(0+1280),f,c
  3184  0035BA                     l2693:
  3185  0035BA  BE0D               	btfsc	(___xxtofl@arg+2)^(0+1280),7,c
  3186  0035BC  EFE2  F01A         	goto	u2191
  3187  0035C0  EFE4  F01A         	goto	u2190
  3188  0035C4                     u2191:
  3189  0035C4  EFEC  F01A         	goto	l829
  3190  0035C8                     u2190:
  3191  0035C8  0E02               	movlw	2
  3192  0035CA  600A               	cpfslt	___xxtofl@exp^(0+1280),c
  3193  0035CC  EFEA  F01A         	goto	u2201
  3194  0035D0  EFEC  F01A         	goto	u2200
  3195  0035D4                     u2201:
  3196  0035D4  EFD7  F01A         	goto	l2691
  3197  0035D8                     u2200:
  3198  0035D8                     l829:
  3199  0035D8  B00A               	btfsc	___xxtofl@exp^(0+1280),0,c
  3200  0035DA  EFF1  F01A         	goto	u2211
  3201  0035DE  EFF3  F01A         	goto	u2210
  3202  0035E2                     u2211:
  3203  0035E2  EFF4  F01A         	goto	l2699
  3204  0035E6                     u2210:
  3205  0035E6  9E0D               	bcf	(___xxtofl@arg+2)^(0+1280),7,c
  3206  0035E8                     l2699:
  3207  0035E8  90D8               	bcf	status,0,c
  3208  0035EA  320A               	rrcf	___xxtofl@exp^(0+1280),f,c
  3209  0035EC  C50A  F505         	movff	___xxtofl@exp,??___xxtofl
  3210  0035F0  6A06               	clrf	(??___xxtofl+1)^(0+1280),c
  3211  0035F2  6A07               	clrf	(??___xxtofl+2)^(0+1280),c
  3212  0035F4  6A08               	clrf	(??___xxtofl+3)^(0+1280),c
  3213  0035F6  C505  F508         	movff	??___xxtofl,??___xxtofl+3
  3214  0035FA  6A07               	clrf	(??___xxtofl+2)^(0+1280),c
  3215  0035FC  6A06               	clrf	(??___xxtofl+1)^(0+1280),c
  3216  0035FE  6A05               	clrf	??___xxtofl^(0+1280),c
  3217  003600  5005               	movf	??___xxtofl^(0+1280),w,c
  3218  003602  120B               	iorwf	___xxtofl@arg^(0+1280),f,c
  3219  003604  5006               	movf	(??___xxtofl+1)^(0+1280),w,c
  3220  003606  120C               	iorwf	(___xxtofl@arg+1)^(0+1280),f,c
  3221  003608  5007               	movf	(??___xxtofl+2)^(0+1280),w,c
  3222  00360A  120D               	iorwf	(___xxtofl@arg+2)^(0+1280),f,c
  3223  00360C  5008               	movf	(??___xxtofl+3)^(0+1280),w,c
  3224  00360E  120E               	iorwf	(___xxtofl@arg+3)^(0+1280),f,c
  3225  003610  5009               	movf	___xxtofl@sign^(0+1280),w,c
  3226  003612  B4D8               	btfsc	status,2,c
  3227  003614  EF0E  F01B         	goto	u2221
  3228  003618  EF10  F01B         	goto	u2220
  3229  00361C                     u2221:
  3230  00361C  EF18  F01B         	goto	l2709
  3231  003620                     u2220:
  3232  003620  BE04               	btfsc	(___xxtofl@val+3)^(0+1280),7,c
  3233  003622  EF17  F01B         	goto	u2230
  3234  003626  EF15  F01B         	goto	u2231
  3235  00362A                     u2231:
  3236  00362A  EF18  F01B         	goto	l2709
  3237  00362E                     u2230:
  3238  00362E  8E0E               	bsf	(___xxtofl@arg+3)^(0+1280),7,c
  3239  003630                     l2709:
  3240  003630  C50B  F501         	movff	___xxtofl@arg,?___xxtofl
  3241  003634  C50C  F502         	movff	___xxtofl@arg+1,?___xxtofl+1
  3242  003638  C50D  F503         	movff	___xxtofl@arg+2,?___xxtofl+2
  3243  00363C  C50E  F504         	movff	___xxtofl@arg+3,?___xxtofl+3
  3244  003640                     l818:
  3245  003640  0012               	return		;funcret
  3246  003642                     __end_of___xxtofl:
  3247                           	callstack 0
  3248                           
  3249 ;; *************** function ___fltol *****************
  3250 ;; Defined at:
  3251 ;;		line 43 in file "C:\Program Files\Microchip\xc8\v2.32\pic\sources\c99\common\fltol.c"
  3252 ;; Parameters:    Size  Location     Type
  3253 ;;  f1              4   64[COMRAM] unsigned char 
  3254 ;; Auto vars:     Size  Location     Type
  3255 ;;  exp1            1   73[COMRAM] unsigned char 
  3256 ;;  sign1           1   72[COMRAM] unsigned char 
  3257 ;; Return value:  Size  Location     Type
  3258 ;;                  4   64[COMRAM] long 
  3259 ;; Registers used:
  3260 ;;		wreg, status,2, status,0
  3261 ;; Tracked objects:
  3262 ;;		On entry : 0/0
  3263 ;;		On exit  : 0/0
  3264 ;;		Unchanged: 0/0
  3265 ;; Data sizes:     COMRAM   BANK5   BANK6   BANK7   BANK8   BANK9  BANK10  BANK11  BANK12  BANK13  BANK14  BANK15  BANK1
      +6  BANK17  BANK18  BANK19  BANK20  BANK21  BANK22  BANK23  BANK24  BANK25  BANK26  BANK27  BANK28  BANK29  BANK30  BANK3
      +1  BANK32  BANK33  BANK34  BANK35  BANK36
  3266 ;;      Params:         4       0       0       0       0       0       0       0       0       0       0       0       
      +0       0       0       0       0       0       0       0       0       0       0       0       0       0       0       
      +0       0       0       0       0       0
  3267 ;;      Locals:         2       0       0       0       0       0       0       0       0       0       0       0       
      +0       0       0       0       0       0       0       0       0       0       0       0       0       0       0       
      +0       0       0       0       0       0
  3268 ;;      Temps:          4       0       0       0       0       0       0       0       0       0       0       0       
      +0       0       0       0       0       0       0       0       0       0       0       0       0       0       0       
      +0       0       0       0       0       0
  3269 ;;      Totals:        10       0       0       0       0       0       0       0       0       0       0       0       
      +0       0       0       0       0       0       0       0       0       0       0       0       0       0       0       
      +0       0       0       0       0       0
  3270 ;;Total ram usage:       10 bytes
  3271 ;; Hardware stack levels used: 1
  3272 ;; Hardware stack levels required when called: 1
  3273 ;; This function calls:
  3274 ;;		Nothing
  3275 ;; This function is called by:
  3276 ;;		_main
  3277 ;; This function uses a non-reentrant model
  3278 ;;
  3279                           
  3280                           	psect	text17
  3281  00374C                     __ptext17:
  3282                           	callstack 0
  3283  00374C                     ___fltol:
  3284                           	callstack 125
  3285  00374C  3443               	rlcf	(___fltol@f1+2)^(0+1280),w,c
  3286  00374E  3444               	rlcf	(___fltol@f1+3)^(0+1280),w,c
  3287  003750  6E4A               	movwf	___fltol@exp1^(0+1280),c
  3288  003752  504A               	movf	___fltol@exp1^(0+1280),w,c
  3289  003754  A4D8               	btfss	status,2,c
  3290  003756  EFAF  F01B         	goto	u2071
  3291  00375A  EFB1  F01B         	goto	u2070
  3292  00375E                     u2071:
  3293  00375E  EFBB  F01B         	goto	l2629
  3294  003762                     u2070:
  3295  003762                     l2625:
  3296  003762  0E00               	movlw	0
  3297  003764  6E41               	movwf	?___fltol^(0+1280),c
  3298  003766  0E00               	movlw	0
  3299  003768  6E42               	movwf	(?___fltol+1)^(0+1280),c
  3300  00376A  0E00               	movlw	0
  3301  00376C  6E43               	movwf	(?___fltol+2)^(0+1280),c
  3302  00376E  0E00               	movlw	0
  3303  003770  6E44               	movwf	(?___fltol+3)^(0+1280),c
  3304  003772  EF28  F01C         	goto	l457
  3305  003776                     l2629:
  3306  003776  C541  F545         	movff	___fltol@f1,??___fltol
  3307  00377A  C542  F546         	movff	___fltol@f1+1,??___fltol+1
  3308  00377E  C543  F547         	movff	___fltol@f1+2,??___fltol+2
  3309  003782  C544  F548         	movff	___fltol@f1+3,??___fltol+3
  3310  003786  0E20               	movlw	32
  3311  003788  EFCB  F01B         	goto	u2080
  3312  00378C                     u2085:
  3313  00378C  90D8               	bcf	status,0,c
  3314  00378E  3248               	rrcf	(??___fltol+3)^(0+1280),f,c
  3315  003790  3247               	rrcf	(??___fltol+2)^(0+1280),f,c
  3316  003792  3246               	rrcf	(??___fltol+1)^(0+1280),f,c
  3317  003794  3245               	rrcf	??___fltol^(0+1280),f,c
  3318  003796                     u2080:
  3319  003796  2EE8               	decfsz	wreg,f,c
  3320  003798  EFC6  F01B         	goto	u2085
  3321  00379C  5045               	movf	??___fltol^(0+1280),w,c
  3322  00379E  6E49               	movwf	___fltol@sign1^(0+1280),c
  3323  0037A0  8E43               	bsf	(___fltol@f1+2)^(0+1280),7,c
  3324  0037A2  0EFF               	movlw	255
  3325  0037A4  1641               	andwf	___fltol@f1^(0+1280),f,c
  3326  0037A6  0EFF               	movlw	255
  3327  0037A8  1642               	andwf	(___fltol@f1+1)^(0+1280),f,c
  3328  0037AA  0EFF               	movlw	255
  3329  0037AC  1643               	andwf	(___fltol@f1+2)^(0+1280),f,c
  3330  0037AE  0E00               	movlw	0
  3331  0037B0  1644               	andwf	(___fltol@f1+3)^(0+1280),f,c
  3332  0037B2  0E96               	movlw	150
  3333  0037B4  5E4A               	subwf	___fltol@exp1^(0+1280),f,c
  3334  0037B6  BE4A               	btfsc	___fltol@exp1^(0+1280),7,c
  3335  0037B8  EFE2  F01B         	goto	u2090
  3336  0037BC  EFE0  F01B         	goto	u2091
  3337  0037C0                     u2091:
  3338  0037C0  EFF8  F01B         	goto	l2649
  3339  0037C4                     u2090:
  3340  0037C4  504A               	movf	___fltol@exp1^(0+1280),w,c
  3341  0037C6  0A80               	xorlw	128
  3342  0037C8  0F97               	addlw	151
  3343  0037CA  B0D8               	btfsc	status,0,c
  3344  0037CC  EFEA  F01B         	goto	u2101
  3345  0037D0  EFEC  F01B         	goto	u2100
  3346  0037D4                     u2101:
  3347  0037D4  EFEE  F01B         	goto	l2645
  3348  0037D8                     u2100:
  3349  0037D8  EFB1  F01B         	goto	l2625
  3350  0037DC                     l2645:
  3351  0037DC  90D8               	bcf	status,0,c
  3352  0037DE  3244               	rrcf	(___fltol@f1+3)^(0+1280),f,c
  3353  0037E0  3243               	rrcf	(___fltol@f1+2)^(0+1280),f,c
  3354  0037E2  3242               	rrcf	(___fltol@f1+1)^(0+1280),f,c
  3355  0037E4  3241               	rrcf	___fltol@f1^(0+1280),f,c
  3356  0037E6  3E4A               	incfsz	___fltol@exp1^(0+1280),f,c
  3357  0037E8  EFEE  F01B         	goto	l2645
  3358  0037EC  EF10  F01C         	goto	l2659
  3359  0037F0                     l2649:
  3360  0037F0  0E1F               	movlw	31
  3361  0037F2  644A               	cpfsgt	___fltol@exp1^(0+1280),c
  3362  0037F4  EFFE  F01B         	goto	u2111
  3363  0037F8  EF00  F01C         	goto	u2110
  3364  0037FC                     u2111:
  3365  0037FC  EF08  F01C         	goto	l2657
  3366  003800                     u2110:
  3367  003800  EFB1  F01B         	goto	l2625
  3368  003804                     l2655:
  3369  003804  90D8               	bcf	status,0,c
  3370  003806  3641               	rlcf	___fltol@f1^(0+1280),f,c
  3371  003808  3642               	rlcf	(___fltol@f1+1)^(0+1280),f,c
  3372  00380A  3643               	rlcf	(___fltol@f1+2)^(0+1280),f,c
  3373  00380C  3644               	rlcf	(___fltol@f1+3)^(0+1280),f,c
  3374  00380E  064A               	decf	___fltol@exp1^(0+1280),f,c
  3375  003810                     l2657:
  3376  003810  504A               	movf	___fltol@exp1^(0+1280),w,c
  3377  003812  A4D8               	btfss	status,2,c
  3378  003814  EF0E  F01C         	goto	u2121
  3379  003818  EF10  F01C         	goto	u2120
  3380  00381C                     u2121:
  3381  00381C  EF02  F01C         	goto	l2655
  3382  003820                     u2120:
  3383  003820                     l2659:
  3384  003820  5049               	movf	___fltol@sign1^(0+1280),w,c
  3385  003822  B4D8               	btfsc	status,2,c
  3386  003824  EF16  F01C         	goto	u2131
  3387  003828  EF18  F01C         	goto	u2130
  3388  00382C                     u2131:
  3389  00382C  EF20  F01C         	goto	l2663
  3390  003830                     u2130:
  3391  003830  1E44               	comf	(___fltol@f1+3)^(0+1280),f,c
  3392  003832  1E43               	comf	(___fltol@f1+2)^(0+1280),f,c
  3393  003834  1E42               	comf	(___fltol@f1+1)^(0+1280),f,c
  3394  003836  6C41               	negf	___fltol@f1^(0+1280),c
  3395  003838  0E00               	movlw	0
  3396  00383A  2242               	addwfc	(___fltol@f1+1)^(0+1280),f,c
  3397  00383C  2243               	addwfc	(___fltol@f1+2)^(0+1280),f,c
  3398  00383E  2244               	addwfc	(___fltol@f1+3)^(0+1280),f,c
  3399  003840                     l2663:
  3400  003840  C541  F541         	movff	___fltol@f1,?___fltol
  3401  003844  C542  F542         	movff	___fltol@f1+1,?___fltol+1
  3402  003848  C543  F543         	movff	___fltol@f1+2,?___fltol+2
  3403  00384C  C544  F544         	movff	___fltol@f1+3,?___fltol+3
  3404  003850                     l457:
  3405  003850  0012               	return		;funcret
  3406  003852                     __end_of___fltol:
  3407                           	callstack 0
  3408                           
  3409 ;; *************** function ___flmul *****************
  3410 ;; Defined at:
  3411 ;;		line 8 in file "C:\Program Files\Microchip\xc8\v2.32\pic\sources\c99\common\sprcmul.c"
  3412 ;; Parameters:    Size  Location     Type
  3413 ;;  b               4   39[COMRAM] long 
  3414 ;;  a               4   43[COMRAM] long 
  3415 ;; Auto vars:     Size  Location     Type
  3416 ;;  prod            4   58[COMRAM] struct .
  3417 ;;  grs             4   52[COMRAM] unsigned long 
  3418 ;;  temp            2   62[COMRAM] struct .
  3419 ;;  bexp            1   57[COMRAM] unsigned char 
  3420 ;;  aexp            1   56[COMRAM] unsigned char 
  3421 ;;  sign            1   51[COMRAM] unsigned char 
  3422 ;; Return value:  Size  Location     Type
  3423 ;;                  4   39[COMRAM] unsigned char 
  3424 ;; Registers used:
  3425 ;;		wreg, status,2, status,0, prodl, prodh
  3426 ;; Tracked objects:
  3427 ;;		On entry : 0/0
  3428 ;;		On exit  : 0/0
  3429 ;;		Unchanged: 0/0
  3430 ;; Data sizes:     COMRAM   BANK5   BANK6   BANK7   BANK8   BANK9  BANK10  BANK11  BANK12  BANK13  BANK14  BANK15  BANK1
      +6  BANK17  BANK18  BANK19  BANK20  BANK21  BANK22  BANK23  BANK24  BANK25  BANK26  BANK27  BANK28  BANK29  BANK30  BANK3
      +1  BANK32  BANK33  BANK34  BANK35  BANK36
  3431 ;;      Params:         8       0       0       0       0       0       0       0       0       0       0       0       
      +0       0       0       0       0       0       0       0       0       0       0       0       0       0       0       
      +0       0       0       0       0       0
  3432 ;;      Locals:        13       0       0       0       0       0       0       0       0       0       0       0       
      +0       0       0       0       0       0       0       0       0       0       0       0       0       0       0       
      +0       0       0       0       0       0
  3433 ;;      Temps:          4       0       0       0       0       0       0       0       0       0       0       0       
      +0       0       0       0       0       0       0       0       0       0       0       0       0       0       0       
      +0       0       0       0       0       0
  3434 ;;      Totals:        25       0       0       0       0       0       0       0       0       0       0       0       
      +0       0       0       0       0       0       0       0       0       0       0       0       0       0       0       
      +0       0       0       0       0       0
  3435 ;;Total ram usage:       25 bytes
  3436 ;; Hardware stack levels used: 1
  3437 ;; Hardware stack levels required when called: 1
  3438 ;; This function calls:
  3439 ;;		Nothing
  3440 ;; This function is called by:
  3441 ;;		_main
  3442 ;; This function uses a non-reentrant model
  3443 ;;
  3444                           
  3445                           	psect	text18
  3446  002518                     __ptext18:
  3447                           	callstack 0
  3448  002518                     ___flmul:
  3449                           	callstack 125
  3450  002518  502B               	movf	(___flmul@b+3)^(0+1280),w,c
  3451  00251A  0B80               	andlw	128
  3452  00251C  6E34               	movwf	___flmul@sign^(0+1280),c
  3453  00251E  502B               	movf	(___flmul@b+3)^(0+1280),w,c
  3454  002520  242B               	addwf	(___flmul@b+3)^(0+1280),w,c
  3455  002522  6E3A               	movwf	___flmul@bexp^(0+1280),c
  3456  002524  AE2A               	btfss	(___flmul@b+2)^(0+1280),7,c
  3457  002526  EF97  F012         	goto	u1881
  3458  00252A  EF99  F012         	goto	u1880
  3459  00252E                     u1881:
  3460  00252E  EF9A  F012         	goto	l2499
  3461  002532                     u1880:
  3462  002532  803A               	bsf	___flmul@bexp^(0+1280),0,c
  3463  002534                     l2499:
  3464  002534  503A               	movf	___flmul@bexp^(0+1280),w,c
  3465  002536  B4D8               	btfsc	status,2,c
  3466  002538  EFA0  F012         	goto	u1891
  3467  00253C  EFA2  F012         	goto	u1890
  3468  002540                     u1891:
  3469  002540  EFB5  F012         	goto	l2507
  3470  002544                     u1890:
  3471  002544  283A               	incf	___flmul@bexp^(0+1280),w,c
  3472  002546  A4D8               	btfss	status,2,c
  3473  002548  EFA8  F012         	goto	u1901
  3474  00254C  EFAA  F012         	goto	u1900
  3475  002550                     u1901:
  3476  002550  EFB2  F012         	goto	l2505
  3477  002554                     u1900:
  3478  002554  0E00               	movlw	0
  3479  002556  6E28               	movwf	___flmul@b^(0+1280),c
  3480  002558  0E00               	movlw	0
  3481  00255A  6E29               	movwf	(___flmul@b+1)^(0+1280),c
  3482  00255C  0E00               	movlw	0
  3483  00255E  6E2A               	movwf	(___flmul@b+2)^(0+1280),c
  3484  002560  0E00               	movlw	0
  3485  002562  6E2B               	movwf	(___flmul@b+3)^(0+1280),c
  3486  002564                     l2505:
  3487  002564  8E2A               	bsf	(___flmul@b+2)^(0+1280),7,c
  3488  002566  EFBD  F012         	goto	l2509
  3489  00256A                     l2507:
  3490  00256A  0E00               	movlw	0
  3491  00256C  6E28               	movwf	___flmul@b^(0+1280),c
  3492  00256E  0E00               	movlw	0
  3493  002570  6E29               	movwf	(___flmul@b+1)^(0+1280),c
  3494  002572  0E00               	movlw	0
  3495  002574  6E2A               	movwf	(___flmul@b+2)^(0+1280),c
  3496  002576  0E00               	movlw	0
  3497  002578  6E2B               	movwf	(___flmul@b+3)^(0+1280),c
  3498  00257A                     l2509:
  3499  00257A  502F               	movf	(___flmul@a+3)^(0+1280),w,c
  3500  00257C  0B80               	andlw	128
  3501  00257E  1A34               	xorwf	___flmul@sign^(0+1280),f,c
  3502  002580  502F               	movf	(___flmul@a+3)^(0+1280),w,c
  3503  002582  242F               	addwf	(___flmul@a+3)^(0+1280),w,c
  3504  002584  6E39               	movwf	___flmul@aexp^(0+1280),c
  3505  002586  AE2E               	btfss	(___flmul@a+2)^(0+1280),7,c
  3506  002588  EFC8  F012         	goto	u1911
  3507  00258C  EFCA  F012         	goto	u1910
  3508  002590                     u1911:
  3509  002590  EFCB  F012         	goto	l2517
  3510  002594                     u1910:
  3511  002594  8039               	bsf	___flmul@aexp^(0+1280),0,c
  3512  002596                     l2517:
  3513  002596  5039               	movf	___flmul@aexp^(0+1280),w,c
  3514  002598  B4D8               	btfsc	status,2,c
  3515  00259A  EFD1  F012         	goto	u1921
  3516  00259E  EFD3  F012         	goto	u1920
  3517  0025A2                     u1921:
  3518  0025A2  EFE6  F012         	goto	l2525
  3519  0025A6                     u1920:
  3520  0025A6  2839               	incf	___flmul@aexp^(0+1280),w,c
  3521  0025A8  A4D8               	btfss	status,2,c
  3522  0025AA  EFD9  F012         	goto	u1931
  3523  0025AE  EFDB  F012         	goto	u1930
  3524  0025B2                     u1931:
  3525  0025B2  EFE3  F012         	goto	l2523
  3526  0025B6                     u1930:
  3527  0025B6  0E00               	movlw	0
  3528  0025B8  6E2C               	movwf	___flmul@a^(0+1280),c
  3529  0025BA  0E00               	movlw	0
  3530  0025BC  6E2D               	movwf	(___flmul@a+1)^(0+1280),c
  3531  0025BE  0E00               	movlw	0
  3532  0025C0  6E2E               	movwf	(___flmul@a+2)^(0+1280),c
  3533  0025C2  0E00               	movlw	0
  3534  0025C4  6E2F               	movwf	(___flmul@a+3)^(0+1280),c
  3535  0025C6                     l2523:
  3536  0025C6  8E2E               	bsf	(___flmul@a+2)^(0+1280),7,c
  3537  0025C8  EFEE  F012         	goto	l774
  3538  0025CC                     l2525:
  3539  0025CC  0E00               	movlw	0
  3540  0025CE  6E2C               	movwf	___flmul@a^(0+1280),c
  3541  0025D0  0E00               	movlw	0
  3542  0025D2  6E2D               	movwf	(___flmul@a+1)^(0+1280),c
  3543  0025D4  0E00               	movlw	0
  3544  0025D6  6E2E               	movwf	(___flmul@a+2)^(0+1280),c
  3545  0025D8  0E00               	movlw	0
  3546  0025DA  6E2F               	movwf	(___flmul@a+3)^(0+1280),c
  3547  0025DC                     l774:
  3548  0025DC  5039               	movf	___flmul@aexp^(0+1280),w,c
  3549  0025DE  B4D8               	btfsc	status,2,c
  3550  0025E0  EFF4  F012         	goto	u1941
  3551  0025E4  EFF6  F012         	goto	u1940
  3552  0025E8                     u1941:
  3553  0025E8  EFFE  F012         	goto	l2529
  3554  0025EC                     u1940:
  3555  0025EC  503A               	movf	___flmul@bexp^(0+1280),w,c
  3556  0025EE  A4D8               	btfss	status,2,c
  3557  0025F0  EFFC  F012         	goto	u1951
  3558  0025F4  EFFE  F012         	goto	u1950
  3559  0025F8                     u1951:
  3560  0025F8  EF08  F013         	goto	l2533
  3561  0025FC                     u1950:
  3562  0025FC                     l2529:
  3563  0025FC  0E00               	movlw	0
  3564  0025FE  6E28               	movwf	?___flmul^(0+1280),c
  3565  002600  0E00               	movlw	0
  3566  002602  6E29               	movwf	(?___flmul+1)^(0+1280),c
  3567  002604  0E00               	movlw	0
  3568  002606  6E2A               	movwf	(?___flmul+2)^(0+1280),c
  3569  002608  0E00               	movlw	0
  3570  00260A  6E2B               	movwf	(?___flmul+3)^(0+1280),c
  3571  00260C  EFB2  F014         	goto	l778
  3572  002610                     l2533:
  3573  002610  502E               	movf	(___flmul@a+2)^(0+1280),w,c
  3574  002612  0228               	mulwf	___flmul@b^(0+1280),c
  3575  002614  0061 F3CC  F53F    	movff	prodl,___flmul@temp
  3576  00261A  0061 F3D0  F540    	movff	prodh,___flmul@temp+1
  3577  002620  503F               	movf	___flmul@temp^(0+1280),w,c
  3578  002622  6E35               	movwf	___flmul@grs^(0+1280),c
  3579  002624  6A36               	clrf	(___flmul@grs+1)^(0+1280),c
  3580  002626  6A37               	clrf	(___flmul@grs+2)^(0+1280),c
  3581  002628  6A38               	clrf	(___flmul@grs+3)^(0+1280),c
  3582  00262A  5040               	movf	(___flmul@temp+1)^(0+1280),w,c
  3583  00262C  6E3B               	movwf	___flmul@prod^(0+1280),c
  3584  00262E  6A3C               	clrf	(___flmul@prod+1)^(0+1280),c
  3585  002630  6A3D               	clrf	(___flmul@prod+2)^(0+1280),c
  3586  002632  6A3E               	clrf	(___flmul@prod+3)^(0+1280),c
  3587  002634  502D               	movf	(___flmul@a+1)^(0+1280),w,c
  3588  002636  0229               	mulwf	(___flmul@b+1)^(0+1280),c
  3589  002638  0061 F3CC  F53F    	movff	prodl,___flmul@temp
  3590  00263E  0061 F3D0  F540    	movff	prodh,___flmul@temp+1
  3591  002644  503F               	movf	___flmul@temp^(0+1280),w,c
  3592  002646  2635               	addwf	___flmul@grs^(0+1280),f,c
  3593  002648  0E00               	movlw	0
  3594  00264A  2236               	addwfc	(___flmul@grs+1)^(0+1280),f,c
  3595  00264C  2237               	addwfc	(___flmul@grs+2)^(0+1280),f,c
  3596  00264E  2238               	addwfc	(___flmul@grs+3)^(0+1280),f,c
  3597  002650  5040               	movf	(___flmul@temp+1)^(0+1280),w,c
  3598  002652  263B               	addwf	___flmul@prod^(0+1280),f,c
  3599  002654  0E00               	movlw	0
  3600  002656  223C               	addwfc	(___flmul@prod+1)^(0+1280),f,c
  3601  002658  223D               	addwfc	(___flmul@prod+2)^(0+1280),f,c
  3602  00265A  223E               	addwfc	(___flmul@prod+3)^(0+1280),f,c
  3603  00265C  502C               	movf	___flmul@a^(0+1280),w,c
  3604  00265E  022A               	mulwf	(___flmul@b+2)^(0+1280),c
  3605  002660  0061 F3CC  F53F    	movff	prodl,___flmul@temp
  3606  002666  0061 F3D0  F540    	movff	prodh,___flmul@temp+1
  3607  00266C  503F               	movf	___flmul@temp^(0+1280),w,c
  3608  00266E  2635               	addwf	___flmul@grs^(0+1280),f,c
  3609  002670  0E00               	movlw	0
  3610  002672  2236               	addwfc	(___flmul@grs+1)^(0+1280),f,c
  3611  002674  2237               	addwfc	(___flmul@grs+2)^(0+1280),f,c
  3612  002676  2238               	addwfc	(___flmul@grs+3)^(0+1280),f,c
  3613  002678  5040               	movf	(___flmul@temp+1)^(0+1280),w,c
  3614  00267A  263B               	addwf	___flmul@prod^(0+1280),f,c
  3615  00267C  0E00               	movlw	0
  3616  00267E  223C               	addwfc	(___flmul@prod+1)^(0+1280),f,c
  3617  002680  223D               	addwfc	(___flmul@prod+2)^(0+1280),f,c
  3618  002682  223E               	addwfc	(___flmul@prod+3)^(0+1280),f,c
  3619  002684  C537  F538         	movff	___flmul@grs+2,___flmul@grs+3
  3620  002688  C536  F537         	movff	___flmul@grs+1,___flmul@grs+2
  3621  00268C  C535  F536         	movff	___flmul@grs,___flmul@grs+1
  3622  002690  6A35               	clrf	___flmul@grs^(0+1280),c
  3623  002692  502C               	movf	___flmul@a^(0+1280),w,c
  3624  002694  0229               	mulwf	(___flmul@b+1)^(0+1280),c
  3625  002696  0061 F3CC  F53F    	movff	prodl,___flmul@temp
  3626  00269C  0061 F3D0  F540    	movff	prodh,___flmul@temp+1
  3627  0026A2  503F               	movf	___flmul@temp^(0+1280),w,c
  3628  0026A4  2635               	addwf	___flmul@grs^(0+1280),f,c
  3629  0026A6  5040               	movf	(___flmul@temp+1)^(0+1280),w,c
  3630  0026A8  2236               	addwfc	(___flmul@grs+1)^(0+1280),f,c
  3631  0026AA  0E00               	movlw	0
  3632  0026AC  2237               	addwfc	(___flmul@grs+2)^(0+1280),f,c
  3633  0026AE  0E00               	movlw	0
  3634  0026B0  2238               	addwfc	(___flmul@grs+3)^(0+1280),f,c
  3635  0026B2  502D               	movf	(___flmul@a+1)^(0+1280),w,c
  3636  0026B4  0228               	mulwf	___flmul@b^(0+1280),c
  3637  0026B6  0061 F3CC  F53F    	movff	prodl,___flmul@temp
  3638  0026BC  0061 F3D0  F540    	movff	prodh,___flmul@temp+1
  3639  0026C2  503F               	movf	___flmul@temp^(0+1280),w,c
  3640  0026C4  2635               	addwf	___flmul@grs^(0+1280),f,c
  3641  0026C6  5040               	movf	(___flmul@temp+1)^(0+1280),w,c
  3642  0026C8  2236               	addwfc	(___flmul@grs+1)^(0+1280),f,c
  3643  0026CA  0E00               	movlw	0
  3644  0026CC  2237               	addwfc	(___flmul@grs+2)^(0+1280),f,c
  3645  0026CE  0E00               	movlw	0
  3646  0026D0  2238               	addwfc	(___flmul@grs+3)^(0+1280),f,c
  3647  0026D2  C537  F538         	movff	___flmul@grs+2,___flmul@grs+3
  3648  0026D6  C536  F537         	movff	___flmul@grs+1,___flmul@grs+2
  3649  0026DA  C535  F536         	movff	___flmul@grs,___flmul@grs+1
  3650  0026DE  6A35               	clrf	___flmul@grs^(0+1280),c
  3651  0026E0  502C               	movf	___flmul@a^(0+1280),w,c
  3652  0026E2  0228               	mulwf	___flmul@b^(0+1280),c
  3653  0026E4  0061 F3CC  F53F    	movff	prodl,___flmul@temp
  3654  0026EA  0061 F3D0  F540    	movff	prodh,___flmul@temp+1
  3655  0026F0  503F               	movf	___flmul@temp^(0+1280),w,c
  3656  0026F2  2635               	addwf	___flmul@grs^(0+1280),f,c
  3657  0026F4  5040               	movf	(___flmul@temp+1)^(0+1280),w,c
  3658  0026F6  2236               	addwfc	(___flmul@grs+1)^(0+1280),f,c
  3659  0026F8  0E00               	movlw	0
  3660  0026FA  2237               	addwfc	(___flmul@grs+2)^(0+1280),f,c
  3661  0026FC  0E00               	movlw	0
  3662  0026FE  2238               	addwfc	(___flmul@grs+3)^(0+1280),f,c
  3663  002700  502E               	movf	(___flmul@a+2)^(0+1280),w,c
  3664  002702  0229               	mulwf	(___flmul@b+1)^(0+1280),c
  3665  002704  0061 F3CC  F53F    	movff	prodl,___flmul@temp
  3666  00270A  0061 F3D0  F540    	movff	prodh,___flmul@temp+1
  3667  002710  503F               	movf	___flmul@temp^(0+1280),w,c
  3668  002712  263B               	addwf	___flmul@prod^(0+1280),f,c
  3669  002714  5040               	movf	(___flmul@temp+1)^(0+1280),w,c
  3670  002716  223C               	addwfc	(___flmul@prod+1)^(0+1280),f,c
  3671  002718  0E00               	movlw	0
  3672  00271A  223D               	addwfc	(___flmul@prod+2)^(0+1280),f,c
  3673  00271C  0E00               	movlw	0
  3674  00271E  223E               	addwfc	(___flmul@prod+3)^(0+1280),f,c
  3675  002720  502D               	movf	(___flmul@a+1)^(0+1280),w,c
  3676  002722  022A               	mulwf	(___flmul@b+2)^(0+1280),c
  3677  002724  0061 F3CC  F53F    	movff	prodl,___flmul@temp
  3678  00272A  0061 F3D0  F540    	movff	prodh,___flmul@temp+1
  3679  002730  503F               	movf	___flmul@temp^(0+1280),w,c
  3680  002732  263B               	addwf	___flmul@prod^(0+1280),f,c
  3681  002734  5040               	movf	(___flmul@temp+1)^(0+1280),w,c
  3682  002736  223C               	addwfc	(___flmul@prod+1)^(0+1280),f,c
  3683  002738  0E00               	movlw	0
  3684  00273A  223D               	addwfc	(___flmul@prod+2)^(0+1280),f,c
  3685  00273C  0E00               	movlw	0
  3686  00273E  223E               	addwfc	(___flmul@prod+3)^(0+1280),f,c
  3687  002740  502E               	movf	(___flmul@a+2)^(0+1280),w,c
  3688  002742  022A               	mulwf	(___flmul@b+2)^(0+1280),c
  3689  002744  0061 F3CC  F53F    	movff	prodl,___flmul@temp
  3690  00274A  0061 F3D0  F540    	movff	prodh,___flmul@temp+1
  3691  002750  503F               	movf	___flmul@temp^(0+1280),w,c
  3692  002752  6E30               	movwf	??___flmul^(0+1280),c
  3693  002754  5040               	movf	(___flmul@temp+1)^(0+1280),w,c
  3694  002756  6E31               	movwf	(??___flmul+1)^(0+1280),c
  3695  002758  6A32               	clrf	(??___flmul+2)^(0+1280),c
  3696  00275A  6A33               	clrf	(??___flmul+3)^(0+1280),c
  3697  00275C  C532  F533         	movff	??___flmul+2,??___flmul+3
  3698  002760  C531  F532         	movff	??___flmul+1,??___flmul+2
  3699  002764  C530  F531         	movff	??___flmul,??___flmul+1
  3700  002768  6A30               	clrf	??___flmul^(0+1280),c
  3701  00276A  5030               	movf	??___flmul^(0+1280),w,c
  3702  00276C  263B               	addwf	___flmul@prod^(0+1280),f,c
  3703  00276E  5031               	movf	(??___flmul+1)^(0+1280),w,c
  3704  002770  223C               	addwfc	(___flmul@prod+1)^(0+1280),f,c
  3705  002772  5032               	movf	(??___flmul+2)^(0+1280),w,c
  3706  002774  223D               	addwfc	(___flmul@prod+2)^(0+1280),f,c
  3707  002776  5033               	movf	(??___flmul+3)^(0+1280),w,c
  3708  002778  223E               	addwfc	(___flmul@prod+3)^(0+1280),f,c
  3709  00277A  C535  F530         	movff	___flmul@grs,??___flmul
  3710  00277E  C536  F531         	movff	___flmul@grs+1,??___flmul+1
  3711  002782  C537  F532         	movff	___flmul@grs+2,??___flmul+2
  3712  002786  C538  F533         	movff	___flmul@grs+3,??___flmul+3
  3713  00278A  0E19               	movlw	25
  3714  00278C  EFCD  F013         	goto	u1960
  3715  002790                     u1965:
  3716  002790  90D8               	bcf	status,0,c
  3717  002792  3233               	rrcf	(??___flmul+3)^(0+1280),f,c
  3718  002794  3232               	rrcf	(??___flmul+2)^(0+1280),f,c
  3719  002796  3231               	rrcf	(??___flmul+1)^(0+1280),f,c
  3720  002798  3230               	rrcf	??___flmul^(0+1280),f,c
  3721  00279A                     u1960:
  3722  00279A  2EE8               	decfsz	wreg,f,c
  3723  00279C  EFC8  F013         	goto	u1965
  3724  0027A0  5030               	movf	??___flmul^(0+1280),w,c
  3725  0027A2  263B               	addwf	___flmul@prod^(0+1280),f,c
  3726  0027A4  5031               	movf	(??___flmul+1)^(0+1280),w,c
  3727  0027A6  223C               	addwfc	(___flmul@prod+1)^(0+1280),f,c
  3728  0027A8  5032               	movf	(??___flmul+2)^(0+1280),w,c
  3729  0027AA  223D               	addwfc	(___flmul@prod+2)^(0+1280),f,c
  3730  0027AC  5033               	movf	(??___flmul+3)^(0+1280),w,c
  3731  0027AE  223E               	addwfc	(___flmul@prod+3)^(0+1280),f,c
  3732  0027B0  C537  F538         	movff	___flmul@grs+2,___flmul@grs+3
  3733  0027B4  C536  F537         	movff	___flmul@grs+1,___flmul@grs+2
  3734  0027B8  C535  F536         	movff	___flmul@grs,___flmul@grs+1
  3735  0027BC  6A35               	clrf	___flmul@grs^(0+1280),c
  3736  0027BE  5039               	movf	___flmul@aexp^(0+1280),w,c
  3737  0027C0  C53A  F530         	movff	___flmul@bexp,??___flmul
  3738  0027C4  6A31               	clrf	(??___flmul+1)^(0+1280),c
  3739  0027C6  2630               	addwf	??___flmul^(0+1280),f,c
  3740  0027C8  0E00               	movlw	0
  3741  0027CA  2231               	addwfc	(??___flmul+1)^(0+1280),f,c
  3742  0027CC  0E82               	movlw	130
  3743  0027CE  2430               	addwf	??___flmul^(0+1280),w,c
  3744  0027D0  6E3F               	movwf	___flmul@temp^(0+1280),c
  3745  0027D2  0EFF               	movlw	255
  3746  0027D4  2031               	addwfc	(??___flmul+1)^(0+1280),w,c
  3747  0027D6  6E40               	movwf	(___flmul@temp+1)^(0+1280),c
  3748  0027D8  EF03  F014         	goto	l2581
  3749  0027DC                     l2575:
  3750  0027DC  90D8               	bcf	status,0,c
  3751  0027DE  363B               	rlcf	___flmul@prod^(0+1280),f,c
  3752  0027E0  363C               	rlcf	(___flmul@prod+1)^(0+1280),f,c
  3753  0027E2  363D               	rlcf	(___flmul@prod+2)^(0+1280),f,c
  3754  0027E4  363E               	rlcf	(___flmul@prod+3)^(0+1280),f,c
  3755  0027E6  AE38               	btfss	(___flmul@grs+3)^(0+1280),7,c
  3756  0027E8  EFF8  F013         	goto	u1971
  3757  0027EC  EFFA  F013         	goto	u1970
  3758  0027F0                     u1971:
  3759  0027F0  EFFB  F013         	goto	l781
  3760  0027F4                     u1970:
  3761  0027F4  803B               	bsf	___flmul@prod^(0+1280),0,c
  3762  0027F6                     l781:
  3763  0027F6  90D8               	bcf	status,0,c
  3764  0027F8  3635               	rlcf	___flmul@grs^(0+1280),f,c
  3765  0027FA  3636               	rlcf	(___flmul@grs+1)^(0+1280),f,c
  3766  0027FC  3637               	rlcf	(___flmul@grs+2)^(0+1280),f,c
  3767  0027FE  3638               	rlcf	(___flmul@grs+3)^(0+1280),f,c
  3768  002800  063F               	decf	___flmul@temp^(0+1280),f,c
  3769  002802  A0D8               	btfss	status,0,c
  3770  002804  0640               	decf	(___flmul@temp+1)^(0+1280),f,c
  3771  002806                     l2581:
  3772  002806  AE3D               	btfss	(___flmul@prod+2)^(0+1280),7,c
  3773  002808  EF08  F014         	goto	u1981
  3774  00280C  EF0A  F014         	goto	u1980
  3775  002810                     u1981:
  3776  002810  EFEE  F013         	goto	l2575
  3777  002814                     u1980:
  3778  002814  0E00               	movlw	0
  3779  002816  6E39               	movwf	___flmul@aexp^(0+1280),c
  3780  002818  AE38               	btfss	(___flmul@grs+3)^(0+1280),7,c
  3781  00281A  EF11  F014         	goto	u1991
  3782  00281E  EF13  F014         	goto	u1990
  3783  002822                     u1991:
  3784  002822  EF37  F014         	goto	l783
  3785  002826                     u1990:
  3786  002826  0EFF               	movlw	255
  3787  002828  1435               	andwf	___flmul@grs^(0+1280),w,c
  3788  00282A  6E30               	movwf	??___flmul^(0+1280),c
  3789  00282C  0EFF               	movlw	255
  3790  00282E  1436               	andwf	(___flmul@grs+1)^(0+1280),w,c
  3791  002830  6E31               	movwf	(??___flmul+1)^(0+1280),c
  3792  002832  0EFF               	movlw	255
  3793  002834  1437               	andwf	(___flmul@grs+2)^(0+1280),w,c
  3794  002836  6E32               	movwf	(??___flmul+2)^(0+1280),c
  3795  002838  0E7F               	movlw	127
  3796  00283A  1438               	andwf	(___flmul@grs+3)^(0+1280),w,c
  3797  00283C  6E33               	movwf	(??___flmul+3)^(0+1280),c
  3798  00283E  5030               	movf	??___flmul^(0+1280),w,c
  3799  002840  1031               	iorwf	(??___flmul+1)^(0+1280),w,c
  3800  002842  1032               	iorwf	(??___flmul+2)^(0+1280),w,c
  3801  002844  1033               	iorwf	(??___flmul+3)^(0+1280),w,c
  3802  002846  B4D8               	btfsc	status,2,c
  3803  002848  EF28  F014         	goto	u2001
  3804  00284C  EF2A  F014         	goto	u2000
  3805  002850                     u2001:
  3806  002850  EF2E  F014         	goto	l784
  3807  002854                     u2000:
  3808  002854                     l2589:
  3809  002854  0E01               	movlw	1
  3810  002856  6E39               	movwf	___flmul@aexp^(0+1280),c
  3811  002858  EF37  F014         	goto	l783
  3812  00285C                     l784:
  3813  00285C  A03B               	btfss	___flmul@prod^(0+1280),0,c
  3814  00285E  EF33  F014         	goto	u2011
  3815  002862  EF35  F014         	goto	u2010
  3816  002866                     u2011:
  3817  002866  EF37  F014         	goto	l783
  3818  00286A                     u2010:
  3819  00286A  EF2A  F014         	goto	l2589
  3820  00286E                     l783:
  3821  00286E  5039               	movf	___flmul@aexp^(0+1280),w,c
  3822  002870  B4D8               	btfsc	status,2,c
  3823  002872  EF3D  F014         	goto	u2021
  3824  002876  EF3F  F014         	goto	u2020
  3825  00287A                     u2021:
  3826  00287A  EF63  F014         	goto	l2601
  3827  00287E                     u2020:
  3828  00287E  0E01               	movlw	1
  3829  002880  263B               	addwf	___flmul@prod^(0+1280),f,c
  3830  002882  0E00               	movlw	0
  3831  002884  223C               	addwfc	(___flmul@prod+1)^(0+1280),f,c
  3832  002886  223D               	addwfc	(___flmul@prod+2)^(0+1280),f,c
  3833  002888  223E               	addwfc	(___flmul@prod+3)^(0+1280),f,c
  3834  00288A  A03E               	btfss	(___flmul@prod+3)^(0+1280),0,c
  3835  00288C  EF4A  F014         	goto	u2031
  3836  002890  EF4C  F014         	goto	u2030
  3837  002894                     u2031:
  3838  002894  EF63  F014         	goto	l2601
  3839  002898                     u2030:
  3840  002898  C53B  F530         	movff	___flmul@prod,??___flmul
  3841  00289C  C53C  F531         	movff	___flmul@prod+1,??___flmul+1
  3842  0028A0  C53D  F532         	movff	___flmul@prod+2,??___flmul+2
  3843  0028A4  C53E  F533         	movff	___flmul@prod+3,??___flmul+3
  3844  0028A8  3433               	rlcf	(??___flmul+3)^(0+1280),w,c
  3845  0028AA  3233               	rrcf	(??___flmul+3)^(0+1280),f,c
  3846  0028AC  3232               	rrcf	(??___flmul+2)^(0+1280),f,c
  3847  0028AE  3231               	rrcf	(??___flmul+1)^(0+1280),f,c
  3848  0028B0  3230               	rrcf	??___flmul^(0+1280),f,c
  3849  0028B2  C530  F53B         	movff	??___flmul,___flmul@prod
  3850  0028B6  C531  F53C         	movff	??___flmul+1,___flmul@prod+1
  3851  0028BA  C532  F53D         	movff	??___flmul+2,___flmul@prod+2
  3852  0028BE  C533  F53E         	movff	??___flmul+3,___flmul@prod+3
  3853  0028C2  4A3F               	infsnz	___flmul@temp^(0+1280),f,c
  3854  0028C4  2A40               	incf	(___flmul@temp+1)^(0+1280),f,c
  3855  0028C6                     l2601:
  3856  0028C6  BE40               	btfsc	(___flmul@temp+1)^(0+1280),7,c
  3857  0028C8  EF6E  F014         	goto	u2041
  3858  0028CC  5040               	movf	(___flmul@temp+1)^(0+1280),w,c
  3859  0028CE  E108               	bnz	u2040
  3860  0028D0  283F               	incf	___flmul@temp^(0+1280),w,c
  3861  0028D2  A0D8               	btfss	status,0,c
  3862  0028D4  EF6E  F014         	goto	u2041
  3863  0028D8  EF70  F014         	goto	u2040
  3864  0028DC                     u2041:
  3865  0028DC  EF7A  F014         	goto	l2605
  3866  0028E0                     u2040:
  3867  0028E0  0E00               	movlw	0
  3868  0028E2  6E3B               	movwf	___flmul@prod^(0+1280),c
  3869  0028E4  0E00               	movlw	0
  3870  0028E6  6E3C               	movwf	(___flmul@prod+1)^(0+1280),c
  3871  0028E8  0E80               	movlw	128
  3872  0028EA  6E3D               	movwf	(___flmul@prod+2)^(0+1280),c
  3873  0028EC  0E7F               	movlw	127
  3874  0028EE  6E3E               	movwf	(___flmul@prod+3)^(0+1280),c
  3875  0028F0  EFA8  F014         	goto	l2617
  3876  0028F4                     l2605:
  3877  0028F4  BE40               	btfsc	(___flmul@temp+1)^(0+1280),7,c
  3878  0028F6  EF87  F014         	goto	u2050
  3879  0028FA  5040               	movf	(___flmul@temp+1)^(0+1280),w,c
  3880  0028FC  E106               	bnz	u2051
  3881  0028FE  043F               	decf	___flmul@temp^(0+1280),w,c
  3882  002900  B0D8               	btfsc	status,0,c
  3883  002902  EF85  F014         	goto	u2051
  3884  002906  EF87  F014         	goto	u2050
  3885  00290A                     u2051:
  3886  00290A  EF93  F014         	goto	l791
  3887  00290E                     u2050:
  3888  00290E  0E00               	movlw	0
  3889  002910  6E3B               	movwf	___flmul@prod^(0+1280),c
  3890  002912  0E00               	movlw	0
  3891  002914  6E3C               	movwf	(___flmul@prod+1)^(0+1280),c
  3892  002916  0E00               	movlw	0
  3893  002918  6E3D               	movwf	(___flmul@prod+2)^(0+1280),c
  3894  00291A  0E00               	movlw	0
  3895  00291C  6E3E               	movwf	(___flmul@prod+3)^(0+1280),c
  3896  00291E  0E00               	movlw	0
  3897  002920  6E34               	movwf	___flmul@sign^(0+1280),c
  3898  002922  EFA8  F014         	goto	l2617
  3899  002926                     l791:
  3900  002926  C53F  F53A         	movff	___flmul@temp,___flmul@bexp
  3901  00292A  0EFF               	movlw	255
  3902  00292C  163B               	andwf	___flmul@prod^(0+1280),f,c
  3903  00292E  0EFF               	movlw	255
  3904  002930  163C               	andwf	(___flmul@prod+1)^(0+1280),f,c
  3905  002932  0E7F               	movlw	127
  3906  002934  163D               	andwf	(___flmul@prod+2)^(0+1280),f,c
  3907  002936  0E00               	movlw	0
  3908  002938  163E               	andwf	(___flmul@prod+3)^(0+1280),f,c
  3909  00293A  A03A               	btfss	___flmul@bexp^(0+1280),0,c
  3910  00293C  EFA2  F014         	goto	u2061
  3911  002940  EFA4  F014         	goto	u2060
  3912  002944                     u2061:
  3913  002944  EFA5  F014         	goto	l2615
  3914  002948                     u2060:
  3915  002948  8E3D               	bsf	(___flmul@prod+2)^(0+1280),7,c
  3916  00294A                     l2615:
  3917  00294A  90D8               	bcf	status,0,c
  3918  00294C  303A               	rrcf	___flmul@bexp^(0+1280),w,c
  3919  00294E  6E3E               	movwf	(___flmul@prod+3)^(0+1280),c
  3920  002950                     l2617:
  3921  002950  5034               	movf	___flmul@sign^(0+1280),w,c
  3922  002952  123E               	iorwf	(___flmul@prod+3)^(0+1280),f,c
  3923  002954  C53B  F528         	movff	___flmul@prod,?___flmul
  3924  002958  C53C  F529         	movff	___flmul@prod+1,?___flmul+1
  3925  00295C  C53D  F52A         	movff	___flmul@prod+2,?___flmul+2
  3926  002960  C53E  F52B         	movff	___flmul@prod+3,?___flmul+3
  3927  002964                     l778:
  3928  002964  0012               	return		;funcret
  3929  002966                     __end_of___flmul:
  3930                           	callstack 0
  3931                           
  3932 ;; *************** function ___fldiv *****************
  3933 ;; Defined at:
  3934 ;;		line 11 in file "C:\Program Files\Microchip\xc8\v2.32\pic\sources\c99\common\sprcdiv.c"
  3935 ;; Parameters:    Size  Location     Type
  3936 ;;  b               4   14[COMRAM] unsigned char 
  3937 ;;  a               4   18[COMRAM] unsigned char 
  3938 ;; Auto vars:     Size  Location     Type
  3939 ;;  grs             4   33[COMRAM] unsigned long 
  3940 ;;  rem             4   26[COMRAM] unsigned long 
  3941 ;;  new_exp         2   31[COMRAM] short 
  3942 ;;  aexp            1   38[COMRAM] unsigned char 
  3943 ;;  bexp            1   37[COMRAM] unsigned char 
  3944 ;;  sign            1   30[COMRAM] unsigned char 
  3945 ;; Return value:  Size  Location     Type
  3946 ;;                  4   14[COMRAM] unsigned char 
  3947 ;; Registers used:
  3948 ;;		wreg, status,2, status,0
  3949 ;; Tracked objects:
  3950 ;;		On entry : 0/0
  3951 ;;		On exit  : 0/0
  3952 ;;		Unchanged: 0/0
  3953 ;; Data sizes:     COMRAM   BANK5   BANK6   BANK7   BANK8   BANK9  BANK10  BANK11  BANK12  BANK13  BANK14  BANK15  BANK1
      +6  BANK17  BANK18  BANK19  BANK20  BANK21  BANK22  BANK23  BANK24  BANK25  BANK26  BANK27  BANK28  BANK29  BANK30  BANK3
      +1  BANK32  BANK33  BANK34  BANK35  BANK36
  3954 ;;      Params:         8       0       0       0       0       0       0       0       0       0       0       0       
      +0       0       0       0       0       0       0       0       0       0       0       0       0       0       0       
      +0       0       0       0       0       0
  3955 ;;      Locals:        13       0       0       0       0       0       0       0       0       0       0       0       
      +0       0       0       0       0       0       0       0       0       0       0       0       0       0       0       
      +0       0       0       0       0       0
  3956 ;;      Temps:          4       0       0       0       0       0       0       0       0       0       0       0       
      +0       0       0       0       0       0       0       0       0       0       0       0       0       0       0       
      +0       0       0       0       0       0
  3957 ;;      Totals:        25       0       0       0       0       0       0       0       0       0       0       0       
      +0       0       0       0       0       0       0       0       0       0       0       0       0       0       0       
      +0       0       0       0       0       0
  3958 ;;Total ram usage:       25 bytes
  3959 ;; Hardware stack levels used: 1
  3960 ;; Hardware stack levels required when called: 1
  3961 ;; This function calls:
  3962 ;;		Nothing
  3963 ;; This function is called by:
  3964 ;;		_main
  3965 ;; This function uses a non-reentrant model
  3966 ;;
  3967                           
  3968                           	psect	text19
  3969  002D3A                     __ptext19:
  3970                           	callstack 0
  3971  002D3A                     ___fldiv:
  3972                           	callstack 125
  3973  002D3A  5012               	movf	(___fldiv@b+3)^(0+1280),w,c
  3974  002D3C  0B80               	andlw	128
  3975  002D3E  6E1F               	movwf	___fldiv@sign^(0+1280),c
  3976  002D40  5012               	movf	(___fldiv@b+3)^(0+1280),w,c
  3977  002D42  2412               	addwf	(___fldiv@b+3)^(0+1280),w,c
  3978  002D44  6E26               	movwf	___fldiv@bexp^(0+1280),c
  3979  002D46  AE11               	btfss	(___fldiv@b+2)^(0+1280),7,c
  3980  002D48  EFA8  F016         	goto	u1651
  3981  002D4C  EFAA  F016         	goto	u1650
  3982  002D50                     u1651:
  3983  002D50  EFAB  F016         	goto	l2361
  3984  002D54                     u1650:
  3985  002D54  8026               	bsf	___fldiv@bexp^(0+1280),0,c
  3986  002D56                     l2361:
  3987  002D56  5026               	movf	___fldiv@bexp^(0+1280),w,c
  3988  002D58  B4D8               	btfsc	status,2,c
  3989  002D5A  EFB1  F016         	goto	u1661
  3990  002D5E  EFB3  F016         	goto	u1660
  3991  002D62                     u1661:
  3992  002D62  EFC8  F016         	goto	l2371
  3993  002D66                     u1660:
  3994  002D66  2826               	incf	___fldiv@bexp^(0+1280),w,c
  3995  002D68  A4D8               	btfss	status,2,c
  3996  002D6A  EFB9  F016         	goto	u1671
  3997  002D6E  EFBB  F016         	goto	u1670
  3998  002D72                     u1671:
  3999  002D72  EFC3  F016         	goto	l2367
  4000  002D76                     u1670:
  4001  002D76  0E00               	movlw	0
  4002  002D78  6E0F               	movwf	___fldiv@b^(0+1280),c
  4003  002D7A  0E00               	movlw	0
  4004  002D7C  6E10               	movwf	(___fldiv@b+1)^(0+1280),c
  4005  002D7E  0E00               	movlw	0
  4006  002D80  6E11               	movwf	(___fldiv@b+2)^(0+1280),c
  4007  002D82  0E00               	movlw	0
  4008  002D84  6E12               	movwf	(___fldiv@b+3)^(0+1280),c
  4009  002D86                     l2367:
  4010  002D86  8E11               	bsf	(___fldiv@b+2)^(0+1280),7,c
  4011  002D88  0E00               	movlw	0
  4012  002D8A  6E12               	movwf	(___fldiv@b+3)^(0+1280),c
  4013  002D8C  EFD0  F016         	goto	l2373
  4014  002D90                     l2371:
  4015  002D90  0E00               	movlw	0
  4016  002D92  6E0F               	movwf	___fldiv@b^(0+1280),c
  4017  002D94  0E00               	movlw	0
  4018  002D96  6E10               	movwf	(___fldiv@b+1)^(0+1280),c
  4019  002D98  0E00               	movlw	0
  4020  002D9A  6E11               	movwf	(___fldiv@b+2)^(0+1280),c
  4021  002D9C  0E00               	movlw	0
  4022  002D9E  6E12               	movwf	(___fldiv@b+3)^(0+1280),c
  4023  002DA0                     l2373:
  4024  002DA0  5016               	movf	(___fldiv@a+3)^(0+1280),w,c
  4025  002DA2  0B80               	andlw	128
  4026  002DA4  1A1F               	xorwf	___fldiv@sign^(0+1280),f,c
  4027  002DA6  5016               	movf	(___fldiv@a+3)^(0+1280),w,c
  4028  002DA8  2416               	addwf	(___fldiv@a+3)^(0+1280),w,c
  4029  002DAA  6E27               	movwf	___fldiv@aexp^(0+1280),c
  4030  002DAC  AE15               	btfss	(___fldiv@a+2)^(0+1280),7,c
  4031  002DAE  EFDB  F016         	goto	u1681
  4032  002DB2  EFDD  F016         	goto	u1680
  4033  002DB6                     u1681:
  4034  002DB6  EFDE  F016         	goto	l2381
  4035  002DBA                     u1680:
  4036  002DBA  8027               	bsf	___fldiv@aexp^(0+1280),0,c
  4037  002DBC                     l2381:
  4038  002DBC  5027               	movf	___fldiv@aexp^(0+1280),w,c
  4039  002DBE  B4D8               	btfsc	status,2,c
  4040  002DC0  EFE4  F016         	goto	u1691
  4041  002DC4  EFE6  F016         	goto	u1690
  4042  002DC8                     u1691:
  4043  002DC8  EFFB  F016         	goto	l2391
  4044  002DCC                     u1690:
  4045  002DCC  2827               	incf	___fldiv@aexp^(0+1280),w,c
  4046  002DCE  A4D8               	btfss	status,2,c
  4047  002DD0  EFEC  F016         	goto	u1701
  4048  002DD4  EFEE  F016         	goto	u1700
  4049  002DD8                     u1701:
  4050  002DD8  EFF6  F016         	goto	l2387
  4051  002DDC                     u1700:
  4052  002DDC  0E00               	movlw	0
  4053  002DDE  6E13               	movwf	___fldiv@a^(0+1280),c
  4054  002DE0  0E00               	movlw	0
  4055  002DE2  6E14               	movwf	(___fldiv@a+1)^(0+1280),c
  4056  002DE4  0E00               	movlw	0
  4057  002DE6  6E15               	movwf	(___fldiv@a+2)^(0+1280),c
  4058  002DE8  0E00               	movlw	0
  4059  002DEA  6E16               	movwf	(___fldiv@a+3)^(0+1280),c
  4060  002DEC                     l2387:
  4061  002DEC  8E15               	bsf	(___fldiv@a+2)^(0+1280),7,c
  4062  002DEE  0E00               	movlw	0
  4063  002DF0  6E16               	movwf	(___fldiv@a+3)^(0+1280),c
  4064  002DF2  EF03  F017         	goto	l2393
  4065  002DF6                     l2391:
  4066  002DF6  0E00               	movlw	0
  4067  002DF8  6E13               	movwf	___fldiv@a^(0+1280),c
  4068  002DFA  0E00               	movlw	0
  4069  002DFC  6E14               	movwf	(___fldiv@a+1)^(0+1280),c
  4070  002DFE  0E00               	movlw	0
  4071  002E00  6E15               	movwf	(___fldiv@a+2)^(0+1280),c
  4072  002E02  0E00               	movlw	0
  4073  002E04  6E16               	movwf	(___fldiv@a+3)^(0+1280),c
  4074  002E06                     l2393:
  4075  002E06  5013               	movf	___fldiv@a^(0+1280),w,c
  4076  002E08  1014               	iorwf	(___fldiv@a+1)^(0+1280),w,c
  4077  002E0A  1015               	iorwf	(___fldiv@a+2)^(0+1280),w,c
  4078  002E0C  1016               	iorwf	(___fldiv@a+3)^(0+1280),w,c
  4079  002E0E  A4D8               	btfss	status,2,c
  4080  002E10  EF0C  F017         	goto	u1711
  4081  002E14  EF0E  F017         	goto	u1710
  4082  002E18                     u1711:
  4083  002E18  EF26  F017         	goto	l2405
  4084  002E1C                     u1710:
  4085  002E1C  0E00               	movlw	0
  4086  002E1E  6E0F               	movwf	___fldiv@b^(0+1280),c
  4087  002E20  0E00               	movlw	0
  4088  002E22  6E10               	movwf	(___fldiv@b+1)^(0+1280),c
  4089  002E24  0E00               	movlw	0
  4090  002E26  6E11               	movwf	(___fldiv@b+2)^(0+1280),c
  4091  002E28  0E00               	movlw	0
  4092  002E2A  6E12               	movwf	(___fldiv@b+3)^(0+1280),c
  4093  002E2C  0E80               	movlw	128
  4094  002E2E  1211               	iorwf	(___fldiv@b+2)^(0+1280),f,c
  4095  002E30  0E7F               	movlw	127
  4096  002E32  1212               	iorwf	(___fldiv@b+3)^(0+1280),f,c
  4097  002E34                     l2399:
  4098  002E34  501F               	movf	___fldiv@sign^(0+1280),w,c
  4099  002E36  1212               	iorwf	(___fldiv@b+3)^(0+1280),f,c
  4100  002E38  C50F  F50F         	movff	___fldiv@b,?___fldiv
  4101  002E3C  C510  F510         	movff	___fldiv@b+1,?___fldiv+1
  4102  002E40  C511  F511         	movff	___fldiv@b+2,?___fldiv+2
  4103  002E44  C512  F512         	movff	___fldiv@b+3,?___fldiv+3
  4104  002E48  EF69  F018         	goto	l742
  4105  002E4C                     l2405:
  4106  002E4C  5026               	movf	___fldiv@bexp^(0+1280),w,c
  4107  002E4E  A4D8               	btfss	status,2,c
  4108  002E50  EF2C  F017         	goto	u1721
  4109  002E54  EF2E  F017         	goto	u1720
  4110  002E58                     u1721:
  4111  002E58  EF38  F017         	goto	l2413
  4112  002E5C                     u1720:
  4113  002E5C  0E00               	movlw	0
  4114  002E5E  6E0F               	movwf	?___fldiv^(0+1280),c
  4115  002E60  0E00               	movlw	0
  4116  002E62  6E10               	movwf	(?___fldiv+1)^(0+1280),c
  4117  002E64  0E00               	movlw	0
  4118  002E66  6E11               	movwf	(?___fldiv+2)^(0+1280),c
  4119  002E68  0E00               	movlw	0
  4120  002E6A  6E12               	movwf	(?___fldiv+3)^(0+1280),c
  4121  002E6C  EF69  F018         	goto	l742
  4122  002E70                     l2413:
  4123  002E70  5027               	movf	___fldiv@aexp^(0+1280),w,c
  4124  002E72  C526  F517         	movff	___fldiv@bexp,??___fldiv
  4125  002E76  6A18               	clrf	(??___fldiv+1)^(0+1280),c
  4126  002E78  5E17               	subwf	??___fldiv^(0+1280),f,c
  4127  002E7A  0E00               	movlw	0
  4128  002E7C  5A18               	subwfb	(??___fldiv+1)^(0+1280),f,c
  4129  002E7E  0E7F               	movlw	127
  4130  002E80  2417               	addwf	??___fldiv^(0+1280),w,c
  4131  002E82  6E20               	movwf	___fldiv@new_exp^(0+1280),c
  4132  002E84  0E00               	movlw	0
  4133  002E86  2018               	addwfc	(??___fldiv+1)^(0+1280),w,c
  4134  002E88  6E21               	movwf	(___fldiv@new_exp+1)^(0+1280),c
  4135  002E8A  C50F  F51B         	movff	___fldiv@b,___fldiv@rem
  4136  002E8E  C510  F51C         	movff	___fldiv@b+1,___fldiv@rem+1
  4137  002E92  C511  F51D         	movff	___fldiv@b+2,___fldiv@rem+2
  4138  002E96  C512  F51E         	movff	___fldiv@b+3,___fldiv@rem+3
  4139  002E9A  0E00               	movlw	0
  4140  002E9C  6E0F               	movwf	___fldiv@b^(0+1280),c
  4141  002E9E  0E00               	movlw	0
  4142  002EA0  6E10               	movwf	(___fldiv@b+1)^(0+1280),c
  4143  002EA2  0E00               	movlw	0
  4144  002EA4  6E11               	movwf	(___fldiv@b+2)^(0+1280),c
  4145  002EA6  0E00               	movlw	0
  4146  002EA8  6E12               	movwf	(___fldiv@b+3)^(0+1280),c
  4147  002EAA  0E00               	movlw	0
  4148  002EAC  6E22               	movwf	___fldiv@grs^(0+1280),c
  4149  002EAE  0E00               	movlw	0
  4150  002EB0  6E23               	movwf	(___fldiv@grs+1)^(0+1280),c
  4151  002EB2  0E00               	movlw	0
  4152  002EB4  6E24               	movwf	(___fldiv@grs+2)^(0+1280),c
  4153  002EB6  0E00               	movlw	0
  4154  002EB8  6E25               	movwf	(___fldiv@grs+3)^(0+1280),c
  4155  002EBA  0E00               	movlw	0
  4156  002EBC  6E27               	movwf	___fldiv@aexp^(0+1280),c
  4157  002EBE  EF99  F017         	goto	l744
  4158  002EC2                     l2423:
  4159  002EC2  5027               	movf	___fldiv@aexp^(0+1280),w,c
  4160  002EC4  B4D8               	btfsc	status,2,c
  4161  002EC6  EF67  F017         	goto	u1731
  4162  002ECA  EF69  F017         	goto	u1730
  4163  002ECE                     u1731:
  4164  002ECE  EF80  F017         	goto	l2431
  4165  002ED2                     u1730:
  4166  002ED2  90D8               	bcf	status,0,c
  4167  002ED4  361B               	rlcf	___fldiv@rem^(0+1280),f,c
  4168  002ED6  361C               	rlcf	(___fldiv@rem+1)^(0+1280),f,c
  4169  002ED8  361D               	rlcf	(___fldiv@rem+2)^(0+1280),f,c
  4170  002EDA  361E               	rlcf	(___fldiv@rem+3)^(0+1280),f,c
  4171  002EDC  90D8               	bcf	status,0,c
  4172  002EDE  360F               	rlcf	___fldiv@b^(0+1280),f,c
  4173  002EE0  3610               	rlcf	(___fldiv@b+1)^(0+1280),f,c
  4174  002EE2  3611               	rlcf	(___fldiv@b+2)^(0+1280),f,c
  4175  002EE4  3612               	rlcf	(___fldiv@b+3)^(0+1280),f,c
  4176  002EE6  AE25               	btfss	(___fldiv@grs+3)^(0+1280),7,c
  4177  002EE8  EF78  F017         	goto	u1741
  4178  002EEC  EF7A  F017         	goto	u1740
  4179  002EF0                     u1741:
  4180  002EF0  EF7B  F017         	goto	l747
  4181  002EF4                     u1740:
  4182  002EF4  800F               	bsf	___fldiv@b^(0+1280),0,c
  4183  002EF6                     l747:
  4184  002EF6  90D8               	bcf	status,0,c
  4185  002EF8  3622               	rlcf	___fldiv@grs^(0+1280),f,c
  4186  002EFA  3623               	rlcf	(___fldiv@grs+1)^(0+1280),f,c
  4187  002EFC  3624               	rlcf	(___fldiv@grs+2)^(0+1280),f,c
  4188  002EFE  3625               	rlcf	(___fldiv@grs+3)^(0+1280),f,c
  4189  002F00                     l2431:
  4190  002F00  5013               	movf	___fldiv@a^(0+1280),w,c
  4191  002F02  5C1B               	subwf	___fldiv@rem^(0+1280),w,c
  4192  002F04  5014               	movf	(___fldiv@a+1)^(0+1280),w,c
  4193  002F06  581C               	subwfb	(___fldiv@rem+1)^(0+1280),w,c
  4194  002F08  5015               	movf	(___fldiv@a+2)^(0+1280),w,c
  4195  002F0A  581D               	subwfb	(___fldiv@rem+2)^(0+1280),w,c
  4196  002F0C  5016               	movf	(___fldiv@a+3)^(0+1280),w,c
  4197  002F0E  581E               	subwfb	(___fldiv@rem+3)^(0+1280),w,c
  4198  002F10  A0D8               	btfss	status,0,c
  4199  002F12  EF8D  F017         	goto	u1751
  4200  002F16  EF8F  F017         	goto	u1750
  4201  002F1A                     u1751:
  4202  002F1A  EF98  F017         	goto	l2437
  4203  002F1E                     u1750:
  4204  002F1E  8C25               	bsf	(___fldiv@grs+3)^(0+1280),6,c
  4205  002F20  5013               	movf	___fldiv@a^(0+1280),w,c
  4206  002F22  5E1B               	subwf	___fldiv@rem^(0+1280),f,c
  4207  002F24  5014               	movf	(___fldiv@a+1)^(0+1280),w,c
  4208  002F26  5A1C               	subwfb	(___fldiv@rem+1)^(0+1280),f,c
  4209  002F28  5015               	movf	(___fldiv@a+2)^(0+1280),w,c
  4210  002F2A  5A1D               	subwfb	(___fldiv@rem+2)^(0+1280),f,c
  4211  002F2C  5016               	movf	(___fldiv@a+3)^(0+1280),w,c
  4212  002F2E  5A1E               	subwfb	(___fldiv@rem+3)^(0+1280),f,c
  4213  002F30                     l2437:
  4214  002F30  2A27               	incf	___fldiv@aexp^(0+1280),f,c
  4215  002F32                     l744:
  4216  002F32  0E19               	movlw	25
  4217  002F34  6427               	cpfsgt	___fldiv@aexp^(0+1280),c
  4218  002F36  EF9F  F017         	goto	u1761
  4219  002F3A  EFA1  F017         	goto	u1760
  4220  002F3E                     u1761:
  4221  002F3E  EF61  F017         	goto	l2423
  4222  002F42                     u1760:
  4223  002F42  501B               	movf	___fldiv@rem^(0+1280),w,c
  4224  002F44  101C               	iorwf	(___fldiv@rem+1)^(0+1280),w,c
  4225  002F46  101D               	iorwf	(___fldiv@rem+2)^(0+1280),w,c
  4226  002F48  101E               	iorwf	(___fldiv@rem+3)^(0+1280),w,c
  4227  002F4A  B4D8               	btfsc	status,2,c
  4228  002F4C  EFAA  F017         	goto	u1771
  4229  002F50  EFAC  F017         	goto	u1770
  4230  002F54                     u1771:
  4231  002F54  EFC4  F017         	goto	l2449
  4232  002F58                     u1770:
  4233  002F58  8022               	bsf	___fldiv@grs^(0+1280),0,c
  4234  002F5A  EFC4  F017         	goto	l2449
  4235  002F5E                     l2443:
  4236  002F5E  90D8               	bcf	status,0,c
  4237  002F60  360F               	rlcf	___fldiv@b^(0+1280),f,c
  4238  002F62  3610               	rlcf	(___fldiv@b+1)^(0+1280),f,c
  4239  002F64  3611               	rlcf	(___fldiv@b+2)^(0+1280),f,c
  4240  002F66  3612               	rlcf	(___fldiv@b+3)^(0+1280),f,c
  4241  002F68  AE25               	btfss	(___fldiv@grs+3)^(0+1280),7,c
  4242  002F6A  EFB9  F017         	goto	u1781
  4243  002F6E  EFBB  F017         	goto	u1780
  4244  002F72                     u1781:
  4245  002F72  EFBC  F017         	goto	l753
  4246  002F76                     u1780:
  4247  002F76  800F               	bsf	___fldiv@b^(0+1280),0,c
  4248  002F78                     l753:
  4249  002F78  90D8               	bcf	status,0,c
  4250  002F7A  3622               	rlcf	___fldiv@grs^(0+1280),f,c
  4251  002F7C  3623               	rlcf	(___fldiv@grs+1)^(0+1280),f,c
  4252  002F7E  3624               	rlcf	(___fldiv@grs+2)^(0+1280),f,c
  4253  002F80  3625               	rlcf	(___fldiv@grs+3)^(0+1280),f,c
  4254  002F82  0620               	decf	___fldiv@new_exp^(0+1280),f,c
  4255  002F84  A0D8               	btfss	status,0,c
  4256  002F86  0621               	decf	(___fldiv@new_exp+1)^(0+1280),f,c
  4257  002F88                     l2449:
  4258  002F88  AE11               	btfss	(___fldiv@b+2)^(0+1280),7,c
  4259  002F8A  EFC9  F017         	goto	u1791
  4260  002F8E  EFCB  F017         	goto	u1790
  4261  002F92                     u1791:
  4262  002F92  EFAF  F017         	goto	l2443
  4263  002F96                     u1790:
  4264  002F96  0E00               	movlw	0
  4265  002F98  6E27               	movwf	___fldiv@aexp^(0+1280),c
  4266  002F9A  AE25               	btfss	(___fldiv@grs+3)^(0+1280),7,c
  4267  002F9C  EFD2  F017         	goto	u1801
  4268  002FA0  EFD4  F017         	goto	u1800
  4269  002FA4                     u1801:
  4270  002FA4  EFF8  F017         	goto	l755
  4271  002FA8                     u1800:
  4272  002FA8  0EFF               	movlw	255
  4273  002FAA  1422               	andwf	___fldiv@grs^(0+1280),w,c
  4274  002FAC  6E17               	movwf	??___fldiv^(0+1280),c
  4275  002FAE  0EFF               	movlw	255
  4276  002FB0  1423               	andwf	(___fldiv@grs+1)^(0+1280),w,c
  4277  002FB2  6E18               	movwf	(??___fldiv+1)^(0+1280),c
  4278  002FB4  0EFF               	movlw	255
  4279  002FB6  1424               	andwf	(___fldiv@grs+2)^(0+1280),w,c
  4280  002FB8  6E19               	movwf	(??___fldiv+2)^(0+1280),c
  4281  002FBA  0E7F               	movlw	127
  4282  002FBC  1425               	andwf	(___fldiv@grs+3)^(0+1280),w,c
  4283  002FBE  6E1A               	movwf	(??___fldiv+3)^(0+1280),c
  4284  002FC0  5017               	movf	??___fldiv^(0+1280),w,c
  4285  002FC2  1018               	iorwf	(??___fldiv+1)^(0+1280),w,c
  4286  002FC4  1019               	iorwf	(??___fldiv+2)^(0+1280),w,c
  4287  002FC6  101A               	iorwf	(??___fldiv+3)^(0+1280),w,c
  4288  002FC8  B4D8               	btfsc	status,2,c
  4289  002FCA  EFE9  F017         	goto	u1811
  4290  002FCE  EFEB  F017         	goto	u1810
  4291  002FD2                     u1811:
  4292  002FD2  EFEF  F017         	goto	l756
  4293  002FD6                     u1810:
  4294  002FD6                     l2457:
  4295  002FD6  0E01               	movlw	1
  4296  002FD8  6E27               	movwf	___fldiv@aexp^(0+1280),c
  4297  002FDA  EFF8  F017         	goto	l755
  4298  002FDE                     l756:
  4299  002FDE  A00F               	btfss	___fldiv@b^(0+1280),0,c
  4300  002FE0  EFF4  F017         	goto	u1821
  4301  002FE4  EFF6  F017         	goto	u1820
  4302  002FE8                     u1821:
  4303  002FE8  EFF8  F017         	goto	l755
  4304  002FEC                     u1820:
  4305  002FEC  EFEB  F017         	goto	l2457
  4306  002FF0                     l755:
  4307  002FF0  5027               	movf	___fldiv@aexp^(0+1280),w,c
  4308  002FF2  B4D8               	btfsc	status,2,c
  4309  002FF4  EFFE  F017         	goto	u1831
  4310  002FF8  EF00  F018         	goto	u1830
  4311  002FFC                     u1831:
  4312  002FFC  EF24  F018         	goto	l2469
  4313  003000                     u1830:
  4314  003000  0E01               	movlw	1
  4315  003002  260F               	addwf	___fldiv@b^(0+1280),f,c
  4316  003004  0E00               	movlw	0
  4317  003006  2210               	addwfc	(___fldiv@b+1)^(0+1280),f,c
  4318  003008  2211               	addwfc	(___fldiv@b+2)^(0+1280),f,c
  4319  00300A  2212               	addwfc	(___fldiv@b+3)^(0+1280),f,c
  4320  00300C  A012               	btfss	(___fldiv@b+3)^(0+1280),0,c
  4321  00300E  EF0B  F018         	goto	u1841
  4322  003012  EF0D  F018         	goto	u1840
  4323  003016                     u1841:
  4324  003016  EF24  F018         	goto	l2469
  4325  00301A                     u1840:
  4326  00301A  C50F  F517         	movff	___fldiv@b,??___fldiv
  4327  00301E  C510  F518         	movff	___fldiv@b+1,??___fldiv+1
  4328  003022  C511  F519         	movff	___fldiv@b+2,??___fldiv+2
  4329  003026  C512  F51A         	movff	___fldiv@b+3,??___fldiv+3
  4330  00302A  341A               	rlcf	(??___fldiv+3)^(0+1280),w,c
  4331  00302C  321A               	rrcf	(??___fldiv+3)^(0+1280),f,c
  4332  00302E  3219               	rrcf	(??___fldiv+2)^(0+1280),f,c
  4333  003030  3218               	rrcf	(??___fldiv+1)^(0+1280),f,c
  4334  003032  3217               	rrcf	??___fldiv^(0+1280),f,c
  4335  003034  C517  F50F         	movff	??___fldiv,___fldiv@b
  4336  003038  C518  F510         	movff	??___fldiv+1,___fldiv@b+1
  4337  00303C  C519  F511         	movff	??___fldiv+2,___fldiv@b+2
  4338  003040  C51A  F512         	movff	??___fldiv+3,___fldiv@b+3
  4339  003044  4A20               	infsnz	___fldiv@new_exp^(0+1280),f,c
  4340  003046  2A21               	incf	(___fldiv@new_exp+1)^(0+1280),f,c
  4341  003048                     l2469:
  4342  003048  BE21               	btfsc	(___fldiv@new_exp+1)^(0+1280),7,c
  4343  00304A  EF2F  F018         	goto	u1851
  4344  00304E  5021               	movf	(___fldiv@new_exp+1)^(0+1280),w,c
  4345  003050  E108               	bnz	u1850
  4346  003052  2820               	incf	___fldiv@new_exp^(0+1280),w,c
  4347  003054  A0D8               	btfss	status,0,c
  4348  003056  EF2F  F018         	goto	u1851
  4349  00305A  EF31  F018         	goto	u1850
  4350  00305E                     u1851:
  4351  00305E  EF3C  F018         	goto	l2473
  4352  003062                     u1850:
  4353  003062  0E00               	movlw	0
  4354  003064  6E21               	movwf	(___fldiv@new_exp+1)^(0+1280),c
  4355  003066  6820               	setf	___fldiv@new_exp^(0+1280),c
  4356  003068  0E00               	movlw	0
  4357  00306A  6E0F               	movwf	___fldiv@b^(0+1280),c
  4358  00306C  0E00               	movlw	0
  4359  00306E  6E10               	movwf	(___fldiv@b+1)^(0+1280),c
  4360  003070  0E00               	movlw	0
  4361  003072  6E11               	movwf	(___fldiv@b+2)^(0+1280),c
  4362  003074  0E00               	movlw	0
  4363  003076  6E12               	movwf	(___fldiv@b+3)^(0+1280),c
  4364  003078                     l2473:
  4365  003078  BE21               	btfsc	(___fldiv@new_exp+1)^(0+1280),7,c
  4366  00307A  EF49  F018         	goto	u1860
  4367  00307E  5021               	movf	(___fldiv@new_exp+1)^(0+1280),w,c
  4368  003080  E106               	bnz	u1861
  4369  003082  0420               	decf	___fldiv@new_exp^(0+1280),w,c
  4370  003084  B0D8               	btfsc	status,0,c
  4371  003086  EF47  F018         	goto	u1861
  4372  00308A  EF49  F018         	goto	u1860
  4373  00308E                     u1861:
  4374  00308E  EF57  F018         	goto	l2477
  4375  003092                     u1860:
  4376  003092  0E00               	movlw	0
  4377  003094  6E21               	movwf	(___fldiv@new_exp+1)^(0+1280),c
  4378  003096  0E00               	movlw	0
  4379  003098  6E20               	movwf	___fldiv@new_exp^(0+1280),c
  4380  00309A  0E00               	movlw	0
  4381  00309C  6E0F               	movwf	___fldiv@b^(0+1280),c
  4382  00309E  0E00               	movlw	0
  4383  0030A0  6E10               	movwf	(___fldiv@b+1)^(0+1280),c
  4384  0030A2  0E00               	movlw	0
  4385  0030A4  6E11               	movwf	(___fldiv@b+2)^(0+1280),c
  4386  0030A6  0E00               	movlw	0
  4387  0030A8  6E12               	movwf	(___fldiv@b+3)^(0+1280),c
  4388  0030AA  0E00               	movlw	0
  4389  0030AC  6E1F               	movwf	___fldiv@sign^(0+1280),c
  4390  0030AE                     l2477:
  4391  0030AE  C520  F526         	movff	___fldiv@new_exp,___fldiv@bexp
  4392  0030B2  A026               	btfss	___fldiv@bexp^(0+1280),0,c
  4393  0030B4  EF5E  F018         	goto	u1871
  4394  0030B8  EF60  F018         	goto	u1870
  4395  0030BC                     u1871:
  4396  0030BC  EF63  F018         	goto	l2483
  4397  0030C0                     u1870:
  4398  0030C0  8E11               	bsf	(___fldiv@b+2)^(0+1280),7,c
  4399  0030C2  EF64  F018         	goto	l2485
  4400  0030C6                     l2483:
  4401  0030C6  9E11               	bcf	(___fldiv@b+2)^(0+1280),7,c
  4402  0030C8                     l2485:
  4403  0030C8  90D8               	bcf	status,0,c
  4404  0030CA  3026               	rrcf	___fldiv@bexp^(0+1280),w,c
  4405  0030CC  6E12               	movwf	(___fldiv@b+3)^(0+1280),c
  4406  0030CE  EF1A  F017         	goto	l2399
  4407  0030D2                     l742:
  4408  0030D2  0012               	return		;funcret
  4409  0030D4                     __end_of___fldiv:
  4410                           	callstack 0
  4411                           
  4412 ;; *************** function _System_Init *****************
  4413 ;; Defined at:
  4414 ;;		line 95 in file "main.c"
  4415 ;; Parameters:    Size  Location     Type
  4416 ;;		None
  4417 ;; Auto vars:     Size  Location     Type
  4418 ;;		None
  4419 ;; Return value:  Size  Location     Type
  4420 ;;                  1    wreg      void 
  4421 ;; Registers used:
  4422 ;;		wreg, fsr2l, fsr2h, status,2, status,0, cstack
  4423 ;; Tracked objects:
  4424 ;;		On entry : 0/0
  4425 ;;		On exit  : 0/0
  4426 ;;		Unchanged: 0/0
  4427 ;; Data sizes:     COMRAM   BANK5   BANK6   BANK7   BANK8   BANK9  BANK10  BANK11  BANK12  BANK13  BANK14  BANK15  BANK1
      +6  BANK17  BANK18  BANK19  BANK20  BANK21  BANK22  BANK23  BANK24  BANK25  BANK26  BANK27  BANK28  BANK29  BANK30  BANK3
      +1  BANK32  BANK33  BANK34  BANK35  BANK36
  4428 ;;      Params:         0       0       0       0       0       0       0       0       0       0       0       0       
      +0       0       0       0       0       0       0       0       0       0       0       0       0       0       0       
      +0       0       0       0       0       0
  4429 ;;      Locals:         0       0       0       0       0       0       0       0       0       0       0       0       
      +0       0       0       0       0       0       0       0       0       0       0       0       0       0       0       
      +0       0       0       0       0       0
  4430 ;;      Temps:          0       0       0       0       0       0       0       0       0       0       0       0       
      +0       0       0       0       0       0       0       0       0       0       0       0       0       0       0       
      +0       0       0       0       0       0
  4431 ;;      Totals:         0       0       0       0       0       0       0       0       0       0       0       0       
      +0       0       0       0       0       0       0       0       0       0       0       0       0       0       0       
      +0       0       0       0       0       0
  4432 ;;Total ram usage:        0 bytes
  4433 ;; Hardware stack levels used: 1
  4434 ;; Hardware stack levels required when called: 4
  4435 ;; This function calls:
  4436 ;;		_FM_Lcd_Easy_Init
  4437 ;;		_Init_ADCC_Module
  4438 ;;		_Init_Gpio_System
  4439 ;;		_Init_Internal_Oscillator
  4440 ;;		_Init_Interrupts
  4441 ;;		_Init_Timer0_As_Timer
  4442 ;; This function is called by:
  4443 ;;		_main
  4444 ;; This function uses a non-reentrant model
  4445 ;;
  4446                           
  4447                           	psect	text20
  4448  00401C                     __ptext20:
  4449                           	callstack 0
  4450  00401C                     _System_Init:
  4451                           	callstack 122
  4452  00401C                     
  4453                           ;main.c: 98:     Init_Internal_Oscillator();
  4454  00401C  EC1B  F020         	call	_Init_Internal_Oscillator	;wreg free
  4455  004020                     
  4456                           ;main.c: 100:     Init_Interrupts();
  4457  004020  EC26  F020         	call	_Init_Interrupts	;wreg free
  4458  004024                     
  4459                           ;main.c: 102:     Init_Timer0_As_Timer();
  4460  004024  ECFF  F01F         	call	_Init_Timer0_As_Timer	;wreg free
  4461  004028                     
  4462                           ;main.c: 104:     Init_ADCC_Module();
  4463  004028  EC1F  F01F         	call	_Init_ADCC_Module	;wreg free
  4464  00402C                     
  4465                           ;main.c: 106:     Init_Gpio_System();
  4466  00402C  EC43  F020         	call	_Init_Gpio_System	;wreg free
  4467  004030                     
  4468                           ;main.c: 108:     FM_Lcd_Easy_Init();
  4469  004030  EC40  F01F         	call	_FM_Lcd_Easy_Init	;wreg free
  4470  004034  0012               	return		;funcret
  4471  004036                     __end_of_System_Init:
  4472                           	callstack 0
  4473                           
  4474 ;; *************** function _Init_Timer0_As_Timer *****************
  4475 ;; Defined at:
  4476 ;;		line 111 in file "main.c"
  4477 ;; Parameters:    Size  Location     Type
  4478 ;;		None
  4479 ;; Auto vars:     Size  Location     Type
  4480 ;;		None
  4481 ;; Return value:  Size  Location     Type
  4482 ;;                  1    wreg      void 
  4483 ;; Registers used:
  4484 ;;		wreg, status,2, status,0
  4485 ;; Tracked objects:
  4486 ;;		On entry : 0/0
  4487 ;;		On exit  : 0/0
  4488 ;;		Unchanged: 0/0
  4489 ;; Data sizes:     COMRAM   BANK5   BANK6   BANK7   BANK8   BANK9  BANK10  BANK11  BANK12  BANK13  BANK14  BANK15  BANK1
      +6  BANK17  BANK18  BANK19  BANK20  BANK21  BANK22  BANK23  BANK24  BANK25  BANK26  BANK27  BANK28  BANK29  BANK30  BANK3
      +1  BANK32  BANK33  BANK34  BANK35  BANK36
  4490 ;;      Params:         0       0       0       0       0       0       0       0       0       0       0       0       
      +0       0       0       0       0       0       0       0       0       0       0       0       0       0       0       
      +0       0       0       0       0       0
  4491 ;;      Locals:         0       0       0       0       0       0       0       0       0       0       0       0       
      +0       0       0       0       0       0       0       0       0       0       0       0       0       0       0       
      +0       0       0       0       0       0
  4492 ;;      Temps:          0       0       0       0       0       0       0       0       0       0       0       0       
      +0       0       0       0       0       0       0       0       0       0       0       0       0       0       0       
      +0       0       0       0       0       0
  4493 ;;      Totals:         0       0       0       0       0       0       0       0       0       0       0       0       
      +0       0       0       0       0       0       0       0       0       0       0       0       0       0       0       
      +0       0       0       0       0       0
  4494 ;;Total ram usage:        0 bytes
  4495 ;; Hardware stack levels used: 1
  4496 ;; Hardware stack levels required when called: 1
  4497 ;; This function calls:
  4498 ;;		Nothing
  4499 ;; This function is called by:
  4500 ;;		_System_Init
  4501 ;; This function uses a non-reentrant model
  4502 ;;
  4503                           
  4504                           	psect	text21
  4505  003FFE                     __ptext21:
  4506                           	callstack 0
  4507  003FFE                     _Init_Timer0_As_Timer:
  4508                           	callstack 124
  4509  003FFE                     
  4510                           ;main.c: 114:     T0CON0 = 0x00;
  4511  003FFE  0E00               	movlw	0
  4512  004000  0103               	movlb	3	; () banked
  4513  004002  6F1A               	movwf	26,b	;volatile
  4514                           
  4515                           ;main.c: 115:     T0CON1 = 0x00;
  4516  004004  0E00               	movlw	0
  4517  004006  6F1B               	movwf	27,b	;volatile
  4518  004008                     
  4519                           ; BSR set to: 3
  4520                           ;main.c: 118:     T0CON0 &= ~(1 << 0x7);
  4521  004008  9F1A               	bcf	26,7,b	;volatile
  4522  00400A                     
  4523                           ; BSR set to: 3
  4524                           ;main.c: 119:     T0CON0 &= ~(1 << 0x4);
  4525  00400A  991A               	bcf	26,4,b	;volatile
  4526  00400C                     
  4527                           ; BSR set to: 3
  4528                           ;main.c: 120:     T0CON0 |= (0b0000 << 0x0);
  4529  00400C  511A               	movf	26,w,b	;volatile
  4530  00400E                     
  4531                           ; BSR set to: 3
  4532                           ;main.c: 122:     T0CON1 |= (0b010 << 0x5);
  4533  00400E  8D1B               	bsf	27,6,b	;volatile
  4534  004010                     
  4535                           ; BSR set to: 3
  4536                           ;main.c: 123:     T0CON1 |= (1 << 0x4);
  4537  004010  891B               	bsf	27,4,b	;volatile
  4538  004012                     
  4539                           ; BSR set to: 3
  4540                           ;main.c: 124:     T0CON1 |= (0b0100 << 0x0);
  4541  004012  851B               	bsf	27,2,b	;volatile
  4542  004014                     
  4543                           ; BSR set to: 3
  4544                           ;main.c: 142:     TMR0 = 6;
  4545  004014  0E06               	movlw	6
  4546  004016  6F18               	movwf	24,b	;volatile
  4547  004018                     
  4548                           ; BSR set to: 3
  4549                           ;main.c: 145:     T0CON0 |= (1 << 0x7);
  4550  004018  8F1A               	bsf	26,7,b	;volatile
  4551  00401A                     
  4552                           ; BSR set to: 3
  4553  00401A  0012               	return		;funcret
  4554  00401C                     __end_of_Init_Timer0_As_Timer:
  4555                           	callstack 0
  4556                           
  4557 ;; *************** function _Init_Interrupts *****************
  4558 ;; Defined at:
  4559 ;;		line 148 in file "main.c"
  4560 ;; Parameters:    Size  Location     Type
  4561 ;;		None
  4562 ;; Auto vars:     Size  Location     Type
  4563 ;;		None
  4564 ;; Return value:  Size  Location     Type
  4565 ;;                  1    wreg      void 
  4566 ;; Registers used:
  4567 ;;		wreg, status,2, status,0
  4568 ;; Tracked objects:
  4569 ;;		On entry : 0/0
  4570 ;;		On exit  : 0/0
  4571 ;;		Unchanged: 0/0
  4572 ;; Data sizes:     COMRAM   BANK5   BANK6   BANK7   BANK8   BANK9  BANK10  BANK11  BANK12  BANK13  BANK14  BANK15  BANK1
      +6  BANK17  BANK18  BANK19  BANK20  BANK21  BANK22  BANK23  BANK24  BANK25  BANK26  BANK27  BANK28  BANK29  BANK30  BANK3
      +1  BANK32  BANK33  BANK34  BANK35  BANK36
  4573 ;;      Params:         0       0       0       0       0       0       0       0       0       0       0       0       
      +0       0       0       0       0       0       0       0       0       0       0       0       0       0       0       
      +0       0       0       0       0       0
  4574 ;;      Locals:         0       0       0       0       0       0       0       0       0       0       0       0       
      +0       0       0       0       0       0       0       0       0       0       0       0       0       0       0       
      +0       0       0       0       0       0
  4575 ;;      Temps:          0       0       0       0       0       0       0       0       0       0       0       0       
      +0       0       0       0       0       0       0       0       0       0       0       0       0       0       0       
      +0       0       0       0       0       0
  4576 ;;      Totals:         0       0       0       0       0       0       0       0       0       0       0       0       
      +0       0       0       0       0       0       0       0       0       0       0       0       0       0       0       
      +0       0       0       0       0       0
  4577 ;;Total ram usage:        0 bytes
  4578 ;; Hardware stack levels used: 1
  4579 ;; Hardware stack levels required when called: 1
  4580 ;; This function calls:
  4581 ;;		Nothing
  4582 ;; This function is called by:
  4583 ;;		_System_Init
  4584 ;; This function uses a non-reentrant model
  4585 ;;
  4586                           
  4587                           	psect	text22
  4588  00404C                     __ptext22:
  4589                           	callstack 0
  4590  00404C                     _Init_Interrupts:
  4591                           	callstack 124
  4592  00404C                     
  4593                           ;main.c: 151:     INTCON0 = 0x00;
  4594  00404C  0E00               	movlw	0
  4595  00404E  6ED6               	movwf	214,c	;volatile
  4596  004050                     
  4597                           ;main.c: 154:     INTCON0 |= (1 << 0x7);
  4598  004050  8ED6               	bsf	214,7,c	;volatile
  4599  004052                     
  4600                           ;main.c: 155:     INTCON0 &= ~(1 << 0x5);
  4601  004052  9AD6               	bcf	214,5,c	;volatile
  4602  004054                     
  4603                           ;main.c: 158:     PIR1 &= ~(1 << 0x0);
  4604  004054  90AF               	bcf	175,0,c	;volatile
  4605  004056                     
  4606                           ;main.c: 159:     PIE1 |= (1 << 0x0);
  4607  004056  809F               	bsf	159,0,c	;volatile
  4608  004058                     
  4609                           ;main.c: 160:     INTCON0 |= (1 << 0x0);
  4610  004058  80D6               	bsf	214,0,c	;volatile
  4611  00405A                     
  4612                           ;main.c: 163:     PIR3 &= ~(1 << 0x7);
  4613  00405A  9EB1               	bcf	177,7,c	;volatile
  4614  00405C                     
  4615                           ;main.c: 164:     PIE3 |= (1 << 0x7);
  4616  00405C  8EA1               	bsf	161,7,c	;volatile
  4617  00405E  0012               	return		;funcret
  4618  004060                     __end_of_Init_Interrupts:
  4619                           	callstack 0
  4620                           
  4621 ;; *************** function _Init_Internal_Oscillator *****************
  4622 ;; Defined at:
  4623 ;;		line 239 in file "main.c"
  4624 ;; Parameters:    Size  Location     Type
  4625 ;;		None
  4626 ;; Auto vars:     Size  Location     Type
  4627 ;;  my_clock        2    3[COMRAM] struct .
  4628 ;; Return value:  Size  Location     Type
  4629 ;;                  1    wreg      void 
  4630 ;; Registers used:
  4631 ;;		wreg, fsr2l, fsr2h, status,2, status,0, cstack
  4632 ;; Tracked objects:
  4633 ;;		On entry : 0/0
  4634 ;;		On exit  : 0/0
  4635 ;;		Unchanged: 0/0
  4636 ;; Data sizes:     COMRAM   BANK5   BANK6   BANK7   BANK8   BANK9  BANK10  BANK11  BANK12  BANK13  BANK14  BANK15  BANK1
      +6  BANK17  BANK18  BANK19  BANK20  BANK21  BANK22  BANK23  BANK24  BANK25  BANK26  BANK27  BANK28  BANK29  BANK30  BANK3
      +1  BANK32  BANK33  BANK34  BANK35  BANK36
  4637 ;;      Params:         0       0       0       0       0       0       0       0       0       0       0       0       
      +0       0       0       0       0       0       0       0       0       0       0       0       0       0       0       
      +0       0       0       0       0       0
  4638 ;;      Locals:         2       0       0       0       0       0       0       0       0       0       0       0       
      +0       0       0       0       0       0       0       0       0       0       0       0       0       0       0       
      +0       0       0       0       0       0
  4639 ;;      Temps:          0       0       0       0       0       0       0       0       0       0       0       0       
      +0       0       0       0       0       0       0       0       0       0       0       0       0       0       0       
      +0       0       0       0       0       0
  4640 ;;      Totals:         2       0       0       0       0       0       0       0       0       0       0       0       
      +0       0       0       0       0       0       0       0       0       0       0       0       0       0       0       
      +0       0       0       0       0       0
  4641 ;;Total ram usage:        2 bytes
  4642 ;; Hardware stack levels used: 1
  4643 ;; Hardware stack levels required when called: 2
  4644 ;; This function calls:
  4645 ;;		_FM_Hfintosc_Init
  4646 ;; This function is called by:
  4647 ;;		_System_Init
  4648 ;; This function uses a non-reentrant model
  4649 ;;
  4650                           
  4651                           	psect	text23
  4652  004036                     __ptext23:
  4653                           	callstack 0
  4654  004036                     _Init_Internal_Oscillator:
  4655                           	callstack 123
  4656  004036                     
  4657                           ;main.c: 242:     _clock_hfintosc_params_t my_clock;;main.c: 243:     my_clock.frecuenci
      +                          a_clock = freq_clk_16MHZ;
  4658  004036  0E05               	movlw	5
  4659  004038  6E05               	movwf	(Init_Internal_Oscillator@my_clock+1)^(0+1280),c
  4660                           
  4661                           ;main.c: 244:     my_clock.divisor_clock = clock_div_1;
  4662  00403A  0E00               	movlw	0
  4663  00403C  6E04               	movwf	Init_Internal_Oscillator@my_clock^(0+1280),c
  4664  00403E                     
  4665                           ;main.c: 245:     FM_Hfintosc_Init(&my_clock);
  4666  00403E  0E04               	movlw	low Init_Internal_Oscillator@my_clock
  4667  004040  6E01               	movwf	FM_Hfintosc_Init@clock_params^(0+1280),c
  4668  004042  0E05               	movlw	high Init_Internal_Oscillator@my_clock
  4669  004044  6E02               	movwf	(FM_Hfintosc_Init@clock_params+1)^(0+1280),c
  4670  004046  EC61  F01F         	call	_FM_Hfintosc_Init	;wreg free
  4671  00404A  0012               	return		;funcret
  4672  00404C                     __end_of_Init_Internal_Oscillator:
  4673                           	callstack 0
  4674                           
  4675 ;; *************** function _FM_Hfintosc_Init *****************
  4676 ;; Defined at:
  4677 ;;		line 8 in file "system_config.c"
  4678 ;; Parameters:    Size  Location     Type
  4679 ;;  clock_params    2    0[COMRAM] PTR struct .
  4680 ;;		 -> Init_Internal_Oscillator@my_clock(2), 
  4681 ;; Auto vars:     Size  Location     Type
  4682 ;;		None
  4683 ;; Return value:  Size  Location     Type
  4684 ;;                  1    wreg      void 
  4685 ;; Registers used:
  4686 ;;		wreg, fsr2l, fsr2h, status,2, status,0
  4687 ;; Tracked objects:
  4688 ;;		On entry : 0/0
  4689 ;;		On exit  : 0/0
  4690 ;;		Unchanged: 0/0
  4691 ;; Data sizes:     COMRAM   BANK5   BANK6   BANK7   BANK8   BANK9  BANK10  BANK11  BANK12  BANK13  BANK14  BANK15  BANK1
      +6  BANK17  BANK18  BANK19  BANK20  BANK21  BANK22  BANK23  BANK24  BANK25  BANK26  BANK27  BANK28  BANK29  BANK30  BANK3
      +1  BANK32  BANK33  BANK34  BANK35  BANK36
  4692 ;;      Params:         2       0       0       0       0       0       0       0       0       0       0       0       
      +0       0       0       0       0       0       0       0       0       0       0       0       0       0       0       
      +0       0       0       0       0       0
  4693 ;;      Locals:         0       0       0       0       0       0       0       0       0       0       0       0       
      +0       0       0       0       0       0       0       0       0       0       0       0       0       0       0       
      +0       0       0       0       0       0
  4694 ;;      Temps:          1       0       0       0       0       0       0       0       0       0       0       0       
      +0       0       0       0       0       0       0       0       0       0       0       0       0       0       0       
      +0       0       0       0       0       0
  4695 ;;      Totals:         3       0       0       0       0       0       0       0       0       0       0       0       
      +0       0       0       0       0       0       0       0       0       0       0       0       0       0       0       
      +0       0       0       0       0       0
  4696 ;;Total ram usage:        3 bytes
  4697 ;; Hardware stack levels used: 1
  4698 ;; Hardware stack levels required when called: 1
  4699 ;; This function calls:
  4700 ;;		Nothing
  4701 ;; This function is called by:
  4702 ;;		_Init_Internal_Oscillator
  4703 ;; This function uses a non-reentrant model
  4704 ;;
  4705                           
  4706                           	psect	text24
  4707  003EC2                     __ptext24:
  4708                           	callstack 0
  4709  003EC2                     _FM_Hfintosc_Init:
  4710                           	callstack 123
  4711  003EC2                     
  4712                           ;system_config.c: 8: void FM_Hfintosc_Init (_clock_hfintosc_params_t *clock_params);syst
      +                          em_config.c: 9: {;system_config.c: 10:     OSCCON1bits.NOSC = 0b110;
  4713  003EC2  0100               	movlb	0	; () banked
  4714  003EC4  51AD               	movf	173,w,b	;volatile
  4715  003EC6  0B8F               	andlw	-113
  4716  003EC8  0960               	iorlw	96
  4717  003ECA  6FAD               	movwf	173,b	;volatile
  4718  003ECC                     
  4719                           ; BSR set to: 0
  4720                           ;system_config.c: 11:     OSCCON1bits.NDIV = clock_params->divisor_clock;
  4721  003ECC  0061  F404  F4D9   	movff	FM_Hfintosc_Init@clock_params,fsr2l
  4722  003ED2  0061  F408  F4DA   	movff	FM_Hfintosc_Init@clock_params+1,fsr2h
  4723  003ED8  50DF               	movf	indf2,w,c
  4724  003EDA  6E03               	movwf	??_FM_Hfintosc_Init^(0+1280),c
  4725  003EDC  51AD               	movf	173,w,b	;volatile
  4726  003EDE  1803               	xorwf	??_FM_Hfintosc_Init^(0+1280),w,c
  4727  003EE0  0BF0               	andlw	-16
  4728  003EE2  1803               	xorwf	??_FM_Hfintosc_Init^(0+1280),w,c
  4729  003EE4  6FAD               	movwf	173,b	;volatile
  4730  003EE6                     
  4731                           ; BSR set to: 0
  4732                           ;system_config.c: 12:     OSCFRQbits.HFFRQ = clock_params->frecuencia_clock;
  4733  003EE6  EE20 F001          	lfsr	2,1
  4734  003EEA  5001               	movf	FM_Hfintosc_Init@clock_params^(0+1280),w,c
  4735  003EEC  26D9               	addwf	fsr2l,f,c
  4736  003EEE  5002               	movf	(FM_Hfintosc_Init@clock_params+1)^(0+1280),w,c
  4737  003EF0  22DA               	addwfc	fsr2h,f,c
  4738  003EF2  50DF               	movf	indf2,w,c
  4739  003EF4  6E03               	movwf	??_FM_Hfintosc_Init^(0+1280),c
  4740  003EF6  51B1               	movf	177,w,b	;volatile
  4741  003EF8  1803               	xorwf	??_FM_Hfintosc_Init^(0+1280),w,c
  4742  003EFA  0BF0               	andlw	-16
  4743  003EFC  1803               	xorwf	??_FM_Hfintosc_Init^(0+1280),w,c
  4744  003EFE  6FB1               	movwf	177,b	;volatile
  4745  003F00                     
  4746                           ; BSR set to: 0
  4747  003F00  0012               	return		;funcret
  4748  003F02                     __end_of_FM_Hfintosc_Init:
  4749                           	callstack 0
  4750                           
  4751 ;; *************** function _Init_Gpio_System *****************
  4752 ;; Defined at:
  4753 ;;		line 231 in file "main.c"
  4754 ;; Parameters:    Size  Location     Type
  4755 ;;		None
  4756 ;; Auto vars:     Size  Location     Type
  4757 ;;		None
  4758 ;; Return value:  Size  Location     Type
  4759 ;;                  1    wreg      void 
  4760 ;; Registers used:
  4761 ;;		status,2, status,0
  4762 ;; Tracked objects:
  4763 ;;		On entry : 0/0
  4764 ;;		On exit  : 0/0
  4765 ;;		Unchanged: 0/0
  4766 ;; Data sizes:     COMRAM   BANK5   BANK6   BANK7   BANK8   BANK9  BANK10  BANK11  BANK12  BANK13  BANK14  BANK15  BANK1
      +6  BANK17  BANK18  BANK19  BANK20  BANK21  BANK22  BANK23  BANK24  BANK25  BANK26  BANK27  BANK28  BANK29  BANK30  BANK3
      +1  BANK32  BANK33  BANK34  BANK35  BANK36
  4767 ;;      Params:         0       0       0       0       0       0       0       0       0       0       0       0       
      +0       0       0       0       0       0       0       0       0       0       0       0       0       0       0       
      +0       0       0       0       0       0
  4768 ;;      Locals:         0       0       0       0       0       0       0       0       0       0       0       0       
      +0       0       0       0       0       0       0       0       0       0       0       0       0       0       0       
      +0       0       0       0       0       0
  4769 ;;      Temps:          0       0       0       0       0       0       0       0       0       0       0       0       
      +0       0       0       0       0       0       0       0       0       0       0       0       0       0       0       
      +0       0       0       0       0       0
  4770 ;;      Totals:         0       0       0       0       0       0       0       0       0       0       0       0       
      +0       0       0       0       0       0       0       0       0       0       0       0       0       0       0       
      +0       0       0       0       0       0
  4771 ;;Total ram usage:        0 bytes
  4772 ;; Hardware stack levels used: 1
  4773 ;; Hardware stack levels required when called: 1
  4774 ;; This function calls:
  4775 ;;		Nothing
  4776 ;; This function is called by:
  4777 ;;		_System_Init
  4778 ;; This function uses a non-reentrant model
  4779 ;;
  4780                           
  4781                           	psect	text25
  4782  004086                     __ptext25:
  4783                           	callstack 0
  4784  004086                     _Init_Gpio_System:
  4785                           	callstack 124
  4786  004086                     
  4787                           ;main.c: 234:     TRISF &= ~(1 << 3);
  4788  004086  96CB               	bcf	203,3,c	;volatile
  4789                           
  4790                           ;main.c: 235:     ANSELF &= ~(1 << 3);
  4791  004088  0104               	movlb	4	; () banked
  4792  00408A  9728               	bcf	40,3,b	;volatile
  4793                           
  4794                           ;main.c: 236:     LATF &= ~(1 << 3);
  4795  00408C  96C3               	bcf	195,3,c	;volatile
  4796  00408E                     
  4797                           ; BSR set to: 4
  4798  00408E  0012               	return		;funcret
  4799  004090                     __end_of_Init_Gpio_System:
  4800                           	callstack 0
  4801                           
  4802 ;; *************** function _Init_ADCC_Module *****************
  4803 ;; Defined at:
  4804 ;;		line 167 in file "main.c"
  4805 ;; Parameters:    Size  Location     Type
  4806 ;;		None
  4807 ;; Auto vars:     Size  Location     Type
  4808 ;;		None
  4809 ;; Return value:  Size  Location     Type
  4810 ;;                  1    wreg      void 
  4811 ;; Registers used:
  4812 ;;		wreg, status,2, status,0
  4813 ;; Tracked objects:
  4814 ;;		On entry : 0/0
  4815 ;;		On exit  : 0/0
  4816 ;;		Unchanged: 0/0
  4817 ;; Data sizes:     COMRAM   BANK5   BANK6   BANK7   BANK8   BANK9  BANK10  BANK11  BANK12  BANK13  BANK14  BANK15  BANK1
      +6  BANK17  BANK18  BANK19  BANK20  BANK21  BANK22  BANK23  BANK24  BANK25  BANK26  BANK27  BANK28  BANK29  BANK30  BANK3
      +1  BANK32  BANK33  BANK34  BANK35  BANK36
  4818 ;;      Params:         0       0       0       0       0       0       0       0       0       0       0       0       
      +0       0       0       0       0       0       0       0       0       0       0       0       0       0       0       
      +0       0       0       0       0       0
  4819 ;;      Locals:         0       0       0       0       0       0       0       0       0       0       0       0       
      +0       0       0       0       0       0       0       0       0       0       0       0       0       0       0       
      +0       0       0       0       0       0
  4820 ;;      Temps:          0       0       0       0       0       0       0       0       0       0       0       0       
      +0       0       0       0       0       0       0       0       0       0       0       0       0       0       0       
      +0       0       0       0       0       0
  4821 ;;      Totals:         0       0       0       0       0       0       0       0       0       0       0       0       
      +0       0       0       0       0       0       0       0       0       0       0       0       0       0       0       
      +0       0       0       0       0       0
  4822 ;;Total ram usage:        0 bytes
  4823 ;; Hardware stack levels used: 1
  4824 ;; Hardware stack levels required when called: 1
  4825 ;; This function calls:
  4826 ;;		Nothing
  4827 ;; This function is called by:
  4828 ;;		_System_Init
  4829 ;; This function uses a non-reentrant model
  4830 ;;
  4831                           
  4832                           	psect	text26
  4833  003E3E                     __ptext26:
  4834                           	callstack 0
  4835  003E3E                     _Init_ADCC_Module:
  4836                           	callstack 124
  4837  003E3E                     
  4838                           ;main.c: 170:     ADCON0 = 0x00;
  4839  003E3E  0E00               	movlw	0
  4840  003E40  0103               	movlb	3	; () banked
  4841  003E42  6FF3               	movwf	243,b	;volatile
  4842                           
  4843                           ;main.c: 171:     ADCON1 = 0x00;
  4844  003E44  0E00               	movlw	0
  4845  003E46  6FF4               	movwf	244,b	;volatile
  4846                           
  4847                           ;main.c: 172:     ADCON2 = 0x00;
  4848  003E48  0E00               	movlw	0
  4849  003E4A  6FF5               	movwf	245,b	;volatile
  4850  003E4C                     
  4851                           ; BSR set to: 3
  4852                           ;main.c: 175:     ADCON0 &= ~(1 << 0x7);
  4853  003E4C  9FF3               	bcf	243,7,b	;volatile
  4854  003E4E                     
  4855                           ; BSR set to: 3
  4856                           ;main.c: 176:     ADCON0 &= ~(1 << 0x6);
  4857  003E4E  9DF3               	bcf	243,6,b	;volatile
  4858  003E50                     
  4859                           ; BSR set to: 3
  4860                           ;main.c: 177:     ADCON0 &= ~(1 << 0x4);
  4861  003E50  99F3               	bcf	243,4,b	;volatile
  4862  003E52                     
  4863                           ; BSR set to: 3
  4864                           ;main.c: 178:     ADCON0 &= ~(1 << 0x0);
  4865  003E52  91F3               	bcf	243,0,b	;volatile
  4866                           
  4867                           ;main.c: 180:     ADCLK = 0x01;
  4868  003E54  0E01               	movlw	1
  4869  003E56  6FFA               	movwf	250,b	;volatile
  4870  003E58                     
  4871                           ; BSR set to: 3
  4872                           ;main.c: 203:     ADCON0 |= (1 << 0x2);
  4873  003E58  85F3               	bsf	243,2,b	;volatile
  4874  003E5A                     
  4875                           ; BSR set to: 3
  4876                           ;main.c: 210:     ADREF &= ~(1 << 0x4);
  4877  003E5A  99F8               	bcf	248,4,b	;volatile
  4878  003E5C                     
  4879                           ; BSR set to: 3
  4880                           ;main.c: 211:     ADREF &= ~(0b11 << 0x0);
  4881  003E5C  0EFC               	movlw	252
  4882  003E5E  17F8               	andwf	248,f,b	;volatile
  4883  003E60                     
  4884                           ; BSR set to: 3
  4885                           ;main.c: 214:     ADPCH = 0x00;
  4886  003E60  0E00               	movlw	0
  4887  003E62  6FEC               	movwf	236,b	;volatile
  4888  003E64                     
  4889                           ; BSR set to: 3
  4890                           ;main.c: 217:     TRISA |= (1 << 0x0);
  4891  003E64  80C6               	bsf	198,0,c	;volatile
  4892  003E66                     
  4893                           ; BSR set to: 3
  4894                           ;main.c: 218:     ANSELA |= (1 << 0x0);
  4895  003E66  0104               	movlb	4	; () banked
  4896  003E68  8100               	bsf	0,0,b	;volatile
  4897  003E6A                     
  4898                           ; BSR set to: 4
  4899                           ;main.c: 224:     ADPRE = 0x00;
  4900  003E6A  0E00               	movlw	0
  4901  003E6C  0103               	movlb	3	; () banked
  4902  003E6E  6FF2               	movwf	242,b	;volatile
  4903  003E70  0E00               	movlw	0
  4904  003E72  6FF1               	movwf	241,b	;volatile
  4905  003E74                     
  4906                           ; BSR set to: 3
  4907                           ;main.c: 225:     ADACQ = 0x00;
  4908  003E74  0E00               	movlw	0
  4909  003E76  6FEF               	movwf	239,b	;volatile
  4910  003E78  0E00               	movlw	0
  4911  003E7A  6FEE               	movwf	238,b	;volatile
  4912  003E7C                     
  4913                           ; BSR set to: 3
  4914                           ;main.c: 228:     ADCON0 |= (1 << 0x7);
  4915  003E7C  8FF3               	bsf	243,7,b	;volatile
  4916  003E7E                     
  4917                           ; BSR set to: 3
  4918  003E7E  0012               	return		;funcret
  4919  003E80                     __end_of_Init_ADCC_Module:
  4920                           	callstack 0
  4921                           
  4922 ;; *************** function _FM_Lcd_Easy_Init *****************
  4923 ;; Defined at:
  4924 ;;		line 88 in file "FM_Lcd_Easy.c"
  4925 ;; Parameters:    Size  Location     Type
  4926 ;;		None
  4927 ;; Auto vars:     Size  Location     Type
  4928 ;;		None
  4929 ;; Return value:  Size  Location     Type
  4930 ;;                  1    wreg      void 
  4931 ;; Registers used:
  4932 ;;		wreg, status,2, status,0, cstack
  4933 ;; Tracked objects:
  4934 ;;		On entry : 0/0
  4935 ;;		On exit  : 0/0
  4936 ;;		Unchanged: 0/0
  4937 ;; Data sizes:     COMRAM   BANK5   BANK6   BANK7   BANK8   BANK9  BANK10  BANK11  BANK12  BANK13  BANK14  BANK15  BANK1
      +6  BANK17  BANK18  BANK19  BANK20  BANK21  BANK22  BANK23  BANK24  BANK25  BANK26  BANK27  BANK28  BANK29  BANK30  BANK3
      +1  BANK32  BANK33  BANK34  BANK35  BANK36
  4938 ;;      Params:         0       0       0       0       0       0       0       0       0       0       0       0       
      +0       0       0       0       0       0       0       0       0       0       0       0       0       0       0       
      +0       0       0       0       0       0
  4939 ;;      Locals:         0       0       0       0       0       0       0       0       0       0       0       0       
      +0       0       0       0       0       0       0       0       0       0       0       0       0       0       0       
      +0       0       0       0       0       0
  4940 ;;      Temps:          2       0       0       0       0       0       0       0       0       0       0       0       
      +0       0       0       0       0       0       0       0       0       0       0       0       0       0       0       
      +0       0       0       0       0       0
  4941 ;;      Totals:         2       0       0       0       0       0       0       0       0       0       0       0       
      +0       0       0       0       0       0       0       0       0       0       0       0       0       0       0       
      +0       0       0       0       0       0
  4942 ;;Total ram usage:        2 bytes
  4943 ;; Hardware stack levels used: 1
  4944 ;; Hardware stack levels required when called: 3
  4945 ;; This function calls:
  4946 ;;		_FM_Lcd_Easy_Gpio_Init
  4947 ;;		_FM_Lcd_Send_Command
  4948 ;; This function is called by:
  4949 ;;		_System_Init
  4950 ;; This function uses a non-reentrant model
  4951 ;;
  4952                           
  4953                           	psect	text27
  4954  003E80                     __ptext27:
  4955                           	callstack 0
  4956  003E80                     _FM_Lcd_Easy_Init:
  4957                           	callstack 122
  4958  003E80                     
  4959                           ;FM_Lcd_Easy.c: 90:     FM_Lcd_Easy_Gpio_Init();
  4960  003E80  EC30  F020         	call	_FM_Lcd_Easy_Gpio_Init	;wreg free
  4961  003E84                     
  4962                           ;FM_Lcd_Easy.c: 91:     _delay((unsigned long)((50)*(16000000UL/4000.0)));
  4963  003E84  0E02               	movlw	2
  4964  003E86  6E07               	movwf	(??_FM_Lcd_Easy_Init+1)^(0+1280),c
  4965  003E88  0E04               	movlw	4
  4966  003E8A  6E06               	movwf	??_FM_Lcd_Easy_Init^(0+1280),c
  4967  003E8C  0EBA               	movlw	186
  4968  003E8E                     u2287:
  4969  003E8E  2EE8               	decfsz	wreg,f,c
  4970  003E90  D7FE               	bra	u2287
  4971  003E92  2E06               	decfsz	??_FM_Lcd_Easy_Init^(0+1280),f,c
  4972  003E94  D7FC               	bra	u2287
  4973  003E96  2E07               	decfsz	(??_FM_Lcd_Easy_Init+1)^(0+1280),f,c
  4974  003E98  D7FA               	bra	u2287
  4975  003E9A  D000               	nop2	
  4976  003E9C                     
  4977                           ;FM_Lcd_Easy.c: 93:     FM_Lcd_Send_Command(0x01);
  4978  003E9C  0E01               	movlw	1
  4979  003E9E  EC37  F020         	call	_FM_Lcd_Send_Command
  4980  003EA2                     
  4981                           ;FM_Lcd_Easy.c: 94:     FM_Lcd_Send_Command(0x02);
  4982  003EA2  0E02               	movlw	2
  4983  003EA4  EC37  F020         	call	_FM_Lcd_Send_Command
  4984  003EA8                     
  4985                           ;FM_Lcd_Easy.c: 95:     FM_Lcd_Send_Command(0x06);
  4986  003EA8  0E06               	movlw	6
  4987  003EAA  EC37  F020         	call	_FM_Lcd_Send_Command
  4988  003EAE                     
  4989                           ;FM_Lcd_Easy.c: 96:     FM_Lcd_Send_Command(0x0C);
  4990  003EAE  0E0C               	movlw	12
  4991  003EB0  EC37  F020         	call	_FM_Lcd_Send_Command
  4992  003EB4                     
  4993                           ;FM_Lcd_Easy.c: 97:     FM_Lcd_Send_Command(0x10);
  4994  003EB4  0E10               	movlw	16
  4995  003EB6  EC37  F020         	call	_FM_Lcd_Send_Command
  4996  003EBA                     
  4997                           ;FM_Lcd_Easy.c: 98:     FM_Lcd_Send_Command(0x2C);
  4998  003EBA  0E2C               	movlw	44
  4999  003EBC  EC37  F020         	call	_FM_Lcd_Send_Command
  5000  003EC0  0012               	return		;funcret
  5001  003EC2                     __end_of_FM_Lcd_Easy_Init:
  5002                           	callstack 0
  5003                           
  5004 ;; *************** function _FM_Lcd_Easy_Gpio_Init *****************
  5005 ;; Defined at:
  5006 ;;		line 11 in file "FM_Lcd_Easy.c"
  5007 ;; Parameters:    Size  Location     Type
  5008 ;;		None
  5009 ;; Auto vars:     Size  Location     Type
  5010 ;;  bits_data       1    0        unsigned char 
  5011 ;; Return value:  Size  Location     Type
  5012 ;;                  1    wreg      void 
  5013 ;; Registers used:
  5014 ;;		wreg, status,2, status,0
  5015 ;; Tracked objects:
  5016 ;;		On entry : 0/0
  5017 ;;		On exit  : 0/0
  5018 ;;		Unchanged: 0/0
  5019 ;; Data sizes:     COMRAM   BANK5   BANK6   BANK7   BANK8   BANK9  BANK10  BANK11  BANK12  BANK13  BANK14  BANK15  BANK1
      +6  BANK17  BANK18  BANK19  BANK20  BANK21  BANK22  BANK23  BANK24  BANK25  BANK26  BANK27  BANK28  BANK29  BANK30  BANK3
      +1  BANK32  BANK33  BANK34  BANK35  BANK36
  5020 ;;      Params:         0       0       0       0       0       0       0       0       0       0       0       0       
      +0       0       0       0       0       0       0       0       0       0       0       0       0       0       0       
      +0       0       0       0       0       0
  5021 ;;      Locals:         0       0       0       0       0       0       0       0       0       0       0       0       
      +0       0       0       0       0       0       0       0       0       0       0       0       0       0       0       
      +0       0       0       0       0       0
  5022 ;;      Temps:          0       0       0       0       0       0       0       0       0       0       0       0       
      +0       0       0       0       0       0       0       0       0       0       0       0       0       0       0       
      +0       0       0       0       0       0
  5023 ;;      Totals:         0       0       0       0       0       0       0       0       0       0       0       0       
      +0       0       0       0       0       0       0       0       0       0       0       0       0       0       0       
      +0       0       0       0       0       0
  5024 ;;Total ram usage:        0 bytes
  5025 ;; Hardware stack levels used: 1
  5026 ;; Hardware stack levels required when called: 1
  5027 ;; This function calls:
  5028 ;;		Nothing
  5029 ;; This function is called by:
  5030 ;;		_FM_Lcd_Easy_Init
  5031 ;; This function uses a non-reentrant model
  5032 ;;
  5033                           
  5034                           	psect	text28
  5035  004060                     __ptext28:
  5036                           	callstack 0
  5037  004060                     _FM_Lcd_Easy_Gpio_Init:
  5038                           	callstack 123
  5039  004060                     
  5040                           ;FM_Lcd_Easy.c: 19:     TRISF = 0x00;
  5041  004060  0E00               	movlw	0
  5042  004062  6ECB               	movwf	203,c	;volatile
  5043                           
  5044                           ;FM_Lcd_Easy.c: 20:     ANSELF = 0x00;
  5045  004064  0E00               	movlw	0
  5046  004066  0104               	movlb	4	; () banked
  5047  004068  6F28               	movwf	40,b	;volatile
  5048  00406A                     
  5049                           ; BSR set to: 4
  5050                           ;FM_Lcd_Easy.c: 21:     LATF &= ~(1 << 1);
  5051  00406A  92C3               	bcf	195,1,c	;volatile
  5052  00406C                     
  5053                           ; BSR set to: 4
  5054  00406C  0012               	return		;funcret
  5055  00406E                     __end_of_FM_Lcd_Easy_Gpio_Init:
  5056                           	callstack 0
  5057                           
  5058 ;; *************** function _FM_Lcd_Set_Cursor *****************
  5059 ;; Defined at:
  5060 ;;		line 56 in file "FM_Lcd_Easy.c"
  5061 ;; Parameters:    Size  Location     Type
  5062 ;;  filas           1    wreg     enum E16680
  5063 ;;  columna         1    5[COMRAM] enum E16684
  5064 ;; Auto vars:     Size  Location     Type
  5065 ;;  filas           1    6[COMRAM] enum E16680
  5066 ;;  base_pos        1    7[COMRAM] unsigned char 
  5067 ;; Return value:  Size  Location     Type
  5068 ;;                  1    wreg      void 
  5069 ;; Registers used:
  5070 ;;		wreg, status,2, status,0, cstack
  5071 ;; Tracked objects:
  5072 ;;		On entry : 0/0
  5073 ;;		On exit  : 0/0
  5074 ;;		Unchanged: 0/0
  5075 ;; Data sizes:     COMRAM   BANK5   BANK6   BANK7   BANK8   BANK9  BANK10  BANK11  BANK12  BANK13  BANK14  BANK15  BANK1
      +6  BANK17  BANK18  BANK19  BANK20  BANK21  BANK22  BANK23  BANK24  BANK25  BANK26  BANK27  BANK28  BANK29  BANK30  BANK3
      +1  BANK32  BANK33  BANK34  BANK35  BANK36
  5076 ;;      Params:         1       0       0       0       0       0       0       0       0       0       0       0       
      +0       0       0       0       0       0       0       0       0       0       0       0       0       0       0       
      +0       0       0       0       0       0
  5077 ;;      Locals:         2       0       0       0       0       0       0       0       0       0       0       0       
      +0       0       0       0       0       0       0       0       0       0       0       0       0       0       0       
      +0       0       0       0       0       0
  5078 ;;      Temps:          0       0       0       0       0       0       0       0       0       0       0       0       
      +0       0       0       0       0       0       0       0       0       0       0       0       0       0       0       
      +0       0       0       0       0       0
  5079 ;;      Totals:         3       0       0       0       0       0       0       0       0       0       0       0       
      +0       0       0       0       0       0       0       0       0       0       0       0       0       0       0       
      +0       0       0       0       0       0
  5080 ;;Total ram usage:        3 bytes
  5081 ;; Hardware stack levels used: 1
  5082 ;; Hardware stack levels required when called: 3
  5083 ;; This function calls:
  5084 ;;		_FM_Lcd_Send_Command
  5085 ;; This function is called by:
  5086 ;;		_main
  5087 ;; This function uses a non-reentrant model
  5088 ;;
  5089                           
  5090                           	psect	text29
  5091  003DFA                     __ptext29:
  5092                           	callstack 0
  5093  003DFA                     _FM_Lcd_Set_Cursor:
  5094                           	callstack 123
  5095                           
  5096                           ; BSR set to: 4
  5097                           ;incstack = 0
  5098                           ;FM_Lcd_Set_Cursor@filas stored from wreg
  5099  003DFA  6E07               	movwf	FM_Lcd_Set_Cursor@filas^(0+1280),c
  5100  003DFC                     
  5101                           ;FM_Lcd_Easy.c: 56: void FM_Lcd_Set_Cursor (_row_lcd_t filas, _column_lcd_t columna);FM_
      +                          Lcd_Easy.c: 57: {;FM_Lcd_Easy.c: 58:     char base_pos = 0x00;
  5102  003DFC  0E00               	movlw	0
  5103  003DFE  6E08               	movwf	FM_Lcd_Set_Cursor@base_pos^(0+1280),c
  5104  003E00                     
  5105                           ;FM_Lcd_Easy.c: 59:     if(filas == ROW_1)
  5106  003E00  5007               	movf	FM_Lcd_Set_Cursor@filas^(0+1280),w,c
  5107  003E02  A4D8               	btfss	status,2,c
  5108  003E04  EF06  F01F         	goto	u1601
  5109  003E08  EF08  F01F         	goto	u1600
  5110  003E0C                     u1601:
  5111  003E0C  EF0C  F01F         	goto	l2325
  5112  003E10                     u1600:
  5113  003E10                     
  5114                           ;FM_Lcd_Easy.c: 60:     {;FM_Lcd_Easy.c: 61:         base_pos = 0x80;
  5115  003E10  0E80               	movlw	128
  5116  003E12  6E08               	movwf	FM_Lcd_Set_Cursor@base_pos^(0+1280),c
  5117                           
  5118                           ;FM_Lcd_Easy.c: 62:     }
  5119  003E14  EF19  F01F         	goto	l2329
  5120  003E18                     l2325:
  5121  003E18  0407               	decf	FM_Lcd_Set_Cursor@filas^(0+1280),w,c
  5122  003E1A  A4D8               	btfss	status,2,c
  5123  003E1C  EF12  F01F         	goto	u1611
  5124  003E20  EF14  F01F         	goto	u1610
  5125  003E24                     u1611:
  5126  003E24  EF18  F01F         	goto	l146
  5127  003E28                     u1610:
  5128  003E28                     
  5129                           ;FM_Lcd_Easy.c: 64:     {;FM_Lcd_Easy.c: 65:         base_pos = 0xC0;
  5130  003E28  0EC0               	movlw	192
  5131  003E2A  6E08               	movwf	FM_Lcd_Set_Cursor@base_pos^(0+1280),c
  5132                           
  5133                           ;FM_Lcd_Easy.c: 66:     }
  5134  003E2C  EF19  F01F         	goto	l2329
  5135  003E30                     l146:
  5136                           
  5137                           ;FM_Lcd_Easy.c: 68:     {;FM_Lcd_Easy.c: 69:         __nop();
  5138  003E30  F000               	nop	
  5139  003E32                     l2329:
  5140                           
  5141                           ;FM_Lcd_Easy.c: 73:     base_pos += columna;
  5142  003E32  5006               	movf	FM_Lcd_Set_Cursor@columna^(0+1280),w,c
  5143  003E34  2608               	addwf	FM_Lcd_Set_Cursor@base_pos^(0+1280),f,c
  5144  003E36                     
  5145                           ;FM_Lcd_Easy.c: 74:     FM_Lcd_Send_Command(base_pos);
  5146  003E36  5008               	movf	FM_Lcd_Set_Cursor@base_pos^(0+1280),w,c
  5147  003E38  EC37  F020         	call	_FM_Lcd_Send_Command
  5148  003E3C  0012               	return		;funcret
  5149  003E3E                     __end_of_FM_Lcd_Set_Cursor:
  5150                           	callstack 0
  5151                           
  5152 ;; *************** function _FM_Lcd_Send_Command *****************
  5153 ;; Defined at:
  5154 ;;		line 44 in file "FM_Lcd_Easy.c"
  5155 ;; Parameters:    Size  Location     Type
  5156 ;;  command_to_s    1    wreg     unsigned char 
  5157 ;; Auto vars:     Size  Location     Type
  5158 ;;  command_to_s    1    4[COMRAM] unsigned char 
  5159 ;; Return value:  Size  Location     Type
  5160 ;;                  1    wreg      void 
  5161 ;; Registers used:
  5162 ;;		wreg, status,2, status,0, cstack
  5163 ;; Tracked objects:
  5164 ;;		On entry : 0/0
  5165 ;;		On exit  : 0/0
  5166 ;;		Unchanged: 0/0
  5167 ;; Data sizes:     COMRAM   BANK5   BANK6   BANK7   BANK8   BANK9  BANK10  BANK11  BANK12  BANK13  BANK14  BANK15  BANK1
      +6  BANK17  BANK18  BANK19  BANK20  BANK21  BANK22  BANK23  BANK24  BANK25  BANK26  BANK27  BANK28  BANK29  BANK30  BANK3
      +1  BANK32  BANK33  BANK34  BANK35  BANK36
  5168 ;;      Params:         0       0       0       0       0       0       0       0       0       0       0       0       
      +0       0       0       0       0       0       0       0       0       0       0       0       0       0       0       
      +0       0       0       0       0       0
  5169 ;;      Locals:         1       0       0       0       0       0       0       0       0       0       0       0       
      +0       0       0       0       0       0       0       0       0       0       0       0       0       0       0       
      +0       0       0       0       0       0
  5170 ;;      Temps:          0       0       0       0       0       0       0       0       0       0       0       0       
      +0       0       0       0       0       0       0       0       0       0       0       0       0       0       0       
      +0       0       0       0       0       0
  5171 ;;      Totals:         1       0       0       0       0       0       0       0       0       0       0       0       
      +0       0       0       0       0       0       0       0       0       0       0       0       0       0       0       
      +0       0       0       0       0       0
  5172 ;;Total ram usage:        1 bytes
  5173 ;; Hardware stack levels used: 1
  5174 ;; Hardware stack levels required when called: 2
  5175 ;; This function calls:
  5176 ;;		_FM_Lcd_Send_Nibble
  5177 ;; This function is called by:
  5178 ;;		_FM_Lcd_Set_Cursor
  5179 ;;		_FM_Lcd_Easy_Init
  5180 ;; This function uses a non-reentrant model
  5181 ;;
  5182                           
  5183                           	psect	text30
  5184  00406E                     __ptext30:
  5185                           	callstack 0
  5186  00406E                     _FM_Lcd_Send_Command:
  5187                           	callstack 122
  5188                           
  5189                           ;incstack = 0
  5190                           ;FM_Lcd_Send_Command@command_to_send stored from wreg
  5191  00406E  6E05               	movwf	FM_Lcd_Send_Command@command_to_send^(0+1280),c
  5192  004070                     
  5193                           ;FM_Lcd_Easy.c: 44: void FM_Lcd_Send_Command (char command_to_send);FM_Lcd_Easy.c: 45: {
      +                          ;FM_Lcd_Easy.c: 46:     LATF &= ~(1 << 0);;
  5194  004070  90C3               	bcf	195,0,c	;volatile
  5195  004072                     
  5196                           ;FM_Lcd_Easy.c: 47:     FM_Lcd_Send_Nibble(command_to_send);
  5197  004072  5005               	movf	FM_Lcd_Send_Command@command_to_send^(0+1280),w,c
  5198  004074  EC1A  F01E         	call	_FM_Lcd_Send_Nibble
  5199  004078  0012               	return		;funcret
  5200  00407A                     __end_of_FM_Lcd_Send_Command:
  5201                           	callstack 0
  5202                           
  5203 ;; *************** function _FM_Lcd_Send_String *****************
  5204 ;; Defined at:
  5205 ;;		line 78 in file "FM_Lcd_Easy.c"
  5206 ;; Parameters:    Size  Location     Type
  5207 ;;  cadena          2    5[COMRAM] PTR unsigned char 
  5208 ;;		 -> msj(16), STR_1(13), 
  5209 ;; Auto vars:     Size  Location     Type
  5210 ;;  index           1    9[COMRAM] unsigned char 
  5211 ;; Return value:  Size  Location     Type
  5212 ;;                  1    wreg      void 
  5213 ;; Registers used:
  5214 ;;		wreg, fsr1l, fsr1h, status,2, status,0, tblptrl, tblptrh, tblptru, cstack
  5215 ;; Tracked objects:
  5216 ;;		On entry : 0/0
  5217 ;;		On exit  : 0/0
  5218 ;;		Unchanged: 0/0
  5219 ;; Data sizes:     COMRAM   BANK5   BANK6   BANK7   BANK8   BANK9  BANK10  BANK11  BANK12  BANK13  BANK14  BANK15  BANK1
      +6  BANK17  BANK18  BANK19  BANK20  BANK21  BANK22  BANK23  BANK24  BANK25  BANK26  BANK27  BANK28  BANK29  BANK30  BANK3
      +1  BANK32  BANK33  BANK34  BANK35  BANK36
  5220 ;;      Params:         2       0       0       0       0       0       0       0       0       0       0       0       
      +0       0       0       0       0       0       0       0       0       0       0       0       0       0       0       
      +0       0       0       0       0       0
  5221 ;;      Locals:         1       0       0       0       0       0       0       0       0       0       0       0       
      +0       0       0       0       0       0       0       0       0       0       0       0       0       0       0       
      +0       0       0       0       0       0
  5222 ;;      Temps:          2       0       0       0       0       0       0       0       0       0       0       0       
      +0       0       0       0       0       0       0       0       0       0       0       0       0       0       0       
      +0       0       0       0       0       0
  5223 ;;      Totals:         5       0       0       0       0       0       0       0       0       0       0       0       
      +0       0       0       0       0       0       0       0       0       0       0       0       0       0       0       
      +0       0       0       0       0       0
  5224 ;;Total ram usage:        5 bytes
  5225 ;; Hardware stack levels used: 1
  5226 ;; Hardware stack levels required when called: 3
  5227 ;; This function calls:
  5228 ;;		_FM_Lcd_Send_Character
  5229 ;; This function is called by:
  5230 ;;		_main
  5231 ;; This function uses a non-reentrant model
  5232 ;;
  5233                           
  5234                           	psect	text31
  5235  003BB0                     __ptext31:
  5236                           	callstack 0
  5237  003BB0                     _FM_Lcd_Send_String:
  5238                           	callstack 123
  5239  003BB0                     
  5240                           ;FM_Lcd_Easy.c: 78: void FM_Lcd_Send_String (char *cadena);FM_Lcd_Easy.c: 79: {;FM_Lcd_E
      +                          asy.c: 80:     uint8_t index = 0;
  5241  003BB0  0E00               	movlw	0
  5242  003BB2  6E0A               	movwf	FM_Lcd_Send_String@index^(0+1280),c
  5243                           
  5244                           ;FM_Lcd_Easy.c: 81:     while(cadena[index] != '\0')
  5245  003BB4  EFF8  F01D         	goto	l2341
  5246  003BB8                     l2337:
  5247                           
  5248                           ;FM_Lcd_Easy.c: 82:     {;FM_Lcd_Easy.c: 83:         FM_Lcd_Send_Character(cadena[index]
      +                          );
  5249  003BB8  500A               	movf	FM_Lcd_Send_String@index^(0+1280),w,c
  5250  003BBA  2406               	addwf	FM_Lcd_Send_String@cadena^(0+1280),w,c
  5251  003BBC  6E08               	movwf	??_FM_Lcd_Send_String^(0+1280),c
  5252  003BBE  0E00               	movlw	0
  5253  003BC0  2007               	addwfc	(FM_Lcd_Send_String@cadena+1)^(0+1280),w,c
  5254  003BC2  6E09               	movwf	(??_FM_Lcd_Send_String+1)^(0+1280),c
  5255  003BC4  0061  F420  F4F6   	movff	??_FM_Lcd_Send_String,tblptrl
  5256  003BCA  0061  F424  F4F7   	movff	??_FM_Lcd_Send_String+1,tblptrh
  5257  003BD0  0E00               	movlw	low (__smallconst shr (0+16))
  5258  003BD2  6EF8               	movwf	tblptru,c
  5259  003BD4  0E24               	movlw	(high __ramtop+-1)
  5260  003BD6  64F7               	cpfsgt	tblptrh,c
  5261  003BD8  D003               	bra	u1627
  5262  003BDA  0008               	tblrd		*
  5263  003BDC  50F5               	movf	tablat,w,c
  5264  003BDE  D005               	bra	u1620
  5265  003BE0                     u1627:
  5266  003BE0  C4F6 F4E1          	movff	tblptrl,fsr1l
  5267  003BE4  C4F7 F4E2          	movff	tblptrh,fsr1h
  5268  003BE8  50E7               	movf	indf1,w,c
  5269  003BEA                     u1620:
  5270  003BEA  EC3D  F020         	call	_FM_Lcd_Send_Character
  5271  003BEE                     
  5272                           ;FM_Lcd_Easy.c: 84:         index++;
  5273  003BEE  2A0A               	incf	FM_Lcd_Send_String@index^(0+1280),f,c
  5274  003BF0                     l2341:
  5275                           
  5276                           ;FM_Lcd_Easy.c: 81:     while(cadena[index] != '\0')
  5277  003BF0  500A               	movf	FM_Lcd_Send_String@index^(0+1280),w,c
  5278  003BF2  2406               	addwf	FM_Lcd_Send_String@cadena^(0+1280),w,c
  5279  003BF4  6E08               	movwf	??_FM_Lcd_Send_String^(0+1280),c
  5280  003BF6  0E00               	movlw	0
  5281  003BF8  2007               	addwfc	(FM_Lcd_Send_String@cadena+1)^(0+1280),w,c
  5282  003BFA  6E09               	movwf	(??_FM_Lcd_Send_String+1)^(0+1280),c
  5283  003BFC  0061  F420  F4F6   	movff	??_FM_Lcd_Send_String,tblptrl
  5284  003C02  0061  F424  F4F7   	movff	??_FM_Lcd_Send_String+1,tblptrh
  5285  003C08  0E00               	movlw	low (__smallconst shr (0+16))
  5286  003C0A  6EF8               	movwf	tblptru,c
  5287  003C0C  0E24               	movlw	(high __ramtop+-1)
  5288  003C0E  64F7               	cpfsgt	tblptrh,c
  5289  003C10  D003               	bra	u1637
  5290  003C12  0008               	tblrd		*
  5291  003C14  50F5               	movf	tablat,w,c
  5292  003C16  D005               	bra	u1630
  5293  003C18                     u1637:
  5294  003C18  C4F6 F4E1          	movff	tblptrl,fsr1l
  5295  003C1C  C4F7 F4E2          	movff	tblptrh,fsr1h
  5296  003C20  50E7               	movf	indf1,w,c
  5297  003C22                     u1630:
  5298  003C22  0900               	iorlw	0
  5299  003C24  A4D8               	btfss	status,2,c
  5300  003C26  EF17  F01E         	goto	u1641
  5301  003C2A  EF19  F01E         	goto	u1640
  5302  003C2E                     u1641:
  5303  003C2E  EFDC  F01D         	goto	l2337
  5304  003C32                     u1640:
  5305  003C32  0012               	return		;funcret
  5306  003C34                     __end_of_FM_Lcd_Send_String:
  5307                           	callstack 0
  5308                           
  5309 ;; *************** function _FM_Lcd_Send_Character *****************
  5310 ;; Defined at:
  5311 ;;		line 50 in file "FM_Lcd_Easy.c"
  5312 ;; Parameters:    Size  Location     Type
  5313 ;;  character_to    1    wreg     unsigned char 
  5314 ;; Auto vars:     Size  Location     Type
  5315 ;;  character_to    1    4[COMRAM] unsigned char 
  5316 ;; Return value:  Size  Location     Type
  5317 ;;                  1    wreg      void 
  5318 ;; Registers used:
  5319 ;;		wreg, status,2, status,0, cstack
  5320 ;; Tracked objects:
  5321 ;;		On entry : 0/0
  5322 ;;		On exit  : 0/0
  5323 ;;		Unchanged: 0/0
  5324 ;; Data sizes:     COMRAM   BANK5   BANK6   BANK7   BANK8   BANK9  BANK10  BANK11  BANK12  BANK13  BANK14  BANK15  BANK1
      +6  BANK17  BANK18  BANK19  BANK20  BANK21  BANK22  BANK23  BANK24  BANK25  BANK26  BANK27  BANK28  BANK29  BANK30  BANK3
      +1  BANK32  BANK33  BANK34  BANK35  BANK36
  5325 ;;      Params:         0       0       0       0       0       0       0       0       0       0       0       0       
      +0       0       0       0       0       0       0       0       0       0       0       0       0       0       0       
      +0       0       0       0       0       0
  5326 ;;      Locals:         1       0       0       0       0       0       0       0       0       0       0       0       
      +0       0       0       0       0       0       0       0       0       0       0       0       0       0       0       
      +0       0       0       0       0       0
  5327 ;;      Temps:          0       0       0       0       0       0       0       0       0       0       0       0       
      +0       0       0       0       0       0       0       0       0       0       0       0       0       0       0       
      +0       0       0       0       0       0
  5328 ;;      Totals:         1       0       0       0       0       0       0       0       0       0       0       0       
      +0       0       0       0       0       0       0       0       0       0       0       0       0       0       0       
      +0       0       0       0       0       0
  5329 ;;Total ram usage:        1 bytes
  5330 ;; Hardware stack levels used: 1
  5331 ;; Hardware stack levels required when called: 2
  5332 ;; This function calls:
  5333 ;;		_FM_Lcd_Send_Nibble
  5334 ;; This function is called by:
  5335 ;;		_FM_Lcd_Send_String
  5336 ;; This function uses a non-reentrant model
  5337 ;;
  5338                           
  5339                           	psect	text32
  5340  00407A                     __ptext32:
  5341                           	callstack 0
  5342  00407A                     _FM_Lcd_Send_Character:
  5343                           	callstack 123
  5344                           
  5345                           ;incstack = 0
  5346                           ;FM_Lcd_Send_Character@character_to_send stored from wreg
  5347  00407A  6E05               	movwf	FM_Lcd_Send_Character@character_to_send^(0+1280),c
  5348  00407C                     
  5349                           ;FM_Lcd_Easy.c: 50: void FM_Lcd_Send_Character (char character_to_send);FM_Lcd_Easy.c: 5
      +                          1: {;FM_Lcd_Easy.c: 52:     LATF |= (1 << 0);;
  5350  00407C  80C3               	bsf	195,0,c	;volatile
  5351  00407E                     
  5352                           ;FM_Lcd_Easy.c: 53:     FM_Lcd_Send_Nibble(character_to_send);
  5353  00407E  5005               	movf	FM_Lcd_Send_Character@character_to_send^(0+1280),w,c
  5354  004080  EC1A  F01E         	call	_FM_Lcd_Send_Nibble
  5355  004084  0012               	return		;funcret
  5356  004086                     __end_of_FM_Lcd_Send_Character:
  5357                           	callstack 0
  5358                           
  5359 ;; *************** function _FM_Lcd_Send_Nibble *****************
  5360 ;; Defined at:
  5361 ;;		line 24 in file "FM_Lcd_Easy.c"
  5362 ;; Parameters:    Size  Location     Type
  5363 ;;  byte_to_send    1    wreg     unsigned char 
  5364 ;; Auto vars:     Size  Location     Type
  5365 ;;  byte_to_send    1    1[COMRAM] unsigned char 
  5366 ;;  lower_bits      1    3[COMRAM] unsigned char 
  5367 ;;  upper_bits      1    2[COMRAM] unsigned char 
  5368 ;; Return value:  Size  Location     Type
  5369 ;;                  1    wreg      void 
  5370 ;; Registers used:
  5371 ;;		wreg, status,2, status,0
  5372 ;; Tracked objects:
  5373 ;;		On entry : 0/0
  5374 ;;		On exit  : 0/0
  5375 ;;		Unchanged: 0/0
  5376 ;; Data sizes:     COMRAM   BANK5   BANK6   BANK7   BANK8   BANK9  BANK10  BANK11  BANK12  BANK13  BANK14  BANK15  BANK1
      +6  BANK17  BANK18  BANK19  BANK20  BANK21  BANK22  BANK23  BANK24  BANK25  BANK26  BANK27  BANK28  BANK29  BANK30  BANK3
      +1  BANK32  BANK33  BANK34  BANK35  BANK36
  5377 ;;      Params:         0       0       0       0       0       0       0       0       0       0       0       0       
      +0       0       0       0       0       0       0       0       0       0       0       0       0       0       0       
      +0       0       0       0       0       0
  5378 ;;      Locals:         3       0       0       0       0       0       0       0       0       0       0       0       
      +0       0       0       0       0       0       0       0       0       0       0       0       0       0       0       
      +0       0       0       0       0       0
  5379 ;;      Temps:          1       0       0       0       0       0       0       0       0       0       0       0       
      +0       0       0       0       0       0       0       0       0       0       0       0       0       0       0       
      +0       0       0       0       0       0
  5380 ;;      Totals:         4       0       0       0       0       0       0       0       0       0       0       0       
      +0       0       0       0       0       0       0       0       0       0       0       0       0       0       0       
      +0       0       0       0       0       0
  5381 ;;Total ram usage:        4 bytes
  5382 ;; Hardware stack levels used: 1
  5383 ;; Hardware stack levels required when called: 1
  5384 ;; This function calls:
  5385 ;;		Nothing
  5386 ;; This function is called by:
  5387 ;;		_FM_Lcd_Send_Command
  5388 ;;		_FM_Lcd_Send_Character
  5389 ;; This function uses a non-reentrant model
  5390 ;;
  5391                           
  5392                           	psect	text33
  5393  003C34                     __ptext33:
  5394                           	callstack 0
  5395  003C34                     _FM_Lcd_Send_Nibble:
  5396                           	callstack 122
  5397                           
  5398                           ;incstack = 0
  5399                           ;FM_Lcd_Send_Nibble@byte_to_send stored from wreg
  5400  003C34  6E02               	movwf	FM_Lcd_Send_Nibble@byte_to_send^(0+1280),c
  5401  003C36                     
  5402                           ;FM_Lcd_Easy.c: 24: void FM_Lcd_Send_Nibble (char byte_to_send);FM_Lcd_Easy.c: 25: {;FM_
      +                          Lcd_Easy.c: 26:     uint8_t upper_bits, lower_bits;;FM_Lcd_Easy.c: 28:     upper_bits = 
      +                          (byte_to_send & 0xF0);
  5403  003C36  5002               	movf	FM_Lcd_Send_Nibble@byte_to_send^(0+1280),w,c
  5404  003C38  0BF0               	andlw	240
  5405  003C3A  6E03               	movwf	FM_Lcd_Send_Nibble@upper_bits^(0+1280),c
  5406                           
  5407                           ;FM_Lcd_Easy.c: 29:     lower_bits = (byte_to_send & 0x0F) << 4;
  5408  003C3C  C502  F501         	movff	FM_Lcd_Send_Nibble@byte_to_send,??_FM_Lcd_Send_Nibble
  5409  003C40  0E0F               	movlw	15
  5410  003C42  1601               	andwf	??_FM_Lcd_Send_Nibble^(0+1280),f,c
  5411  003C44  3801               	swapf	??_FM_Lcd_Send_Nibble^(0+1280),w,c
  5412  003C46  0BF0               	andlw	240
  5413  003C48  6E04               	movwf	FM_Lcd_Send_Nibble@lower_bits^(0+1280),c
  5414                           
  5415                           ;FM_Lcd_Easy.c: 35:     LATF |= upper_bits;
  5416  003C4A  5003               	movf	FM_Lcd_Send_Nibble@upper_bits^(0+1280),w,c	;volatile
  5417  003C4C  12C3               	iorwf	195,f,c	;volatile
  5418  003C4E                     
  5419                           ;FM_Lcd_Easy.c: 36:     LATF |= (1 << 2);; _delay((unsigned long)((1)*(16000000UL/4000.0
      +                          ))); LATF &= ~(1 << 2);_delay((unsigned long)((1)*(16000000UL/4000.0)));;
  5420  003C4E  84C3               	bsf	195,2,c	;volatile
  5421  003C50  0E06               	movlw	6
  5422  003C52  6E01               	movwf	??_FM_Lcd_Send_Nibble^(0+1280),c
  5423  003C54  0E30               	movlw	48
  5424  003C56                     u2297:
  5425  003C56  2EE8               	decfsz	wreg,f,c
  5426  003C58  D7FE               	bra	u2297
  5427  003C5A  2E01               	decfsz	??_FM_Lcd_Send_Nibble^(0+1280),f,c
  5428  003C5C  D7FC               	bra	u2297
  5429  003C5E  D000               	nop2	
  5430  003C60  94C3               	bcf	195,2,c	;volatile
  5431  003C62  0E06               	movlw	6
  5432  003C64  6E01               	movwf	??_FM_Lcd_Send_Nibble^(0+1280),c
  5433  003C66  0E30               	movlw	48
  5434  003C68                     u2307:
  5435  003C68  2EE8               	decfsz	wreg,f,c
  5436  003C6A  D7FE               	bra	u2307
  5437  003C6C  2E01               	decfsz	??_FM_Lcd_Send_Nibble^(0+1280),f,c
  5438  003C6E  D7FC               	bra	u2307
  5439  003C70  D000               	nop2	
  5440  003C72                     
  5441                           ;FM_Lcd_Easy.c: 37:     LATF &= ~upper_bits;
  5442  003C72  5003               	movf	FM_Lcd_Send_Nibble@upper_bits^(0+1280),w,c	;volatile
  5443  003C74  0AFF               	xorlw	255
  5444  003C76  16C3               	andwf	195,f,c	;volatile
  5445  003C78                     
  5446                           ;FM_Lcd_Easy.c: 38:     LATF |= lower_bits;
  5447  003C78  5004               	movf	FM_Lcd_Send_Nibble@lower_bits^(0+1280),w,c	;volatile
  5448  003C7A  12C3               	iorwf	195,f,c	;volatile
  5449                           
  5450                           ;FM_Lcd_Easy.c: 39:     LATF |= (1 << 2);; _delay((unsigned long)((1)*(16000000UL/4000.0
      +                          ))); LATF &= ~(1 << 2);_delay((unsigned long)((1)*(16000000UL/4000.0)));;
  5451  003C7C  84C3               	bsf	195,2,c	;volatile
  5452  003C7E  0E06               	movlw	6
  5453  003C80  6E01               	movwf	??_FM_Lcd_Send_Nibble^(0+1280),c
  5454  003C82  0E30               	movlw	48
  5455  003C84                     u2317:
  5456  003C84  2EE8               	decfsz	wreg,f,c
  5457  003C86  D7FE               	bra	u2317
  5458  003C88  2E01               	decfsz	??_FM_Lcd_Send_Nibble^(0+1280),f,c
  5459  003C8A  D7FC               	bra	u2317
  5460  003C8C  D000               	nop2	
  5461  003C8E  94C3               	bcf	195,2,c	;volatile
  5462  003C90  0E06               	movlw	6
  5463  003C92  6E01               	movwf	??_FM_Lcd_Send_Nibble^(0+1280),c
  5464  003C94  0E30               	movlw	48
  5465  003C96                     u2327:
  5466  003C96  2EE8               	decfsz	wreg,f,c
  5467  003C98  D7FE               	bra	u2327
  5468  003C9A  2E01               	decfsz	??_FM_Lcd_Send_Nibble^(0+1280),f,c
  5469  003C9C  D7FC               	bra	u2327
  5470  003C9E  D000               	nop2	
  5471  003CA0                     
  5472                           ;FM_Lcd_Easy.c: 40:     LATF &= ~lower_bits;
  5473  003CA0  5004               	movf	FM_Lcd_Send_Nibble@lower_bits^(0+1280),w,c	;volatile
  5474  003CA2  0AFF               	xorlw	255
  5475  003CA4  16C3               	andwf	195,f,c	;volatile
  5476  003CA6  0012               	return		;funcret
  5477  003CA8                     __end_of_FM_Lcd_Send_Nibble:
  5478                           	callstack 0
  5479                           
  5480 ;; *************** function _TMR0_ISR *****************
  5481 ;; Defined at:
  5482 ;;		line 35 in file "main.c"
  5483 ;; Parameters:    Size  Location     Type
  5484 ;;		None
  5485 ;; Auto vars:     Size  Location     Type
  5486 ;;		None
  5487 ;; Return value:  Size  Location     Type
  5488 ;;                  1    wreg      void 
  5489 ;; Registers used:
  5490 ;;		wreg, status,2, status,0
  5491 ;; Tracked objects:
  5492 ;;		On entry : 0/0
  5493 ;;		On exit  : 0/0
  5494 ;;		Unchanged: 0/0
  5495 ;; Data sizes:     COMRAM   BANK5   BANK6   BANK7   BANK8   BANK9  BANK10  BANK11  BANK12  BANK13  BANK14  BANK15  BANK1
      +6  BANK17  BANK18  BANK19  BANK20  BANK21  BANK22  BANK23  BANK24  BANK25  BANK26  BANK27  BANK28  BANK29  BANK30  BANK3
      +1  BANK32  BANK33  BANK34  BANK35  BANK36
  5496 ;;      Params:         0       0       0       0       0       0       0       0       0       0       0       0       
      +0       0       0       0       0       0       0       0       0       0       0       0       0       0       0       
      +0       0       0       0       0       0
  5497 ;;      Locals:         0       0       0       0       0       0       0       0       0       0       0       0       
      +0       0       0       0       0       0       0       0       0       0       0       0       0       0       0       
      +0       0       0       0       0       0
  5498 ;;      Temps:          0       0       0       0       0       0       0       0       0       0       0       0       
      +0       0       0       0       0       0       0       0       0       0       0       0       0       0       0       
      +0       0       0       0       0       0
  5499 ;;      Totals:         0       0       0       0       0       0       0       0       0       0       0       0       
      +0       0       0       0       0       0       0       0       0       0       0       0       0       0       0       
      +0       0       0       0       0       0
  5500 ;;Total ram usage:        0 bytes
  5501 ;; Hardware stack levels used: 1
  5502 ;; This function calls:
  5503 ;;		Nothing
  5504 ;; This function is called by:
  5505 ;;		Interrupt level 2
  5506 ;; This function uses a non-reentrant model
  5507 ;;
  5508                           
  5509                           	psect	text34
  5510  003F02                     __ptext34:
  5511                           	callstack 0
  5512  003F02                     _TMR0_ISR:
  5513                           	callstack 118
  5514  003F02                     
  5515                           ;main.c: 37:     if (PIR3bits.TMR0IF)
  5516  003F02  AEB1               	btfss	177,7,c	;volatile
  5517  003F04  EF86  F01F         	goto	i2u224_41
  5518  003F08  EF88  F01F         	goto	i2u224_40
  5519  003F0C                     i2u224_41:
  5520  003F0C  EFA0  F01F         	goto	i2l83
  5521  003F10                     i2u224_40:
  5522  003F10                     
  5523                           ;main.c: 38:     {;main.c: 40:         if(timer0_1sec_cont++ == 500)
  5524  003F10  0105               	movlb	5	; () banked
  5525  003F12  4B68               	infsnz	_timer0_1sec_cont& (0+255),f,b
  5526  003F14  2B69               	incf	(_timer0_1sec_cont+1)& (0+255),f,b
  5527  003F16  0EF5               	movlw	245
  5528  003F18  1968               	xorwf	_timer0_1sec_cont& (0+255),w,b
  5529  003F1A  E106               	bnz	i2u225_41
  5530  003F1C  0569               	decf	(_timer0_1sec_cont+1)& (0+255),w,b
  5531  003F1E  A4D8               	btfss	status,2,c
  5532  003F20  EF94  F01F         	goto	i2u225_41
  5533  003F24  EF96  F01F         	goto	i2u225_40
  5534  003F28                     i2u225_41:
  5535  003F28  EF9C  F01F         	goto	i2l2721
  5536  003F2C                     i2u225_40:
  5537  003F2C                     
  5538                           ; BSR set to: 5
  5539                           ;main.c: 41:         {;main.c: 42:             timer0_1sec_cont = 0;
  5540  003F2C  0E00               	movlw	0
  5541  003F2E  6F69               	movwf	(_timer0_1sec_cont+1)& (0+255),b
  5542  003F30  0E00               	movlw	0
  5543  003F32  6F68               	movwf	_timer0_1sec_cont& (0+255),b
  5544  003F34                     
  5545                           ; BSR set to: 5
  5546                           ;main.c: 43:             LATF ^= (1 << 3);
  5547  003F34  0E08               	movlw	8
  5548  003F36  1AC3               	xorwf	195,f,c	;volatile
  5549  003F38                     i2l2721:
  5550                           
  5551                           ; BSR set to: 5
  5552                           ;main.c: 46:         TMR0 = 6;
  5553  003F38  0E06               	movlw	6
  5554  003F3A  0103               	movlb	3	; () banked
  5555  003F3C  6F18               	movwf	24,b	;volatile
  5556  003F3E                     
  5557                           ; BSR set to: 3
  5558                           ;main.c: 48:         PIR3 &= ~(1 << 0x7);
  5559  003F3E  9EB1               	bcf	177,7,c	;volatile
  5560  003F40                     i2l83:
  5561  003F40  0011               	retfie		f
  5562  003F42                     __end_of_TMR0_ISR:
  5563                           	callstack 0
  5564                           
  5565                           ;
  5566                           ; Interrupt Vector Table @ 0x8
  5567                           ;
  5568                           
  5569                           	psect	ivt0x8
  5570  000008                     __pivt0x8:
  5571                           	callstack 0
  5572  000008                     ivt0x8_base:
  5573                           	callstack 0
  5574                           
  5575                           ; high-priority vector
  5576  000008  EF81  F01F         	goto	_TMR0_ISR
  5577  000018                     	org	16
  5578                           
  5579                           ; low-priority vector
  5580  000018  00FF               	reset	
  5581                           
  5582                           	psect	rparam
  5583  0000                     
  5584                           	psect	idloc
  5585                           
  5586                           ;Config register IDLOC0 @ 0x200000
  5587                           ;	unspecified, using default values
  5588  200000                     	org	2097152
  5589  200000  0FFF               	dw	4095
  5590                           
  5591                           ;Config register IDLOC1 @ 0x200002
  5592                           ;	unspecified, using default values
  5593  200002                     	org	2097154
  5594  200002  0FFF               	dw	4095
  5595                           
  5596                           ;Config register IDLOC2 @ 0x200004
  5597                           ;	unspecified, using default values
  5598  200004                     	org	2097156
  5599  200004  0FFF               	dw	4095
  5600                           
  5601                           ;Config register IDLOC3 @ 0x200006
  5602                           ;	unspecified, using default values
  5603  200006                     	org	2097158
  5604  200006  0FFF               	dw	4095
  5605                           
  5606                           ;Config register IDLOC4 @ 0x200008
  5607                           ;	unspecified, using default values
  5608  200008                     	org	2097160
  5609  200008  0FFF               	dw	4095
  5610                           
  5611                           ;Config register IDLOC5 @ 0x20000A
  5612                           ;	unspecified, using default values
  5613  20000A                     	org	2097162
  5614  20000A  0FFF               	dw	4095
  5615                           
  5616                           ;Config register IDLOC6 @ 0x20000C
  5617                           ;	unspecified, using default values
  5618  20000C                     	org	2097164
  5619  20000C  0FFF               	dw	4095
  5620                           
  5621                           ;Config register IDLOC7 @ 0x20000E
  5622                           ;	unspecified, using default values
  5623  20000E                     	org	2097166
  5624  20000E  0FFF               	dw	4095
  5625                           
  5626                           ;Config register IDLOC8 @ 0x200010
  5627                           ;	unspecified, using default values
  5628  200010                     	org	2097168
  5629  200010  0FFF               	dw	4095
  5630                           
  5631                           ;Config register IDLOC9 @ 0x200012
  5632                           ;	unspecified, using default values
  5633  200012                     	org	2097170
  5634  200012  0FFF               	dw	4095
  5635                           
  5636                           ;Config register IDLOC10 @ 0x200014
  5637                           ;	unspecified, using default values
  5638  200014                     	org	2097172
  5639  200014  0FFF               	dw	4095
  5640                           
  5641                           ;Config register IDLOC11 @ 0x200016
  5642                           ;	unspecified, using default values
  5643  200016                     	org	2097174
  5644  200016  0FFF               	dw	4095
  5645                           
  5646                           ;Config register IDLOC12 @ 0x200018
  5647                           ;	unspecified, using default values
  5648  200018                     	org	2097176
  5649  200018  0FFF               	dw	4095
  5650                           
  5651                           ;Config register IDLOC13 @ 0x20001A
  5652                           ;	unspecified, using default values
  5653  20001A                     	org	2097178
  5654  20001A  0FFF               	dw	4095
  5655                           
  5656                           ;Config register IDLOC14 @ 0x20001C
  5657                           ;	unspecified, using default values
  5658  20001C                     	org	2097180
  5659  20001C  0FFF               	dw	4095
  5660                           
  5661                           ;Config register IDLOC15 @ 0x20001E
  5662                           ;	unspecified, using default values
  5663  20001E                     	org	2097182
  5664  20001E  0FFF               	dw	4095
  5665                           
  5666                           ;Config register IDLOC16 @ 0x200020
  5667                           ;	unspecified, using default values
  5668  200020                     	org	2097184
  5669  200020  0FFF               	dw	4095
  5670                           
  5671                           ;Config register IDLOC17 @ 0x200022
  5672                           ;	unspecified, using default values
  5673  200022                     	org	2097186
  5674  200022  0FFF               	dw	4095
  5675                           
  5676                           ;Config register IDLOC18 @ 0x200024
  5677                           ;	unspecified, using default values
  5678  200024                     	org	2097188
  5679  200024  0FFF               	dw	4095
  5680                           
  5681                           ;Config register IDLOC19 @ 0x200026
  5682                           ;	unspecified, using default values
  5683  200026                     	org	2097190
  5684  200026  0FFF               	dw	4095
  5685                           
  5686                           ;Config register IDLOC20 @ 0x200028
  5687                           ;	unspecified, using default values
  5688  200028                     	org	2097192
  5689  200028  0FFF               	dw	4095
  5690                           
  5691                           ;Config register IDLOC21 @ 0x20002A
  5692                           ;	unspecified, using default values
  5693  20002A                     	org	2097194
  5694  20002A  0FFF               	dw	4095
  5695                           
  5696                           ;Config register IDLOC22 @ 0x20002C
  5697                           ;	unspecified, using default values
  5698  20002C                     	org	2097196
  5699  20002C  0FFF               	dw	4095
  5700                           
  5701                           ;Config register IDLOC23 @ 0x20002E
  5702                           ;	unspecified, using default values
  5703  20002E                     	org	2097198
  5704  20002E  0FFF               	dw	4095
  5705                           
  5706                           ;Config register IDLOC24 @ 0x200030
  5707                           ;	unspecified, using default values
  5708  200030                     	org	2097200
  5709  200030  0FFF               	dw	4095
  5710                           
  5711                           ;Config register IDLOC25 @ 0x200032
  5712                           ;	unspecified, using default values
  5713  200032                     	org	2097202
  5714  200032  0FFF               	dw	4095
  5715                           
  5716                           ;Config register IDLOC26 @ 0x200034
  5717                           ;	unspecified, using default values
  5718  200034                     	org	2097204
  5719  200034  0FFF               	dw	4095
  5720                           
  5721                           ;Config register IDLOC27 @ 0x200036
  5722                           ;	unspecified, using default values
  5723  200036                     	org	2097206
  5724  200036  0FFF               	dw	4095
  5725                           
  5726                           ;Config register IDLOC28 @ 0x200038
  5727                           ;	unspecified, using default values
  5728  200038                     	org	2097208
  5729  200038  0FFF               	dw	4095
  5730                           
  5731                           ;Config register IDLOC29 @ 0x20003A
  5732                           ;	unspecified, using default values
  5733  20003A                     	org	2097210
  5734  20003A  0FFF               	dw	4095
  5735                           
  5736                           ;Config register IDLOC30 @ 0x20003C
  5737                           ;	unspecified, using default values
  5738  20003C                     	org	2097212
  5739  20003C  0FFF               	dw	4095
  5740                           
  5741                           ;Config register IDLOC31 @ 0x20003E
  5742                           ;	unspecified, using default values
  5743  20003E                     	org	2097214
  5744  20003E  0FFF               	dw	4095
  5745                           
  5746                           	psect	config
  5747                           
  5748                           ;Config register CONFIG1 @ 0x300000
  5749                           ;	External Oscillator Selection
  5750                           ;	FEXTOSC = OFF, Oscillator not enabled
  5751                           ;	Reset Oscillator Selection
  5752                           ;	RSTOSC = HFINTOSC_64MHZ, HFINTOSC with HFFRQ = 64 MHz and CDIV = 1:1
  5753  300000                     	org	3145728
  5754  300000  8C                 	db	140
  5755                           
  5756                           ;Config register CONFIG2 @ 0x300001
  5757                           ;	Clock out Enable bit
  5758                           ;	CLKOUTEN = OFF, CLKOUT function is disabled
  5759                           ;	PRLOCKED One-Way Set Enable bit
  5760                           ;	PR1WAY = OFF, PRLOCKED bit can be set and cleared repeatedly
  5761                           ;	Clock Switch Enable bit
  5762                           ;	CSWEN = OFF, The NOSC and NDIV bits cannot be changed by user software
  5763                           ;	Fail-Safe Clock Monitor Enable bit
  5764                           ;	FCMEN = OFF, Fail-Safe Clock Monitor disabled
  5765  300001                     	org	3145729
  5766  300001  D5                 	db	213
  5767                           
  5768                           ;Config register CONFIG3 @ 0x300002
  5769                           ;	MCLR Enable bit
  5770                           ;	MCLRE = EXTMCLR, If LVP = 0, MCLR pin is MCLR; If LVP = 1, RE3 pin function is MCLR
  5771                           ;	Power-up timer selection bits
  5772                           ;	PWRTS = PWRT_OFF, PWRT is disabled
  5773                           ;	Multi-vector enable bit
  5774                           ;	MVECEN = OFF, Interrupt contoller does not use vector table to prioritze interrupts
  5775                           ;	IVTLOCK bit One-way set enable bit
  5776                           ;	IVT1WAY = OFF, IVTLOCKED bit can be cleared and set repeatedly
  5777                           ;	Low Power BOR Enable bit
  5778                           ;	LPBOREN = OFF, Low-Power BOR disabled
  5779                           ;	Brown-out Reset Enable bits
  5780                           ;	BOREN = SBORDIS, Brown-out Reset enabled , SBOREN bit is ignored
  5781  300002                     	org	3145730
  5782  300002  E7                 	db	231
  5783                           
  5784                           ;Config register CONFIG4 @ 0x300003
  5785                           ;	Brown-out Reset Voltage Selection bits
  5786                           ;	BORV = VBOR_1P9, Brown-out Reset Voltage (VBOR) set to 1.9V
  5787                           ;	ZCD Disable bit
  5788                           ;	ZCD = OFF, ZCD module is disabled. ZCD can be enabled by setting the ZCDSEN bit of ZCD
      +                          CON
  5789                           ;	PPSLOCK bit One-Way Set Enable bit
  5790                           ;	PPS1WAY = OFF, PPSLOCKED bit can be set and cleared repeatedly (subject to the unlock 
      +                          sequence)
  5791                           ;	Stack Full/Underflow Reset Enable bit
  5792                           ;	STVREN = OFF, Stack full/underflow will not cause Reset
  5793                           ;	Low Voltage Programming Enable bit
  5794                           ;	LVP = OFF, HV on MCLR/VPP must be used for programming
  5795                           ;	Extended Instruction Set Enable bit
  5796                           ;	XINST = OFF, Extended Instruction Set and Indexed Addressing Mode disabled
  5797  300003                     	org	3145731
  5798  300003  C7                 	db	199
  5799                           
  5800                           ;Config register CONFIG5 @ 0x300004
  5801                           ;	WDT Period selection bits
  5802                           ;	WDTCPS = WDTCPS_31, Divider ratio 1:65536; software control of WDTPS
  5803                           ;	WDT operating mode
  5804                           ;	WDTE = OFF, WDT Disabled; SWDTEN is ignored
  5805  300004                     	org	3145732
  5806  300004  9F                 	db	159
  5807                           
  5808                           ;Config register CONFIG6 @ 0x300005
  5809                           ;	WDT Window Select bits
  5810                           ;	WDTCWS = WDTCWS_7, window always open (100%); software control; keyed access not requi
      +                          red
  5811                           ;	WDT input clock selector
  5812                           ;	WDTCCS = SC, Software Control
  5813  300005                     	org	3145733
  5814  300005  FF                 	db	255
  5815                           
  5816                           ;Config register CONFIG7 @ 0x300006
  5817                           ;	Boot Block Size selection bits
  5818                           ;	BBSIZE = BBSIZE_512, Boot Block size is 512 words
  5819                           ;	Boot Block enable bit
  5820                           ;	BBEN = OFF, Boot block disabled
  5821                           ;	Storage Area Flash enable bit
  5822                           ;	SAFEN = OFF, SAF disabled
  5823                           ;	Background Debugger
  5824                           ;	DEBUG = OFF, Background Debugger disabled
  5825  300006                     	org	3145734
  5826  300006  FF                 	db	255
  5827                           
  5828                           ;Config register CONFIG8 @ 0x300007
  5829                           ;	Boot Block Write Protection bit
  5830                           ;	WRTB = OFF, Boot Block not Write protected
  5831                           ;	Configuration Register Write Protection bit
  5832                           ;	WRTC = OFF, Configuration registers not Write protected
  5833                           ;	Data EEPROM Write Protection bit
  5834                           ;	WRTD = OFF, Data EEPROM not Write protected
  5835                           ;	SAF Write protection bit
  5836                           ;	WRTSAF = OFF, SAF not Write Protected
  5837                           ;	Application Block write protection bit
  5838                           ;	WRTAPP = OFF, Application Block not write protected
  5839  300007                     	org	3145735
  5840  300007  FF                 	db	255
  5841                           
  5842                           ; Padding undefined space
  5843  300008                     	org	3145736
  5844  300008  FF                 	db	255
  5845                           
  5846                           ;Config register CONFIG10 @ 0x300009
  5847                           ;	PFM and Data EEPROM Code Protection bit
  5848                           ;	CP = OFF, PFM and Data EEPROM code protection disabled
  5849  300009                     	org	3145737
  5850  300009  FF                 	db	255
  5851                           tosu	equ	0x4FF
  5852                           tosh	equ	0x4FE
  5853                           tosl	equ	0x4FD
  5854                           stkptr	equ	0x4FC
  5855                           pclatu	equ	0x4FB
  5856                           pclath	equ	0x4FA
  5857                           pcl	equ	0x4F9
  5858                           tblptru	equ	0x4F8
  5859                           tblptrh	equ	0x4F7
  5860                           tblptrl	equ	0x4F6
  5861                           tablat	equ	0x4F5
  5862                           prodh	equ	0x4F4
  5863                           prodl	equ	0x4F3
  5864                           indf0	equ	0x4EF
  5865                           postinc0	equ	0x4EE
  5866                           postdec0	equ	0x4ED
  5867                           preinc0	equ	0x4EC
  5868                           plusw0	equ	0x4EB
  5869                           fsr0h	equ	0x4EA
  5870                           fsr0l	equ	0x4E9
  5871                           wreg	equ	0x4E8
  5872                           indf1	equ	0x4E7
  5873                           postinc1	equ	0x4E6
  5874                           postdec1	equ	0x4E5
  5875                           preinc1	equ	0x4E4
  5876                           plusw1	equ	0x4E3
  5877                           fsr1h	equ	0x4E2
  5878                           fsr1l	equ	0x4E1
  5879                           bsr	equ	0x4E0
  5880                           indf2	equ	0x4DF
  5881                           postinc2	equ	0x4DE
  5882                           postdec2	equ	0x4DD
  5883                           preinc2	equ	0x4DC
  5884                           plusw2	equ	0x4DB
  5885                           fsr2h	equ	0x4DA
  5886                           fsr2l	equ	0x4D9
  5887                           status	equ	0x4D8

Data Sizes:
    Strings     22
    Constant    0
    Data        0
    BSS         58
    Persistent  0
    Stack       0

Auto Spaces:
    Space          Size  Autos    Used
    COMRAM           95     95      95
    BANK5           160     13      71
    BANK6           256      0       0
    BANK7           256      0       0
    BANK8           256      0       0
    BANK9           256      0       0
    BANK10          256      0       0
    BANK11          256      0       0
    BANK12          256      0       0
    BANK13          256      0       0
    BANK14          256      0       0
    BANK15          256      0       0
    BANK16          256      0       0
    BANK17          256      0       0
    BANK18          256      0       0
    BANK19          256      0       0
    BANK20          256      0       0
    BANK21          256      0       0
    BANK22          256      0       0
    BANK23          256      0       0
    BANK24          256      0       0
    BANK25          256      0       0
    BANK26          256      0       0
    BANK27          256      0       0
    BANK28          256      0       0
    BANK29          256      0       0
    BANK30          256      0       0
    BANK31          256      0       0
    BANK32          256      0       0
    BANK33          256      0       0
    BANK34          256      0       0
    BANK35          256      0       0
    BANK36          256      0       0

Pointer List with Targets:

    strlen@s	PTR const unsigned char  size(2) Largest target is 32
		 -> dbuf(BANK5[32]), 

    strlen@a	PTR const unsigned char  size(2) Largest target is 32
		 -> dbuf(BANK5[32]), 

    fputs@s	PTR const unsigned char  size(2) Largest target is 32
		 -> dbuf(BANK5[32]), 

    fputs@fp	PTR struct _IO_FILE size(2) Largest target is 7
		 -> sprintf@f(BANK5[6]), 

    fputc@fp.buffer	PTR unsigned char  size(2) Largest target is 16
		 -> msj(BANK5[16]), 

    fputc@fp	PTR struct _IO_FILE size(2) Largest target is 7
		 -> sprintf@f(BANK5[6]), 

    atoi@s	PTR const unsigned char  size(2) Largest target is 9
		 -> STR_2(CODE[9]), 

    vfprintf@ap	PTR PTR void  size(2) Largest target is 2
		 -> sprintf@ap(BANK5[2]), 

    vfprintf@fp	PTR struct _IO_FILE size(2) Largest target is 7
		 -> sprintf@f(BANK5[6]), 

    vfprintf@fmt	PTR const unsigned char  size(2) Largest target is 9
		 -> STR_2(CODE[9]), 

    vfprintf@cfmt	PTR unsigned char  size(2) Largest target is 9
		 -> STR_2(CODE[9]), 

    vfpfcnvrt@fp	PTR struct _IO_FILE size(2) Largest target is 7
		 -> sprintf@f(BANK5[6]), 

    vfpfcnvrt@ap	PTR PTR void  size(2) Largest target is 2
		 -> sprintf@ap(BANK5[2]), 

    vfpfcnvrt@fmt	PTR PTR unsigned char  size(2) Largest target is 2
		 -> vfprintf@cfmt(COMRAM[2]), 

    utoa@fp	PTR struct _IO_FILE size(2) Largest target is 7
		 -> sprintf@f(BANK5[6]), 

    pad@fp	PTR struct _IO_FILE size(2) Largest target is 7
		 -> sprintf@f(BANK5[6]), 

    pad@buf	PTR unsigned char  size(2) Largest target is 32
		 -> dbuf(BANK5[32]), 

    sprintf@fmt	PTR const unsigned char  size(2) Largest target is 9
		 -> STR_2(CODE[9]), 

    sprintf@s	PTR unsigned char  size(2) Largest target is 16
		 -> msj(BANK5[16]), 

    sprintf@ap	PTR void [1] size(2) Largest target is 2
		 -> ?_sprintf(COMRAM[2]), 

    S762_IO_FILE$buffer	PTR unsigned char  size(2) Largest target is 16
		 -> msj(BANK5[16]), 

    f.buffer	PTR unsigned char  size(2) Largest target is 16
		 -> msj(BANK5[16]), 

    FM_Lcd_Send_String@cadena	PTR unsigned char  size(2) Largest target is 16
		 -> msj(BANK5[16]), STR_1(CODE[13]), 

    FM_Hfintosc_Init@clock_params	PTR struct . size(2) Largest target is 2
		 -> Init_Internal_Oscillator@my_clock(COMRAM[2]), 


Critical Paths under _main in COMRAM

    _main->_sprintf
    _sprintf->_vfprintf
    _vfprintf->_vfpfcnvrt
    _vfpfcnvrt->_utoa
    _utoa->_pad
    _pad->_fputs
    _fputs->_fputc
    _atoi->_isspace
    ___fltol->___flmul
    ___flmul->___fldiv
    ___fldiv->___xxtofl
    _System_Init->_FM_Lcd_Easy_Init
    _Init_Internal_Oscillator->_FM_Hfintosc_Init
    _FM_Lcd_Easy_Init->_FM_Lcd_Send_Command
    _FM_Lcd_Set_Cursor->_FM_Lcd_Send_Command
    _FM_Lcd_Send_Command->_FM_Lcd_Send_Nibble
    _FM_Lcd_Send_String->_FM_Lcd_Send_Character
    _FM_Lcd_Send_Character->_FM_Lcd_Send_Nibble

Critical Paths under _TMR0_ISR in COMRAM

    None.

Critical Paths under _main in BANK5

    _main->_sprintf

Critical Paths under _TMR0_ISR in BANK5

    None.

Critical Paths under _main in BANK6

    None.

Critical Paths under _TMR0_ISR in BANK6

    None.

Critical Paths under _main in BANK7

    None.

Critical Paths under _TMR0_ISR in BANK7

    None.

Critical Paths under _main in BANK8

    None.

Critical Paths under _TMR0_ISR in BANK8

    None.

Critical Paths under _main in BANK9

    None.

Critical Paths under _TMR0_ISR in BANK9

    None.

Critical Paths under _main in BANK10

    None.

Critical Paths under _TMR0_ISR in BANK10

    None.

Critical Paths under _main in BANK11

    None.

Critical Paths under _TMR0_ISR in BANK11

    None.

Critical Paths under _main in BANK12

    None.

Critical Paths under _TMR0_ISR in BANK12

    None.

Critical Paths under _main in BANK13

    None.

Critical Paths under _TMR0_ISR in BANK13

    None.

Critical Paths under _main in BANK14

    None.

Critical Paths under _TMR0_ISR in BANK14

    None.

Critical Paths under _main in BANK15

    None.

Critical Paths under _TMR0_ISR in BANK15

    None.

Critical Paths under _main in BANK16

    None.

Critical Paths under _TMR0_ISR in BANK16

    None.

Critical Paths under _main in BANK17

    None.

Critical Paths under _TMR0_ISR in BANK17

    None.

Critical Paths under _main in BANK18

    None.

Critical Paths under _TMR0_ISR in BANK18

    None.

Critical Paths under _main in BANK19

    None.

Critical Paths under _TMR0_ISR in BANK19

    None.

Critical Paths under _main in BANK20

    None.

Critical Paths under _TMR0_ISR in BANK20

    None.

Critical Paths under _main in BANK21

    None.

Critical Paths under _TMR0_ISR in BANK21

    None.

Critical Paths under _main in BANK22

    None.

Critical Paths under _TMR0_ISR in BANK22

    None.

Critical Paths under _main in BANK23

    None.

Critical Paths under _TMR0_ISR in BANK23

    None.

Critical Paths under _main in BANK24

    None.

Critical Paths under _TMR0_ISR in BANK24

    None.

Critical Paths under _main in BANK25

    None.

Critical Paths under _TMR0_ISR in BANK25

    None.

Critical Paths under _main in BANK26

    None.

Critical Paths under _TMR0_ISR in BANK26

    None.

Critical Paths under _main in BANK27

    None.

Critical Paths under _TMR0_ISR in BANK27

    None.

Critical Paths under _main in BANK28

    None.

Critical Paths under _TMR0_ISR in BANK28

    None.

Critical Paths under _main in BANK29

    None.

Critical Paths under _TMR0_ISR in BANK29

    None.

Critical Paths under _main in BANK30

    None.

Critical Paths under _TMR0_ISR in BANK30

    None.

Critical Paths under _main in BANK31

    None.

Critical Paths under _TMR0_ISR in BANK31

    None.

Critical Paths under _main in BANK32

    None.

Critical Paths under _TMR0_ISR in BANK32

    None.

Critical Paths under _main in BANK33

    None.

Critical Paths under _TMR0_ISR in BANK33

    None.

Critical Paths under _main in BANK34

    None.

Critical Paths under _TMR0_ISR in BANK34

    None.

Critical Paths under _main in BANK35

    None.

Critical Paths under _TMR0_ISR in BANK35

    None.

Critical Paths under _main in BANK36

    None.

Critical Paths under _TMR0_ISR in BANK36

    None.

Call Graph Tables:

 ---------------------------------------------------------------------------------
 (Depth) Function   	        Calls       Base Space   Used Autos Params    Refs
 ---------------------------------------------------------------------------------
 (0) _main                                                 5     5      0   12641
                                              8 BANK5      5     5      0
                 _FM_Lcd_Send_String
                  _FM_Lcd_Set_Cursor
                        _System_Init
                            ___fldiv
                            ___flmul
                            ___fltol
                           ___xxtofl
                            _sprintf
 ---------------------------------------------------------------------------------
 (1) _sprintf                                             16    10      6    7624
                                             89 COMRAM     6     0      6
                                              0 BANK5      8     8      0
                           _vfprintf
 ---------------------------------------------------------------------------------
 (2) _vfprintf                                             8     2      6    7271
                                             81 COMRAM     8     2      6
                          _vfpfcnvrt
 ---------------------------------------------------------------------------------
 (3) _vfpfcnvrt                                           46    40      6    6899
                                             59 COMRAM    22    16      6
                               _atoi
                              _fputc
                            _isdigit
                               _utoa
 ---------------------------------------------------------------------------------
 (4) _utoa                                                32    22     10    3759
                                             27 COMRAM    32    22     10
                            ___lodiv
                            ___lomod
                                _pad
 ---------------------------------------------------------------------------------
 (5) _pad                                                 11     5      6    2709
                                             16 COMRAM    11     5      6
                              _fputc
                              _fputs
                             _strlen
 ---------------------------------------------------------------------------------
 (6) _strlen                                               4     2      2     166
                                              0 COMRAM     4     2      2
 ---------------------------------------------------------------------------------
 (6) _fputs                                                7     3      4    1235
                                              9 COMRAM     7     3      4
                              _fputc
 ---------------------------------------------------------------------------------
 (7) _fputc                                                9     5      4     834
                                              0 COMRAM     9     5      4
                              _putch
 ---------------------------------------------------------------------------------
 (8) _putch                                                1     1      0       0
 ---------------------------------------------------------------------------------
 (5) ___lomod                                             17     1     16     311
                                              0 COMRAM    17     1     16
 ---------------------------------------------------------------------------------
 (5) ___lodiv                                             25     9     16     314
                                              0 COMRAM    25     9     16
 ---------------------------------------------------------------------------------
 (4) _atoi                                                15    13      2    1198
                                              7 COMRAM    15    13      2
                             ___wmul
                            _isdigit
                            _isspace
 ---------------------------------------------------------------------------------
 (5) _isspace                                              7     5      2     207
                                              0 COMRAM     7     5      2
 ---------------------------------------------------------------------------------
 (4) _isdigit                                              6     4      2     237
                                              0 COMRAM     6     4      2
 ---------------------------------------------------------------------------------
 (5) ___wmul                                               6     2      4     357
                                              0 COMRAM     6     2      4
 ---------------------------------------------------------------------------------
 (1) ___xxtofl                                            14    10      4     398
                                              0 COMRAM    14    10      4
 ---------------------------------------------------------------------------------
 (1) ___fltol                                             10     6      4     305
                                             64 COMRAM    10     6      4
                            ___fldiv (ARG)
                            ___flmul (ARG)
                           ___xxtofl (ARG)
 ---------------------------------------------------------------------------------
 (1) ___flmul                                             25    17      8    1744
                                             39 COMRAM    25    17      8
                            ___fldiv (ARG)
                           ___xxtofl (ARG)
 ---------------------------------------------------------------------------------
 (1) ___fldiv                                             25    17      8    1399
                                             14 COMRAM    25    17      8
                           ___xxtofl (ARG)
 ---------------------------------------------------------------------------------
 (1) _System_Init                                          0     0      0     326
                   _FM_Lcd_Easy_Init
                   _Init_ADCC_Module
                   _Init_Gpio_System
           _Init_Internal_Oscillator
                    _Init_Interrupts
               _Init_Timer0_As_Timer
 ---------------------------------------------------------------------------------
 (2) _Init_Timer0_As_Timer                                 0     0      0       0
 ---------------------------------------------------------------------------------
 (2) _Init_Interrupts                                      0     0      0       0
 ---------------------------------------------------------------------------------
 (2) _Init_Internal_Oscillator                             2     2      0     169
                                              3 COMRAM     2     2      0
                   _FM_Hfintosc_Init
 ---------------------------------------------------------------------------------
 (3) _FM_Hfintosc_Init                                     3     1      2     120
                                              0 COMRAM     3     1      2
 ---------------------------------------------------------------------------------
 (2) _Init_Gpio_System                                     0     0      0       0
 ---------------------------------------------------------------------------------
 (2) _Init_ADCC_Module                                     0     0      0       0
 ---------------------------------------------------------------------------------
 (2) _FM_Lcd_Easy_Init                                     2     2      0     157
                                              5 COMRAM     2     2      0
              _FM_Lcd_Easy_Gpio_Init
                _FM_Lcd_Send_Command
 ---------------------------------------------------------------------------------
 (3) _FM_Lcd_Easy_Gpio_Init                                1     1      0       1
 ---------------------------------------------------------------------------------
 (1) _FM_Lcd_Set_Cursor                                    3     2      1     401
                                              5 COMRAM     3     2      1
                _FM_Lcd_Send_Command
 ---------------------------------------------------------------------------------
 (3) _FM_Lcd_Send_Command                                  1     1      0     156
                                              4 COMRAM     1     1      0
                 _FM_Lcd_Send_Nibble
 ---------------------------------------------------------------------------------
 (1) _FM_Lcd_Send_String                                   5     3      2     398
                                              5 COMRAM     5     3      2
              _FM_Lcd_Send_Character
 ---------------------------------------------------------------------------------
 (2) _FM_Lcd_Send_Character                                1     1      0     156
                                              4 COMRAM     1     1      0
                 _FM_Lcd_Send_Nibble
 ---------------------------------------------------------------------------------
 (4) _FM_Lcd_Send_Nibble                                   4     4      0     134
                                              0 COMRAM     4     4      0
 ---------------------------------------------------------------------------------
 Estimated maximum stack depth 8
 ---------------------------------------------------------------------------------
 (Depth) Function   	        Calls       Base Space   Used Autos Params    Refs
 ---------------------------------------------------------------------------------
 (9) _TMR0_ISR                                             0     0      0       0
 ---------------------------------------------------------------------------------
 Estimated maximum stack depth 9
 ---------------------------------------------------------------------------------

 Call Graph Graphs:

 _main (ROOT)
   _FM_Lcd_Send_String
     _FM_Lcd_Send_Character
       _FM_Lcd_Send_Nibble
   _FM_Lcd_Set_Cursor
     _FM_Lcd_Send_Command
       _FM_Lcd_Send_Nibble
   _System_Init
     _FM_Lcd_Easy_Init
       _FM_Lcd_Easy_Gpio_Init
       _FM_Lcd_Send_Command
     _Init_ADCC_Module
     _Init_Gpio_System
     _Init_Internal_Oscillator
       _FM_Hfintosc_Init
     _Init_Interrupts
     _Init_Timer0_As_Timer
   ___fldiv
     ___xxtofl (ARG)
   ___flmul
     ___fldiv (ARG)
     ___xxtofl (ARG)
   ___fltol
     ___fldiv (ARG)
     ___flmul (ARG)
     ___xxtofl (ARG)
   ___xxtofl
   _sprintf
     _vfprintf
       _vfpfcnvrt
         _atoi
           ___wmul
           _isdigit
           _isspace
         _fputc
           _putch
         _isdigit
         _utoa
           ___lodiv
           ___lomod
           _pad
             _fputc
             _fputs
               _fputc
             _strlen

 _TMR0_ISR (ROOT)

 Address spaces:
Name               Size   Autos  Total    Cost      Usage
BIGRAM            1FFF      0       0      69        0.0%
EEDATA             400      0       0       0        0.0%
BITBANK36          100      0       0      66        0.0%
BANK36             100      0       0      67        0.0%
BITBANK35          100      0       0      64        0.0%
BANK35             100      0       0      65        0.0%
BITBANK34          100      0       0      62        0.0%
BANK34             100      0       0      63        0.0%
BITBANK33          100      0       0      60        0.0%
BANK33             100      0       0      61        0.0%
BITBANK32          100      0       0      58        0.0%
BANK32             100      0       0      59        0.0%
BITBANK31          100      0       0      56        0.0%
BANK31             100      0       0      57        0.0%
BITBANK30          100      0       0      54        0.0%
BANK30             100      0       0      55        0.0%
BITBANK29          100      0       0      52        0.0%
BANK29             100      0       0      53        0.0%
BITBANK28          100      0       0      50        0.0%
BANK28             100      0       0      51        0.0%
BITBANK27          100      0       0      48        0.0%
BANK27             100      0       0      49        0.0%
BITBANK26          100      0       0      46        0.0%
BANK26             100      0       0      47        0.0%
BITBANK25          100      0       0      44        0.0%
BANK25             100      0       0      45        0.0%
BITBANK24          100      0       0      42        0.0%
BANK24             100      0       0      43        0.0%
BITBANK23          100      0       0      40        0.0%
BANK23             100      0       0      41        0.0%
BITBANK22          100      0       0      38        0.0%
BANK22             100      0       0      39        0.0%
BITBANK21          100      0       0      36        0.0%
BANK21             100      0       0      37        0.0%
BITBANK20          100      0       0      34        0.0%
BANK20             100      0       0      35        0.0%
BITBANK19          100      0       0      32        0.0%
BANK19             100      0       0      33        0.0%
BITBANK18          100      0       0      30        0.0%
BANK18             100      0       0      31        0.0%
BITBANK17          100      0       0      28        0.0%
BANK17             100      0       0      29        0.0%
BITBANK16          100      0       0      26        0.0%
BANK16             100      0       0      27        0.0%
BITBANK15          100      0       0      24        0.0%
BANK15             100      0       0      25        0.0%
BITBANK14          100      0       0      22        0.0%
BANK14             100      0       0      23        0.0%
BITBANK13          100      0       0      20        0.0%
BANK13             100      0       0      21        0.0%
BITBANK12          100      0       0      18        0.0%
BANK12             100      0       0      19        0.0%
BITBANK11          100      0       0      16        0.0%
BANK11             100      0       0      17        0.0%
BITBANK10          100      0       0      14        0.0%
BANK10             100      0       0      15        0.0%
BITBANK9           100      0       0      12        0.0%
BANK9              100      0       0      13        0.0%
BITBANK8           100      0       0      10        0.0%
BANK8              100      0       0      11        0.0%
BITBANK7           100      0       0       8        0.0%
BANK7              100      0       0       9        0.0%
BITBANK6           100      0       0       6        0.0%
BANK6              100      0       0       7        0.0%
BITBANK5            A0      0       0       4        0.0%
BANK5               A0      D      47       5       44.4%
BITCOMRAM           5F      0       0       0        0.0%
COMRAM              5F     5F      5F       1      100.0%
BITSFR_6             0      0       0     200        0.0%
SFR_6                0      0       0     200        0.0%
BITSFR_5             0      0       0     200        0.0%
SFR_5                0      0       0     200        0.0%
BITSFR_4             0      0       0     200        0.0%
SFR_4                0      0       0     200        0.0%
BITSFR_3             0      0       0     200        0.0%
SFR_3                0      0       0     200        0.0%
BITSFR_2             0      0       0     200        0.0%
SFR_2                0      0       0     200        0.0%
BITSFR_1             0      0       0     200        0.0%
SFR_1                0      0       0     200        0.0%
BITSFR               0      0       0     200        0.0%
SFR                  0      0       0     200        0.0%
STACK                0      0       0       2        0.0%
NULL                 0      0       0       0        0.0%
ABS                  0      0      A6      68        0.0%
DATA                 0      0      A6       3        0.0%
CODE                 0      0       0       0        0.0%


Microchip Technology PIC18 Macro Assembler V2.32 build 20210201212658 
Symbol Table                                                                                   Thu Jun 29 18:12:56 2023

                          ___fldiv@aexp 0527                            ___fldiv@bexp 0526  
                          ___fldiv@sign 051F                                      l97 4034  
                                    l89 3660                     ___wmul@multiplicand 0503  
                                   l100 401A                                     l103 405E  
                                   l112 404A                                     l106 3E7E  
                                   l132 406C                                     l141 4084  
                                   l109 408E                                     l135 3CA6  
                                   l119 3F00                                     l160 3FDC  
                                   l154 3C32                                     l138 4078  
                                   l146 3E30                                     l148 3E3C  
                                   l157 3EC0                                     l605 3940  
                                   l615 3AE8                                     l608 3AC8  
                                   l457 3850                                     l901 2A7A  
                                   l742 30D2                                     l822 357C  
                                   l815 34E4                                     l744 2F32  
                                   l920 3D08                                     l753 2F78  
                                   l921 3D10                                     l818 3640  
                                   l914 2D38                                     l755 2FF0  
                                   l747 2EF6                                     l756 2FDE  
                                   l781 27F6                                     l829 35D8  
                                   l774 25DC                                     l598 3920  
                                   l870 3B72                                     l838 3D62  
                                   l791 2926                                     l783 286E  
                                   l784 285C                                     l952 348C  
                                   l872 3BAE                                     l778 2964  
                                   l955 3FB2                                     l963 3DB4  
                                   l867 3B30                                     l949 3484  
                                   l877 310C                                     l887 32D4  
                                   l879 3114                                     l978 3A18  
                                   l986 3DF8                                     l995 3F7A  
                                   l989 4090                                     _pad 3AEA  
                                   _msj 058A                                     wreg 0004E8  
                           main@adc_val 05A4                            ___flmul@aexp 0539  
                          ___flmul@bexp 053A                            ___flmul@sign 0534  
                          ___flmul@temp 053F                            ___flmul@prod 053B  
                          ___fltol@exp1 054A                                    l2011 3C72  
                                  l2003 3C36                                    l2013 3C78  
                                  l2005 3C4E                                    l2101 3ECC  
                                  l2021 30D4                                    l2015 3C7E  
                                  l2007 3C60                                    l2111 4072  
                                  l2103 3EE6                                    l2031 3144  
                                  l2023 30E4                                    l2017 3C8E  
                                  l2009 3C62                                    l2105 4060  
                                  l2041 31D4                                    l2033 314C  
                                  l2025 30E6                                    l2121 29BA  
                                  l2113 2966                                    l2019 3CA0  
                                  l2107 406A                                    l2211 4036  
                                  l2051 329C                                    l2035 3152  
                                  l2043 3238                                    l2027 3100  
                                  l2131 29E8                                    l2123 29C6  
                                  l2115 2992                                    l2109 4070  
                                  l2213 403E                                    l2221 4054  
                                  l2061 32EE                                    l2045 324A  
                                  l2053 32AC                                    l2037 31C8  
                                  l2029 313C                                    l2125 29CA  
                                  l2117 29A4                                    l2301 3CB0  
                                  l2223 4056                                    l2215 404C  
                                  l2231 3FFE                                    l2311 4024  
                                  l2063 32F2                                    l2047 3268  
                                  l2039 31CE                                    l2151 2A8A  
                                  l2143 2A00                                    l2135 29F0  
                                  l2127 29E0                                    l2119 29B6  
                                  l2303 3CBE                                    l2321 3E00  
                                  l2225 4058                                    l2217 4050  
                                  l2241 4010                                    l2233 4008  
                                  l2313 4028                                    l2401 2E38  
                                  l2081 33C0                                    l2073 335E  
                                  l2065 3316                                    l2057 32D6  
                                  l2049 3282                                    l2161 2B1E  
                                  l2153 2A8C                                    l2305 3CE4  
                                  l2331 3E36                                    l2323 3E10  
                                  l2251 3E4C                                    l2227 405A  
                                  l2219 4052                                    l2243 4012  
                                  l2235 400A                                    l2315 402C  
                                  l2307 401C                                    l2091 3456  
                                  l2075 3374                                    l2067 3354  
                                  l2059 32EA                                    l2163 2B46  
                                  l2171 2BB8                                    l2155 2AB8  
                                  l2147 2A0C                                    l2139 29F8  
                                  l2341 3BF0                                    l2333 3E3C  
                                  l2325 3E18                                    l2261 3E5A  
                                  l2253 3E4E                                    l2229 405C  
                                  l2245 4014                                    l2237 400C  
                                  l2317 4030                                    l2309 4020  
                                  l2421 2EBA                                    l2413 2E70  
                                  l2405 2E4C                                    l2501 2544  
                                  l2093 3468                                    l2085 33FE  
                                  l2077 337C                                    l2069 3358  
                                  l2181 2CA6                                    l2173 2BE4  
                                  l2165 2B58                                    l2157 2B02  
                                  l2149 2A68                                    l2335 3BB0  
                                  l2327 3E28                                    l2319 3DFC  
                                  l2271 3E6A                                    l2263 3E5C  
                                  l2255 3E50                                    l2247 4018  
                                  l2239 400E                                    l2431 2F00  
                                  l2423 2EC2                                    l2415 2E8A  
                                  l2407 2E5C                                    l2511 2580  
                                  l2503 2554                                    l2079 3384  
                                  l2191 2CEA                                    l2183 2CB8  
                                  l2175 2C42                                    l2159 2B10  
                                  l2351 3D50                                    l2343 3D12  
                                  l2337 3BB8                                    l2329 3E32  
                                  l2281 3E84                                    l2273 3E74  
                                  l2265 3E60                                    l2257 3E52  
                                  l2249 3E3E                                    l2441 2F58  
                                  l2433 2F1E                                    l2425 2ED2  
                                  l2417 2E9A                                    l2409 2E5C  
                                  l2361 2D56                                    l2601 28C6  
                                  l2521 25B6                                    l2513 2586  
                                  l2505 2564                                    l2089 3444  
                                  l2185 2CCC                                    l2169 2BA6  
                                  l2345 3D24                                    l2339 3BEE  
                                  l2291 3EB4                                    l2283 3E9C  
                                  l2275 3E7C                                    l2267 3E64  
                                  l2259 3E58                                    l2099 3EC2  
                                  l2451 2F96                                    l2443 2F5E  
                                  l2435 2F20                                    l2427 2EE6  
                                  l2419 2EAA                                    l2363 2D66  
                                  l2371 2D90                                    l2355 2D3A  
                                  l2611 293A                                    l2603 28E0  
                                  l2523 25C6                                    l2515 2594  
                                  l2507 256A                                    l2179 2C7A  
                                  l2195 2CF6                                    l2347 3D2C  
                                  l2293 3EBA                                    l2285 3EA2  
                                  l2269 3E66                                    l2277 4086  
                                  l2461 3000                                    l2453 2F9A  
                                  l2445 2F68                                    l2437 2F30  
                                  l2429 2EF4                                    l2381 2DBC  
                                  l2373 2DA0                                    l2365 2D76  
                                  l2357 2D46                                    l2613 2948  
                                  l2605 28F4                                    l2541 2650  
                                  l2533 2610                                    l2525 25CC  
                                  l2517 2596                                    l2509 257A  
                                  l2701 35EC                                    l2197 2D22  
                                  l2189 2CD8                                    l2349 3D34  
                                  l2295 407C                                    l2287 3EA8  
                                  l2279 3E80                                    l2471 3062  
                                  l2463 300C                                    l2455 2FA8  
                                  l2447 2F76                                    l2439 2F42  
                                  l2383 2DCC                                    l2391 2DF6  
                                  l2375 2DA6                                    l2367 2D86  
                                  l2359 2D54                                    l2615 294A  
                                  l2607 290E                                    l2551 26A2  
                                  l2543 266C                                    l2535 2620  
                                  l2527 25EC                                    l2519 25A6  
                                  l2631 37A0                                    l2623 374C  
                                  l2703 3610                                    l1903 3DB6  
                                  l1911 3F42                                    l2297 407E  
                                  l2289 3EAE                                    l2481 30C0  
                                  l2473 3078                                    l2465 301A  
                                  l2457 2FD6                                    l2449 2F88  
                                  l2393 2E06                                    l2385 2DDC  
                                  l2377 2DAC                                    l2369 2D88  
                                  l2609 292A                                    l2617 2950  
                                  l2561 2700                                    l2553 26B2  
                                  l2545 2678                                    l2537 262A  
                                  l2529 25FC                                    l2633 37A2  
                                  l2625 3762                                    l2705 3620  
                                  l1921 3FB4                                    l1905 3DC2  
                                  l1913 3F4E                                    l2483 30C6  
                                  l2475 3092                                    l2467 3044  
                                  l2395 2E1C                                    l2387 2DEC  
                                  l2379 2DBA                                    l2619 2954  
                                  l2571 27B0                                    l2563 2720  
                                  l2555 26C2                                    l2547 2684  
                                  l2539 2644                                    l2635 37B2  
                                  l2707 362E                                    l1923 3FD4  
                                  l1931 387C                                    l1907 3DD4  
                                  l1915 3F52                                    l2299 3CA8  
                                  l2731 365C                                    l2485 30C8  
                                  l2477 30AE                                    l2469 3048  
                                  l2397 2E2C                                    l2389 2DEE  
                                  l2581 2806                                    l2573 27BE  
                                  l2565 2730                                    l2557 26D2  
                                  l2549 2692                                    l2493 2518  
                                  l2661 3830                                    l2645 37DC  
                                  l2637 37B6                                    l2629 3776  
                                  l2709 3630                                    l1941 38E6  
                                  l1933 3884                                    l1909 3DD8  
                                  l1917 3F6E                                    l2805 2A3A  
                                  l2741 3720                                    l2733 366E  
                                  l2725 3642                                    l2479 30B2  
                                  l2399 2E34                                    l2583 2814  
                                  l2575 27DC                                    l2567 2750  
                                  l2559 26F0                                    l2495 2524  
                                  l2663 3840                                    l2655 3804  
                                  l2647 37E6                                    l2639 37C4  
                                  l2671 34AE                                    l2807 33AA  
                                  l1943 3906                                    l1935 3898  
                                  l1927 3852                                    l1951 3A38  
                                  l2743 372C                                    l2735 3688  
                                  l2727 3646                                    l2593 287E  
                                  l2585 2818                                    l2577 27E6  
                                  l2569 277A                                    l2497 2532  
                                  l2657 3810                                    l2649 37F0  
                                  l2681 3526                                    l2673 34F4  
                                  l1945 3908                                    l1937 38A6  
                                  l1929 385E                                    l1961 3AB0  
                                  l1953 3A40                                    l2737 36FC  
                                  l2729 3650                                    l2595 288A  
                                  l2587 2826                                    l2579 27F4  
                                  l2499 2534                                    l2659 3820  
                                  l2691 35AE                                    l2683 3532  
                                  l2675 350A                                    l2667 3490  
                                  l1947 391A                                    l1939 38B8  
                                  l1963 3AC2                                    l1955 3A54  
                                  l1891 3954                                    l1971 3B1C  
                                  l2739 3716                                    l2597 2898  
                                  l2589 2854                                    l2693 35BA  
                                  l2685 3564                                    l2669 34A0  
                                  l1957 3A62                                    l1949 3A1A  
                                  l1893 3966                                    l1981 3B82  
                                  l1973 3B28                                    l1965 3AEA  
                                  ?_pad 0511                                    l2599 28C2  
                                  l2695 35C8                                    l2687 3566  
                                  l2679 351E                                    l1991 3D64  
                                  l1959 3A90                                    l1895 3970  
                                  l1983 3B96                                    l1975 3B3C  
                                  l1967 3AFA                                    l2697 35E6  
                                  l2689 3572                                    l1993 3D68  
                                  l1897 398E                                    l1889 3942  
                                  l1977 3B50                                    l1969 3B0E  
                                  l2699 35E8                                    l1987 3F7C  
                                  l1995 3D7C                                    l1899 39C4  
                                  l1979 3B54                                    l1997 3DAA  
                                  l1999 3DAE                                    STR_1 2501  
                                  STR_2 250E                                    u2000 2854  
                                  u2001 2850                                    u1201 3858  
                                  u2010 286A                                    u1210 387C  
                                  u2011 2866                                    u1211 3878  
                                  u2020 287E                                    u2100 37D8  
                                  u1220 38A6                                    u1140 3954  
                                  u1300 3B82                                    u2021 287A  
                                  u2101 37D4                                    u1221 38A2  
                                  u1141 3950                                    u1301 3B7E  
                                  u2030 2898                                    u2110 3800  
                                  u1310 3FAC                                    u1230 38E6  
                                  u1150 3966                                    u2031 2894  
                                  u2111 37FC                                    u1311 3FA6  
                                  u1231 38E2                                    u1151 3962  
                                  u2040 28E0                                    u2120 3820  
                                  u2200 35D8                                    u1320 3FAE  
                                  u1240 3A38                                    u1160 398E  
                                  u1400 329C                                    u2041 28DC  
                                  u2121 381C                                    u2201 35D4  
                                  u1241 3A34                                    u1161 398A  
                                  u1401 3298                                    u2050 290E  
                                  u2130 3830                                    u2210 35E6  
                                  u1330 3D7C                                    u1250 3A62  
                                  u1170 39C4                                    u1410 32AC  
                                  u2051 290A                                    u2131 382C  
                                  u2211 35E2                                    u1331 3D78  
                                  u1251 3A5E                                    u1171 39C0  
                                  u1411 32A8                                    u2060 2948  
                                  u2220 3620                                    u2140 34A0  
                                  u1340 3DAA                                    u1420 3316  
                                  u1260 3A90                                    u1180 3DF8  
                                  u1500 2A7A                                    u2061 2944  
                                  u2221 361C                                    u2141 349C  
                                  u1341 3DA6                                    u1421 3312  
                                  u1261 3A8C                                    u1181 3DF4  
                                  u1501 2A76                                    u2070 3762  
                                  u2230 362E                                    u2150 34AE  
                                  u1430 3354                                    u1190 3F6E  
                                  u1270 3AFA                                    u1350 30E4  
                                  u1510 2A8A                                    u2071 375E  
                                  u2231 362A                                    u2151 34AA  
                                  u1431 3350                                    u1191 3F6A  
                                  u1271 3AF6                                    u1351 30E0  
                                  u1511 2A86                                    u1600 3E10  
                                  u2080 3796                                    u2160 350A  
                                  u1440 3370                                    u1280 3B1C  
                                  u1360 3100                                    u1520 2AB8  
                                  u1601 3E0C                                    u2161 3506  
                                  u1441 336C                                    u1281 3B18  
                                  u1361 30FC                                    u1521 2AB4  
                                  u1610 3E28                                    u2090 37C4  
                                  u2170 3560                                    u1450 343E  
                                  u1290 3B72                                    u1370 324A  
                                  u1530 2B10                                    _LATF 0004C3  
                                  u2307 3C68                                    u1611 3E24  
                                  u2091 37C0                                    u2171 355C  
                                  u1451 3438                                    u1291 3B6E  
                                  u1371 3246                                    u1531 2B0C  
                                  u1620 3BEA                                    u1700 2DDC  
                                  u2180 35AA                                    u1460 3440  
                                  u1380 3268                                    u1540 2BA0  
                                  u2260 366E                                    u2317 3C84  
                                  u1701 2DD8                                    u2085 378C  
                                  u2181 35A6                                    u1381 3264  
                                  u1541 2B9A                                    u2261 366A  
                                  u1630 3C22                                    u1710 2E1C  
                                  u2190 35C8                                    u1470 3456  
                                  u1390 3282                                    u1550 2BA2  
                                  u2327 3C96                                    u1711 2E18  
                                  u2191 35C4                                    u1471 3452  
                                  u1391 327E                                    u1640 3C32  
                                  u1800 2FA8                                    u1720 2E5C  
                                  u1480 3468                                    u1560 2BB8  
                                  u1641 3C2E                                    u1801 2FA4  
                                  u1721 2E58                                    u1481 3464  
                                  u1561 2BB4                                    u1810 2FD6  
                                  u1730 2ED2                                    u1650 2D54  
                                  u1570 2BE4                                    u1490 2992  
                                  u1627 3BE0                                    u1811 2FD2  
                                  u1731 2ECE                                    u1651 2D50  
                                  u1571 2BE0                                    u1491 298E  
                                  u1820 2FEC                                    u1740 2EF4  
                                  u1660 2D66                                    u1900 2554  
                                  u1580 2CA6                                    u1637 3C18  
                                  u1821 2FE8                                    u1741 2EF0  
                                  u1661 2D62                                    u1901 2550  
                                  u1581 2CA2                                    u2277 3738  
                                  u1830 3000                                    u1750 2F1E  
                                  u1670 2D76                                    u1910 2594  
                                  u1590 3D08                                    u2287 3E8E  
                                  u1831 2FFC                                    u1751 2F1A  
                                  u1671 2D72                                    u1911 2590  
                                  u1591 3D04                                    _PIE1 00049F  
                                  u1840 301A                                    u1760 2F42  
                                  u1680 2DBA                                    u1920 25A6  
                                  u2297 3C56                                    u1841 3016  
                                  u1761 2F3E                                    u1681 2DB6  
                                  u1921 25A2                                    _PIE3 0004A1  
                                  u1850 3062                                    u1770 2F58  
                                  u1690 2DCC                                    u1930 25B6  
                                  u1851 305E                                    u1771 2F54  
                                  u1691 2DC8                                    u1931 25B2  
                                  u1860 3092                                    u1780 2F76  
                                  u1940 25EC                                    u1861 308E  
                                  u1781 2F72                                    u1941 25E8  
                                  u1870 30C0                                    u1790 2F96  
                                  u1950 25FC                                    u1871 30BC  
                                  u1791 2F92                                    u1951 25F8  
                                  u1960 279A                                    u1880 2532  
                                  u1881 252E                                    u1970 27F4  
                                  u1890 2544                                    u1971 27F0  
                                  u1891 2540                                    u1980 2814  
                                  u1981 2810                                    u1965 2790  
                                  u1990 2826                                    u1991 2822  
                                  _PIR1 0004AF                                    _PIR3 0004B1  
                                  i2l83 3F40                                    _TMR0 000318  
            __end_of_FM_Lcd_Send_Nibble 3CA8                       ?_FM_Hfintosc_Init 0501  
                                  _dbuf 056A                                    _atoi 32D6  
                                  _main 3642            FM_Lcd_Send_Nibble@upper_bits 0503  
                                  _prec 0564                                    _nout 0560  
                                  pad@i 0518                                    pad@p 0515  
                                  fsr1h 0004E2                                    fsr2h 0004DA  
                                  indf1 0004E7                                    indf2 0004DF  
                                  fsr1l 0004E1                                    pad@w 051A  
                                  fsr2l 0004D9                      ??_FM_Hfintosc_Init 0503  
            __end_of_FM_Lcd_Send_String 3C34                                    _utoa 30D4  
               ??_FM_Lcd_Send_Character 0505                                    prodh 0004F4  
                                  prodl 0004F3                                    start 001A  
FM_Lcd_Send_Character@character_to_send 0505                         ___fldiv@new_exp 0520  
                  __size_of_System_Init 001A                   _FM_Lcd_Easy_Gpio_Init 4060  
                          ___param_bank 000000                                   ??_pad 0517  
              __end_of_Init_ADCC_Module 3E80                       ?_Init_Gpio_System 0501  
             __size_of_FM_Lcd_Easy_Init 0042                       ??_Init_Interrupts 0501  
                         ___fltol@sign1 0549                                   _ADACQ 0003EE  
                                 ?_atoi 0508                                   ?_main 0501  
                                 _ADCLK 0003FA                                   _ADPCH 0003EC  
                       __end_of___fldiv 30D4                                   _ADREF 0003F8  
                                 _ADPRE 0003F1                         __end_of___flmul 2966  
                       __end_of___fltol 3852                                   ?_utoa 051C  
           __end_of_FM_Lcd_Send_Command 407A                         __end_of___lodiv 3942  
                       __end_of___lomod 3AEA                      ??_Init_Gpio_System 0501  
                          vfpfcnvrt@fmt 053E                            vfpfcnvrt@llu 0546  
                                 _TRISA 0004C6                                   _TRISF 0004CB  
                      __end_of_TMR0_ISR 3F42        Init_Internal_Oscillator@my_clock 0504  
                                 _flags 0566                                   _fputc 3942  
                                 _fputs 3DB6                         __end_of_isdigit 3FB4  
                                 atoi@n 0515                                   pad@fp 0511  
                                 atoi@s 0508                                   _width 0562  
                                 _putch 4090                         __end_of_isspace 3DB6  
                                 tablat 0004F5           __size_of_Init_Timer0_As_Timer 001E  
                                 utoa@d 051E                                   utoa@i 053A  
                                 utoa@n 0532                                   utoa@p 052E  
                                 utoa@w 0530                                   status 0004D8  
                       __end_of_sprintf 3D64                        ___lodiv@dividend 0501  
                       __initialization 3FDE                            __end_of_atoi 348E  
                          __end_of_main 374C                            __end_of_utoa 32D6  
                                ??_atoi 050A                                  ??_main 05A2  
                                ??_utoa 0526                           __activetblptr 000003  
                      ___lodiv@quotient 0511                                  _ADCON0 0003F3  
                                _ADCON1 0003F4                                  _ADCON2 0003F5  
                                ?_fputc 0501                                  ?_fputs 050A  
                                _ADRESH 0003EB                                  _ADRESL 0003EA  
                                _ANSELA 000400                                  ?_putch 0501  
                                _ANSELF 000428                                  _T0CON0 00031A  
                                _T0CON1 00031B                                  i2l2721 3F38  
                                i2l2713 3F02                                  i2l2723 3F3E  
                                i2l2715 3F10                                  i2l2717 3F2C  
                                i2l2719 3F34                           vfpfcnvrt@done 054E  
                      __end_of___xxtofl 3642                  ?_FM_Lcd_Easy_Gpio_Init 0501  
                          vfprintf@cfmt 0558                                  ___wmul 3FB4  
                             ??___fldiv 0517                               ??___flmul 0530  
                             ??___fltol 0545                               ??___lodiv 0511  
                             ??___lomod 0511                                  clear_0 3FE4  
                                isa$std 000001                                  pad@buf 0513  
                                _strlen 3F42                                  fputc@c 0501  
                                fputs@c 050E                                  fputs@i 050F  
                                fputs@s 050A                               ??_isdigit 0503  
                          __mediumconst 0000                               ??_isspace 0503  
                                tblptrh 0004F7                                  tblptrl 0004F6  
                                tblptru 0004F8                                  putch@c 0501  
                      __end_of_vfprintf 3D12                                  utoa@fp 051C  
                             ??_sprintf 0560                            ___xxtofl@arg 050B  
                          ___xxtofl@exp 050A                            ___xxtofl@val 0501  
                            __accesstop 0560                 __end_of__initialization 3FF8  
                         ___rparam_used 000001                              ___fltol@f1 0541  
                        __pcstackCOMRAM 0501                               ?_TMR0_ISR 0501  
                         __end_of_fputc 3A1A                           __end_of_fputs 3DFA  
                         __end_of_putch 4092                        _FM_Lcd_Easy_Init 3E80  
          FM_Hfintosc_Init@clock_params 0501                                 ??_fputc 0505  
                               ??_fputs 050E                                 ??_putch 0501  
                            __pbssBANK5 0560                                 IVTBASEH 00045E  
                               IVTBASEL 00045D                                 IVTBASEU 00045F  
        __size_of_FM_Lcd_Send_Character 000C                         _Init_Interrupts 404C  
         __end_of_FM_Lcd_Send_Character 4086                      _FM_Lcd_Send_Nibble 3C34  
                               ?___wmul 0501                              ??_TMR0_ISR 0501  
             __size_of_FM_Hfintosc_Init 0040       __size_of_Init_Internal_Oscillator 0016  
                    _FM_Lcd_Send_String 3BB0               ?_Init_Internal_Oscillator 0501  
                     ?_Init_ADCC_Module 0501                                 ?_strlen 0501  
                   ?_FM_Lcd_Send_Nibble 0501                      ??_Init_ADCC_Module 0501  
                               _INTCON0 0004D6                               ?___xxtofl 0501  
                   ?_FM_Lcd_Send_String 0506                      __size_of_vfpfcnvrt 03D4  
                      ___lomod@dividend 0501               __size_of_Init_Gpio_System 000A  
                  ??_FM_Lcd_Send_Nibble 0501                           ??_System_Init 0508  
                  ??_FM_Lcd_Send_String 0508                                 __Hparam 0000  
                               __Lparam 0000                                 ___fldiv 2D3A  
                               ___flmul 2518                                 ___fltol 374C  
                       __size_of___wmul 002A                                 ___lodiv 3852  
                               ___lomod 3A1A                               ?_vfprintf 0552  
                          __psmallconst 2500            __end_of_Init_Timer0_As_Timer 401C  
                               __pcinit 3FDE                                 __ramtop 2500  
                               __ptext0 3642                                 __ptext1 3D12  
                               __ptext2 3CA8                                 __ptext3 2966  
                               __ptext4 30D4                                 __ptext5 3AEA  
                               __ptext6 3F42                                 __ptext7 3DB6  
                               __ptext8 3942                                 __ptext9 4090  
                       __size_of_strlen 003A                            __size_of_pad 00C6  
                               _isdigit 3F7C                              ??___xxtofl 0505  
                               _isspace 3D64                                 atoi@neg 050E  
                               _sprintf 3D12            __size_of_FM_Lcd_Send_Command 000C  
                  end_of_initialization 3FF8                 __end_of_Init_Interrupts 4060  
               ??_FM_Lcd_Easy_Gpio_Init 0501                                 fputc@fp 0503  
                               fputs@fp 050C                       __end_of_vfpfcnvrt 2D3A  
                               postdec2 0004DD                                 postinc0 0004EE  
                               postinc1 0004E6                                 postinc2 0004DE  
                   __end_of_System_Init 4036                              ??_vfprintf 0558  
                               strlen@a 0503                                 strlen@s 0501  
                FM_Lcd_Set_Cursor@filas 0507                           ___xxtofl@sign 0509  
                           ___fldiv@grs 0522                             ___fldiv@rem 051B  
                           ___flmul@grs 0535                __end_of_FM_Lcd_Easy_Init 3EC2  
             FM_Lcd_Set_Cursor@base_pos 0508                        _FM_Hfintosc_Init 3EC2  
                           vfpfcnvrt@ap 0540                             vfpfcnvrt@fp 053C  
                        __end_of___wmul 3FDE                       __size_of_TMR0_ISR 0040  
                        __end_of_strlen 3F7C                     start_initialization 3FDE  
                       ___lodiv@divisor 0509                         ___lodiv@counter 0519  
                           __end_of_pad 3BB0                              ivt0x8_base 0008  
                      _Init_Gpio_System 4086                        ?_Init_Interrupts 0501  
                  _Init_Timer0_As_Timer 3FFE                FM_Lcd_Send_String@cadena 0506  
      __end_of_Init_Internal_Oscillator 404C                             _System_Init 401C  
                           vfprintf@fmt 0554                                ??___wmul 0505  
                              ??_strlen 0503                               ___fldiv@a 0513  
                             ___fldiv@b 050F                               ___flmul@a 052C  
                             ___flmul@b 0528                           __pcstackBANK5 059A  
                     __size_of___xxtofl 01B4               __size_of_Init_ADCC_Module 0042  
                 ?_Init_Timer0_As_Timer 0501                   _FM_Lcd_Send_Character 407A  
                              ?___fldiv 050F                                ?___flmul 0528  
                   _FM_Lcd_Send_Command 406E                                ?___fltol 0541  
                              ?___lodiv 0501                       _FM_Lcd_Set_Cursor 3DFA  
                              ?___lomod 0501                      ?_FM_Lcd_Set_Cursor 0506  
                     __size_of_vfprintf 006A      FM_Lcd_Send_Command@command_to_send 0505  
                       ___lomod@divisor 0509                             __smallconst 2500  
                       ___lomod@counter 0511                                ?_isdigit 0501  
                              ?_isspace 0501                     ??_FM_Lcd_Set_Cursor 0507  
                  ?_FM_Lcd_Send_Command 0501                                ?_sprintf 055A  
                        __size_of_fputc 00D8                          __size_of_fputs 0044  
                        __size_of_putch 0002                          ___wmul@product 0505  
           __size_of_FM_Lcd_Send_Nibble 0074          __size_of_FM_Lcd_Easy_Gpio_Init 000E  
         __end_of_FM_Lcd_Easy_Gpio_Init 406E             __size_of_FM_Lcd_Send_String 0084  
                              i2u224_40 3F10                                i2u224_41 3F0C  
                              i2u225_40 3F2C                                i2u225_41 3F28  
                              _PIR3bits 0004B1               __end_of_FM_Lcd_Set_Cursor 3E3E  
              _Init_Internal_Oscillator 4036                                _TMR0_ISR 3F02  
                             _vfpfcnvrt 2966                       ___wmul@multiplier 0501  
                 ??_FM_Lcd_Send_Command 0505                  ??_Init_Timer0_As_Timer 0501  
              __end_of_FM_Hfintosc_Init 3F02                       ?_FM_Lcd_Easy_Init 0501  
                    ??_FM_Lcd_Easy_Init 0506                 FM_Lcd_Send_String@index 050A  
                              __Hrparam 0000                  ?_FM_Lcd_Send_Character 0501  
                            vfprintf@ap 0556                                __Lrparam 0000  
                            vfprintf@fp 0552                        __size_of___fldiv 039A  
                      __size_of___flmul 044E                        __size_of___fltol 0106  
                      __size_of___lodiv 00F0                        __size_of___lomod 00D0  
                            ?_vfpfcnvrt 053C                __end_of_Init_Gpio_System 4090  
                            sprintf@fmt 055C                                ___xxtofl 348E  
                              _atoi$871 0510                                _atoi$872 0514  
                              _atoi$873 0512                        __size_of_isdigit 0038  
                              __pivt0x8 0008                        __size_of_isspace 0052  
                              __ptext10 3A1A                                __ptext11 3852  
                              __ptext20 401C                                __ptext12 32D6  
                              __ptext21 3FFE                                __ptext13 3D64  
                              __ptext30 406E                                __ptext22 404C  
                              __ptext14 3F7C                                __ptext31 3BB0  
                              __ptext23 4036                                __ptext15 3FB4  
                              __ptext32 407A                                __ptext24 3EC2  
                              __ptext16 348E                                __ptext33 3C34  
                              __ptext25 4086                                __ptext17 374C  
                              __ptext34 3F02                                __ptext26 3E3E  
                              __ptext18 2518                                __ptext27 3E80  
                              __ptext19 2D3A                                __ptext28 4060  
                              __ptext29 3DFA                        _Init_ADCC_Module 3E3E  
                      __size_of_sprintf 0052                             _OSCCON1bits 0000AD  
                         __size_of_atoi 01B8                           __size_of_main 010A  
                       main@val_percent 05A6                           __size_of_utoa 0202  
                          ?_System_Init 0501              __size_of_FM_Lcd_Set_Cursor 0044  
                              isa$xinst 000000                                _vfprintf 3CA8  
                           _isspace$889 0507                                isdigit@c 0501  
                              intlevel2 0000                               sprintf@ap 059A  
                              isspace@c 0501          FM_Lcd_Send_Nibble@byte_to_send 0502  
                      _timer0_1sec_cont 0568                __size_of_Init_Interrupts 0014  
                            _OSCFRQbits 0000B1                             ??_vfpfcnvrt 0542  
                         _vfpfcnvrt$853 0550                                sprintf@f 059C  
                              sprintf@s 055A                FM_Lcd_Set_Cursor@columna 0506  
            ??_Init_Internal_Oscillator 0504            FM_Lcd_Send_Nibble@lower_bits 0504  
